ARM GAS  /tmp/cczCOgnR.s 			page 1


   1              		.cpu cortex-m4
   2              		.eabi_attribute 27, 1
   3              		.eabi_attribute 28, 1
   4              		.eabi_attribute 23, 1
   5              		.eabi_attribute 24, 1
   6              		.eabi_attribute 25, 1
   7              		.eabi_attribute 26, 1
   8              		.eabi_attribute 30, 2
   9              		.eabi_attribute 34, 1
  10              		.eabi_attribute 18, 4
  11              		.file	"bsp_driver_sd.c"
  12              		.section	.text.BSP_SD_Init,"ax",%progbits
  13              		.align	1
  14              		.p2align 2,,3
  15              		.global	BSP_SD_Init
  16              		.syntax unified
  17              		.thumb
  18              		.thumb_func
  19              		.fpu fpv4-sp-d16
  21              	BSP_SD_Init:
  22              		@ args = 0, pretend = 0, frame = 8
  23              		@ frame_needed = 0, uses_anonymous_args = 0
  24 0000 00B5     		push	{lr}
  25 0002 83B0     		sub	sp, sp, #12
  26 0004 0120     		movs	r0, #1
  27 0006 8DF80700 		strb	r0, [sp, #7]
  28 000a 9DF80730 		ldrb	r3, [sp, #7]	@ zero_extendqisi2
  29 000e 8342     		cmp	r3, r0
  30 0010 02D0     		beq	.L6
  31              	.L2:
  32 0012 03B0     		add	sp, sp, #12
  33              		@ sp needed
  34 0014 5DF804FB 		ldr	pc, [sp], #4
  35              	.L6:
  36 0018 0749     		ldr	r1, .L7
  37 001a 0848     		ldr	r0, .L7+4
  38 001c FFF7FEFF 		bl	HAL_SD_Init
  39 0020 0028     		cmp	r0, #0
  40 0022 F6D1     		bne	.L2
  41 0024 4FF40061 		mov	r1, #2048
  42 0028 0448     		ldr	r0, .L7+4
  43 002a FFF7FEFF 		bl	HAL_SD_WideBusOperation_Config
  44 002e 0030     		adds	r0, r0, #0
  45 0030 18BF     		it	ne
  46 0032 0120     		movne	r0, #1
  47 0034 EDE7     		b	.L2
  48              	.L8:
  49 0036 00BF     		.align	2
  50              	.L7:
  51 0038 00000000 		.word	SDCardInfo
  52 003c 00000000 		.word	hsd
  54              		.section	.text.BSP_SD_ITConfig,"ax",%progbits
  55              		.align	1
  56              		.p2align 2,,3
  57              		.global	BSP_SD_ITConfig
  58              		.syntax unified
  59              		.thumb
ARM GAS  /tmp/cczCOgnR.s 			page 2


  60              		.thumb_func
  61              		.fpu fpv4-sp-d16
  63              	BSP_SD_ITConfig:
  64              		@ args = 0, pretend = 0, frame = 0
  65              		@ frame_needed = 0, uses_anonymous_args = 0
  66              		@ link register save eliminated.
  67 0000 0020     		movs	r0, #0
  68 0002 7047     		bx	lr
  70              		.section	.text.BSP_SD_DetectIT,"ax",%progbits
  71              		.align	1
  72              		.p2align 2,,3
  73              		.global	BSP_SD_DetectIT
  74              		.syntax unified
  75              		.thumb
  76              		.thumb_func
  77              		.fpu fpv4-sp-d16
  79              	BSP_SD_DetectIT:
  80              		@ args = 0, pretend = 0, frame = 0
  81              		@ frame_needed = 0, uses_anonymous_args = 0
  82              		@ link register save eliminated.
  83 0000 7047     		bx	lr
  85 0002 00BF     		.section	.text.BSP_SD_DetectCallback,"ax",%progbits
  86              		.align	1
  87              		.p2align 2,,3
  88              		.weak	BSP_SD_DetectCallback
  89              		.syntax unified
  90              		.thumb
  91              		.thumb_func
  92              		.fpu fpv4-sp-d16
  94              	BSP_SD_DetectCallback:
  95              		@ args = 0, pretend = 0, frame = 0
  96              		@ frame_needed = 0, uses_anonymous_args = 0
  97              		@ link register save eliminated.
  98 0000 7047     		bx	lr
 100 0002 00BF     		.section	.text.BSP_SD_ReadBlocks,"ax",%progbits
 101              		.align	1
 102              		.p2align 2,,3
 103              		.global	BSP_SD_ReadBlocks
 104              		.syntax unified
 105              		.thumb
 106              		.thumb_func
 107              		.fpu fpv4-sp-d16
 109              	BSP_SD_ReadBlocks:
 110              		@ args = 8, pretend = 0, frame = 0
 111              		@ frame_needed = 0, uses_anonymous_args = 0
 112 0000 10B5     		push	{r4, lr}
 113 0002 82B0     		sub	sp, sp, #8
 114 0004 0499     		ldr	r1, [sp, #16]
 115 0006 059C     		ldr	r4, [sp, #20]
 116 0008 0091     		str	r1, [sp]
 117 000a 0194     		str	r4, [sp, #4]
 118 000c 0146     		mov	r1, r0
 119 000e 0448     		ldr	r0, .L14
 120 0010 FFF7FEFF 		bl	HAL_SD_ReadBlocks
 121 0014 0030     		adds	r0, r0, #0
 122 0016 18BF     		it	ne
 123 0018 0120     		movne	r0, #1
ARM GAS  /tmp/cczCOgnR.s 			page 3


 124 001a 02B0     		add	sp, sp, #8
 125              		@ sp needed
 126 001c 10BD     		pop	{r4, pc}
 127              	.L15:
 128 001e 00BF     		.align	2
 129              	.L14:
 130 0020 00000000 		.word	hsd
 132              		.section	.text.BSP_SD_WriteBlocks,"ax",%progbits
 133              		.align	1
 134              		.p2align 2,,3
 135              		.global	BSP_SD_WriteBlocks
 136              		.syntax unified
 137              		.thumb
 138              		.thumb_func
 139              		.fpu fpv4-sp-d16
 141              	BSP_SD_WriteBlocks:
 142              		@ args = 8, pretend = 0, frame = 0
 143              		@ frame_needed = 0, uses_anonymous_args = 0
 144 0000 10B5     		push	{r4, lr}
 145 0002 82B0     		sub	sp, sp, #8
 146 0004 0499     		ldr	r1, [sp, #16]
 147 0006 059C     		ldr	r4, [sp, #20]
 148 0008 0091     		str	r1, [sp]
 149 000a 0194     		str	r4, [sp, #4]
 150 000c 0146     		mov	r1, r0
 151 000e 0448     		ldr	r0, .L18
 152 0010 FFF7FEFF 		bl	HAL_SD_WriteBlocks
 153 0014 0030     		adds	r0, r0, #0
 154 0016 18BF     		it	ne
 155 0018 0120     		movne	r0, #1
 156 001a 02B0     		add	sp, sp, #8
 157              		@ sp needed
 158 001c 10BD     		pop	{r4, pc}
 159              	.L19:
 160 001e 00BF     		.align	2
 161              	.L18:
 162 0020 00000000 		.word	hsd
 164              		.section	.text.BSP_SD_ReadBlocks_DMA,"ax",%progbits
 165              		.align	1
 166              		.p2align 2,,3
 167              		.global	BSP_SD_ReadBlocks_DMA
 168              		.syntax unified
 169              		.thumb
 170              		.thumb_func
 171              		.fpu fpv4-sp-d16
 173              	BSP_SD_ReadBlocks_DMA:
 174              		@ args = 8, pretend = 0, frame = 0
 175              		@ frame_needed = 0, uses_anonymous_args = 0
 176 0000 10B5     		push	{r4, lr}
 177 0002 82B0     		sub	sp, sp, #8
 178 0004 0499     		ldr	r1, [sp, #16]
 179 0006 059C     		ldr	r4, [sp, #20]
 180 0008 0091     		str	r1, [sp]
 181 000a 0194     		str	r4, [sp, #4]
 182 000c 0146     		mov	r1, r0
 183 000e 0848     		ldr	r0, .L25
 184 0010 FFF7FEFF 		bl	HAL_SD_ReadBlocks_DMA
ARM GAS  /tmp/cczCOgnR.s 			page 4


 185 0014 10B1     		cbz	r0, .L21
 186 0016 0120     		movs	r0, #1
 187 0018 02B0     		add	sp, sp, #8
 188              		@ sp needed
 189 001a 10BD     		pop	{r4, pc}
 190              	.L21:
 191 001c 0549     		ldr	r1, .L25+4
 192 001e 0448     		ldr	r0, .L25
 193 0020 FFF7FEFF 		bl	HAL_SD_CheckReadOperation
 194 0024 0030     		adds	r0, r0, #0
 195 0026 18BF     		it	ne
 196 0028 0120     		movne	r0, #1
 197 002a 02B0     		add	sp, sp, #8
 198              		@ sp needed
 199 002c 10BD     		pop	{r4, pc}
 200              	.L26:
 201 002e 00BF     		.align	2
 202              	.L25:
 203 0030 00000000 		.word	hsd
 204 0034 00E1F505 		.word	100000000
 206              		.section	.text.BSP_SD_WriteBlocks_DMA,"ax",%progbits
 207              		.align	1
 208              		.p2align 2,,3
 209              		.global	BSP_SD_WriteBlocks_DMA
 210              		.syntax unified
 211              		.thumb
 212              		.thumb_func
 213              		.fpu fpv4-sp-d16
 215              	BSP_SD_WriteBlocks_DMA:
 216              		@ args = 8, pretend = 0, frame = 0
 217              		@ frame_needed = 0, uses_anonymous_args = 0
 218 0000 10B5     		push	{r4, lr}
 219 0002 82B0     		sub	sp, sp, #8
 220 0004 0499     		ldr	r1, [sp, #16]
 221 0006 059C     		ldr	r4, [sp, #20]
 222 0008 0091     		str	r1, [sp]
 223 000a 0194     		str	r4, [sp, #4]
 224 000c 0146     		mov	r1, r0
 225 000e 0848     		ldr	r0, .L32
 226 0010 FFF7FEFF 		bl	HAL_SD_WriteBlocks_DMA
 227 0014 10B1     		cbz	r0, .L28
 228 0016 0120     		movs	r0, #1
 229 0018 02B0     		add	sp, sp, #8
 230              		@ sp needed
 231 001a 10BD     		pop	{r4, pc}
 232              	.L28:
 233 001c 0549     		ldr	r1, .L32+4
 234 001e 0448     		ldr	r0, .L32
 235 0020 FFF7FEFF 		bl	HAL_SD_CheckWriteOperation
 236 0024 0030     		adds	r0, r0, #0
 237 0026 18BF     		it	ne
 238 0028 0120     		movne	r0, #1
 239 002a 02B0     		add	sp, sp, #8
 240              		@ sp needed
 241 002c 10BD     		pop	{r4, pc}
 242              	.L33:
 243 002e 00BF     		.align	2
ARM GAS  /tmp/cczCOgnR.s 			page 5


 244              	.L32:
 245 0030 00000000 		.word	hsd
 246 0034 00E1F505 		.word	100000000
 248              		.section	.text.BSP_SD_Erase,"ax",%progbits
 249              		.align	1
 250              		.p2align 2,,3
 251              		.global	BSP_SD_Erase
 252              		.syntax unified
 253              		.thumb
 254              		.thumb_func
 255              		.fpu fpv4-sp-d16
 257              	BSP_SD_Erase:
 258              		@ args = 0, pretend = 0, frame = 0
 259              		@ frame_needed = 0, uses_anonymous_args = 0
 260 0000 00B5     		push	{lr}
 261 0002 83B0     		sub	sp, sp, #12
 262 0004 CDE90023 		strd	r2, [sp]
 263 0008 0246     		mov	r2, r0
 264 000a 0B46     		mov	r3, r1
 265 000c 0448     		ldr	r0, .L36
 266 000e FFF7FEFF 		bl	HAL_SD_Erase
 267 0012 0030     		adds	r0, r0, #0
 268 0014 18BF     		it	ne
 269 0016 0120     		movne	r0, #1
 270 0018 03B0     		add	sp, sp, #12
 271              		@ sp needed
 272 001a 5DF804FB 		ldr	pc, [sp], #4
 273              	.L37:
 274 001e 00BF     		.align	2
 275              	.L36:
 276 0020 00000000 		.word	hsd
 278              		.section	.text.BSP_SD_IRQHandler,"ax",%progbits
 279              		.align	1
 280              		.p2align 2,,3
 281              		.global	BSP_SD_IRQHandler
 282              		.syntax unified
 283              		.thumb
 284              		.thumb_func
 285              		.fpu fpv4-sp-d16
 287              	BSP_SD_IRQHandler:
 288              		@ args = 0, pretend = 0, frame = 0
 289              		@ frame_needed = 0, uses_anonymous_args = 0
 290              		@ link register save eliminated.
 291 0000 0148     		ldr	r0, .L39
 292 0002 FFF7FEBF 		b	HAL_SD_IRQHandler
 293              	.L40:
 294 0006 00BF     		.align	2
 295              	.L39:
 296 0008 00000000 		.word	hsd
 298              		.section	.text.BSP_SD_DMA_Tx_IRQHandler,"ax",%progbits
 299              		.align	1
 300              		.p2align 2,,3
 301              		.global	BSP_SD_DMA_Tx_IRQHandler
 302              		.syntax unified
 303              		.thumb
 304              		.thumb_func
 305              		.fpu fpv4-sp-d16
ARM GAS  /tmp/cczCOgnR.s 			page 6


 307              	BSP_SD_DMA_Tx_IRQHandler:
 308              		@ args = 0, pretend = 0, frame = 0
 309              		@ frame_needed = 0, uses_anonymous_args = 0
 310              		@ link register save eliminated.
 311 0000 014B     		ldr	r3, .L42
 312 0002 D86D     		ldr	r0, [r3, #92]
 313 0004 FFF7FEBF 		b	HAL_DMA_IRQHandler
 314              	.L43:
 315              		.align	2
 316              	.L42:
 317 0008 00000000 		.word	hsd
 319              		.section	.text.BSP_SD_DMA_Rx_IRQHandler,"ax",%progbits
 320              		.align	1
 321              		.p2align 2,,3
 322              		.global	BSP_SD_DMA_Rx_IRQHandler
 323              		.syntax unified
 324              		.thumb
 325              		.thumb_func
 326              		.fpu fpv4-sp-d16
 328              	BSP_SD_DMA_Rx_IRQHandler:
 329              		@ args = 0, pretend = 0, frame = 0
 330              		@ frame_needed = 0, uses_anonymous_args = 0
 331              		@ link register save eliminated.
 332 0000 014B     		ldr	r3, .L45
 333 0002 986D     		ldr	r0, [r3, #88]
 334 0004 FFF7FEBF 		b	HAL_DMA_IRQHandler
 335              	.L46:
 336              		.align	2
 337              	.L45:
 338 0008 00000000 		.word	hsd
 340              		.section	.text.BSP_SD_GetStatus,"ax",%progbits
 341              		.align	1
 342              		.p2align 2,,3
 343              		.global	BSP_SD_GetStatus
 344              		.syntax unified
 345              		.thumb
 346              		.thumb_func
 347              		.fpu fpv4-sp-d16
 349              	BSP_SD_GetStatus:
 350              		@ args = 0, pretend = 0, frame = 0
 351              		@ frame_needed = 0, uses_anonymous_args = 0
 352              		@ link register save eliminated.
 353 0000 0148     		ldr	r0, .L48
 354 0002 FFF7FEBF 		b	HAL_SD_GetStatus
 355              	.L49:
 356 0006 00BF     		.align	2
 357              	.L48:
 358 0008 00000000 		.word	hsd
 360              		.section	.text.BSP_SD_GetCardInfo,"ax",%progbits
 361              		.align	1
 362              		.p2align 2,,3
 363              		.global	BSP_SD_GetCardInfo
 364              		.syntax unified
 365              		.thumb
 366              		.thumb_func
 367              		.fpu fpv4-sp-d16
 369              	BSP_SD_GetCardInfo:
ARM GAS  /tmp/cczCOgnR.s 			page 7


 370              		@ args = 0, pretend = 0, frame = 0
 371              		@ frame_needed = 0, uses_anonymous_args = 0
 372              		@ link register save eliminated.
 373 0000 0146     		mov	r1, r0
 374 0002 0148     		ldr	r0, .L51
 375 0004 FFF7FEBF 		b	HAL_SD_Get_CardInfo
 376              	.L52:
 377              		.align	2
 378              	.L51:
 379 0008 00000000 		.word	hsd
 381              		.section	.text.BSP_SD_IsDetected,"ax",%progbits
 382              		.align	1
 383              		.p2align 2,,3
 384              		.global	BSP_SD_IsDetected
 385              		.syntax unified
 386              		.thumb
 387              		.thumb_func
 388              		.fpu fpv4-sp-d16
 390              	BSP_SD_IsDetected:
 391              		@ args = 0, pretend = 0, frame = 8
 392              		@ frame_needed = 0, uses_anonymous_args = 0
 393              		@ link register save eliminated.
 394 0000 82B0     		sub	sp, sp, #8
 395 0002 0123     		movs	r3, #1
 396 0004 8DF80730 		strb	r3, [sp, #7]
 397 0008 9DF80700 		ldrb	r0, [sp, #7]	@ zero_extendqisi2
 398 000c 02B0     		add	sp, sp, #8
 399              		@ sp needed
 400 000e 7047     		bx	lr
 402              		.ident	"GCC: (Arch Repository) 6.3.0"
ARM GAS  /tmp/cczCOgnR.s 			page 8


DEFINED SYMBOLS
                            *ABS*:0000000000000000 bsp_driver_sd.c
     /tmp/cczCOgnR.s:13     .text.BSP_SD_Init:0000000000000000 $t
     /tmp/cczCOgnR.s:21     .text.BSP_SD_Init:0000000000000000 BSP_SD_Init
     /tmp/cczCOgnR.s:51     .text.BSP_SD_Init:0000000000000038 $d
     /tmp/cczCOgnR.s:55     .text.BSP_SD_ITConfig:0000000000000000 $t
     /tmp/cczCOgnR.s:63     .text.BSP_SD_ITConfig:0000000000000000 BSP_SD_ITConfig
     /tmp/cczCOgnR.s:71     .text.BSP_SD_DetectIT:0000000000000000 $t
     /tmp/cczCOgnR.s:79     .text.BSP_SD_DetectIT:0000000000000000 BSP_SD_DetectIT
     /tmp/cczCOgnR.s:86     .text.BSP_SD_DetectCallback:0000000000000000 $t
     /tmp/cczCOgnR.s:94     .text.BSP_SD_DetectCallback:0000000000000000 BSP_SD_DetectCallback
     /tmp/cczCOgnR.s:101    .text.BSP_SD_ReadBlocks:0000000000000000 $t
     /tmp/cczCOgnR.s:109    .text.BSP_SD_ReadBlocks:0000000000000000 BSP_SD_ReadBlocks
     /tmp/cczCOgnR.s:130    .text.BSP_SD_ReadBlocks:0000000000000020 $d
     /tmp/cczCOgnR.s:133    .text.BSP_SD_WriteBlocks:0000000000000000 $t
     /tmp/cczCOgnR.s:141    .text.BSP_SD_WriteBlocks:0000000000000000 BSP_SD_WriteBlocks
     /tmp/cczCOgnR.s:162    .text.BSP_SD_WriteBlocks:0000000000000020 $d
     /tmp/cczCOgnR.s:165    .text.BSP_SD_ReadBlocks_DMA:0000000000000000 $t
     /tmp/cczCOgnR.s:173    .text.BSP_SD_ReadBlocks_DMA:0000000000000000 BSP_SD_ReadBlocks_DMA
     /tmp/cczCOgnR.s:203    .text.BSP_SD_ReadBlocks_DMA:0000000000000030 $d
     /tmp/cczCOgnR.s:207    .text.BSP_SD_WriteBlocks_DMA:0000000000000000 $t
     /tmp/cczCOgnR.s:215    .text.BSP_SD_WriteBlocks_DMA:0000000000000000 BSP_SD_WriteBlocks_DMA
     /tmp/cczCOgnR.s:245    .text.BSP_SD_WriteBlocks_DMA:0000000000000030 $d
     /tmp/cczCOgnR.s:249    .text.BSP_SD_Erase:0000000000000000 $t
     /tmp/cczCOgnR.s:257    .text.BSP_SD_Erase:0000000000000000 BSP_SD_Erase
     /tmp/cczCOgnR.s:276    .text.BSP_SD_Erase:0000000000000020 $d
     /tmp/cczCOgnR.s:279    .text.BSP_SD_IRQHandler:0000000000000000 $t
     /tmp/cczCOgnR.s:287    .text.BSP_SD_IRQHandler:0000000000000000 BSP_SD_IRQHandler
     /tmp/cczCOgnR.s:296    .text.BSP_SD_IRQHandler:0000000000000008 $d
     /tmp/cczCOgnR.s:299    .text.BSP_SD_DMA_Tx_IRQHandler:0000000000000000 $t
     /tmp/cczCOgnR.s:307    .text.BSP_SD_DMA_Tx_IRQHandler:0000000000000000 BSP_SD_DMA_Tx_IRQHandler
     /tmp/cczCOgnR.s:317    .text.BSP_SD_DMA_Tx_IRQHandler:0000000000000008 $d
     /tmp/cczCOgnR.s:320    .text.BSP_SD_DMA_Rx_IRQHandler:0000000000000000 $t
     /tmp/cczCOgnR.s:328    .text.BSP_SD_DMA_Rx_IRQHandler:0000000000000000 BSP_SD_DMA_Rx_IRQHandler
     /tmp/cczCOgnR.s:338    .text.BSP_SD_DMA_Rx_IRQHandler:0000000000000008 $d
     /tmp/cczCOgnR.s:341    .text.BSP_SD_GetStatus:0000000000000000 $t
     /tmp/cczCOgnR.s:349    .text.BSP_SD_GetStatus:0000000000000000 BSP_SD_GetStatus
     /tmp/cczCOgnR.s:358    .text.BSP_SD_GetStatus:0000000000000008 $d
     /tmp/cczCOgnR.s:361    .text.BSP_SD_GetCardInfo:0000000000000000 $t
     /tmp/cczCOgnR.s:369    .text.BSP_SD_GetCardInfo:0000000000000000 BSP_SD_GetCardInfo
     /tmp/cczCOgnR.s:379    .text.BSP_SD_GetCardInfo:0000000000000008 $d
     /tmp/cczCOgnR.s:382    .text.BSP_SD_IsDetected:0000000000000000 $t
     /tmp/cczCOgnR.s:390    .text.BSP_SD_IsDetected:0000000000000000 BSP_SD_IsDetected

UNDEFINED SYMBOLS
HAL_SD_Init
HAL_SD_WideBusOperation_Config
SDCardInfo
hsd
HAL_SD_ReadBlocks
HAL_SD_WriteBlocks
HAL_SD_ReadBlocks_DMA
HAL_SD_CheckReadOperation
HAL_SD_WriteBlocks_DMA
HAL_SD_CheckWriteOperation
HAL_SD_Erase
HAL_SD_IRQHandler
ARM GAS  /tmp/cczCOgnR.s 			page 9


HAL_DMA_IRQHandler
HAL_SD_GetStatus
HAL_SD_Get_CardInfo
