ARM GAS  /tmp/ccjLwS4u.s 			page 1


   1              		.cpu cortex-m4
   2              		.eabi_attribute 27, 1
   3              		.eabi_attribute 28, 1
   4              		.eabi_attribute 23, 1
   5              		.eabi_attribute 24, 1
   6              		.eabi_attribute 25, 1
   7              		.eabi_attribute 26, 1
   8              		.eabi_attribute 30, 2
   9              		.eabi_attribute 34, 1
  10              		.eabi_attribute 18, 4
  11              		.file	"controls_595.c"
  12              		.section	.text.controls_595_set,"ax",%progbits
  13              		.align	1
  14              		.p2align 2,,3
  15              		.global	controls_595_set
  16              		.syntax unified
  17              		.thumb
  18              		.thumb_func
  19              		.fpu fpv4-sp-d16
  21              	controls_595_set:
  22              		@ args = 0, pretend = 0, frame = 0
  23              		@ frame_needed = 0, uses_anonymous_args = 0
  24 0000 38B5     		push	{r3, r4, r5, lr}
  25 0002 0022     		movs	r2, #0
  26 0004 0546     		mov	r5, r0
  27 0006 0821     		movs	r1, #8
  28 0008 0F48     		ldr	r0, .L6
  29 000a FFF7FEFF 		bl	HAL_GPIO_WritePin
  30 000e 0724     		movs	r4, #7
  31              	.L2:
  32 0010 0022     		movs	r2, #0
  33 0012 1021     		movs	r1, #16
  34 0014 0C48     		ldr	r0, .L6
  35 0016 FFF7FEFF 		bl	HAL_GPIO_WritePin
  36 001a 25FA04F2 		lsr	r2, r5, r4
  37 001e 02F00102 		and	r2, r2, #1
  38 0022 2021     		movs	r1, #32
  39 0024 0848     		ldr	r0, .L6
  40 0026 FFF7FEFF 		bl	HAL_GPIO_WritePin
  41 002a 013C     		subs	r4, r4, #1
  42 002c 0122     		movs	r2, #1
  43 002e 1021     		movs	r1, #16
  44 0030 0548     		ldr	r0, .L6
  45 0032 FFF7FEFF 		bl	HAL_GPIO_WritePin
  46 0036 631C     		adds	r3, r4, #1
  47 0038 EAD1     		bne	.L2
  48 003a 0122     		movs	r2, #1
  49 003c 0821     		movs	r1, #8
  50 003e 0248     		ldr	r0, .L6
  51 0040 BDE83840 		pop	{r3, r4, r5, lr}
  52 0044 FFF7FEBF 		b	HAL_GPIO_WritePin
  53              	.L7:
  54              		.align	2
  55              	.L6:
  56 0048 00040240 		.word	1073873920
  58              		.section	.text.controls_595_init,"ax",%progbits
  59              		.align	1
ARM GAS  /tmp/ccjLwS4u.s 			page 2


  60              		.p2align 2,,3
  61              		.global	controls_595_init
  62              		.syntax unified
  63              		.thumb
  64              		.thumb_func
  65              		.fpu fpv4-sp-d16
  67              	controls_595_init:
  68              		@ args = 4, pretend = 0, frame = 40
  69              		@ frame_needed = 0, uses_anonymous_args = 0
  70 0000 2DE9F04F 		push	{r4, r5, r6, r7, r8, r9, r10, fp, lr}
  71 0004 524E     		ldr	r6, .L26
  72 0006 534C     		ldr	r4, .L26+4
  73 0008 3370     		strb	r3, [r6]
  74 000a 534B     		ldr	r3, .L26+8
  75 000c 2260     		str	r2, [r4]
  76 000e 8BB0     		sub	sp, sp, #44
  77 0010 524D     		ldr	r5, .L26+12
  78 0012 534C     		ldr	r4, .L26+16
  79 0014 1970     		strb	r1, [r3]
  80 0016 4B1E     		subs	r3, r1, #1
  81 0018 149A     		ldr	r2, [sp, #80]
  82 001a 0393     		str	r3, [sp, #12]
  83 001c 0023     		movs	r3, #0
  84 001e 8146     		mov	r9, r0
  85 0020 0191     		str	r1, [sp, #4]
  86 0022 2860     		str	r0, [r5]
  87 0024 2260     		str	r2, [r4]
  88 0026 0293     		str	r3, [sp, #8]
  89              	.L9:
  90 0028 029B     		ldr	r3, [sp, #8]
  91 002a 039A     		ldr	r2, [sp, #12]
  92 002c 9342     		cmp	r3, r2
  93 002e 3ADA     		bge	.L25
  94              	.L14:
  95 0030 0199     		ldr	r1, [sp, #4]
  96 0032 03EB430B 		add	fp, r3, r3, lsl #1
  97 0036 0133     		adds	r3, r3, #1
  98 0038 DBB2     		uxtb	r3, r3
  99 003a 09EBCB0B 		add	fp, r9, fp, lsl #3
 100 003e 0846     		mov	r0, r1
 101 0040 9842     		cmp	r0, r3
 102 0042 0293     		str	r3, [sp, #8]
 103 0044 BBF80E20 		ldrh	r2, [fp, #14]
 104 0048 EED9     		bls	.L9
 105 004a 1C46     		mov	r4, r3
 106              	.L12:
 107 004c 04EB4403 		add	r3, r4, r4, lsl #1
 108 0050 09EBC303 		add	r3, r9, r3, lsl #3
 109 0054 04AF     		add	r7, sp, #16
 110 0056 B3F80EA0 		ldrh	r10, [r3, #14]
 111 005a 0134     		adds	r4, r4, #1
 112 005c 9245     		cmp	r10, r2
 113 005e 5E46     		mov	r6, fp
 114 0060 BC46     		mov	ip, r7
 115 0062 1D46     		mov	r5, r3
 116 0064 9846     		mov	r8, r3
 117 0066 DE46     		mov	lr, fp
ARM GAS  /tmp/ccjLwS4u.s 			page 3


 118 0068 E4B2     		uxtb	r4, r4
 119 006a 15D2     		bcs	.L11
 120 006c 0FCD     		ldmia	r5!, {r0, r1, r2, r3}
 121 006e 0FC7     		stmia	r7!, {r0, r1, r2, r3}
 122 0070 95E80300 		ldm	r5, {r0, r1}
 123 0074 87E80300 		stm	r7, {r0, r1}
 124 0078 0FCE     		ldmia	r6!, {r0, r1, r2, r3}
 125 007a A8E80F00 		stmia	r8!, {r0, r1, r2, r3}
 126 007e 96E80300 		ldm	r6, {r0, r1}
 127 0082 85E80300 		stm	r5, {r0, r1}
 128 0086 BCE80F00 		ldmia	ip!, {r0, r1, r2, r3}
 129 008a AEE80F00 		stmia	lr!, {r0, r1, r2, r3}
 130 008e 97E80300 		ldm	r7, {r0, r1}
 131 0092 86E80300 		stm	r6, {r0, r1}
 132 0096 5246     		mov	r2, r10
 133              	.L11:
 134 0098 019B     		ldr	r3, [sp, #4]
 135 009a A342     		cmp	r3, r4
 136 009c D6D1     		bne	.L12
 137 009e 029B     		ldr	r3, [sp, #8]
 138 00a0 039A     		ldr	r2, [sp, #12]
 139 00a2 9342     		cmp	r3, r2
 140 00a4 C4DB     		blt	.L14
 141              	.L25:
 142 00a6 019B     		ldr	r3, [sp, #4]
 143 00a8 83B1     		cbz	r3, .L18
 144 00aa 2E4D     		ldr	r5, .L26+20
 145 00ac 0024     		movs	r4, #0
 146              	.L17:
 147 00ae 04EB4403 		add	r3, r4, r4, lsl #1
 148 00b2 09EBC303 		add	r3, r9, r3, lsl #3
 149 00b6 2846     		mov	r0, r5
 150 00b8 DA89     		ldrh	r2, [r3, #14]
 151 00ba 5968     		ldr	r1, [r3, #4]
 152 00bc FFF7FEFF 		bl	printf
 153 00c0 254B     		ldr	r3, .L26+8
 154 00c2 0134     		adds	r4, r4, #1
 155 00c4 1B78     		ldrb	r3, [r3]	@ zero_extendqisi2
 156 00c6 E4B2     		uxtb	r4, r4
 157 00c8 A342     		cmp	r3, r4
 158 00ca F0D8     		bhi	.L17
 159              	.L18:
 160 00cc 2648     		ldr	r0, .L26+24
 161 00ce 0022     		movs	r2, #0
 162 00d0 0821     		movs	r1, #8
 163 00d2 0546     		mov	r5, r0
 164 00d4 FFF7FEFF 		bl	HAL_GPIO_WritePin
 165 00d8 0824     		movs	r4, #8
 166              	.L16:
 167 00da 0022     		movs	r2, #0
 168 00dc 1021     		movs	r1, #16
 169 00de 2846     		mov	r0, r5
 170 00e0 FFF7FEFF 		bl	HAL_GPIO_WritePin
 171 00e4 0022     		movs	r2, #0
 172 00e6 2021     		movs	r1, #32
 173 00e8 2846     		mov	r0, r5
 174 00ea FFF7FEFF 		bl	HAL_GPIO_WritePin
ARM GAS  /tmp/ccjLwS4u.s 			page 4


 175 00ee 0122     		movs	r2, #1
 176 00f0 1021     		movs	r1, #16
 177 00f2 2846     		mov	r0, r5
 178 00f4 FFF7FEFF 		bl	HAL_GPIO_WritePin
 179 00f8 631E     		subs	r3, r4, #1
 180 00fa 13F0FF04 		ands	r4, r3, #255
 181 00fe ECD1     		bne	.L16
 182 0100 1948     		ldr	r0, .L26+24
 183 0102 0122     		movs	r2, #1
 184 0104 0821     		movs	r1, #8
 185 0106 0546     		mov	r5, r0
 186 0108 FFF7FEFF 		bl	HAL_GPIO_WritePin
 187 010c 2246     		mov	r2, r4
 188 010e 0821     		movs	r1, #8
 189 0110 2846     		mov	r0, r5
 190 0112 FFF7FEFF 		bl	HAL_GPIO_WritePin
 191 0116 0824     		movs	r4, #8
 192              	.L19:
 193 0118 0022     		movs	r2, #0
 194 011a 1021     		movs	r1, #16
 195 011c 2846     		mov	r0, r5
 196 011e FFF7FEFF 		bl	HAL_GPIO_WritePin
 197 0122 0022     		movs	r2, #0
 198 0124 2021     		movs	r1, #32
 199 0126 2846     		mov	r0, r5
 200 0128 FFF7FEFF 		bl	HAL_GPIO_WritePin
 201 012c 0122     		movs	r2, #1
 202 012e 1021     		movs	r1, #16
 203 0130 2846     		mov	r0, r5
 204 0132 FFF7FEFF 		bl	HAL_GPIO_WritePin
 205 0136 631E     		subs	r3, r4, #1
 206 0138 13F0FF04 		ands	r4, r3, #255
 207 013c ECD1     		bne	.L19
 208 013e 0A48     		ldr	r0, .L26+24
 209 0140 0122     		movs	r2, #1
 210 0142 0821     		movs	r1, #8
 211 0144 0BB0     		add	sp, sp, #44
 212              		@ sp needed
 213 0146 BDE8F04F 		pop	{r4, r5, r6, r7, r8, r9, r10, fp, lr}
 214 014a FFF7FEBF 		b	HAL_GPIO_WritePin
 215              	.L27:
 216 014e 00BF     		.align	2
 217              	.L26:
 218 0150 00000000 		.word	_controls_595_outs_len
 219 0154 00000000 		.word	_controls_595_outs
 220 0158 00000000 		.word	_controls_595_buttons_len
 221 015c 00000000 		.word	_controls_595_buttons
 222 0160 00000000 		.word	_controls_595_buttons_handler
 223 0164 00000000 		.word	.LC0
 224 0168 00040240 		.word	1073873920
 226              		.section	.text._controls_595_handle_button,"ax",%progbits
 227              		.align	1
 228              		.p2align 2,,3
 229              		.global	_controls_595_handle_button
 230              		.syntax unified
 231              		.thumb
 232              		.thumb_func
ARM GAS  /tmp/ccjLwS4u.s 			page 5


 233              		.fpu fpv4-sp-d16
 235              	_controls_595_handle_button:
 236              		@ args = 0, pretend = 0, frame = 0
 237              		@ frame_needed = 0, uses_anonymous_args = 0
 238 0000 10B5     		push	{r4, lr}
 239 0002 0446     		mov	r4, r0
 240 0004 8189     		ldrh	r1, [r0, #12]
 241 0006 8068     		ldr	r0, [r0, #8]
 242 0008 FFF7FEFF 		bl	HAL_GPIO_ReadPin
 243 000c 237C     		ldrb	r3, [r4, #16]	@ zero_extendqisi2
 244 000e 0033     		adds	r3, r3, #0
 245 0010 18BF     		it	ne
 246 0012 0123     		movne	r3, #1
 247 0014 8342     		cmp	r3, r0
 248 0016 637C     		ldrb	r3, [r4, #17]	@ zero_extendqisi2
 249 0018 15D0     		beq	.L49
 250 001a 03B9     		cbnz	r3, .L50
 251              	.L28:
 252 001c 10BD     		pop	{r4, pc}
 253              	.L50:
 254 001e 0023     		movs	r3, #0
 255 0020 6374     		strb	r3, [r4, #17]
 256 0022 FFF7FEFF 		bl	HAL_GetTick
 257 0026 6269     		ldr	r2, [r4, #20]
 258 0028 821A     		subs	r2, r0, r2
 259 002a B2F5967F 		cmp	r2, #300
 260 002e 1BD8     		bhi	.L51
 261 0030 1E2A     		cmp	r2, #30
 262 0032 F3D9     		bls	.L28
 263 0034 194B     		ldr	r3, .L53
 264 0036 1B68     		ldr	r3, [r3]
 265 0038 002B     		cmp	r3, #0
 266 003a EFD0     		beq	.L28
 267 003c 6068     		ldr	r0, [r4, #4]
 268 003e 0121     		movs	r1, #1
 269 0040 BDE81040 		pop	{r4, lr}
 270 0044 1847     		bx	r3	@ indirect register sibling call
 271              	.L49:
 272 0046 C3B1     		cbz	r3, .L52
 273 0048 FFF7FEFF 		bl	HAL_GetTick
 274 004c 6269     		ldr	r2, [r4, #20]
 275 004e 821A     		subs	r2, r0, r2
 276 0050 B2F5967F 		cmp	r2, #300
 277 0054 17D9     		bls	.L32
 278 0056 114B     		ldr	r3, .L53
 279 0058 1B68     		ldr	r3, [r3]
 280 005a 002B     		cmp	r3, #0
 281 005c DED0     		beq	.L28
 282 005e 6068     		ldr	r0, [r4, #4]
 283 0060 0821     		movs	r1, #8
 284 0062 BDE81040 		pop	{r4, lr}
 285 0066 1847     		bx	r3	@ indirect register sibling call
 286              	.L51:
 287 0068 0C4B     		ldr	r3, .L53
 288 006a 1B68     		ldr	r3, [r3]
 289 006c 002B     		cmp	r3, #0
 290 006e D5D0     		beq	.L28
ARM GAS  /tmp/ccjLwS4u.s 			page 6


 291 0070 6068     		ldr	r0, [r4, #4]
 292 0072 0421     		movs	r1, #4
 293 0074 BDE81040 		pop	{r4, lr}
 294 0078 1847     		bx	r3	@ indirect register sibling call
 295              	.L52:
 296 007a 0123     		movs	r3, #1
 297 007c 6374     		strb	r3, [r4, #17]
 298 007e FFF7FEFF 		bl	HAL_GetTick
 299 0082 6061     		str	r0, [r4, #20]
 300 0084 10BD     		pop	{r4, pc}
 301              	.L32:
 302 0086 1E2A     		cmp	r2, #30
 303 0088 C8D9     		bls	.L28
 304 008a 044B     		ldr	r3, .L53
 305 008c 1B68     		ldr	r3, [r3]
 306 008e 002B     		cmp	r3, #0
 307 0090 C4D0     		beq	.L28
 308 0092 6068     		ldr	r0, [r4, #4]
 309 0094 0221     		movs	r1, #2
 310 0096 BDE81040 		pop	{r4, lr}
 311 009a 1847     		bx	r3	@ indirect register sibling call
 312              	.L54:
 313              		.align	2
 314              	.L53:
 315 009c 00000000 		.word	_controls_595_buttons_handler
 317              		.section	.text.controls_595_update,"ax",%progbits
 318              		.align	1
 319              		.p2align 2,,3
 320              		.global	controls_595_update
 321              		.syntax unified
 322              		.thumb
 323              		.thumb_func
 324              		.fpu fpv4-sp-d16
 326              	controls_595_update:
 327              		@ args = 0, pretend = 0, frame = 0
 328              		@ frame_needed = 0, uses_anonymous_args = 0
 329 0000 2DE9F84F 		push	{r3, r4, r5, r6, r7, r8, r9, r10, fp, lr}
 330 0004 954B     		ldr	r3, .L118
 331 0006 1C78     		ldrb	r4, [r3]	@ zero_extendqisi2
 332 0008 002C     		cmp	r4, #0
 333 000a 00F02581 		beq	.L81
 334 000e 944A     		ldr	r2, .L118+4
 335 0010 0023     		movs	r3, #0
 336 0012 1268     		ldr	r2, [r2]
 337 0014 9846     		mov	r8, r3
 338 0016 0125     		movs	r5, #1
 339 0018 05E0     		b	.L59
 340              	.L57:
 341 001a 0133     		adds	r3, r3, #1
 342 001c D9B2     		uxtb	r1, r3
 343 001e 8C42     		cmp	r4, r1
 344 0020 02F10C02 		add	r2, r2, #12
 345 0024 14D9     		bls	.L56
 346              	.L59:
 347 0026 1178     		ldrb	r1, [r2]	@ zero_extendqisi2
 348 0028 98B2     		uxth	r0, r3
 349 002a 0029     		cmp	r1, #0
ARM GAS  /tmp/ccjLwS4u.s 			page 7


 350 002c F5D0     		beq	.L57
 351 002e 1189     		ldrh	r1, [r2, #8]
 352 0030 8142     		cmp	r1, r0
 353 0032 F2D1     		bne	.L57
 354 0034 917A     		ldrb	r1, [r2, #10]	@ zero_extendqisi2
 355 0036 05FA03F0 		lsl	r0, r5, r3
 356 003a 0029     		cmp	r1, #0
 357 003c 00F0E080 		beq	.L58
 358 0040 0133     		adds	r3, r3, #1
 359 0042 D9B2     		uxtb	r1, r3
 360 0044 8C42     		cmp	r4, r1
 361 0046 48EA0008 		orr	r8, r8, r0
 362 004a 02F10C02 		add	r2, r2, #12
 363 004e EAD8     		bhi	.L59
 364              	.L56:
 365 0050 844B     		ldr	r3, .L118+8
 366 0052 1A78     		ldrb	r2, [r3]	@ zero_extendqisi2
 367 0054 002A     		cmp	r2, #0
 368 0056 00F0DC80 		beq	.L61
 369 005a DFF81492 		ldr	r9, .L118+20
 370 005e 824F     		ldr	r7, .L118+12
 371 0060 0025     		movs	r5, #0
 372              	.L77:
 373 0062 AA42     		cmp	r2, r5
 374 0064 40F3D180 		ble	.L82
 375 0068 2EB2     		sxth	r6, r5
 376 006a D9F80000 		ldr	r0, [r9]
 377 006e 06EB4603 		add	r3, r6, r6, lsl #1
 378 0072 00EBC303 		add	r3, r0, r3, lsl #3
 379 0076 0024     		movs	r4, #0
 380 0078 D989     		ldrh	r1, [r3, #14]
 381 007a 02E0     		b	.L63
 382              	.L115:
 383 007c DB89     		ldrh	r3, [r3, #14]
 384 007e 8B42     		cmp	r3, r1
 385 0080 09D1     		bne	.L62
 386              	.L63:
 387 0082 0134     		adds	r4, r4, #1
 388 0084 E4B2     		uxtb	r4, r4
 389 0086 04EB050A 		add	r10, r4, r5
 390 008a 0AEB4A03 		add	r3, r10, r10, lsl #1
 391 008e 5245     		cmp	r2, r10
 392 0090 00EBC303 		add	r3, r0, r3, lsl #3
 393 0094 F2DC     		bgt	.L115
 394              	.L62:
 395 0096 511E     		subs	r1, r2, #1
 396 0098 C9B2     		uxtb	r1, r1
 397 009a D9F80030 		ldr	r3, [r9]
 398 009e 0131     		adds	r1, r1, #1
 399 00a0 01EB4101 		add	r1, r1, r1, lsl #1
 400 00a4 06EB4600 		add	r0, r6, r6, lsl #1
 401 00a8 1A46     		mov	r2, r3
 402 00aa 03EBC101 		add	r1, r3, r1, lsl #3
 403 00ae 03EBC000 		add	r0, r3, r0, lsl #3
 404              	.L66:
 405 00b2 1378     		ldrb	r3, [r2]	@ zero_extendqisi2
 406 00b4 A3B1     		cbz	r3, .L64
ARM GAS  /tmp/ccjLwS4u.s 			page 8


 407 00b6 D389     		ldrh	r3, [r2, #14]
 408 00b8 B0F80EE0 		ldrh	lr, [r0, #14]
 409 00bc 92F810C0 		ldrb	ip, [r2, #16]	@ zero_extendqisi2
 410 00c0 AEEB030E 		sub	lr, lr, r3
 411 00c4 BEFA8EFE 		clz	lr, lr
 412 00c8 4FEA5E1E 		lsr	lr, lr, #5
 413 00cc E645     		cmp	lr, ip
 414 00ce 4FF0010E 		mov	lr, #1
 415 00d2 0EFA03F3 		lsl	r3, lr, r3
 416 00d6 0CBF     		ite	eq
 417 00d8 48EA0308 		orreq	r8, r8, r3
 418 00dc 28EA0308 		bicne	r8, r8, r3
 419              	.L64:
 420 00e0 1832     		adds	r2, r2, #24
 421 00e2 9142     		cmp	r1, r2
 422 00e4 E5D1     		bne	.L66
 423 00e6 0022     		movs	r2, #0
 424 00e8 0821     		movs	r1, #8
 425 00ea 3846     		mov	r0, r7
 426 00ec FFF7FEFF 		bl	HAL_GPIO_WritePin
 427 00f0 4FF0070B 		mov	fp, #7
 428              	.L67:
 429 00f4 0022     		movs	r2, #0
 430 00f6 1021     		movs	r1, #16
 431 00f8 3846     		mov	r0, r7
 432 00fa FFF7FEFF 		bl	HAL_GPIO_WritePin
 433 00fe 28FA0BF2 		lsr	r2, r8, fp
 434 0102 02F00102 		and	r2, r2, #1
 435 0106 2021     		movs	r1, #32
 436 0108 3846     		mov	r0, r7
 437 010a FFF7FEFF 		bl	HAL_GPIO_WritePin
 438 010e 0BF1FF3B 		add	fp, fp, #-1
 439 0112 0122     		movs	r2, #1
 440 0114 1021     		movs	r1, #16
 441 0116 3846     		mov	r0, r7
 442 0118 FFF7FEFF 		bl	HAL_GPIO_WritePin
 443 011c BBF1FF3F 		cmp	fp, #-1
 444 0120 E8D1     		bne	.L67
 445 0122 0122     		movs	r2, #1
 446 0124 0821     		movs	r1, #8
 447 0126 3846     		mov	r0, r7
 448 0128 FFF7FEFF 		bl	HAL_GPIO_WritePin
 449 012c 002C     		cmp	r4, #0
 450 012e 31D0     		beq	.L68
 451 0130 0135     		adds	r5, r5, #1
 452 0132 013C     		subs	r4, r4, #1
 453 0134 55FA84F5 		uxtab	r5, r5, r4
 454 0138 05EB4505 		add	r5, r5, r5, lsl #1
 455 013c 06EB4606 		add	r6, r6, r6, lsl #1
 456 0140 ED00     		lsls	r5, r5, #3
 457 0142 F600     		lsls	r6, r6, #3
 458 0144 02E0     		b	.L76
 459              	.L71:
 460 0146 1836     		adds	r6, r6, #24
 461 0148 B542     		cmp	r5, r6
 462 014a 23D0     		beq	.L68
 463              	.L76:
ARM GAS  /tmp/ccjLwS4u.s 			page 9


 464 014c D9F80040 		ldr	r4, [r9]
 465 0150 3444     		add	r4, r4, r6
 466 0152 A189     		ldrh	r1, [r4, #12]
 467 0154 A068     		ldr	r0, [r4, #8]
 468 0156 FFF7FEFF 		bl	HAL_GPIO_ReadPin
 469 015a 237C     		ldrb	r3, [r4, #16]	@ zero_extendqisi2
 470 015c 0033     		adds	r3, r3, #0
 471 015e 18BF     		it	ne
 472 0160 0123     		movne	r3, #1
 473 0162 8342     		cmp	r3, r0
 474 0164 637C     		ldrb	r3, [r4, #17]	@ zero_extendqisi2
 475 0166 20D0     		beq	.L116
 476 0168 002B     		cmp	r3, #0
 477 016a ECD0     		beq	.L71
 478 016c 4FF00003 		mov	r3, #0
 479 0170 6374     		strb	r3, [r4, #17]
 480 0172 FFF7FEFF 		bl	HAL_GetTick
 481 0176 6269     		ldr	r2, [r4, #20]
 482 0178 821A     		subs	r2, r0, r2
 483 017a B2F5967F 		cmp	r2, #300
 484 017e 24D9     		bls	.L75
 485 0180 3A4B     		ldr	r3, .L118+16
 486 0182 1B68     		ldr	r3, [r3]
 487 0184 002B     		cmp	r3, #0
 488 0186 DED0     		beq	.L71
 489 0188 6068     		ldr	r0, [r4, #4]
 490 018a 0421     		movs	r1, #4
 491 018c 1836     		adds	r6, r6, #24
 492 018e 9847     		blx	r3
 493 0190 B542     		cmp	r5, r6
 494 0192 DBD1     		bne	.L76
 495              	.L68:
 496 0194 334B     		ldr	r3, .L118+8
 497 0196 1A78     		ldrb	r2, [r3]	@ zero_extendqisi2
 498 0198 5FFA8AF5 		uxtb	r5, r10
 499 019c AA42     		cmp	r2, r5
 500 019e 3FF660AF 		bhi	.L77
 501 01a2 002A     		cmp	r2, #0
 502 01a4 35D0     		beq	.L61
 503 01a6 BDE8F88F 		pop	{r3, r4, r5, r6, r7, r8, r9, r10, fp, pc}
 504              	.L116:
 505 01aa C3B1     		cbz	r3, .L117
 506 01ac FFF7FEFF 		bl	HAL_GetTick
 507 01b0 6269     		ldr	r2, [r4, #20]
 508 01b2 821A     		subs	r2, r0, r2
 509 01b4 B2F5967F 		cmp	r2, #300
 510 01b8 18D9     		bls	.L72
 511 01ba 2C4B     		ldr	r3, .L118+16
 512 01bc 1B68     		ldr	r3, [r3]
 513 01be 002B     		cmp	r3, #0
 514 01c0 C1D0     		beq	.L71
 515 01c2 6068     		ldr	r0, [r4, #4]
 516 01c4 0821     		movs	r1, #8
 517 01c6 9847     		blx	r3
 518 01c8 BDE7     		b	.L71
 519              	.L75:
 520 01ca 1E2A     		cmp	r2, #30
ARM GAS  /tmp/ccjLwS4u.s 			page 10


 521 01cc BBD9     		bls	.L71
 522 01ce 274B     		ldr	r3, .L118+16
 523 01d0 1B68     		ldr	r3, [r3]
 524 01d2 002B     		cmp	r3, #0
 525 01d4 B7D0     		beq	.L71
 526 01d6 6068     		ldr	r0, [r4, #4]
 527 01d8 0121     		movs	r1, #1
 528 01da 9847     		blx	r3
 529 01dc B3E7     		b	.L71
 530              	.L117:
 531 01de 4FF00103 		mov	r3, #1
 532 01e2 6374     		strb	r3, [r4, #17]
 533 01e4 FFF7FEFF 		bl	HAL_GetTick
 534 01e8 6061     		str	r0, [r4, #20]
 535 01ea ACE7     		b	.L71
 536              	.L72:
 537 01ec 1E2A     		cmp	r2, #30
 538 01ee AAD9     		bls	.L71
 539 01f0 1E4B     		ldr	r3, .L118+16
 540 01f2 1B68     		ldr	r3, [r3]
 541 01f4 002B     		cmp	r3, #0
 542 01f6 A6D0     		beq	.L71
 543 01f8 6068     		ldr	r0, [r4, #4]
 544 01fa 0221     		movs	r1, #2
 545 01fc 9847     		blx	r3
 546 01fe A2E7     		b	.L71
 547              	.L58:
 548 0200 05FA03F1 		lsl	r1, r5, r3
 549 0204 28EA0108 		bic	r8, r8, r1
 550 0208 07E7     		b	.L57
 551              	.L82:
 552 020a 0024     		movs	r4, #0
 553 020c AA46     		mov	r10, r5
 554 020e 2EB2     		sxth	r6, r5
 555 0210 41E7     		b	.L62
 556              	.L61:
 557 0212 1548     		ldr	r0, .L118+12
 558 0214 0022     		movs	r2, #0
 559 0216 0821     		movs	r1, #8
 560 0218 0546     		mov	r5, r0
 561 021a FFF7FEFF 		bl	HAL_GPIO_WritePin
 562 021e 0724     		movs	r4, #7
 563              	.L80:
 564 0220 0022     		movs	r2, #0
 565 0222 1021     		movs	r1, #16
 566 0224 2846     		mov	r0, r5
 567 0226 FFF7FEFF 		bl	HAL_GPIO_WritePin
 568 022a 28FA04F2 		lsr	r2, r8, r4
 569 022e 02F00102 		and	r2, r2, #1
 570 0232 2021     		movs	r1, #32
 571 0234 2846     		mov	r0, r5
 572 0236 FFF7FEFF 		bl	HAL_GPIO_WritePin
 573 023a 013C     		subs	r4, r4, #1
 574 023c 0122     		movs	r2, #1
 575 023e 1021     		movs	r1, #16
 576 0240 2846     		mov	r0, r5
 577 0242 FFF7FEFF 		bl	HAL_GPIO_WritePin
ARM GAS  /tmp/ccjLwS4u.s 			page 11


 578 0246 631C     		adds	r3, r4, #1
 579 0248 EAD1     		bne	.L80
 580 024a 0122     		movs	r2, #1
 581 024c 0821     		movs	r1, #8
 582 024e 0648     		ldr	r0, .L118+12
 583 0250 BDE8F84F 		pop	{r3, r4, r5, r6, r7, r8, r9, r10, fp, lr}
 584 0254 FFF7FEBF 		b	HAL_GPIO_WritePin
 585              	.L81:
 586 0258 A046     		mov	r8, r4
 587 025a F9E6     		b	.L56
 588              	.L119:
 589              		.align	2
 590              	.L118:
 591 025c 00000000 		.word	_controls_595_outs_len
 592 0260 00000000 		.word	_controls_595_outs
 593 0264 00000000 		.word	_controls_595_buttons_len
 594 0268 00040240 		.word	1073873920
 595 026c 00000000 		.word	_controls_595_buttons_handler
 596 0270 00000000 		.word	_controls_595_buttons
 598              		.comm	_controls_595_buttons_handler,4,4
 599              		.comm	_controls_595_outs_len,1,1
 600              		.comm	_controls_595_buttons_len,1,1
 601              		.comm	_controls_595_outs,4,4
 602              		.comm	_controls_595_buttons,4,4
 603              		.section	.rodata.controls_595_init.str1.4,"aMS",%progbits,1
 604              		.align	2
 605              	.LC0:
 606 0000 25642025 		.ascii	"%d %d\012\000"
 606      640A00
 607              		.ident	"GCC: (Arch Repository) 6.3.0"
ARM GAS  /tmp/ccjLwS4u.s 			page 12

