ARM GAS  /tmp/ccngvzM6.s 			page 1


   1              		.cpu cortex-m4
   2              		.eabi_attribute 27, 1
   3              		.eabi_attribute 28, 1
   4              		.eabi_attribute 23, 1
   5              		.eabi_attribute 24, 1
   6              		.eabi_attribute 25, 1
   7              		.eabi_attribute 26, 1
   8              		.eabi_attribute 30, 2
   9              		.eabi_attribute 34, 1
  10              		.eabi_attribute 18, 4
  11              		.file	"diskio.c"
  12              		.text
  13              	.Ltext0:
  14              		.cfi_sections	.debug_frame
  15              		.section	.text.disk_status,"ax",%progbits
  16              		.align	1
  17              		.p2align 2,,3
  18              		.global	disk_status
  19              		.syntax unified
  20              		.thumb
  21              		.thumb_func
  22              		.fpu fpv4-sp-d16
  24              	disk_status:
  25              	.LFB126:
  26              		.file 1 "Middlewares/Third_Party/FatFs/src/diskio.c"
   1:Middlewares/Third_Party/FatFs/src/diskio.c **** /*-----------------------------------------------------------------------*/
   2:Middlewares/Third_Party/FatFs/src/diskio.c **** /* Low level disk I/O module skeleton for FatFs     (C)ChaN, 2014        */
   3:Middlewares/Third_Party/FatFs/src/diskio.c **** /*                                                                       */
   4:Middlewares/Third_Party/FatFs/src/diskio.c **** /*   Portions COPYRIGHT 2015 STMicroelectronics                          */
   5:Middlewares/Third_Party/FatFs/src/diskio.c **** /*   Portions Copyright (C) 2014, ChaN, all right reserved               */
   6:Middlewares/Third_Party/FatFs/src/diskio.c **** /*-----------------------------------------------------------------------*/
   7:Middlewares/Third_Party/FatFs/src/diskio.c **** /* If a working storage control module is available, it should be        */
   8:Middlewares/Third_Party/FatFs/src/diskio.c **** /* attached to the FatFs via a glue function rather than modifying it.   */
   9:Middlewares/Third_Party/FatFs/src/diskio.c **** /* This is an example of glue functions to attach various exsisting      */
  10:Middlewares/Third_Party/FatFs/src/diskio.c **** /* storage control modules to the FatFs module with a defined API.       */
  11:Middlewares/Third_Party/FatFs/src/diskio.c **** /*-----------------------------------------------------------------------*/
  12:Middlewares/Third_Party/FatFs/src/diskio.c **** 
  13:Middlewares/Third_Party/FatFs/src/diskio.c **** /**
  14:Middlewares/Third_Party/FatFs/src/diskio.c ****   ******************************************************************************
  15:Middlewares/Third_Party/FatFs/src/diskio.c ****   * @file    diskio.c 
  16:Middlewares/Third_Party/FatFs/src/diskio.c ****   * @author  MCD Application Team
  17:Middlewares/Third_Party/FatFs/src/diskio.c ****   * @version V1.3.0
  18:Middlewares/Third_Party/FatFs/src/diskio.c ****   * @date    08-May-2015
  19:Middlewares/Third_Party/FatFs/src/diskio.c ****   * @brief   FatFs low level disk I/O module.
  20:Middlewares/Third_Party/FatFs/src/diskio.c ****   ******************************************************************************
  21:Middlewares/Third_Party/FatFs/src/diskio.c ****   * @attention
  22:Middlewares/Third_Party/FatFs/src/diskio.c ****   *
  23:Middlewares/Third_Party/FatFs/src/diskio.c ****   * Licensed under MCD-ST Liberty SW License Agreement V2, (the "License");
  24:Middlewares/Third_Party/FatFs/src/diskio.c ****   * You may not use this file except in compliance with the License.
  25:Middlewares/Third_Party/FatFs/src/diskio.c ****   * You may obtain a copy of the License at:
  26:Middlewares/Third_Party/FatFs/src/diskio.c ****   *
  27:Middlewares/Third_Party/FatFs/src/diskio.c ****   *        http://www.st.com/software_license_agreement_liberty_v2
  28:Middlewares/Third_Party/FatFs/src/diskio.c ****   *
  29:Middlewares/Third_Party/FatFs/src/diskio.c ****   * Unless required by applicable law or agreed to in writing, software 
  30:Middlewares/Third_Party/FatFs/src/diskio.c ****   * distributed under the License is distributed on an "AS IS" BASIS, 
  31:Middlewares/Third_Party/FatFs/src/diskio.c ****   * WITHOUT WARRANTIES OR CONDITIONS OF ANY KIND, either express or implied.
  32:Middlewares/Third_Party/FatFs/src/diskio.c ****   * See the License for the specific language governing permissions and
ARM GAS  /tmp/ccngvzM6.s 			page 2


  33:Middlewares/Third_Party/FatFs/src/diskio.c ****   * limitations under the License.
  34:Middlewares/Third_Party/FatFs/src/diskio.c ****   *
  35:Middlewares/Third_Party/FatFs/src/diskio.c ****   ******************************************************************************
  36:Middlewares/Third_Party/FatFs/src/diskio.c ****   */
  37:Middlewares/Third_Party/FatFs/src/diskio.c **** 
  38:Middlewares/Third_Party/FatFs/src/diskio.c **** /* Includes ------------------------------------------------------------------*/
  39:Middlewares/Third_Party/FatFs/src/diskio.c **** #include "diskio.h"
  40:Middlewares/Third_Party/FatFs/src/diskio.c **** #include "ff_gen_drv.h"
  41:Middlewares/Third_Party/FatFs/src/diskio.c **** 
  42:Middlewares/Third_Party/FatFs/src/diskio.c **** /* Private typedef -----------------------------------------------------------*/
  43:Middlewares/Third_Party/FatFs/src/diskio.c **** /* Private define ------------------------------------------------------------*/
  44:Middlewares/Third_Party/FatFs/src/diskio.c **** /* Private variables ---------------------------------------------------------*/
  45:Middlewares/Third_Party/FatFs/src/diskio.c **** extern Disk_drvTypeDef  disk;
  46:Middlewares/Third_Party/FatFs/src/diskio.c **** 
  47:Middlewares/Third_Party/FatFs/src/diskio.c **** /* Private function prototypes -----------------------------------------------*/
  48:Middlewares/Third_Party/FatFs/src/diskio.c **** /* Private functions ---------------------------------------------------------*/
  49:Middlewares/Third_Party/FatFs/src/diskio.c **** 
  50:Middlewares/Third_Party/FatFs/src/diskio.c **** /**
  51:Middlewares/Third_Party/FatFs/src/diskio.c ****   * @brief  Gets Disk Status 
  52:Middlewares/Third_Party/FatFs/src/diskio.c ****   * @param  pdrv: Physical drive number (0..)
  53:Middlewares/Third_Party/FatFs/src/diskio.c ****   * @retval DSTATUS: Operation status
  54:Middlewares/Third_Party/FatFs/src/diskio.c ****   */
  55:Middlewares/Third_Party/FatFs/src/diskio.c **** DSTATUS disk_status (
  56:Middlewares/Third_Party/FatFs/src/diskio.c **** 	BYTE pdrv		/* Physical drive nmuber to identify the drive */
  57:Middlewares/Third_Party/FatFs/src/diskio.c **** )
  58:Middlewares/Third_Party/FatFs/src/diskio.c **** {
  27              		.loc 1 58 0
  28              		.cfi_startproc
  29              		@ args = 0, pretend = 0, frame = 0
  30              		@ frame_needed = 0, uses_anonymous_args = 0
  31              		@ link register save eliminated.
  32              	.LVL0:
  59:Middlewares/Third_Party/FatFs/src/diskio.c ****   DSTATUS stat;
  60:Middlewares/Third_Party/FatFs/src/diskio.c ****   
  61:Middlewares/Third_Party/FatFs/src/diskio.c ****   stat = disk.drv[pdrv]->disk_status(disk.lun[pdrv]);
  33              		.loc 1 61 0
  34 0000 034B     		ldr	r3, .L2
  35 0002 03EB8002 		add	r2, r3, r0, lsl #2
  36 0006 0344     		add	r3, r3, r0
  37 0008 5268     		ldr	r2, [r2, #4]
  38 000a 187A     		ldrb	r0, [r3, #8]	@ zero_extendqisi2
  39              	.LVL1:
  40 000c 5368     		ldr	r3, [r2, #4]
  41 000e 1847     		bx	r3
  42              	.LVL2:
  43              	.L3:
  44              		.align	2
  45              	.L2:
  46 0010 00000000 		.word	disk
  47              		.cfi_endproc
  48              	.LFE126:
  50              		.section	.text.disk_initialize,"ax",%progbits
  51              		.align	1
  52              		.p2align 2,,3
  53              		.global	disk_initialize
  54              		.syntax unified
  55              		.thumb
ARM GAS  /tmp/ccngvzM6.s 			page 3


  56              		.thumb_func
  57              		.fpu fpv4-sp-d16
  59              	disk_initialize:
  60              	.LFB127:
  62:Middlewares/Third_Party/FatFs/src/diskio.c ****   return stat;
  63:Middlewares/Third_Party/FatFs/src/diskio.c **** }
  64:Middlewares/Third_Party/FatFs/src/diskio.c **** 
  65:Middlewares/Third_Party/FatFs/src/diskio.c **** /**
  66:Middlewares/Third_Party/FatFs/src/diskio.c ****   * @brief  Initializes a Drive
  67:Middlewares/Third_Party/FatFs/src/diskio.c ****   * @param  pdrv: Physical drive number (0..)
  68:Middlewares/Third_Party/FatFs/src/diskio.c ****   * @retval DSTATUS: Operation status
  69:Middlewares/Third_Party/FatFs/src/diskio.c ****   */
  70:Middlewares/Third_Party/FatFs/src/diskio.c **** DSTATUS disk_initialize (
  71:Middlewares/Third_Party/FatFs/src/diskio.c **** 	BYTE pdrv				/* Physical drive nmuber to identify the drive */
  72:Middlewares/Third_Party/FatFs/src/diskio.c **** )
  73:Middlewares/Third_Party/FatFs/src/diskio.c **** {
  61              		.loc 1 73 0
  62              		.cfi_startproc
  63              		@ args = 0, pretend = 0, frame = 0
  64              		@ frame_needed = 0, uses_anonymous_args = 0
  65              		@ link register save eliminated.
  66              	.LVL3:
  74:Middlewares/Third_Party/FatFs/src/diskio.c ****   DSTATUS stat = RES_OK;
  75:Middlewares/Third_Party/FatFs/src/diskio.c ****   
  76:Middlewares/Third_Party/FatFs/src/diskio.c ****   if(disk.is_initialized[pdrv] == 0)
  67              		.loc 1 76 0
  68 0000 064B     		ldr	r3, .L8
  69 0002 1A5C     		ldrb	r2, [r3, r0]	@ zero_extendqisi2
  70 0004 0AB1     		cbz	r2, .L7
  77:Middlewares/Third_Party/FatFs/src/diskio.c ****   { 
  78:Middlewares/Third_Party/FatFs/src/diskio.c ****     disk.is_initialized[pdrv] = 1;
  79:Middlewares/Third_Party/FatFs/src/diskio.c ****     stat = disk.drv[pdrv]->disk_initialize(disk.lun[pdrv]);
  80:Middlewares/Third_Party/FatFs/src/diskio.c ****   }
  81:Middlewares/Third_Party/FatFs/src/diskio.c ****   return stat;
  82:Middlewares/Third_Party/FatFs/src/diskio.c **** }
  71              		.loc 1 82 0
  72 0006 0020     		movs	r0, #0
  73              	.LVL4:
  74 0008 7047     		bx	lr
  75              	.LVL5:
  76              	.L7:
  79:Middlewares/Third_Party/FatFs/src/diskio.c ****   }
  77              		.loc 1 79 0
  78 000a 03EB8002 		add	r2, r3, r0, lsl #2
  78:Middlewares/Third_Party/FatFs/src/diskio.c ****     stat = disk.drv[pdrv]->disk_initialize(disk.lun[pdrv]);
  79              		.loc 1 78 0
  80 000e 0121     		movs	r1, #1
  81 0010 1954     		strb	r1, [r3, r0]
  79:Middlewares/Third_Party/FatFs/src/diskio.c ****   }
  82              		.loc 1 79 0
  83 0012 5268     		ldr	r2, [r2, #4]
  84 0014 0344     		add	r3, r3, r0
  85 0016 1268     		ldr	r2, [r2]
  86 0018 187A     		ldrb	r0, [r3, #8]	@ zero_extendqisi2
  87              	.LVL6:
  88 001a 1047     		bx	r2
  89              	.LVL7:
ARM GAS  /tmp/ccngvzM6.s 			page 4


  90              	.L9:
  91              		.align	2
  92              	.L8:
  93 001c 00000000 		.word	disk
  94              		.cfi_endproc
  95              	.LFE127:
  97              		.section	.text.disk_read,"ax",%progbits
  98              		.align	1
  99              		.p2align 2,,3
 100              		.global	disk_read
 101              		.syntax unified
 102              		.thumb
 103              		.thumb_func
 104              		.fpu fpv4-sp-d16
 106              	disk_read:
 107              	.LFB128:
  83:Middlewares/Third_Party/FatFs/src/diskio.c **** 
  84:Middlewares/Third_Party/FatFs/src/diskio.c **** /**
  85:Middlewares/Third_Party/FatFs/src/diskio.c ****   * @brief  Reads Sector(s) 
  86:Middlewares/Third_Party/FatFs/src/diskio.c ****   * @param  pdrv: Physical drive number (0..)
  87:Middlewares/Third_Party/FatFs/src/diskio.c ****   * @param  *buff: Data buffer to store read data
  88:Middlewares/Third_Party/FatFs/src/diskio.c ****   * @param  sector: Sector address (LBA)
  89:Middlewares/Third_Party/FatFs/src/diskio.c ****   * @param  count: Number of sectors to read (1..128)
  90:Middlewares/Third_Party/FatFs/src/diskio.c ****   * @retval DRESULT: Operation result
  91:Middlewares/Third_Party/FatFs/src/diskio.c ****   */
  92:Middlewares/Third_Party/FatFs/src/diskio.c **** DRESULT disk_read (
  93:Middlewares/Third_Party/FatFs/src/diskio.c **** 	BYTE pdrv,		/* Physical drive nmuber to identify the drive */
  94:Middlewares/Third_Party/FatFs/src/diskio.c **** 	BYTE *buff,		/* Data buffer to store read data */
  95:Middlewares/Third_Party/FatFs/src/diskio.c **** 	DWORD sector,	        /* Sector address in LBA */
  96:Middlewares/Third_Party/FatFs/src/diskio.c **** 	UINT count		/* Number of sectors to read */
  97:Middlewares/Third_Party/FatFs/src/diskio.c **** )
  98:Middlewares/Third_Party/FatFs/src/diskio.c **** {
 108              		.loc 1 98 0
 109              		.cfi_startproc
 110              		@ args = 0, pretend = 0, frame = 0
 111              		@ frame_needed = 0, uses_anonymous_args = 0
 112              		@ link register save eliminated.
 113              	.LVL8:
 114 0000 30B4     		push	{r4, r5}
 115              	.LCFI0:
 116              		.cfi_def_cfa_offset 8
 117              		.cfi_offset 4, -8
 118              		.cfi_offset 5, -4
  99:Middlewares/Third_Party/FatFs/src/diskio.c ****   DRESULT res;
 100:Middlewares/Third_Party/FatFs/src/diskio.c ****  
 101:Middlewares/Third_Party/FatFs/src/diskio.c ****   res = disk.drv[pdrv]->disk_read(disk.lun[pdrv], buff, sector, count);
 119              		.loc 1 101 0
 120 0002 054C     		ldr	r4, .L12
 121 0004 04EB8005 		add	r5, r4, r0, lsl #2
 122 0008 0444     		add	r4, r4, r0
 123 000a 6D68     		ldr	r5, [r5, #4]
 124 000c 207A     		ldrb	r0, [r4, #8]	@ zero_extendqisi2
 125              	.LVL9:
 126 000e AC68     		ldr	r4, [r5, #8]
 127 0010 A446     		mov	ip, r4
 102:Middlewares/Third_Party/FatFs/src/diskio.c ****   return res;
 103:Middlewares/Third_Party/FatFs/src/diskio.c **** }
ARM GAS  /tmp/ccngvzM6.s 			page 5


 128              		.loc 1 103 0
 129 0012 30BC     		pop	{r4, r5}
 130              	.LCFI1:
 131              		.cfi_restore 5
 132              		.cfi_restore 4
 133              		.cfi_def_cfa_offset 0
 101:Middlewares/Third_Party/FatFs/src/diskio.c ****   return res;
 134              		.loc 1 101 0
 135 0014 6047     		bx	ip
 136              	.LVL10:
 137              	.L13:
 138 0016 00BF     		.align	2
 139              	.L12:
 140 0018 00000000 		.word	disk
 141              		.cfi_endproc
 142              	.LFE128:
 144              		.section	.text.disk_write,"ax",%progbits
 145              		.align	1
 146              		.p2align 2,,3
 147              		.global	disk_write
 148              		.syntax unified
 149              		.thumb
 150              		.thumb_func
 151              		.fpu fpv4-sp-d16
 153              	disk_write:
 154              	.LFB129:
 104:Middlewares/Third_Party/FatFs/src/diskio.c **** 
 105:Middlewares/Third_Party/FatFs/src/diskio.c **** /**
 106:Middlewares/Third_Party/FatFs/src/diskio.c ****   * @brief  Writes Sector(s)  
 107:Middlewares/Third_Party/FatFs/src/diskio.c ****   * @param  pdrv: Physical drive number (0..)
 108:Middlewares/Third_Party/FatFs/src/diskio.c ****   * @param  *buff: Data to be written
 109:Middlewares/Third_Party/FatFs/src/diskio.c ****   * @param  sector: Sector address (LBA)
 110:Middlewares/Third_Party/FatFs/src/diskio.c ****   * @param  count: Number of sectors to write (1..128)
 111:Middlewares/Third_Party/FatFs/src/diskio.c ****   * @retval DRESULT: Operation result
 112:Middlewares/Third_Party/FatFs/src/diskio.c ****   */
 113:Middlewares/Third_Party/FatFs/src/diskio.c **** #if _USE_WRITE == 1
 114:Middlewares/Third_Party/FatFs/src/diskio.c **** DRESULT disk_write (
 115:Middlewares/Third_Party/FatFs/src/diskio.c **** 	BYTE pdrv,		/* Physical drive nmuber to identify the drive */
 116:Middlewares/Third_Party/FatFs/src/diskio.c **** 	const BYTE *buff,	/* Data to be written */
 117:Middlewares/Third_Party/FatFs/src/diskio.c **** 	DWORD sector,		/* Sector address in LBA */
 118:Middlewares/Third_Party/FatFs/src/diskio.c **** 	UINT count        	/* Number of sectors to write */
 119:Middlewares/Third_Party/FatFs/src/diskio.c **** )
 120:Middlewares/Third_Party/FatFs/src/diskio.c **** {
 155              		.loc 1 120 0
 156              		.cfi_startproc
 157              		@ args = 0, pretend = 0, frame = 0
 158              		@ frame_needed = 0, uses_anonymous_args = 0
 159              		@ link register save eliminated.
 160              	.LVL11:
 161 0000 30B4     		push	{r4, r5}
 162              	.LCFI2:
 163              		.cfi_def_cfa_offset 8
 164              		.cfi_offset 4, -8
 165              		.cfi_offset 5, -4
 121:Middlewares/Third_Party/FatFs/src/diskio.c ****   DRESULT res;
 122:Middlewares/Third_Party/FatFs/src/diskio.c ****   
 123:Middlewares/Third_Party/FatFs/src/diskio.c ****   res = disk.drv[pdrv]->disk_write(disk.lun[pdrv], buff, sector, count);
ARM GAS  /tmp/ccngvzM6.s 			page 6


 166              		.loc 1 123 0
 167 0002 054C     		ldr	r4, .L16
 168 0004 04EB8005 		add	r5, r4, r0, lsl #2
 169 0008 0444     		add	r4, r4, r0
 170 000a 6D68     		ldr	r5, [r5, #4]
 171 000c 207A     		ldrb	r0, [r4, #8]	@ zero_extendqisi2
 172              	.LVL12:
 173 000e EC68     		ldr	r4, [r5, #12]
 174 0010 A446     		mov	ip, r4
 124:Middlewares/Third_Party/FatFs/src/diskio.c ****   return res;
 125:Middlewares/Third_Party/FatFs/src/diskio.c **** }
 175              		.loc 1 125 0
 176 0012 30BC     		pop	{r4, r5}
 177              	.LCFI3:
 178              		.cfi_restore 5
 179              		.cfi_restore 4
 180              		.cfi_def_cfa_offset 0
 123:Middlewares/Third_Party/FatFs/src/diskio.c ****   return res;
 181              		.loc 1 123 0
 182 0014 6047     		bx	ip
 183              	.LVL13:
 184              	.L17:
 185 0016 00BF     		.align	2
 186              	.L16:
 187 0018 00000000 		.word	disk
 188              		.cfi_endproc
 189              	.LFE129:
 191              		.section	.text.disk_ioctl,"ax",%progbits
 192              		.align	1
 193              		.p2align 2,,3
 194              		.global	disk_ioctl
 195              		.syntax unified
 196              		.thumb
 197              		.thumb_func
 198              		.fpu fpv4-sp-d16
 200              	disk_ioctl:
 201              	.LFB130:
 126:Middlewares/Third_Party/FatFs/src/diskio.c **** #endif /* _USE_WRITE == 1 */
 127:Middlewares/Third_Party/FatFs/src/diskio.c **** 
 128:Middlewares/Third_Party/FatFs/src/diskio.c **** /**
 129:Middlewares/Third_Party/FatFs/src/diskio.c ****   * @brief  I/O control operation  
 130:Middlewares/Third_Party/FatFs/src/diskio.c ****   * @param  pdrv: Physical drive number (0..)
 131:Middlewares/Third_Party/FatFs/src/diskio.c ****   * @param  cmd: Control code
 132:Middlewares/Third_Party/FatFs/src/diskio.c ****   * @param  *buff: Buffer to send/receive control data
 133:Middlewares/Third_Party/FatFs/src/diskio.c ****   * @retval DRESULT: Operation result
 134:Middlewares/Third_Party/FatFs/src/diskio.c ****   */
 135:Middlewares/Third_Party/FatFs/src/diskio.c **** #if _USE_IOCTL == 1
 136:Middlewares/Third_Party/FatFs/src/diskio.c **** DRESULT disk_ioctl (
 137:Middlewares/Third_Party/FatFs/src/diskio.c **** 	BYTE pdrv,		/* Physical drive nmuber (0..) */
 138:Middlewares/Third_Party/FatFs/src/diskio.c **** 	BYTE cmd,		/* Control code */
 139:Middlewares/Third_Party/FatFs/src/diskio.c **** 	void *buff		/* Buffer to send/receive control data */
 140:Middlewares/Third_Party/FatFs/src/diskio.c **** )
 141:Middlewares/Third_Party/FatFs/src/diskio.c **** {
 202              		.loc 1 141 0
 203              		.cfi_startproc
 204              		@ args = 0, pretend = 0, frame = 0
 205              		@ frame_needed = 0, uses_anonymous_args = 0
ARM GAS  /tmp/ccngvzM6.s 			page 7


 206              		@ link register save eliminated.
 207              	.LVL14:
 142:Middlewares/Third_Party/FatFs/src/diskio.c ****   DRESULT res;
 143:Middlewares/Third_Party/FatFs/src/diskio.c **** 
 144:Middlewares/Third_Party/FatFs/src/diskio.c ****   res = disk.drv[pdrv]->disk_ioctl(disk.lun[pdrv], cmd, buff);
 208              		.loc 1 144 0
 209 0000 054B     		ldr	r3, .L20
 141:Middlewares/Third_Party/FatFs/src/diskio.c ****   DRESULT res;
 210              		.loc 1 141 0
 211 0002 10B4     		push	{r4}
 212              	.LCFI4:
 213              		.cfi_def_cfa_offset 4
 214              		.cfi_offset 4, -4
 215              		.loc 1 144 0
 216 0004 03EB8004 		add	r4, r3, r0, lsl #2
 217 0008 0344     		add	r3, r3, r0
 218 000a 6468     		ldr	r4, [r4, #4]
 219 000c 187A     		ldrb	r0, [r3, #8]	@ zero_extendqisi2
 220              	.LVL15:
 221 000e 2369     		ldr	r3, [r4, #16]
 145:Middlewares/Third_Party/FatFs/src/diskio.c ****   return res;
 146:Middlewares/Third_Party/FatFs/src/diskio.c **** }
 222              		.loc 1 146 0
 223 0010 5DF8044B 		ldr	r4, [sp], #4
 224              	.LCFI5:
 225              		.cfi_restore 4
 226              		.cfi_def_cfa_offset 0
 144:Middlewares/Third_Party/FatFs/src/diskio.c ****   return res;
 227              		.loc 1 144 0
 228 0014 1847     		bx	r3
 229              	.LVL16:
 230              	.L21:
 231 0016 00BF     		.align	2
 232              	.L20:
 233 0018 00000000 		.word	disk
 234              		.cfi_endproc
 235              	.LFE130:
 237              		.section	.text.get_fattime,"ax",%progbits
 238              		.align	1
 239              		.p2align 2,,3
 240              		.weak	get_fattime
 241              		.syntax unified
 242              		.thumb
 243              		.thumb_func
 244              		.fpu fpv4-sp-d16
 246              	get_fattime:
 247              	.LFB131:
 147:Middlewares/Third_Party/FatFs/src/diskio.c **** #endif /* _USE_IOCTL == 1 */
 148:Middlewares/Third_Party/FatFs/src/diskio.c **** 
 149:Middlewares/Third_Party/FatFs/src/diskio.c **** /**
 150:Middlewares/Third_Party/FatFs/src/diskio.c ****   * @brief  Gets Time from RTC 
 151:Middlewares/Third_Party/FatFs/src/diskio.c ****   * @param  None
 152:Middlewares/Third_Party/FatFs/src/diskio.c ****   * @retval Time in DWORD
 153:Middlewares/Third_Party/FatFs/src/diskio.c ****   */
 154:Middlewares/Third_Party/FatFs/src/diskio.c **** __weak DWORD get_fattime (void)
 155:Middlewares/Third_Party/FatFs/src/diskio.c **** {
 248              		.loc 1 155 0
ARM GAS  /tmp/ccngvzM6.s 			page 8


 249              		.cfi_startproc
 250              		@ args = 0, pretend = 0, frame = 0
 251              		@ frame_needed = 0, uses_anonymous_args = 0
 252              		@ link register save eliminated.
 156:Middlewares/Third_Party/FatFs/src/diskio.c ****   return 0;
 157:Middlewares/Third_Party/FatFs/src/diskio.c **** }
 253              		.loc 1 157 0
 254 0000 0020     		movs	r0, #0
 255 0002 7047     		bx	lr
 256              		.cfi_endproc
 257              	.LFE131:
 259              		.text
 260              	.Letext0:
 261              		.file 2 "Middlewares/Third_Party/FatFs/src/integer.h"
 262              		.file 3 "Middlewares/Third_Party/FatFs/src/diskio.h"
 263              		.file 4 "/usr/arm-none-eabi/include/machine/_default_types.h"
 264              		.file 5 "/usr/arm-none-eabi/include/sys/_stdint.h"
 265              		.file 6 "Drivers/CMSIS/Include/core_cm4.h"
 266              		.file 7 "Drivers/CMSIS/Device/ST/STM32F4xx/Include/system_stm32f4xx.h"
 267              		.file 8 "/usr/arm-none-eabi/include/sys/lock.h"
 268              		.file 9 "/usr/arm-none-eabi/include/sys/_types.h"
 269              		.file 10 "/usr/lib/gcc/arm-none-eabi/6.3.0/include/stddef.h"
 270              		.file 11 "/usr/arm-none-eabi/include/sys/reent.h"
 271              		.file 12 "Middlewares/Third_Party/FatFs/src/ff_gen_drv.h"
ARM GAS  /tmp/ccngvzM6.s 			page 9

