ARM GAS  /tmp/ccFKl8QX.s 			page 1


   1              		.cpu cortex-m4
   2              		.eabi_attribute 27, 1
   3              		.eabi_attribute 28, 1
   4              		.eabi_attribute 23, 1
   5              		.eabi_attribute 24, 1
   6              		.eabi_attribute 25, 1
   7              		.eabi_attribute 26, 1
   8              		.eabi_attribute 30, 2
   9              		.eabi_attribute 34, 1
  10              		.eabi_attribute 18, 4
  11              		.file	"ff.c"
  12              		.section	.text.sync_window.part.4,"ax",%progbits
  13              		.align	1
  14              		.p2align 2,,3
  15              		.syntax unified
  16              		.thumb
  17              		.thumb_func
  18              		.fpu fpv4-sp-d16
  20              	sync_window.part.4:
  21              		@ args = 0, pretend = 0, frame = 0
  22              		@ frame_needed = 0, uses_anonymous_args = 0
  23 0000 70B5     		push	{r4, r5, r6, lr}
  24 0002 D0F82C52 		ldr	r5, [r0, #556]
  25 0006 0446     		mov	r4, r0
  26 0008 0146     		mov	r1, r0
  27 000a 2A46     		mov	r2, r5
  28 000c 90F80102 		ldrb	r0, [r0, #513]	@ zero_extendqisi2
  29 0010 0123     		movs	r3, #1
  30 0012 FFF7FEFF 		bl	disk_write
  31 0016 E0B9     		cbnz	r0, .L6
  32 0018 D4F82022 		ldr	r2, [r4, #544]
  33 001c D4F81832 		ldr	r3, [r4, #536]
  34 0020 84F80402 		strb	r0, [r4, #516]
  35 0024 AA1A     		subs	r2, r5, r2
  36 0026 9A42     		cmp	r2, r3
  37 0028 11D2     		bcs	.L4
  38 002a 94F80362 		ldrb	r6, [r4, #515]	@ zero_extendqisi2
  39 002e 012E     		cmp	r6, #1
  40 0030 02D8     		bhi	.L5
  41 0032 0CE0     		b	.L4
  42              	.L12:
  43 0034 D4F81832 		ldr	r3, [r4, #536]
  44              	.L5:
  45 0038 94F80102 		ldrb	r0, [r4, #513]	@ zero_extendqisi2
  46 003c 1D44     		add	r5, r5, r3
  47 003e 013E     		subs	r6, r6, #1
  48 0040 2A46     		mov	r2, r5
  49 0042 0123     		movs	r3, #1
  50 0044 2146     		mov	r1, r4
  51 0046 FFF7FEFF 		bl	disk_write
  52 004a 012E     		cmp	r6, #1
  53 004c F2D1     		bne	.L12
  54              	.L4:
  55 004e 0020     		movs	r0, #0
  56 0050 70BD     		pop	{r4, r5, r6, pc}
  57              	.L6:
  58 0052 0120     		movs	r0, #1
ARM GAS  /tmp/ccFKl8QX.s 			page 2


  59 0054 70BD     		pop	{r4, r5, r6, pc}
  61 0056 00BF     		.section	.text.move_window,"ax",%progbits
  62              		.align	1
  63              		.p2align 2,,3
  64              		.syntax unified
  65              		.thumb
  66              		.thumb_func
  67              		.fpu fpv4-sp-d16
  69              	move_window:
  70              		@ args = 0, pretend = 0, frame = 0
  71              		@ frame_needed = 0, uses_anonymous_args = 0
  72 0000 F8B5     		push	{r3, r4, r5, r6, r7, lr}
  73 0002 D0F82C52 		ldr	r5, [r0, #556]
  74 0006 8D42     		cmp	r5, r1
  75 0008 3BD0     		beq	.L18
  76 000a 90F80432 		ldrb	r3, [r0, #516]	@ zero_extendqisi2
  77 000e 0446     		mov	r4, r0
  78 0010 0E46     		mov	r6, r1
  79 0012 83B9     		cbnz	r3, .L29
  80              	.L15:
  81 0014 3246     		mov	r2, r6
  82 0016 0123     		movs	r3, #1
  83 0018 2146     		mov	r1, r4
  84 001a 94F80102 		ldrb	r0, [r4, #513]	@ zero_extendqisi2
  85 001e FFF7FEFF 		bl	disk_read
  86 0022 0028     		cmp	r0, #0
  87 0024 18BF     		it	ne
  88 0026 4FF0FF36 		movne	r6, #-1
  89 002a C4F82C62 		str	r6, [r4, #556]
  90 002e 14BF     		ite	ne
  91 0030 0120     		movne	r0, #1
  92 0032 0020     		moveq	r0, #0
  93 0034 F8BD     		pop	{r3, r4, r5, r6, r7, pc}
  94              	.L29:
  95 0036 0146     		mov	r1, r0
  96 0038 0123     		movs	r3, #1
  97 003a 2A46     		mov	r2, r5
  98 003c 90F80102 		ldrb	r0, [r0, #513]	@ zero_extendqisi2
  99 0040 FFF7FEFF 		bl	disk_write
 100 0044 D8B9     		cbnz	r0, .L19
 101 0046 D4F82022 		ldr	r2, [r4, #544]
 102 004a D4F81832 		ldr	r3, [r4, #536]
 103 004e 84F80402 		strb	r0, [r4, #516]
 104 0052 AA1A     		subs	r2, r5, r2
 105 0054 9A42     		cmp	r2, r3
 106 0056 DDD2     		bcs	.L15
 107 0058 94F80372 		ldrb	r7, [r4, #515]	@ zero_extendqisi2
 108 005c 012F     		cmp	r7, #1
 109 005e 02D8     		bhi	.L16
 110 0060 D8E7     		b	.L15
 111              	.L30:
 112 0062 D4F81832 		ldr	r3, [r4, #536]
 113              	.L16:
 114 0066 94F80102 		ldrb	r0, [r4, #513]	@ zero_extendqisi2
 115 006a 1D44     		add	r5, r5, r3
 116 006c 013F     		subs	r7, r7, #1
 117 006e 2A46     		mov	r2, r5
ARM GAS  /tmp/ccFKl8QX.s 			page 3


 118 0070 0123     		movs	r3, #1
 119 0072 2146     		mov	r1, r4
 120 0074 FFF7FEFF 		bl	disk_write
 121 0078 012F     		cmp	r7, #1
 122 007a F2D1     		bne	.L30
 123 007c CAE7     		b	.L15
 124              	.L19:
 125 007e 0120     		movs	r0, #1
 126 0080 F8BD     		pop	{r3, r4, r5, r6, r7, pc}
 127              	.L18:
 128 0082 0020     		movs	r0, #0
 129 0084 F8BD     		pop	{r3, r4, r5, r6, r7, pc}
 131 0086 00BF     		.section	.text.find_volume,"ax",%progbits
 132              		.align	1
 133              		.p2align 2,,3
 134              		.syntax unified
 135              		.thumb
 136              		.thumb_func
 137              		.fpu fpv4-sp-d16
 139              	find_volume:
 140              		@ args = 0, pretend = 0, frame = 16
 141              		@ frame_needed = 0, uses_anonymous_args = 0
 142 0000 F0B5     		push	{r4, r5, r6, r7, lr}
 143 0002 0E68     		ldr	r6, [r1]
 144 0004 0023     		movs	r3, #0
 145 0006 85B0     		sub	sp, sp, #20
 146 0008 0360     		str	r3, [r0]
 147 000a 002E     		cmp	r6, #0
 148 000c 3CD0     		beq	.L142
 149 000e 3778     		ldrb	r7, [r6]	@ zero_extendqisi2
 150 0010 202F     		cmp	r7, #32
 151 0012 0BD9     		bls	.L33
 152 0014 3A2F     		cmp	r7, #58
 153 0016 37D0     		beq	.L142
 154 0018 3346     		mov	r3, r6
 155 001a 02E0     		b	.L34
 156              	.L155:
 157 001c 3A2C     		cmp	r4, #58
 158 001e 1FD0     		beq	.L154
 159 0020 2B46     		mov	r3, r5
 160              	.L34:
 161 0022 5C78     		ldrb	r4, [r3, #1]	@ zero_extendqisi2
 162 0024 202C     		cmp	r4, #32
 163 0026 03F10105 		add	r5, r3, #1
 164 002a F7D8     		bhi	.L155
 165              	.L33:
 166 002c AE4B     		ldr	r3, .L166
 167 002e 1C68     		ldr	r4, [r3]
 168 0030 0CB3     		cbz	r4, .L94
 169              	.L158:
 170 0032 0460     		str	r4, [r0]
 171 0034 94F80032 		ldrb	r3, [r4, #512]	@ zero_extendqisi2
 172 0038 1546     		mov	r5, r2
 173 003a 2BB1     		cbz	r3, .L36
 174 003c 94F80102 		ldrb	r0, [r4, #513]	@ zero_extendqisi2
 175 0040 FFF7FEFF 		bl	disk_status
 176 0044 C607     		lsls	r6, r0, #31
ARM GAS  /tmp/ccFKl8QX.s 			page 4


 177 0046 19D5     		bpl	.L156
 178              	.L36:
 179 0048 0020     		movs	r0, #0
 180 004a 84F80002 		strb	r0, [r4, #512]
 181 004e 84F80102 		strb	r0, [r4, #513]
 182 0052 FFF7FEFF 		bl	disk_initialize
 183 0056 C107     		lsls	r1, r0, #31
 184 0058 19D5     		bpl	.L157
 185 005a 0320     		movs	r0, #3
 186              	.L130:
 187 005c 05B0     		add	sp, sp, #20
 188              		@ sp needed
 189 005e F0BD     		pop	{r4, r5, r6, r7, pc}
 190              	.L154:
 191 0060 0136     		adds	r6, r6, #1
 192 0062 B542     		cmp	r5, r6
 193 0064 10D1     		bne	.L142
 194 0066 302F     		cmp	r7, #48
 195 0068 0ED1     		bne	.L142
 196 006a 0233     		adds	r3, r3, #2
 197 006c 0B60     		str	r3, [r1]
 198 006e 9E4B     		ldr	r3, .L166
 199 0070 1C68     		ldr	r4, [r3]
 200 0072 002C     		cmp	r4, #0
 201 0074 DDD1     		bne	.L158
 202              	.L94:
 203 0076 0C20     		movs	r0, #12
 204 0078 05B0     		add	sp, sp, #20
 205              		@ sp needed
 206 007a F0BD     		pop	{r4, r5, r6, r7, pc}
 207              	.L156:
 208 007c 55B3     		cbz	r5, .L95
 209 007e 10F00400 		ands	r0, r0, #4
 210 0082 EBD0     		beq	.L130
 211              	.L38:
 212 0084 0A20     		movs	r0, #10
 213 0086 E9E7     		b	.L130
 214              	.L142:
 215 0088 0B20     		movs	r0, #11
 216 008a 05B0     		add	sp, sp, #20
 217              		@ sp needed
 218 008c F0BD     		pop	{r4, r5, r6, r7, pc}
 219              	.L157:
 220 008e 0DB1     		cbz	r5, .L37
 221 0090 4207     		lsls	r2, r0, #29
 222 0092 F7D4     		bmi	.L38
 223              	.L37:
 224 0094 0022     		movs	r2, #0
 225 0096 4FF0FF35 		mov	r5, #-1
 226 009a 84F80422 		strb	r2, [r4, #516]
 227 009e C4F82C52 		str	r5, [r4, #556]
 228 00a2 0123     		movs	r3, #1
 229 00a4 2146     		mov	r1, r4
 230 00a6 94F80102 		ldrb	r0, [r4, #513]	@ zero_extendqisi2
 231 00aa FFF7FEFF 		bl	disk_read
 232 00ae 68B9     		cbnz	r0, .L39
 233 00b0 94F8FF21 		ldrb	r2, [r4, #511]	@ zero_extendqisi2
ARM GAS  /tmp/ccFKl8QX.s 			page 5


 234 00b4 94F8FE31 		ldrb	r3, [r4, #510]	@ zero_extendqisi2
 235 00b8 C4F82C02 		str	r0, [r4, #556]
 236 00bc 43EA0223 		orr	r3, r3, r2, lsl #8
 237 00c0 4AF65522 		movw	r2, #43605
 238 00c4 9342     		cmp	r3, r2
 239 00c6 07D0     		beq	.L159
 240              	.L71:
 241 00c8 0D20     		movs	r0, #13
 242 00ca C7E7     		b	.L130
 243              	.L39:
 244 00cc C4F82C52 		str	r5, [r4, #556]
 245 00d0 0120     		movs	r0, #1
 246 00d2 C3E7     		b	.L130
 247              	.L95:
 248 00d4 2846     		mov	r0, r5
 249 00d6 C1E7     		b	.L130
 250              	.L159:
 251 00d8 D4F83610 		ldr	r1, [r4, #54]	@ unaligned
 252 00dc 834A     		ldr	r2, .L166+4
 253 00de 21F07F43 		bic	r3, r1, #-16777216
 254 00e2 9342     		cmp	r3, r2
 255 00e4 00F0B781 		beq	.L99
 256 00e8 D4F85230 		ldr	r3, [r4, #82]	@ unaligned
 257 00ec 23F07F43 		bic	r3, r3, #-16777216
 258 00f0 9342     		cmp	r3, r2
 259 00f2 00F0B081 		beq	.L99
 260 00f6 94F8C251 		ldrb	r5, [r4, #450]	@ zero_extendqisi2
 261 00fa 0DB1     		cbz	r5, .L42
 262 00fc D4F8C651 		ldr	r5, [r4, #454]	@ unaligned
 263              	.L42:
 264 0100 94F8D231 		ldrb	r3, [r4, #466]	@ zero_extendqisi2
 265 0104 0BB1     		cbz	r3, .L43
 266 0106 D4F8D631 		ldr	r3, [r4, #470]	@ unaligned
 267              	.L43:
 268 010a 94F8E221 		ldrb	r2, [r4, #482]	@ zero_extendqisi2
 269 010e 0193     		str	r3, [sp, #4]
 270 0110 0AB1     		cbz	r2, .L44
 271 0112 D4F8E621 		ldr	r2, [r4, #486]	@ unaligned
 272              	.L44:
 273 0116 94F8F231 		ldrb	r3, [r4, #498]	@ zero_extendqisi2
 274 011a 0292     		str	r2, [sp, #8]
 275 011c 0BB1     		cbz	r3, .L45
 276 011e D4F8F631 		ldr	r3, [r4, #502]	@ unaligned
 277              	.L45:
 278 0122 0393     		str	r3, [sp, #12]
 279 0124 002D     		cmp	r5, #0
 280 0126 40F0E780 		bne	.L160
 281              	.L47:
 282 012a 019D     		ldr	r5, [sp, #4]
 283 012c 002D     		cmp	r5, #0
 284 012e 40F0C680 		bne	.L161
 285              	.L55:
 286 0132 029D     		ldr	r5, [sp, #8]
 287 0134 002D     		cmp	r5, #0
 288 0136 40F01081 		bne	.L162
 289              	.L61:
 290 013a 039D     		ldr	r5, [sp, #12]
ARM GAS  /tmp/ccFKl8QX.s 			page 6


 291 013c 002D     		cmp	r5, #0
 292 013e C3D0     		beq	.L71
 293 0140 4FF0FF36 		mov	r6, #-1
 294 0144 0023     		movs	r3, #0
 295 0146 B542     		cmp	r5, r6
 296 0148 84F80432 		strb	r3, [r4, #516]
 297 014c C4F82C62 		str	r6, [r4, #556]
 298 0150 0BD0     		beq	.L68
 299 0152 0123     		movs	r3, #1
 300 0154 2A46     		mov	r2, r5
 301 0156 2146     		mov	r1, r4
 302 0158 94F80102 		ldrb	r0, [r4, #513]	@ zero_extendqisi2
 303 015c FFF7FEFF 		bl	disk_read
 304 0160 0028     		cmp	r0, #0
 305 0162 40F00E81 		bne	.L69
 306 0166 C4F82C52 		str	r5, [r4, #556]
 307              	.L68:
 308 016a 94F8FF11 		ldrb	r1, [r4, #511]	@ zero_extendqisi2
 309 016e 94F8FE31 		ldrb	r3, [r4, #510]	@ zero_extendqisi2
 310 0172 4AF65522 		movw	r2, #43605
 311 0176 43EA0123 		orr	r3, r3, r1, lsl #8
 312 017a 9342     		cmp	r3, r2
 313 017c A4D1     		bne	.L71
 314 017e D4F83630 		ldr	r3, [r4, #54]	@ unaligned
 315 0182 5A4A     		ldr	r2, .L166+4
 316 0184 23F07F43 		bic	r3, r3, #-16777216
 317 0188 9342     		cmp	r3, r2
 318 018a 05D0     		beq	.L41
 319 018c D4F85230 		ldr	r3, [r4, #82]	@ unaligned
 320 0190 23F07F43 		bic	r3, r3, #-16777216
 321 0194 9342     		cmp	r3, r2
 322 0196 97D1     		bne	.L71
 323              	.L41:
 324 0198 227B     		ldrb	r2, [r4, #12]	@ zero_extendqisi2
 325 019a E37A     		ldrb	r3, [r4, #11]	@ zero_extendqisi2
 326 019c 43EA0223 		orr	r3, r3, r2, lsl #8
 327 01a0 B3F5007F 		cmp	r3, #512
 328 01a4 90D1     		bne	.L71
 329 01a6 E37D     		ldrb	r3, [r4, #23]	@ zero_extendqisi2
 330 01a8 217C     		ldrb	r1, [r4, #16]	@ zero_extendqisi2
 331 01aa A27D     		ldrb	r2, [r4, #22]	@ zero_extendqisi2
 332 01ac 84F80312 		strb	r1, [r4, #515]
 333 01b0 52EA0322 		orrs	r2, r2, r3, lsl #8
 334 01b4 01F1FF33 		add	r3, r1, #-1
 335 01b8 08BF     		it	eq
 336 01ba 626A     		ldreq	r2, [r4, #36]
 337 01bc C4F81822 		str	r2, [r4, #536]
 338 01c0 012B     		cmp	r3, #1
 339 01c2 81D8     		bhi	.L71
 340 01c4 94F80DE0 		ldrb	lr, [r4, #13]	@ zero_extendqisi2
 341 01c8 84F802E2 		strb	lr, [r4, #514]
 342 01cc 02FB01F1 		mul	r1, r2, r1
 343 01d0 BEF1000F 		cmp	lr, #0
 344 01d4 3FF478AF 		beq	.L71
 345 01d8 0EF1FF33 		add	r3, lr, #-1
 346 01dc 13EA0E0F 		tst	r3, lr
 347 01e0 7FF472AF 		bne	.L71
ARM GAS  /tmp/ccFKl8QX.s 			page 7


 348 01e4 A37C     		ldrb	r3, [r4, #18]	@ zero_extendqisi2
 349 01e6 667C     		ldrb	r6, [r4, #17]	@ zero_extendqisi2
 350 01e8 46EA0326 		orr	r6, r6, r3, lsl #8
 351 01ec 3307     		lsls	r3, r6, #28
 352 01ee A4F80862 		strh	r6, [r4, #520]	@ movhi
 353 01f2 7FF469AF 		bne	.L71
 354 01f6 207D     		ldrb	r0, [r4, #20]	@ zero_extendqisi2
 355 01f8 E37C     		ldrb	r3, [r4, #19]	@ zero_extendqisi2
 356 01fa E77B     		ldrb	r7, [r4, #15]	@ zero_extendqisi2
 357 01fc 53EA0023 		orrs	r3, r3, r0, lsl #8
 358 0200 A07B     		ldrb	r0, [r4, #14]	@ zero_extendqisi2
 359 0202 08BF     		it	eq
 360 0204 236A     		ldreq	r3, [r4, #32]
 361 0206 50EA0720 		orrs	r0, r0, r7, lsl #8
 362 020a 3FF45DAF 		beq	.L71
 363 020e 00EB1617 		add	r7, r0, r6, lsr #4
 364 0212 0F44     		add	r7, r7, r1
 365 0214 BB42     		cmp	r3, r7
 366 0216 FFF457AF 		bcc	.L71
 367 021a DB1B     		subs	r3, r3, r7
 368 021c B3FBFEF3 		udiv	r3, r3, lr
 369 0220 002B     		cmp	r3, #0
 370 0222 3FF451AF 		beq	.L71
 371 0226 40F6F57E 		movw	lr, #4085
 372 022a 7345     		cmp	r3, lr
 373 022c 40F23881 		bls	.L74
 374 0230 4FF6F57E 		movw	lr, #65525
 375 0234 7345     		cmp	r3, lr
 376 0236 40F21081 		bls	.L163
 377 023a 0233     		adds	r3, r3, #2
 378 023c 2844     		add	r0, r0, r5
 379 023e 2F44     		add	r7, r7, r5
 380 0240 C4F81432 		str	r3, [r4, #532]
 381 0244 C4F82002 		str	r0, [r4, #544]
 382 0248 C4F82872 		str	r7, [r4, #552]
 383 024c C4F81C52 		str	r5, [r4, #540]
 384 0250 002E     		cmp	r6, #0
 385 0252 7FF439AF 		bne	.L71
 386 0256 9B00     		lsls	r3, r3, #2
 387 0258 03F2FF13 		addw	r3, r3, #511
 388 025c E16A     		ldr	r1, [r4, #44]
 389 025e C4F82412 		str	r1, [r4, #548]
 390 0262 B2EB532F 		cmp	r2, r3, lsr #9
 391 0266 FFF42FAF 		bcc	.L71
 392 026a 94F83110 		ldrb	r1, [r4, #49]	@ zero_extendqisi2
 393 026e 94F83030 		ldrb	r3, [r4, #48]	@ zero_extendqisi2
 394 0272 43EA0123 		orr	r3, r3, r1, lsl #8
 395 0276 4FF0FF32 		mov	r2, #-1
 396 027a 8021     		movs	r1, #128
 397 027c 012B     		cmp	r3, #1
 398 027e C4F81022 		str	r2, [r4, #528]
 399 0282 C4F80C22 		str	r2, [r4, #524]
 400 0286 84F80512 		strb	r1, [r4, #517]
 401 028a 00F0B880 		beq	.L164
 402              	.L141:
 403 028e 0322     		movs	r2, #3
 404              	.L78:
ARM GAS  /tmp/ccFKl8QX.s 			page 8


 405 0290 1748     		ldr	r0, .L166+8
 406 0292 1849     		ldr	r1, .L166+12
 407 0294 0388     		ldrh	r3, [r0]
 408 0296 0D68     		ldr	r5, [r1]
 409 0298 84F80022 		strb	r2, [r4, #512]
 410 029c 0133     		adds	r3, r3, #1
 411 029e 9BB2     		uxth	r3, r3
 412 02a0 AC42     		cmp	r4, r5
 413 02a2 0380     		strh	r3, [r0]	@ movhi
 414 02a4 A4F80632 		strh	r3, [r4, #518]	@ movhi
 415 02a8 04BF     		itt	eq
 416 02aa 0023     		moveq	r3, #0
 417 02ac 0B60     		streq	r3, [r1]
 418 02ae CB68     		ldr	r3, [r1, #12]
 419 02b0 9C42     		cmp	r4, r3
 420 02b2 4FF00000 		mov	r0, #0
 421 02b6 7FF4D1AE 		bne	.L130
 422 02ba C860     		str	r0, [r1, #12]
 423 02bc CEE6     		b	.L130
 424              	.L161:
 425 02be 4FF0FF36 		mov	r6, #-1
 426 02c2 0023     		movs	r3, #0
 427 02c4 B542     		cmp	r5, r6
 428 02c6 84F80432 		strb	r3, [r4, #516]
 429 02ca C4F82C62 		str	r6, [r4, #556]
 430 02ce 7BD0     		beq	.L59
 431 02d0 0123     		movs	r3, #1
 432 02d2 2A46     		mov	r2, r5
 433 02d4 2146     		mov	r1, r4
 434 02d6 94F80102 		ldrb	r0, [r4, #513]	@ zero_extendqisi2
 435 02da FFF7FEFF 		bl	disk_read
 436 02de 0028     		cmp	r0, #0
 437 02e0 70D0     		beq	.L58
 438 02e2 C4F82C62 		str	r6, [r4, #556]
 439 02e6 24E7     		b	.L55
 440              	.L167:
 441              		.align	2
 442              	.L166:
 443 02e8 00000000 		.word	.LANCHOR0
 444 02ec 46415400 		.word	5521734
 445 02f0 00000000 		.word	.LANCHOR1
 446 02f4 00000000 		.word	.LANCHOR2
 447              	.L160:
 448 02f8 4FF0FF36 		mov	r6, #-1
 449 02fc 0023     		movs	r3, #0
 450 02fe B542     		cmp	r5, r6
 451 0300 84F80432 		strb	r3, [r4, #516]
 452 0304 C4F82C62 		str	r6, [r4, #556]
 453 0308 16D0     		beq	.L53
 454 030a 0123     		movs	r3, #1
 455 030c 2A46     		mov	r2, r5
 456 030e 2146     		mov	r1, r4
 457 0310 94F80102 		ldrb	r0, [r4, #513]	@ zero_extendqisi2
 458 0314 FFF7FEFF 		bl	disk_read
 459 0318 E0B9     		cbnz	r0, .L165
 460 031a 94F8FF21 		ldrb	r2, [r4, #511]	@ zero_extendqisi2
 461 031e 94F8FE31 		ldrb	r3, [r4, #510]	@ zero_extendqisi2
ARM GAS  /tmp/ccFKl8QX.s 			page 9


 462 0322 C4F82C52 		str	r5, [r4, #556]
 463 0326 43EA0223 		orr	r3, r3, r2, lsl #8
 464 032a 4AF65522 		movw	r2, #43605
 465 032e 9342     		cmp	r3, r2
 466 0330 7FF4FBAE 		bne	.L47
 467 0334 D4F83610 		ldr	r1, [r4, #54]	@ unaligned
 468              	.L53:
 469 0338 6D4A     		ldr	r2, .L168
 470 033a 21F07F41 		bic	r1, r1, #-16777216
 471 033e 9142     		cmp	r1, r2
 472 0340 3FF42AAF 		beq	.L41
 473 0344 D4F85230 		ldr	r3, [r4, #82]	@ unaligned
 474 0348 23F07F43 		bic	r3, r3, #-16777216
 475 034c 9342     		cmp	r3, r2
 476 034e 7FF4ECAE 		bne	.L47
 477 0352 21E7     		b	.L41
 478              	.L165:
 479 0354 C4F82C62 		str	r6, [r4, #556]
 480 0358 E7E6     		b	.L47
 481              	.L162:
 482 035a 4FF0FF36 		mov	r6, #-1
 483 035e 0023     		movs	r3, #0
 484 0360 B542     		cmp	r5, r6
 485 0362 84F80432 		strb	r3, [r4, #516]
 486 0366 C4F82C62 		str	r6, [r4, #556]
 487 036a 10D0     		beq	.L65
 488 036c 0123     		movs	r3, #1
 489 036e 2A46     		mov	r2, r5
 490 0370 2146     		mov	r1, r4
 491 0372 94F80102 		ldrb	r0, [r4, #513]	@ zero_extendqisi2
 492 0376 FFF7FEFF 		bl	disk_read
 493 037a 30B1     		cbz	r0, .L64
 494 037c C4F82C62 		str	r6, [r4, #556]
 495 0380 DBE6     		b	.L61
 496              	.L69:
 497 0382 C4F82C62 		str	r6, [r4, #556]
 498 0386 0120     		movs	r0, #1
 499 0388 68E6     		b	.L130
 500              	.L64:
 501 038a C4F82C52 		str	r5, [r4, #556]
 502              	.L65:
 503 038e 94F8FF11 		ldrb	r1, [r4, #511]	@ zero_extendqisi2
 504 0392 94F8FE31 		ldrb	r3, [r4, #510]	@ zero_extendqisi2
 505 0396 4AF65522 		movw	r2, #43605
 506 039a 43EA0123 		orr	r3, r3, r1, lsl #8
 507 039e 9342     		cmp	r3, r2
 508 03a0 7FF4CBAE 		bne	.L61
 509 03a4 D4F83630 		ldr	r3, [r4, #54]	@ unaligned
 510 03a8 514A     		ldr	r2, .L168
 511 03aa 23F07F43 		bic	r3, r3, #-16777216
 512 03ae 9342     		cmp	r3, r2
 513 03b0 3FF4F2AE 		beq	.L41
 514 03b4 D4F85230 		ldr	r3, [r4, #82]	@ unaligned
 515 03b8 23F07F43 		bic	r3, r3, #-16777216
 516 03bc 9342     		cmp	r3, r2
 517 03be 7FF4BCAE 		bne	.L61
 518 03c2 E9E6     		b	.L41
ARM GAS  /tmp/ccFKl8QX.s 			page 10


 519              	.L58:
 520 03c4 C4F82C52 		str	r5, [r4, #556]
 521              	.L59:
 522 03c8 94F8FF11 		ldrb	r1, [r4, #511]	@ zero_extendqisi2
 523 03cc 94F8FE31 		ldrb	r3, [r4, #510]	@ zero_extendqisi2
 524 03d0 4AF65522 		movw	r2, #43605
 525 03d4 43EA0123 		orr	r3, r3, r1, lsl #8
 526 03d8 9342     		cmp	r3, r2
 527 03da 7FF4AAAE 		bne	.L55
 528 03de D4F83630 		ldr	r3, [r4, #54]	@ unaligned
 529 03e2 434A     		ldr	r2, .L168
 530 03e4 23F07F43 		bic	r3, r3, #-16777216
 531 03e8 9342     		cmp	r3, r2
 532 03ea 3FF4D5AE 		beq	.L41
 533 03ee D4F85230 		ldr	r3, [r4, #82]	@ unaligned
 534 03f2 23F07F43 		bic	r3, r3, #-16777216
 535 03f6 9342     		cmp	r3, r2
 536 03f8 7FF49BAE 		bne	.L55
 537 03fc CCE6     		b	.L41
 538              	.L164:
 539 03fe 691C     		adds	r1, r5, #1
 540 0400 2046     		mov	r0, r4
 541 0402 FFF7FEFF 		bl	move_window
 542 0406 0028     		cmp	r0, #0
 543 0408 7FF441AF 		bne	.L141
 544 040c 94F8FF21 		ldrb	r2, [r4, #511]	@ zero_extendqisi2
 545 0410 94F8FE31 		ldrb	r3, [r4, #510]	@ zero_extendqisi2
 546 0414 84F80562 		strb	r6, [r4, #517]
 547 0418 43EA0223 		orr	r3, r3, r2, lsl #8
 548 041c 4AF65522 		movw	r2, #43605
 549 0420 9342     		cmp	r3, r2
 550 0422 7FF434AF 		bne	.L141
 551 0426 334B     		ldr	r3, .L168+4
 552 0428 2268     		ldr	r2, [r4]
 553 042a 9A42     		cmp	r2, r3
 554 042c 7FF42FAF 		bne	.L141
 555 0430 03F1FF53 		add	r3, r3, #534773760
 556 0434 03F50053 		add	r3, r3, #8192
 557 0438 D4F8E421 		ldr	r2, [r4, #484]
 558 043c 2033     		adds	r3, r3, #32
 559 043e 9A42     		cmp	r2, r3
 560 0440 7FF425AF 		bne	.L141
 561 0444 D4F8E821 		ldr	r2, [r4, #488]
 562 0448 D4F8EC31 		ldr	r3, [r4, #492]
 563 044c C4F81022 		str	r2, [r4, #528]
 564 0450 C4F80C32 		str	r3, [r4, #524]
 565 0454 1BE7     		b	.L141
 566              	.L99:
 567 0456 0546     		mov	r5, r0
 568 0458 9EE6     		b	.L41
 569              	.L163:
 570 045a 0233     		adds	r3, r3, #2
 571 045c 2844     		add	r0, r0, r5
 572 045e 2F44     		add	r7, r7, r5
 573 0460 C4F81432 		str	r3, [r4, #532]
 574 0464 C4F82002 		str	r0, [r4, #544]
 575 0468 C4F82872 		str	r7, [r4, #552]
ARM GAS  /tmp/ccFKl8QX.s 			page 11


 576 046c C4F81C52 		str	r5, [r4, #540]
 577 0470 002E     		cmp	r6, #0
 578 0472 3FF429AE 		beq	.L71
 579 0476 5B00     		lsls	r3, r3, #1
 580 0478 03F2FF13 		addw	r3, r3, #511
 581 047c 0844     		add	r0, r0, r1
 582 047e B2EB532F 		cmp	r2, r3, lsr #9
 583 0482 C4F82402 		str	r0, [r4, #548]
 584 0486 FFF41FAE 		bcc	.L71
 585 048a 4FF0FF33 		mov	r3, #-1
 586 048e 8022     		movs	r2, #128
 587 0490 84F80522 		strb	r2, [r4, #517]
 588 0494 C4F81032 		str	r3, [r4, #528]
 589 0498 C4F80C32 		str	r3, [r4, #524]
 590 049c 0222     		movs	r2, #2
 591 049e F7E6     		b	.L78
 592              	.L74:
 593 04a0 0233     		adds	r3, r3, #2
 594 04a2 2844     		add	r0, r0, r5
 595 04a4 2F44     		add	r7, r7, r5
 596 04a6 C4F81432 		str	r3, [r4, #532]
 597 04aa C4F82002 		str	r0, [r4, #544]
 598 04ae C4F82872 		str	r7, [r4, #552]
 599 04b2 C4F81C52 		str	r5, [r4, #540]
 600 04b6 002E     		cmp	r6, #0
 601 04b8 3FF406AE 		beq	.L71
 602 04bc 03F00105 		and	r5, r3, #1
 603 04c0 05F2FF15 		addw	r5, r5, #511
 604 04c4 03EB4303 		add	r3, r3, r3, lsl #1
 605 04c8 05EB5303 		add	r3, r5, r3, lsr #1
 606 04cc 0844     		add	r0, r0, r1
 607 04ce B2EB532F 		cmp	r2, r3, lsr #9
 608 04d2 C4F82402 		str	r0, [r4, #548]
 609 04d6 FFF4F7AD 		bcc	.L71
 610 04da 4FF0FF33 		mov	r3, #-1
 611 04de 8022     		movs	r2, #128
 612 04e0 84F80522 		strb	r2, [r4, #517]
 613 04e4 C4F81032 		str	r3, [r4, #528]
 614 04e8 C4F80C32 		str	r3, [r4, #524]
 615 04ec 0122     		movs	r2, #1
 616 04ee CFE6     		b	.L78
 617              	.L169:
 618              		.align	2
 619              	.L168:
 620 04f0 46415400 		.word	5521734
 621 04f4 52526141 		.word	1096897106
 623              		.section	.text.sync_fs,"ax",%progbits
 624              		.align	1
 625              		.p2align 2,,3
 626              		.syntax unified
 627              		.thumb
 628              		.thumb_func
 629              		.fpu fpv4-sp-d16
 631              	sync_fs:
 632              		@ args = 0, pretend = 0, frame = 0
 633              		@ frame_needed = 0, uses_anonymous_args = 0
 634 0000 F8B5     		push	{r3, r4, r5, r6, r7, lr}
ARM GAS  /tmp/ccFKl8QX.s 			page 12


 635 0002 90F80432 		ldrb	r3, [r0, #516]	@ zero_extendqisi2
 636 0006 0446     		mov	r4, r0
 637 0008 6BB9     		cbnz	r3, .L186
 638              	.L171:
 639 000a 94F80032 		ldrb	r3, [r4, #512]	@ zero_extendqisi2
 640 000e 032B     		cmp	r3, #3
 641 0010 31D0     		beq	.L187
 642              	.L174:
 643 0012 0022     		movs	r2, #0
 644 0014 94F80102 		ldrb	r0, [r4, #513]	@ zero_extendqisi2
 645 0018 1146     		mov	r1, r2
 646 001a FFF7FEFF 		bl	disk_ioctl
 647 001e 0030     		adds	r0, r0, #0
 648 0020 18BF     		it	ne
 649 0022 0120     		movne	r0, #1
 650 0024 F8BD     		pop	{r3, r4, r5, r6, r7, pc}
 651              	.L186:
 652 0026 D0F82C52 		ldr	r5, [r0, #556]
 653 002a 90F80102 		ldrb	r0, [r0, #513]	@ zero_extendqisi2
 654 002e 2A46     		mov	r2, r5
 655 0030 0123     		movs	r3, #1
 656 0032 2146     		mov	r1, r4
 657 0034 FFF7FEFF 		bl	disk_write
 658 0038 D8B9     		cbnz	r0, .L176
 659 003a D4F82022 		ldr	r2, [r4, #544]
 660 003e D4F81832 		ldr	r3, [r4, #536]
 661 0042 84F80402 		strb	r0, [r4, #516]
 662 0046 AA1A     		subs	r2, r5, r2
 663 0048 9A42     		cmp	r2, r3
 664 004a DED2     		bcs	.L171
 665 004c 94F80362 		ldrb	r6, [r4, #515]	@ zero_extendqisi2
 666 0050 012E     		cmp	r6, #1
 667 0052 02D8     		bhi	.L173
 668 0054 D9E7     		b	.L171
 669              	.L188:
 670 0056 D4F81832 		ldr	r3, [r4, #536]
 671              	.L173:
 672 005a 94F80102 		ldrb	r0, [r4, #513]	@ zero_extendqisi2
 673 005e 1D44     		add	r5, r5, r3
 674 0060 013E     		subs	r6, r6, #1
 675 0062 2A46     		mov	r2, r5
 676 0064 0123     		movs	r3, #1
 677 0066 2146     		mov	r1, r4
 678 0068 FFF7FEFF 		bl	disk_write
 679 006c 012E     		cmp	r6, #1
 680 006e F2D1     		bne	.L188
 681 0070 CBE7     		b	.L171
 682              	.L176:
 683 0072 0120     		movs	r0, #1
 684 0074 F8BD     		pop	{r3, r4, r5, r6, r7, pc}
 685              	.L187:
 686 0076 94F80552 		ldrb	r5, [r4, #517]	@ zero_extendqisi2
 687 007a 012D     		cmp	r5, #1
 688 007c C9D1     		bne	.L174
 689 007e 4FF40072 		mov	r2, #512
 690 0082 0021     		movs	r1, #0
 691 0084 2046     		mov	r0, r4
ARM GAS  /tmp/ccFKl8QX.s 			page 13


 692 0086 FFF7FEFF 		bl	memset
 693 008a D4F81002 		ldr	r0, [r4, #528]
 694 008e D4F80C12 		ldr	r1, [r4, #524]
 695 0092 D4F81C22 		ldr	r2, [r4, #540]
 696 0096 84F8E801 		strb	r0, [r4, #488]
 697 009a C0F3072E 		ubfx	lr, r0, #8, #8
 698 009e 2B46     		mov	r3, r5
 699 00a0 050C     		lsrs	r5, r0, #16
 700 00a2 000E     		lsrs	r0, r0, #24
 701 00a4 84F8EA51 		strb	r5, [r4, #490]
 702 00a8 84F8EB01 		strb	r0, [r4, #491]
 703 00ac C1F30725 		ubfx	r5, r1, #8, #8
 704 00b0 080C     		lsrs	r0, r1, #16
 705 00b2 0132     		adds	r2, r2, #1
 706 00b4 84F8EC11 		strb	r1, [r4, #492]
 707 00b8 84F8ED51 		strb	r5, [r4, #493]
 708 00bc 090E     		lsrs	r1, r1, #24
 709 00be 84F8EE01 		strb	r0, [r4, #494]
 710 00c2 0D4F     		ldr	r7, .L189
 711 00c4 0D4E     		ldr	r6, .L189+4
 712 00c6 84F8EF11 		strb	r1, [r4, #495]
 713 00ca AA20     		movs	r0, #170
 714 00cc 5525     		movs	r5, #85
 715 00ce 84F8FF01 		strb	r0, [r4, #511]
 716 00d2 84F8E9E1 		strb	lr, [r4, #489]
 717 00d6 C4F82C22 		str	r2, [r4, #556]
 718 00da 84F8FE51 		strb	r5, [r4, #510]
 719 00de 2760     		str	r7, [r4]
 720 00e0 C4F8E461 		str	r6, [r4, #484]
 721 00e4 2146     		mov	r1, r4
 722 00e6 94F80102 		ldrb	r0, [r4, #513]	@ zero_extendqisi2
 723 00ea FFF7FEFF 		bl	disk_write
 724 00ee 0023     		movs	r3, #0
 725 00f0 84F80532 		strb	r3, [r4, #517]
 726 00f4 8DE7     		b	.L174
 727              	.L190:
 728 00f6 00BF     		.align	2
 729              	.L189:
 730 00f8 52526141 		.word	1096897106
 731 00fc 72724161 		.word	1631679090
 733              		.section	.text.put_fat.part.8,"ax",%progbits
 734              		.align	1
 735              		.p2align 2,,3
 736              		.syntax unified
 737              		.thumb
 738              		.thumb_func
 739              		.fpu fpv4-sp-d16
 741              	put_fat.part.8:
 742              		@ args = 0, pretend = 0, frame = 0
 743              		@ frame_needed = 0, uses_anonymous_args = 0
 744 0000 2DE9F047 		push	{r4, r5, r6, r7, r8, r9, r10, lr}
 745 0004 90F80032 		ldrb	r3, [r0, #512]	@ zero_extendqisi2
 746 0008 022B     		cmp	r3, #2
 747 000a 0446     		mov	r4, r0
 748 000c 0D46     		mov	r5, r1
 749 000e 1746     		mov	r7, r2
 750 0010 00F0AB80 		beq	.L193
ARM GAS  /tmp/ccFKl8QX.s 			page 14


 751 0014 032B     		cmp	r3, #3
 752 0016 77D0     		beq	.L194
 753 0018 012B     		cmp	r3, #1
 754 001a 02D0     		beq	.L255
 755 001c 0220     		movs	r0, #2
 756 001e BDE8F087 		pop	{r4, r5, r6, r7, r8, r9, r10, pc}
 757              	.L255:
 758 0022 D0F82022 		ldr	r2, [r0, #544]
 759 0026 D0F82C62 		ldr	r6, [r0, #556]
 760 002a 01EB5108 		add	r8, r1, r1, lsr #1
 761 002e 02EB5829 		add	r9, r2, r8, lsr #9
 762 0032 B145     		cmp	r9, r6
 763 0034 13D0     		beq	.L196
 764 0036 90F80422 		ldrb	r2, [r0, #516]	@ zero_extendqisi2
 765 003a 002A     		cmp	r2, #0
 766 003c 40F0E380 		bne	.L256
 767              	.L197:
 768 0040 0123     		movs	r3, #1
 769 0042 4A46     		mov	r2, r9
 770 0044 2146     		mov	r1, r4
 771 0046 94F80102 		ldrb	r0, [r4, #513]	@ zero_extendqisi2
 772 004a FFF7FEFF 		bl	disk_read
 773 004e 0028     		cmp	r0, #0
 774 0050 40F02A81 		bne	.L214
 775 0054 D4F82022 		ldr	r2, [r4, #544]
 776 0058 C4F82C92 		str	r9, [r4, #556]
 777 005c 4E46     		mov	r6, r9
 778              	.L196:
 779 005e 15F0010A 		ands	r10, r5, #1
 780 0062 08F10109 		add	r9, r8, #1
 781 0066 C8F30808 		ubfx	r8, r8, #0, #9
 782 006a 00F02481 		beq	.L200
 783 006e 14F80830 		ldrb	r3, [r4, r8]	@ zero_extendqisi2
 784 0072 02EB5925 		add	r5, r2, r9, lsr #9
 785 0076 03F00F03 		and	r3, r3, #15
 786 007a 43EA0713 		orr	r3, r3, r7, lsl #4
 787 007e 0122     		movs	r2, #1
 788 0080 AE42     		cmp	r6, r5
 789 0082 04F80830 		strb	r3, [r4, r8]
 790 0086 84F80422 		strb	r2, [r4, #516]
 791 008a 00F02D81 		beq	.L257
 792              	.L201:
 793 008e 0123     		movs	r3, #1
 794 0090 3246     		mov	r2, r6
 795 0092 2146     		mov	r1, r4
 796 0094 94F80102 		ldrb	r0, [r4, #513]	@ zero_extendqisi2
 797 0098 FFF7FEFF 		bl	disk_write
 798 009c 0028     		cmp	r0, #0
 799 009e 40F00781 		bne	.L250
 800 00a2 D4F82022 		ldr	r2, [r4, #544]
 801 00a6 D4F81832 		ldr	r3, [r4, #536]
 802 00aa 84F80402 		strb	r0, [r4, #516]
 803 00ae B21A     		subs	r2, r6, r2
 804 00b0 9A42     		cmp	r2, r3
 805 00b2 14D2     		bcs	.L205
 806 00b4 94F80382 		ldrb	r8, [r4, #515]	@ zero_extendqisi2
 807 00b8 B8F1010F 		cmp	r8, #1
ARM GAS  /tmp/ccFKl8QX.s 			page 15


 808 00bc 02D8     		bhi	.L206
 809 00be 0EE0     		b	.L205
 810              	.L258:
 811 00c0 D4F81832 		ldr	r3, [r4, #536]
 812              	.L206:
 813 00c4 94F80102 		ldrb	r0, [r4, #513]	@ zero_extendqisi2
 814 00c8 1E44     		add	r6, r6, r3
 815 00ca 08F1FF38 		add	r8, r8, #-1
 816 00ce 3246     		mov	r2, r6
 817 00d0 0123     		movs	r3, #1
 818 00d2 2146     		mov	r1, r4
 819 00d4 FFF7FEFF 		bl	disk_write
 820 00d8 B8F1010F 		cmp	r8, #1
 821 00dc F0D1     		bne	.L258
 822              	.L205:
 823 00de 0123     		movs	r3, #1
 824 00e0 2A46     		mov	r2, r5
 825 00e2 2146     		mov	r1, r4
 826 00e4 94F80102 		ldrb	r0, [r4, #513]	@ zero_extendqisi2
 827 00e8 FFF7FEFF 		bl	disk_read
 828 00ec 0028     		cmp	r0, #0
 829 00ee 40F0DB80 		bne	.L214
 830 00f2 C4F82C52 		str	r5, [r4, #556]
 831 00f6 C9F30803 		ubfx	r3, r9, #0, #9
 832 00fa BAF1000F 		cmp	r10, #0
 833 00fe 00F0E680 		beq	.L220
 834              	.L219:
 835 0102 C7F30717 		ubfx	r7, r7, #4, #8
 836 0106 E8E0     		b	.L207
 837              	.L194:
 838 0108 D0F82062 		ldr	r6, [r0, #544]
 839 010c D0F82C92 		ldr	r9, [r0, #556]
 840 0110 06EBD116 		add	r6, r6, r1, lsr #7
 841 0114 4E45     		cmp	r6, r9
 842 0116 10D0     		beq	.L211
 843 0118 90F80432 		ldrb	r3, [r0, #516]	@ zero_extendqisi2
 844 011c 002B     		cmp	r3, #0
 845 011e 40F09A80 		bne	.L259
 846              	.L212:
 847 0122 0123     		movs	r3, #1
 848 0124 3246     		mov	r2, r6
 849 0126 2146     		mov	r1, r4
 850 0128 94F80102 		ldrb	r0, [r4, #513]	@ zero_extendqisi2
 851 012c FFF7FEFF 		bl	disk_read
 852 0130 0028     		cmp	r0, #0
 853 0132 40F0B980 		bne	.L214
 854 0136 C4F82C62 		str	r6, [r4, #556]
 855              	.L211:
 856 013a AD00     		lsls	r5, r5, #2
 857 013c 05F4FE75 		and	r5, r5, #508
 858 0140 6219     		adds	r2, r4, r5
 859 0142 0121     		movs	r1, #1
 860 0144 D378     		ldrb	r3, [r2, #3]	@ zero_extendqisi2
 861 0146 1B06     		lsls	r3, r3, #24
 862 0148 03F07043 		and	r3, r3, #-268435456
 863 014c 1F43     		orrs	r7, r7, r3
 864 014e 6755     		strb	r7, [r4, r5]
ARM GAS  /tmp/ccFKl8QX.s 			page 16


 865 0150 C7F3072E 		ubfx	lr, r7, #8, #8
 866 0154 3E0C     		lsrs	r6, r7, #16
 867 0156 3B0E     		lsrs	r3, r7, #24
 868 0158 82F801E0 		strb	lr, [r2, #1]
 869 015c 9670     		strb	r6, [r2, #2]
 870 015e D370     		strb	r3, [r2, #3]
 871 0160 84F80412 		strb	r1, [r4, #516]
 872 0164 0020     		movs	r0, #0
 873 0166 BDE8F087 		pop	{r4, r5, r6, r7, r8, r9, r10, pc}
 874              	.L193:
 875 016a D0F82062 		ldr	r6, [r0, #544]
 876 016e D0F82C92 		ldr	r9, [r0, #556]
 877 0172 06EB1126 		add	r6, r6, r1, lsr #8
 878 0176 4E45     		cmp	r6, r9
 879 0178 0ED0     		beq	.L208
 880 017a 90F80432 		ldrb	r3, [r0, #516]	@ zero_extendqisi2
 881 017e CBB9     		cbnz	r3, .L260
 882              	.L209:
 883 0180 0123     		movs	r3, #1
 884 0182 3246     		mov	r2, r6
 885 0184 2146     		mov	r1, r4
 886 0186 94F80102 		ldrb	r0, [r4, #513]	@ zero_extendqisi2
 887 018a FFF7FEFF 		bl	disk_read
 888 018e 0028     		cmp	r0, #0
 889 0190 40F08A80 		bne	.L214
 890 0194 C4F82C62 		str	r6, [r4, #556]
 891              	.L208:
 892 0198 6D00     		lsls	r5, r5, #1
 893 019a 05F4FF75 		and	r5, r5, #510
 894 019e 6219     		adds	r2, r4, r5
 895 01a0 6755     		strb	r7, [r4, r5]
 896 01a2 C7F30721 		ubfx	r1, r7, #8, #8
 897 01a6 0123     		movs	r3, #1
 898 01a8 5170     		strb	r1, [r2, #1]
 899 01aa 84F80432 		strb	r3, [r4, #516]
 900 01ae 0020     		movs	r0, #0
 901 01b0 BDE8F087 		pop	{r4, r5, r6, r7, r8, r9, r10, pc}
 902              	.L260:
 903 01b4 0146     		mov	r1, r0
 904 01b6 0123     		movs	r3, #1
 905 01b8 4A46     		mov	r2, r9
 906 01ba 90F80102 		ldrb	r0, [r0, #513]	@ zero_extendqisi2
 907 01be FFF7FEFF 		bl	disk_write
 908 01c2 0028     		cmp	r0, #0
 909 01c4 74D1     		bne	.L250
 910 01c6 D4F82022 		ldr	r2, [r4, #544]
 911 01ca D4F81832 		ldr	r3, [r4, #536]
 912 01ce 84F80402 		strb	r0, [r4, #516]
 913 01d2 A9EB0202 		sub	r2, r9, r2
 914 01d6 9A42     		cmp	r2, r3
 915 01d8 D2D2     		bcs	.L209
 916 01da 94F80382 		ldrb	r8, [r4, #515]	@ zero_extendqisi2
 917 01de B8F1010F 		cmp	r8, #1
 918 01e2 02D8     		bhi	.L210
 919 01e4 CCE7     		b	.L209
 920              	.L261:
 921 01e6 D4F81832 		ldr	r3, [r4, #536]
ARM GAS  /tmp/ccFKl8QX.s 			page 17


 922              	.L210:
 923 01ea 94F80102 		ldrb	r0, [r4, #513]	@ zero_extendqisi2
 924 01ee 9944     		add	r9, r9, r3
 925 01f0 08F1FF38 		add	r8, r8, #-1
 926 01f4 4A46     		mov	r2, r9
 927 01f6 0123     		movs	r3, #1
 928 01f8 2146     		mov	r1, r4
 929 01fa FFF7FEFF 		bl	disk_write
 930 01fe B8F1010F 		cmp	r8, #1
 931 0202 F0D1     		bne	.L261
 932 0204 BCE7     		b	.L209
 933              	.L256:
 934 0206 0146     		mov	r1, r0
 935 0208 3246     		mov	r2, r6
 936 020a 90F80102 		ldrb	r0, [r0, #513]	@ zero_extendqisi2
 937 020e FFF7FEFF 		bl	disk_write
 938 0212 0028     		cmp	r0, #0
 939 0214 4CD1     		bne	.L250
 940 0216 D4F82022 		ldr	r2, [r4, #544]
 941 021a D4F81832 		ldr	r3, [r4, #536]
 942 021e 84F80402 		strb	r0, [r4, #516]
 943 0222 B21A     		subs	r2, r6, r2
 944 0224 9A42     		cmp	r2, r3
 945 0226 BFF40BAF 		bcs	.L197
 946 022a 94F803A2 		ldrb	r10, [r4, #515]	@ zero_extendqisi2
 947 022e BAF1010F 		cmp	r10, #1
 948 0232 02D8     		bhi	.L199
 949 0234 04E7     		b	.L197
 950              	.L262:
 951 0236 D4F81832 		ldr	r3, [r4, #536]
 952              	.L199:
 953 023a 94F80102 		ldrb	r0, [r4, #513]	@ zero_extendqisi2
 954 023e 1E44     		add	r6, r6, r3
 955 0240 0AF1FF3A 		add	r10, r10, #-1
 956 0244 3246     		mov	r2, r6
 957 0246 0123     		movs	r3, #1
 958 0248 2146     		mov	r1, r4
 959 024a FFF7FEFF 		bl	disk_write
 960 024e BAF1010F 		cmp	r10, #1
 961 0252 F0D1     		bne	.L262
 962 0254 F4E6     		b	.L197
 963              	.L259:
 964 0256 0146     		mov	r1, r0
 965 0258 0123     		movs	r3, #1
 966 025a 4A46     		mov	r2, r9
 967 025c 90F80102 		ldrb	r0, [r0, #513]	@ zero_extendqisi2
 968 0260 FFF7FEFF 		bl	disk_write
 969 0264 20BB     		cbnz	r0, .L250
 970 0266 D4F82022 		ldr	r2, [r4, #544]
 971 026a D4F81832 		ldr	r3, [r4, #536]
 972 026e 84F80402 		strb	r0, [r4, #516]
 973 0272 A9EB0202 		sub	r2, r9, r2
 974 0276 9A42     		cmp	r2, r3
 975 0278 BFF453AF 		bcs	.L212
 976 027c 94F80382 		ldrb	r8, [r4, #515]	@ zero_extendqisi2
 977 0280 B8F1010F 		cmp	r8, #1
 978 0284 02D8     		bhi	.L213
ARM GAS  /tmp/ccFKl8QX.s 			page 18


 979 0286 4CE7     		b	.L212
 980              	.L263:
 981 0288 D4F81832 		ldr	r3, [r4, #536]
 982              	.L213:
 983 028c 94F80102 		ldrb	r0, [r4, #513]	@ zero_extendqisi2
 984 0290 9944     		add	r9, r9, r3
 985 0292 08F1FF38 		add	r8, r8, #-1
 986 0296 4A46     		mov	r2, r9
 987 0298 0123     		movs	r3, #1
 988 029a 2146     		mov	r1, r4
 989 029c FFF7FEFF 		bl	disk_write
 990 02a0 B8F1010F 		cmp	r8, #1
 991 02a4 F0D1     		bne	.L263
 992 02a6 3CE7     		b	.L212
 993              	.L214:
 994 02a8 4FF0FF33 		mov	r3, #-1
 995 02ac C4F82C32 		str	r3, [r4, #556]
 996              	.L250:
 997 02b0 0120     		movs	r0, #1
 998 02b2 BDE8F087 		pop	{r4, r5, r6, r7, r8, r9, r10, pc}
 999              	.L200:
 1000 02b6 02EB5925 		add	r5, r2, r9, lsr #9
 1001 02ba 0123     		movs	r3, #1
 1002 02bc AE42     		cmp	r6, r5
 1003 02be 04F80870 		strb	r7, [r4, r8]
 1004 02c2 84F80432 		strb	r3, [r4, #516]
 1005 02c6 7FF4E2AE 		bne	.L201
 1006 02ca C9F30803 		ubfx	r3, r9, #0, #9
 1007              	.L220:
 1008 02ce E25C     		ldrb	r2, [r4, r3]	@ zero_extendqisi2
 1009 02d0 C7F30321 		ubfx	r1, r7, #8, #4
 1010 02d4 22F00F07 		bic	r7, r2, #15
 1011 02d8 0F43     		orrs	r7, r7, r1
 1012              	.L207:
 1013 02da 0122     		movs	r2, #1
 1014 02dc E754     		strb	r7, [r4, r3]
 1015 02de 84F80422 		strb	r2, [r4, #516]
 1016 02e2 0020     		movs	r0, #0
 1017 02e4 BDE8F087 		pop	{r4, r5, r6, r7, r8, r9, r10, pc}
 1018              	.L257:
 1019 02e8 C9F30803 		ubfx	r3, r9, #0, #9
 1020 02ec 09E7     		b	.L219
 1022 02ee 00BF     		.section	.text.remove_chain.part.10,"ax",%progbits
 1023              		.align	1
 1024              		.p2align 2,,3
 1025              		.syntax unified
 1026              		.thumb
 1027              		.thumb_func
 1028              		.fpu fpv4-sp-d16
 1030              	remove_chain.part.10:
 1031              		@ args = 0, pretend = 0, frame = 0
 1032              		@ frame_needed = 0, uses_anonymous_args = 0
 1033 0000 2DE9F047 		push	{r4, r5, r6, r7, r8, r9, r10, lr}
 1034 0004 0446     		mov	r4, r0
 1035 0006 0D46     		mov	r5, r1
 1036 0008 D4F81432 		ldr	r3, [r4, #532]
 1037 000c 9D42     		cmp	r5, r3
ARM GAS  /tmp/ccFKl8QX.s 			page 19


 1038 000e 80F09280 		bcs	.L292
 1039              	.L291:
 1040 0012 012D     		cmp	r5, #1
 1041 0014 08D9     		bls	.L332
 1042 0016 94F80032 		ldrb	r3, [r4, #512]	@ zero_extendqisi2
 1043 001a 022B     		cmp	r3, #2
 1044 001c 00F08E80 		beq	.L268
 1045 0020 032B     		cmp	r3, #3
 1046 0022 41D0     		beq	.L269
 1047 0024 012B     		cmp	r3, #1
 1048 0026 02D0     		beq	.L346
 1049              	.L332:
 1050 0028 0220     		movs	r0, #2
 1051 002a BDE8F087 		pop	{r4, r5, r6, r7, r8, r9, r10, pc}
 1052              	.L346:
 1053 002e D4F82072 		ldr	r7, [r4, #544]
 1054 0032 D4F82C62 		ldr	r6, [r4, #556]
 1055 0036 05EB5509 		add	r9, r5, r5, lsr #1
 1056 003a 07EB5928 		add	r8, r7, r9, lsr #9
 1057 003e B045     		cmp	r8, r6
 1058 0040 11D0     		beq	.L271
 1059 0042 94F80422 		ldrb	r2, [r4, #516]	@ zero_extendqisi2
 1060 0046 002A     		cmp	r2, #0
 1061 0048 40F0CA80 		bne	.L347
 1062              	.L272:
 1063 004c 0123     		movs	r3, #1
 1064 004e 4246     		mov	r2, r8
 1065 0050 2146     		mov	r1, r4
 1066 0052 94F80102 		ldrb	r0, [r4, #513]	@ zero_extendqisi2
 1067 0056 FFF7FEFF 		bl	disk_read
 1068 005a F0B9     		cbnz	r0, .L295
 1069 005c D4F82072 		ldr	r7, [r4, #544]
 1070 0060 C4F82C82 		str	r8, [r4, #556]
 1071 0064 4646     		mov	r6, r8
 1072              	.L271:
 1073 0066 09F10108 		add	r8, r9, #1
 1074 006a 07EB5827 		add	r7, r7, r8, lsr #9
 1075 006e C9F30809 		ubfx	r9, r9, #0, #9
 1076 0072 B742     		cmp	r7, r6
 1077 0074 14F809A0 		ldrb	r10, [r4, r9]	@ zero_extendqisi2
 1078 0078 00F0F680 		beq	.L275
 1079 007c 94F80432 		ldrb	r3, [r4, #516]	@ zero_extendqisi2
 1080 0080 002B     		cmp	r3, #0
 1081 0082 40F0FD80 		bne	.L348
 1082              	.L276:
 1083 0086 0123     		movs	r3, #1
 1084 0088 3A46     		mov	r2, r7
 1085 008a 2146     		mov	r1, r4
 1086 008c 94F80102 		ldrb	r0, [r4, #513]	@ zero_extendqisi2
 1087 0090 FFF7FEFF 		bl	disk_read
 1088 0094 0028     		cmp	r0, #0
 1089 0096 00F0E580 		beq	.L349
 1090              	.L295:
 1091 009a 4FF0FF33 		mov	r3, #-1
 1092 009e C4F82C32 		str	r3, [r4, #556]
 1093              	.L340:
 1094 00a2 0120     		movs	r0, #1
ARM GAS  /tmp/ccFKl8QX.s 			page 20


 1095 00a4 BDE8F087 		pop	{r4, r5, r6, r7, r8, r9, r10, pc}
 1096              	.L269:
 1097 00a8 D4F82062 		ldr	r6, [r4, #544]
 1098 00ac D4F82C82 		ldr	r8, [r4, #556]
 1099 00b0 06EBD516 		add	r6, r6, r5, lsr #7
 1100 00b4 4645     		cmp	r6, r8
 1101 00b6 0ED0     		beq	.L284
 1102 00b8 94F80432 		ldrb	r3, [r4, #516]	@ zero_extendqisi2
 1103 00bc 002B     		cmp	r3, #0
 1104 00be 5ED1     		bne	.L350
 1105              	.L285:
 1106 00c0 0123     		movs	r3, #1
 1107 00c2 3246     		mov	r2, r6
 1108 00c4 2146     		mov	r1, r4
 1109 00c6 94F80102 		ldrb	r0, [r4, #513]	@ zero_extendqisi2
 1110 00ca FFF7FEFF 		bl	disk_read
 1111 00ce 0028     		cmp	r0, #0
 1112 00d0 E3D1     		bne	.L295
 1113 00d2 C4F82C62 		str	r6, [r4, #556]
 1114              	.L284:
 1115 00d6 AB00     		lsls	r3, r5, #2
 1116 00d8 03F4FE73 		and	r3, r3, #508
 1117 00dc E218     		adds	r2, r4, r3
 1118 00de E15C     		ldrb	r1, [r4, r3]	@ zero_extendqisi2
 1119 00e0 9678     		ldrb	r6, [r2, #2]	@ zero_extendqisi2
 1120 00e2 D078     		ldrb	r0, [r2, #3]	@ zero_extendqisi2
 1121 00e4 5378     		ldrb	r3, [r2, #1]	@ zero_extendqisi2
 1122 00e6 3604     		lsls	r6, r6, #16
 1123 00e8 46EA0066 		orr	r6, r6, r0, lsl #24
 1124 00ec 0E43     		orrs	r6, r6, r1
 1125 00ee 46EA0326 		orr	r6, r6, r3, lsl #8
 1126 00f2 26F07046 		bic	r6, r6, #-268435456
 1127              	.L280:
 1128 00f6 F6B1     		cbz	r6, .L292
 1129 00f8 012E     		cmp	r6, #1
 1130 00fa 95D0     		beq	.L332
 1131 00fc D4F81432 		ldr	r3, [r4, #532]
 1132 0100 9D42     		cmp	r5, r3
 1133 0102 91D2     		bcs	.L332
 1134 0104 2946     		mov	r1, r5
 1135 0106 0022     		movs	r2, #0
 1136 0108 2046     		mov	r0, r4
 1137 010a FFF7FEFF 		bl	put_fat.part.8
 1138 010e A0BB     		cbnz	r0, .L301
 1139 0110 D4F81032 		ldr	r3, [r4, #528]
 1140 0114 5A1C     		adds	r2, r3, #1
 1141 0116 08D0     		beq	.L290
 1142 0118 94F80522 		ldrb	r2, [r4, #517]	@ zero_extendqisi2
 1143 011c 0133     		adds	r3, r3, #1
 1144 011e 42F00102 		orr	r2, r2, #1
 1145 0122 C4F81032 		str	r3, [r4, #528]
 1146 0126 84F80522 		strb	r2, [r4, #517]
 1147              	.L290:
 1148 012a D4F81432 		ldr	r3, [r4, #532]
 1149 012e 3546     		mov	r5, r6
 1150 0130 9D42     		cmp	r5, r3
 1151 0132 FFF46EAF 		bcc	.L291
ARM GAS  /tmp/ccFKl8QX.s 			page 21


 1152              	.L292:
 1153 0136 0020     		movs	r0, #0
 1154 0138 BDE8F087 		pop	{r4, r5, r6, r7, r8, r9, r10, pc}
 1155              	.L268:
 1156 013c D4F82062 		ldr	r6, [r4, #544]
 1157 0140 D4F82C82 		ldr	r8, [r4, #556]
 1158 0144 06EB1526 		add	r6, r6, r5, lsr #8
 1159 0148 4645     		cmp	r6, r8
 1160 014a 0DD0     		beq	.L281
 1161 014c 94F80432 		ldrb	r3, [r4, #516]	@ zero_extendqisi2
 1162 0150 6BBB     		cbnz	r3, .L351
 1163              	.L282:
 1164 0152 0123     		movs	r3, #1
 1165 0154 3246     		mov	r2, r6
 1166 0156 2146     		mov	r1, r4
 1167 0158 94F80102 		ldrb	r0, [r4, #513]	@ zero_extendqisi2
 1168 015c FFF7FEFF 		bl	disk_read
 1169 0160 0028     		cmp	r0, #0
 1170 0162 9AD1     		bne	.L295
 1171 0164 C4F82C62 		str	r6, [r4, #556]
 1172              	.L281:
 1173 0168 6B00     		lsls	r3, r5, #1
 1174 016a 03F4FF73 		and	r3, r3, #510
 1175 016e E218     		adds	r2, r4, r3
 1176 0170 E65C     		ldrb	r6, [r4, r3]	@ zero_extendqisi2
 1177 0172 5378     		ldrb	r3, [r2, #1]	@ zero_extendqisi2
 1178 0174 46EA0326 		orr	r6, r6, r3, lsl #8
 1179 0178 BDE7     		b	.L280
 1180              	.L301:
 1181 017a BDE8F087 		pop	{r4, r5, r6, r7, r8, r9, r10, pc}
 1182              	.L350:
 1183 017e 0123     		movs	r3, #1
 1184 0180 4246     		mov	r2, r8
 1185 0182 2146     		mov	r1, r4
 1186 0184 94F80102 		ldrb	r0, [r4, #513]	@ zero_extendqisi2
 1187 0188 FFF7FEFF 		bl	disk_write
 1188 018c 0028     		cmp	r0, #0
 1189 018e 88D1     		bne	.L340
 1190 0190 D4F82022 		ldr	r2, [r4, #544]
 1191 0194 D4F81832 		ldr	r3, [r4, #536]
 1192 0198 84F80402 		strb	r0, [r4, #516]
 1193 019c A8EB0202 		sub	r2, r8, r2
 1194 01a0 9A42     		cmp	r2, r3
 1195 01a2 8DD2     		bcs	.L285
 1196 01a4 94F80372 		ldrb	r7, [r4, #515]	@ zero_extendqisi2
 1197 01a8 012F     		cmp	r7, #1
 1198 01aa 4FD8     		bhi	.L286
 1199 01ac 88E7     		b	.L285
 1200              	.L351:
 1201 01ae 0123     		movs	r3, #1
 1202 01b0 4246     		mov	r2, r8
 1203 01b2 2146     		mov	r1, r4
 1204 01b4 94F80102 		ldrb	r0, [r4, #513]	@ zero_extendqisi2
 1205 01b8 FFF7FEFF 		bl	disk_write
 1206 01bc 0028     		cmp	r0, #0
 1207 01be 7FF470AF 		bne	.L340
 1208 01c2 D4F82022 		ldr	r2, [r4, #544]
ARM GAS  /tmp/ccFKl8QX.s 			page 22


 1209 01c6 D4F81832 		ldr	r3, [r4, #536]
 1210 01ca 84F80402 		strb	r0, [r4, #516]
 1211 01ce A8EB0202 		sub	r2, r8, r2
 1212 01d2 9A42     		cmp	r2, r3
 1213 01d4 BDD2     		bcs	.L282
 1214 01d6 94F80372 		ldrb	r7, [r4, #515]	@ zero_extendqisi2
 1215 01da 012F     		cmp	r7, #1
 1216 01dc 28D8     		bhi	.L283
 1217 01de B8E7     		b	.L282
 1218              	.L347:
 1219 01e0 3246     		mov	r2, r6
 1220 01e2 2146     		mov	r1, r4
 1221 01e4 94F80102 		ldrb	r0, [r4, #513]	@ zero_extendqisi2
 1222 01e8 FFF7FEFF 		bl	disk_write
 1223 01ec 0028     		cmp	r0, #0
 1224 01ee 7FF458AF 		bne	.L340
 1225 01f2 D4F82022 		ldr	r2, [r4, #544]
 1226 01f6 D4F81832 		ldr	r3, [r4, #536]
 1227 01fa 84F80402 		strb	r0, [r4, #516]
 1228 01fe B21A     		subs	r2, r6, r2
 1229 0200 9A42     		cmp	r2, r3
 1230 0202 BFF423AF 		bcs	.L272
 1231 0206 94F80372 		ldrb	r7, [r4, #515]	@ zero_extendqisi2
 1232 020a 012F     		cmp	r7, #1
 1233 020c 02D8     		bhi	.L274
 1234 020e 1DE7     		b	.L272
 1235              	.L352:
 1236 0210 D4F81832 		ldr	r3, [r4, #536]
 1237              	.L274:
 1238 0214 94F80102 		ldrb	r0, [r4, #513]	@ zero_extendqisi2
 1239 0218 1E44     		add	r6, r6, r3
 1240 021a 013F     		subs	r7, r7, #1
 1241 021c 3246     		mov	r2, r6
 1242 021e 0123     		movs	r3, #1
 1243 0220 2146     		mov	r1, r4
 1244 0222 FFF7FEFF 		bl	disk_write
 1245 0226 012F     		cmp	r7, #1
 1246 0228 F2D1     		bne	.L352
 1247 022a 0FE7     		b	.L272
 1248              	.L353:
 1249 022c D4F81832 		ldr	r3, [r4, #536]
 1250              	.L283:
 1251 0230 94F80102 		ldrb	r0, [r4, #513]	@ zero_extendqisi2
 1252 0234 9844     		add	r8, r8, r3
 1253 0236 013F     		subs	r7, r7, #1
 1254 0238 4246     		mov	r2, r8
 1255 023a 0123     		movs	r3, #1
 1256 023c 2146     		mov	r1, r4
 1257 023e FFF7FEFF 		bl	disk_write
 1258 0242 012F     		cmp	r7, #1
 1259 0244 F2D1     		bne	.L353
 1260 0246 84E7     		b	.L282
 1261              	.L354:
 1262 0248 D4F81832 		ldr	r3, [r4, #536]
 1263              	.L286:
 1264 024c 94F80102 		ldrb	r0, [r4, #513]	@ zero_extendqisi2
 1265 0250 9844     		add	r8, r8, r3
ARM GAS  /tmp/ccFKl8QX.s 			page 23


 1266 0252 013F     		subs	r7, r7, #1
 1267 0254 4246     		mov	r2, r8
 1268 0256 0123     		movs	r3, #1
 1269 0258 2146     		mov	r1, r4
 1270 025a FFF7FEFF 		bl	disk_write
 1271 025e 012F     		cmp	r7, #1
 1272 0260 F2D1     		bne	.L354
 1273 0262 2DE7     		b	.L285
 1274              	.L349:
 1275 0264 C4F82C72 		str	r7, [r4, #556]
 1276              	.L275:
 1277 0268 C8F30808 		ubfx	r8, r8, #0, #9
 1278 026c E907     		lsls	r1, r5, #31
 1279 026e 14F80860 		ldrb	r6, [r4, r8]	@ zero_extendqisi2
 1280 0272 4AEA0626 		orr	r6, r10, r6, lsl #8
 1281 0276 4CBF     		ite	mi
 1282 0278 3609     		lsrmi	r6, r6, #4
 1283 027a C6F30B06 		ubfxpl	r6, r6, #0, #12
 1284 027e 3AE7     		b	.L280
 1285              	.L348:
 1286 0280 0123     		movs	r3, #1
 1287 0282 3246     		mov	r2, r6
 1288 0284 2146     		mov	r1, r4
 1289 0286 94F80102 		ldrb	r0, [r4, #513]	@ zero_extendqisi2
 1290 028a FFF7FEFF 		bl	disk_write
 1291 028e 0028     		cmp	r0, #0
 1292 0290 7FF407AF 		bne	.L340
 1293 0294 D4F82022 		ldr	r2, [r4, #544]
 1294 0298 D4F81832 		ldr	r3, [r4, #536]
 1295 029c 84F80402 		strb	r0, [r4, #516]
 1296 02a0 B21A     		subs	r2, r6, r2
 1297 02a2 9A42     		cmp	r2, r3
 1298 02a4 BFF4EFAE 		bcs	.L276
 1299 02a8 94F80392 		ldrb	r9, [r4, #515]	@ zero_extendqisi2
 1300 02ac B9F1010F 		cmp	r9, #1
 1301 02b0 02D8     		bhi	.L278
 1302 02b2 E8E6     		b	.L276
 1303              	.L355:
 1304 02b4 D4F81832 		ldr	r3, [r4, #536]
 1305              	.L278:
 1306 02b8 94F80102 		ldrb	r0, [r4, #513]	@ zero_extendqisi2
 1307 02bc 1E44     		add	r6, r6, r3
 1308 02be 09F1FF39 		add	r9, r9, #-1
 1309 02c2 3246     		mov	r2, r6
 1310 02c4 0123     		movs	r3, #1
 1311 02c6 2146     		mov	r1, r4
 1312 02c8 FFF7FEFF 		bl	disk_write
 1313 02cc B9F1010F 		cmp	r9, #1
 1314 02d0 F0D1     		bne	.L355
 1315 02d2 D8E6     		b	.L276
 1317              		.section	.text.get_fat.part.6,"ax",%progbits
 1318              		.align	1
 1319              		.p2align 2,,3
 1320              		.syntax unified
 1321              		.thumb
 1322              		.thumb_func
 1323              		.fpu fpv4-sp-d16
ARM GAS  /tmp/ccFKl8QX.s 			page 24


 1325              	get_fat.part.6:
 1326              		@ args = 0, pretend = 0, frame = 0
 1327              		@ frame_needed = 0, uses_anonymous_args = 0
 1328 0000 2DE9F047 		push	{r4, r5, r6, r7, r8, r9, r10, lr}
 1329 0004 90F80032 		ldrb	r3, [r0, #512]	@ zero_extendqisi2
 1330 0008 022B     		cmp	r3, #2
 1331 000a 0446     		mov	r4, r0
 1332 000c 0D46     		mov	r5, r1
 1333 000e 77D0     		beq	.L358
 1334 0010 032B     		cmp	r3, #3
 1335 0012 4AD0     		beq	.L359
 1336 0014 012B     		cmp	r3, #1
 1337 0016 02D0     		beq	.L416
 1338 0018 0120     		movs	r0, #1
 1339 001a BDE8F087 		pop	{r4, r5, r6, r7, r8, r9, r10, pc}
 1340              	.L416:
 1341 001e D0F82072 		ldr	r7, [r0, #544]
 1342 0022 D0F82C62 		ldr	r6, [r0, #556]
 1343 0026 01EB5109 		add	r9, r1, r1, lsr #1
 1344 002a 07EB5928 		add	r8, r7, r9, lsr #9
 1345 002e B045     		cmp	r8, r6
 1346 0030 13D0     		beq	.L361
 1347 0032 90F80422 		ldrb	r2, [r0, #516]	@ zero_extendqisi2
 1348 0036 002A     		cmp	r2, #0
 1349 0038 40F0A980 		bne	.L417
 1350              	.L362:
 1351 003c 0123     		movs	r3, #1
 1352 003e 4246     		mov	r2, r8
 1353 0040 2146     		mov	r1, r4
 1354 0042 94F80102 		ldrb	r0, [r4, #513]	@ zero_extendqisi2
 1355 0046 FFF7FEFF 		bl	disk_read
 1356 004a 0028     		cmp	r0, #0
 1357 004c 40F0EE80 		bne	.L376
 1358 0050 D4F82072 		ldr	r7, [r4, #544]
 1359 0054 C4F82C82 		str	r8, [r4, #556]
 1360 0058 4646     		mov	r6, r8
 1361              	.L361:
 1362 005a 09F10108 		add	r8, r9, #1
 1363 005e 07EB5827 		add	r7, r7, r8, lsr #9
 1364 0062 C9F30809 		ubfx	r9, r9, #0, #9
 1365 0066 B742     		cmp	r7, r6
 1366 0068 14F809A0 		ldrb	r10, [r4, r9]	@ zero_extendqisi2
 1367 006c 10D0     		beq	.L365
 1368 006e 94F80432 		ldrb	r3, [r4, #516]	@ zero_extendqisi2
 1369 0072 002B     		cmp	r3, #0
 1370 0074 40F0E080 		bne	.L418
 1371              	.L366:
 1372 0078 0123     		movs	r3, #1
 1373 007a 3A46     		mov	r2, r7
 1374 007c 2146     		mov	r1, r4
 1375 007e 94F80102 		ldrb	r0, [r4, #513]	@ zero_extendqisi2
 1376 0082 FFF7FEFF 		bl	disk_read
 1377 0086 0028     		cmp	r0, #0
 1378 0088 40F0D080 		bne	.L376
 1379 008c C4F82C72 		str	r7, [r4, #556]
 1380              	.L365:
 1381 0090 C8F30808 		ubfx	r8, r8, #0, #9
ARM GAS  /tmp/ccFKl8QX.s 			page 25


 1382 0094 14F80830 		ldrb	r3, [r4, r8]	@ zero_extendqisi2
 1383 0098 4AEA0320 		orr	r0, r10, r3, lsl #8
 1384 009c EB07     		lsls	r3, r5, #31
 1385 009e 4CBF     		ite	mi
 1386 00a0 0009     		lsrmi	r0, r0, #4
 1387 00a2 C0F30B00 		ubfxpl	r0, r0, #0, #12
 1388 00a6 BDE8F087 		pop	{r4, r5, r6, r7, r8, r9, r10, pc}
 1389              	.L359:
 1390 00aa D0F82062 		ldr	r6, [r0, #544]
 1391 00ae D0F82C82 		ldr	r8, [r0, #556]
 1392 00b2 06EBD116 		add	r6, r6, r1, lsr #7
 1393 00b6 4645     		cmp	r6, r8
 1394 00b8 10D0     		beq	.L373
 1395 00ba 90F80432 		ldrb	r3, [r0, #516]	@ zero_extendqisi2
 1396 00be 002B     		cmp	r3, #0
 1397 00c0 40F08A80 		bne	.L419
 1398              	.L374:
 1399 00c4 0123     		movs	r3, #1
 1400 00c6 3246     		mov	r2, r6
 1401 00c8 2146     		mov	r1, r4
 1402 00ca 94F80102 		ldrb	r0, [r4, #513]	@ zero_extendqisi2
 1403 00ce FFF7FEFF 		bl	disk_read
 1404 00d2 0028     		cmp	r0, #0
 1405 00d4 40F0AA80 		bne	.L376
 1406 00d8 C4F82C62 		str	r6, [r4, #556]
 1407              	.L373:
 1408 00dc AD00     		lsls	r5, r5, #2
 1409 00de 05F4FE75 		and	r5, r5, #508
 1410 00e2 6319     		adds	r3, r4, r5
 1411 00e4 625D     		ldrb	r2, [r4, r5]	@ zero_extendqisi2
 1412 00e6 9878     		ldrb	r0, [r3, #2]	@ zero_extendqisi2
 1413 00e8 D978     		ldrb	r1, [r3, #3]	@ zero_extendqisi2
 1414 00ea 5B78     		ldrb	r3, [r3, #1]	@ zero_extendqisi2
 1415 00ec 0004     		lsls	r0, r0, #16
 1416 00ee 40EA0160 		orr	r0, r0, r1, lsl #24
 1417 00f2 1043     		orrs	r0, r0, r2
 1418 00f4 40EA0320 		orr	r0, r0, r3, lsl #8
 1419 00f8 20F07040 		bic	r0, r0, #-268435456
 1420 00fc BDE8F087 		pop	{r4, r5, r6, r7, r8, r9, r10, pc}
 1421              	.L358:
 1422 0100 D0F82062 		ldr	r6, [r0, #544]
 1423 0104 D0F82C82 		ldr	r8, [r0, #556]
 1424 0108 06EB1126 		add	r6, r6, r1, lsr #8
 1425 010c 4645     		cmp	r6, r8
 1426 010e 0ED0     		beq	.L370
 1427 0110 90F80432 		ldrb	r3, [r0, #516]	@ zero_extendqisi2
 1428 0114 ABB9     		cbnz	r3, .L420
 1429              	.L371:
 1430 0116 0123     		movs	r3, #1
 1431 0118 3246     		mov	r2, r6
 1432 011a 2146     		mov	r1, r4
 1433 011c 94F80102 		ldrb	r0, [r4, #513]	@ zero_extendqisi2
 1434 0120 FFF7FEFF 		bl	disk_read
 1435 0124 0028     		cmp	r0, #0
 1436 0126 40F08180 		bne	.L376
 1437 012a C4F82C62 		str	r6, [r4, #556]
 1438              	.L370:
ARM GAS  /tmp/ccFKl8QX.s 			page 26


 1439 012e 6D00     		lsls	r5, r5, #1
 1440 0130 05F4FF75 		and	r5, r5, #510
 1441 0134 6319     		adds	r3, r4, r5
 1442 0136 605D     		ldrb	r0, [r4, r5]	@ zero_extendqisi2
 1443 0138 5B78     		ldrb	r3, [r3, #1]	@ zero_extendqisi2
 1444 013a 40EA0320 		orr	r0, r0, r3, lsl #8
 1445 013e BDE8F087 		pop	{r4, r5, r6, r7, r8, r9, r10, pc}
 1446              	.L420:
 1447 0142 0146     		mov	r1, r0
 1448 0144 0123     		movs	r3, #1
 1449 0146 4246     		mov	r2, r8
 1450 0148 90F80102 		ldrb	r0, [r0, #513]	@ zero_extendqisi2
 1451 014c FFF7FEFF 		bl	disk_write
 1452 0150 0028     		cmp	r0, #0
 1453 0152 67D1     		bne	.L367
 1454 0154 D4F82022 		ldr	r2, [r4, #544]
 1455 0158 D4F81832 		ldr	r3, [r4, #536]
 1456 015c 84F80402 		strb	r0, [r4, #516]
 1457 0160 A8EB0202 		sub	r2, r8, r2
 1458 0164 9A42     		cmp	r2, r3
 1459 0166 D6D2     		bcs	.L371
 1460 0168 94F80372 		ldrb	r7, [r4, #515]	@ zero_extendqisi2
 1461 016c 012F     		cmp	r7, #1
 1462 016e 02D8     		bhi	.L372
 1463 0170 D1E7     		b	.L371
 1464              	.L421:
 1465 0172 D4F81832 		ldr	r3, [r4, #536]
 1466              	.L372:
 1467 0176 94F80102 		ldrb	r0, [r4, #513]	@ zero_extendqisi2
 1468 017a 9844     		add	r8, r8, r3
 1469 017c 013F     		subs	r7, r7, #1
 1470 017e 4246     		mov	r2, r8
 1471 0180 0123     		movs	r3, #1
 1472 0182 2146     		mov	r1, r4
 1473 0184 FFF7FEFF 		bl	disk_write
 1474 0188 012F     		cmp	r7, #1
 1475 018a F2D1     		bne	.L421
 1476 018c C3E7     		b	.L371
 1477              	.L417:
 1478 018e 0146     		mov	r1, r0
 1479 0190 3246     		mov	r2, r6
 1480 0192 90F80102 		ldrb	r0, [r0, #513]	@ zero_extendqisi2
 1481 0196 FFF7FEFF 		bl	disk_write
 1482 019a 0028     		cmp	r0, #0
 1483 019c 42D1     		bne	.L367
 1484 019e D4F82022 		ldr	r2, [r4, #544]
 1485 01a2 D4F81832 		ldr	r3, [r4, #536]
 1486 01a6 84F80402 		strb	r0, [r4, #516]
 1487 01aa B21A     		subs	r2, r6, r2
 1488 01ac 9A42     		cmp	r2, r3
 1489 01ae BFF445AF 		bcs	.L362
 1490 01b2 94F80372 		ldrb	r7, [r4, #515]	@ zero_extendqisi2
 1491 01b6 012F     		cmp	r7, #1
 1492 01b8 02D8     		bhi	.L364
 1493 01ba 3FE7     		b	.L362
 1494              	.L422:
 1495 01bc D4F81832 		ldr	r3, [r4, #536]
ARM GAS  /tmp/ccFKl8QX.s 			page 27


 1496              	.L364:
 1497 01c0 94F80102 		ldrb	r0, [r4, #513]	@ zero_extendqisi2
 1498 01c4 1E44     		add	r6, r6, r3
 1499 01c6 013F     		subs	r7, r7, #1
 1500 01c8 3246     		mov	r2, r6
 1501 01ca 0123     		movs	r3, #1
 1502 01cc 2146     		mov	r1, r4
 1503 01ce FFF7FEFF 		bl	disk_write
 1504 01d2 012F     		cmp	r7, #1
 1505 01d4 F2D1     		bne	.L422
 1506 01d6 31E7     		b	.L362
 1507              	.L419:
 1508 01d8 0146     		mov	r1, r0
 1509 01da 0123     		movs	r3, #1
 1510 01dc 4246     		mov	r2, r8
 1511 01de 90F80102 		ldrb	r0, [r0, #513]	@ zero_extendqisi2
 1512 01e2 FFF7FEFF 		bl	disk_write
 1513 01e6 E8B9     		cbnz	r0, .L367
 1514 01e8 D4F82022 		ldr	r2, [r4, #544]
 1515 01ec D4F81832 		ldr	r3, [r4, #536]
 1516 01f0 84F80402 		strb	r0, [r4, #516]
 1517 01f4 A8EB0202 		sub	r2, r8, r2
 1518 01f8 9A42     		cmp	r2, r3
 1519 01fa BFF463AF 		bcs	.L374
 1520 01fe 94F80372 		ldrb	r7, [r4, #515]	@ zero_extendqisi2
 1521 0202 012F     		cmp	r7, #1
 1522 0204 02D8     		bhi	.L375
 1523 0206 5DE7     		b	.L374
 1524              	.L423:
 1525 0208 D4F81832 		ldr	r3, [r4, #536]
 1526              	.L375:
 1527 020c 94F80102 		ldrb	r0, [r4, #513]	@ zero_extendqisi2
 1528 0210 9844     		add	r8, r8, r3
 1529 0212 013F     		subs	r7, r7, #1
 1530 0214 4246     		mov	r2, r8
 1531 0216 0123     		movs	r3, #1
 1532 0218 2146     		mov	r1, r4
 1533 021a FFF7FEFF 		bl	disk_write
 1534 021e 012F     		cmp	r7, #1
 1535 0220 F2D1     		bne	.L423
 1536 0222 4FE7     		b	.L374
 1537              	.L367:
 1538 0224 4FF0FF30 		mov	r0, #-1
 1539 0228 BDE8F087 		pop	{r4, r5, r6, r7, r8, r9, r10, pc}
 1540              	.L376:
 1541 022c 4FF0FF30 		mov	r0, #-1
 1542 0230 C4F82C02 		str	r0, [r4, #556]
 1543 0234 BDE8F087 		pop	{r4, r5, r6, r7, r8, r9, r10, pc}
 1544              	.L418:
 1545 0238 0123     		movs	r3, #1
 1546 023a 3246     		mov	r2, r6
 1547 023c 2146     		mov	r1, r4
 1548 023e 94F80102 		ldrb	r0, [r4, #513]	@ zero_extendqisi2
 1549 0242 FFF7FEFF 		bl	disk_write
 1550 0246 0028     		cmp	r0, #0
 1551 0248 ECD1     		bne	.L367
 1552 024a D4F82022 		ldr	r2, [r4, #544]
ARM GAS  /tmp/ccFKl8QX.s 			page 28


 1553 024e D4F81832 		ldr	r3, [r4, #536]
 1554 0252 84F80402 		strb	r0, [r4, #516]
 1555 0256 B21A     		subs	r2, r6, r2
 1556 0258 9A42     		cmp	r2, r3
 1557 025a BFF40DAF 		bcs	.L366
 1558 025e 94F80392 		ldrb	r9, [r4, #515]	@ zero_extendqisi2
 1559 0262 B9F1010F 		cmp	r9, #1
 1560 0266 02D8     		bhi	.L368
 1561 0268 06E7     		b	.L366
 1562              	.L424:
 1563 026a D4F81832 		ldr	r3, [r4, #536]
 1564              	.L368:
 1565 026e 94F80102 		ldrb	r0, [r4, #513]	@ zero_extendqisi2
 1566 0272 1E44     		add	r6, r6, r3
 1567 0274 09F1FF39 		add	r9, r9, #-1
 1568 0278 3246     		mov	r2, r6
 1569 027a 0123     		movs	r3, #1
 1570 027c 2146     		mov	r1, r4
 1571 027e FFF7FEFF 		bl	disk_write
 1572 0282 B9F1010F 		cmp	r9, #1
 1573 0286 F0D1     		bne	.L424
 1574 0288 F6E6     		b	.L366
 1576 028a 00BF     		.section	.text.dir_sdi,"ax",%progbits
 1577              		.align	1
 1578              		.p2align 2,,3
 1579              		.syntax unified
 1580              		.thumb
 1581              		.thumb_func
 1582              		.fpu fpv4-sp-d16
 1584              	dir_sdi:
 1585              		@ args = 0, pretend = 0, frame = 0
 1586              		@ frame_needed = 0, uses_anonymous_args = 0
 1587 0000 70B5     		push	{r4, r5, r6, lr}
 1588 0002 0D46     		mov	r5, r1
 1589 0004 D0F80812 		ldr	r1, [r0, #520]
 1590 0008 A0F80652 		strh	r5, [r0, #518]	@ movhi
 1591 000c 0129     		cmp	r1, #1
 1592 000e 06D0     		beq	.L443
 1593 0010 0446     		mov	r4, r0
 1594 0012 D0F80002 		ldr	r0, [r0, #512]
 1595 0016 D0F81432 		ldr	r3, [r0, #532]
 1596 001a 9942     		cmp	r1, r3
 1597 001c 01D3     		bcc	.L445
 1598              	.L443:
 1599 001e 0220     		movs	r0, #2
 1600 0020 70BD     		pop	{r4, r5, r6, pc}
 1601              	.L445:
 1602 0022 F1B9     		cbnz	r1, .L429
 1603 0024 90F80022 		ldrb	r2, [r0, #512]	@ zero_extendqisi2
 1604 0028 032A     		cmp	r2, #3
 1605 002a 15D0     		beq	.L446
 1606              	.L430:
 1607 002c B0F80832 		ldrh	r3, [r0, #520]
 1608 0030 9D42     		cmp	r5, r3
 1609 0032 F4D2     		bcs	.L443
 1610 0034 D0F82432 		ldr	r3, [r0, #548]
 1611              	.L431:
ARM GAS  /tmp/ccFKl8QX.s 			page 29


 1612 0038 C4F80C12 		str	r1, [r4, #524]
 1613 003c 002B     		cmp	r3, #0
 1614 003e EED0     		beq	.L443
 1615 0040 05F00F02 		and	r2, r5, #15
 1616 0044 00EB4210 		add	r0, r0, r2, lsl #5
 1617 0048 03EB1515 		add	r5, r3, r5, lsr #4
 1618 004c C4F81402 		str	r0, [r4, #532]
 1619 0050 C4F81052 		str	r5, [r4, #528]
 1620 0054 0020     		movs	r0, #0
 1621 0056 70BD     		pop	{r4, r5, r6, pc}
 1622              	.L446:
 1623 0058 D0F82422 		ldr	r2, [r0, #548]
 1624 005c 002A     		cmp	r2, #0
 1625 005e E5D0     		beq	.L430
 1626 0060 1146     		mov	r1, r2
 1627              	.L429:
 1628 0062 90F80262 		ldrb	r6, [r0, #514]	@ zero_extendqisi2
 1629 0066 3601     		lsls	r6, r6, #4
 1630 0068 B542     		cmp	r5, r6
 1631 006a 19D3     		bcc	.L432
 1632 006c AD1B     		subs	r5, r5, r6
 1633 006e 11E0     		b	.L433
 1634              	.L447:
 1635 0070 FFF7FEFF 		bl	get_fat.part.6
 1636 0074 431C     		adds	r3, r0, #1
 1637 0076 0146     		mov	r1, r0
 1638 0078 A5EB0602 		sub	r2, r5, r6
 1639 007c 1ED0     		beq	.L436
 1640 007e 0128     		cmp	r0, #1
 1641 0080 CDD9     		bls	.L443
 1642 0082 D4F80002 		ldr	r0, [r4, #512]
 1643 0086 D0F81432 		ldr	r3, [r0, #532]
 1644 008a 8B42     		cmp	r3, r1
 1645 008c C7D9     		bls	.L443
 1646 008e AE42     		cmp	r6, r5
 1647 0090 06D8     		bhi	.L432
 1648 0092 1546     		mov	r5, r2
 1649              	.L433:
 1650 0094 0129     		cmp	r1, #1
 1651 0096 C2D9     		bls	.L443
 1652 0098 8B42     		cmp	r3, r1
 1653 009a E9D8     		bhi	.L447
 1654 009c 0220     		movs	r0, #2
 1655 009e 70BD     		pop	{r4, r5, r6, pc}
 1656              	.L432:
 1657 00a0 023B     		subs	r3, r3, #2
 1658 00a2 8A1E     		subs	r2, r1, #2
 1659 00a4 9A42     		cmp	r2, r3
 1660 00a6 06D2     		bcs	.L434
 1661 00a8 90F80232 		ldrb	r3, [r0, #514]	@ zero_extendqisi2
 1662 00ac D0F82862 		ldr	r6, [r0, #552]
 1663 00b0 02FB0363 		mla	r3, r2, r3, r6
 1664 00b4 C0E7     		b	.L431
 1665              	.L434:
 1666 00b6 C4F80C12 		str	r1, [r4, #524]
 1667 00ba B0E7     		b	.L443
 1668              	.L436:
ARM GAS  /tmp/ccFKl8QX.s 			page 30


 1669 00bc 0120     		movs	r0, #1
 1670 00be 70BD     		pop	{r4, r5, r6, pc}
 1672              		.section	.text.create_chain,"ax",%progbits
 1673              		.align	1
 1674              		.p2align 2,,3
 1675              		.syntax unified
 1676              		.thumb
 1677              		.thumb_func
 1678              		.fpu fpv4-sp-d16
 1680              	create_chain:
 1681              		@ args = 0, pretend = 0, frame = 8
 1682              		@ frame_needed = 0, uses_anonymous_args = 0
 1683 0000 2DE9F04F 		push	{r4, r5, r6, r7, r8, r9, r10, fp, lr}
 1684 0004 0446     		mov	r4, r0
 1685 0006 83B0     		sub	sp, sp, #12
 1686 0008 8946     		mov	r9, r1
 1687 000a 0029     		cmp	r1, #0
 1688 000c 73D1     		bne	.L449
 1689 000e D0F80C62 		ldr	r6, [r0, #524]
 1690 0012 D0F81432 		ldr	r3, [r0, #532]
 1691 0016 002E     		cmp	r6, #0
 1692 0018 40F08180 		bne	.L450
 1693 001c 0126     		movs	r6, #1
 1694              	.L451:
 1695 001e 3546     		mov	r5, r6
 1696 0020 0135     		adds	r5, r5, #1
 1697 0022 9D42     		cmp	r5, r3
 1698 0024 60D3     		bcc	.L455
 1699              	.L544:
 1700 0026 012E     		cmp	r6, #1
 1701 0028 40F24C81 		bls	.L475
 1702 002c 022B     		cmp	r3, #2
 1703 002e 5DD9     		bls	.L525
 1704 0030 0225     		movs	r5, #2
 1705              	.L489:
 1706 0032 94F80032 		ldrb	r3, [r4, #512]	@ zero_extendqisi2
 1707 0036 022B     		cmp	r3, #2
 1708 0038 00F09D80 		beq	.L457
 1709 003c 032B     		cmp	r3, #3
 1710 003e 72D0     		beq	.L458
 1711 0040 012B     		cmp	r3, #1
 1712 0042 53D1     		bne	.L525
 1713 0044 D4F82022 		ldr	r2, [r4, #544]
 1714 0048 D4F82C72 		ldr	r7, [r4, #556]
 1715 004c 05EB550B 		add	fp, r5, r5, lsr #1
 1716 0050 02EB5B2A 		add	r10, r2, fp, lsr #9
 1717 0054 BA45     		cmp	r10, r7
 1718 0056 13D0     		beq	.L460
 1719 0058 94F80422 		ldrb	r2, [r4, #516]	@ zero_extendqisi2
 1720 005c 002A     		cmp	r2, #0
 1721 005e 40F0E080 		bne	.L541
 1722              	.L461:
 1723 0062 0123     		movs	r3, #1
 1724 0064 5246     		mov	r2, r10
 1725 0066 2146     		mov	r1, r4
 1726 0068 94F80102 		ldrb	r0, [r4, #513]	@ zero_extendqisi2
 1727 006c FFF7FEFF 		bl	disk_read
ARM GAS  /tmp/ccFKl8QX.s 			page 31


 1728 0070 0028     		cmp	r0, #0
 1729 0072 40F09E80 		bne	.L482
 1730 0076 D4F82022 		ldr	r2, [r4, #544]
 1731 007a C4F82CA2 		str	r10, [r4, #556]
 1732 007e 5746     		mov	r7, r10
 1733              	.L460:
 1734 0080 0BF1010A 		add	r10, fp, #1
 1735 0084 CBF3080B 		ubfx	fp, fp, #0, #9
 1736 0088 02EB5A28 		add	r8, r2, r10, lsr #9
 1737 008c 14F80B30 		ldrb	r3, [r4, fp]	@ zero_extendqisi2
 1738 0090 0193     		str	r3, [sp, #4]
 1739 0092 B845     		cmp	r8, r7
 1740 0094 0FD0     		beq	.L464
 1741 0096 94F80432 		ldrb	r3, [r4, #516]	@ zero_extendqisi2
 1742 009a 002B     		cmp	r3, #0
 1743 009c 40F01481 		bne	.L542
 1744              	.L465:
 1745 00a0 0123     		movs	r3, #1
 1746 00a2 4246     		mov	r2, r8
 1747 00a4 2146     		mov	r1, r4
 1748 00a6 94F80102 		ldrb	r0, [r4, #513]	@ zero_extendqisi2
 1749 00aa FFF7FEFF 		bl	disk_read
 1750 00ae 0028     		cmp	r0, #0
 1751 00b0 7FD1     		bne	.L482
 1752 00b2 C4F82C82 		str	r8, [r4, #556]
 1753              	.L464:
 1754 00b6 CAF3080A 		ubfx	r10, r10, #0, #9
 1755 00ba 019A     		ldr	r2, [sp, #4]
 1756 00bc 14F80A30 		ldrb	r3, [r4, r10]	@ zero_extendqisi2
 1757 00c0 E907     		lsls	r1, r5, #31
 1758 00c2 42EA0323 		orr	r3, r2, r3, lsl #8
 1759 00c6 4CBF     		ite	mi
 1760 00c8 1B09     		lsrmi	r3, r3, #4
 1761 00ca C3F30B03 		ubfxpl	r3, r3, #0, #12
 1762              	.L468:
 1763 00ce 002B     		cmp	r3, #0
 1764 00d0 00F02381 		beq	.L543
 1765 00d4 012B     		cmp	r3, #1
 1766 00d6 09D0     		beq	.L525
 1767 00d8 AE42     		cmp	r6, r5
 1768 00da 00F0F380 		beq	.L475
 1769 00de D4F81432 		ldr	r3, [r4, #532]
 1770 00e2 0135     		adds	r5, r5, #1
 1771 00e4 9D42     		cmp	r5, r3
 1772 00e6 9ED2     		bcs	.L544
 1773              	.L455:
 1774 00e8 012D     		cmp	r5, #1
 1775 00ea A2D8     		bhi	.L489
 1776              	.L525:
 1777 00ec 0125     		movs	r5, #1
 1778              	.L448:
 1779 00ee 2846     		mov	r0, r5
 1780 00f0 03B0     		add	sp, sp, #12
 1781              		@ sp needed
 1782 00f2 BDE8F08F 		pop	{r4, r5, r6, r7, r8, r9, r10, fp, pc}
 1783              	.L449:
 1784 00f6 0129     		cmp	r1, #1
ARM GAS  /tmp/ccFKl8QX.s 			page 32


 1785 00f8 F8D9     		bls	.L525
 1786 00fa D0F81432 		ldr	r3, [r0, #532]
 1787 00fe 9942     		cmp	r1, r3
 1788 0100 F4D2     		bcs	.L525
 1789 0102 FFF7FEFF 		bl	get_fat.part.6
 1790 0106 0128     		cmp	r0, #1
 1791 0108 0546     		mov	r5, r0
 1792 010a EFD9     		bls	.L525
 1793 010c 0130     		adds	r0, r0, #1
 1794 010e 00F08280 		beq	.L462
 1795 0112 D4F81432 		ldr	r3, [r4, #532]
 1796 0116 AB42     		cmp	r3, r5
 1797 0118 E9D8     		bhi	.L448
 1798 011a 4E46     		mov	r6, r9
 1799 011c 7FE7     		b	.L451
 1800              	.L450:
 1801 011e 9E42     		cmp	r6, r3
 1802 0120 28BF     		it	cs
 1803 0122 0126     		movcs	r6, #1
 1804 0124 7BE7     		b	.L451
 1805              	.L458:
 1806 0126 D4F82032 		ldr	r3, [r4, #544]
 1807 012a D4F82C72 		ldr	r7, [r4, #556]
 1808 012e 03EBD518 		add	r8, r3, r5, lsr #7
 1809 0132 B845     		cmp	r8, r7
 1810 0134 0ED0     		beq	.L472
 1811 0136 94F80432 		ldrb	r3, [r4, #516]	@ zero_extendqisi2
 1812 013a 002B     		cmp	r3, #0
 1813 013c 40F09980 		bne	.L545
 1814              	.L473:
 1815 0140 0123     		movs	r3, #1
 1816 0142 4246     		mov	r2, r8
 1817 0144 2146     		mov	r1, r4
 1818 0146 94F80102 		ldrb	r0, [r4, #513]	@ zero_extendqisi2
 1819 014a FFF7FEFF 		bl	disk_read
 1820 014e 80BB     		cbnz	r0, .L482
 1821 0150 C4F82C82 		str	r8, [r4, #556]
 1822              	.L472:
 1823 0154 AB00     		lsls	r3, r5, #2
 1824 0156 03F4FE73 		and	r3, r3, #508
 1825 015a E218     		adds	r2, r4, r3
 1826 015c E15C     		ldrb	r1, [r4, r3]	@ zero_extendqisi2
 1827 015e 9378     		ldrb	r3, [r2, #2]	@ zero_extendqisi2
 1828 0160 D078     		ldrb	r0, [r2, #3]	@ zero_extendqisi2
 1829 0162 5278     		ldrb	r2, [r2, #1]	@ zero_extendqisi2
 1830 0164 1B04     		lsls	r3, r3, #16
 1831 0166 43EA0063 		orr	r3, r3, r0, lsl #24
 1832 016a 0B43     		orrs	r3, r3, r1
 1833 016c 43EA0223 		orr	r3, r3, r2, lsl #8
 1834 0170 23F07043 		bic	r3, r3, #-268435456
 1835 0174 ABE7     		b	.L468
 1836              	.L457:
 1837 0176 D4F82032 		ldr	r3, [r4, #544]
 1838 017a D4F82C72 		ldr	r7, [r4, #556]
 1839 017e 03EB1528 		add	r8, r3, r5, lsr #8
 1840 0182 B845     		cmp	r8, r7
 1841 0184 0CD0     		beq	.L469
ARM GAS  /tmp/ccFKl8QX.s 			page 33


 1842 0186 94F80432 		ldrb	r3, [r4, #516]	@ zero_extendqisi2
 1843 018a D3B9     		cbnz	r3, .L546
 1844              	.L470:
 1845 018c 0123     		movs	r3, #1
 1846 018e 4246     		mov	r2, r8
 1847 0190 2146     		mov	r1, r4
 1848 0192 94F80102 		ldrb	r0, [r4, #513]	@ zero_extendqisi2
 1849 0196 FFF7FEFF 		bl	disk_read
 1850 019a 50B9     		cbnz	r0, .L482
 1851 019c C4F82C82 		str	r8, [r4, #556]
 1852              	.L469:
 1853 01a0 6B00     		lsls	r3, r5, #1
 1854 01a2 03F4FF73 		and	r3, r3, #510
 1855 01a6 E218     		adds	r2, r4, r3
 1856 01a8 E35C     		ldrb	r3, [r4, r3]	@ zero_extendqisi2
 1857 01aa 5278     		ldrb	r2, [r2, #1]	@ zero_extendqisi2
 1858 01ac 43EA0223 		orr	r3, r3, r2, lsl #8
 1859 01b0 8DE7     		b	.L468
 1860              	.L482:
 1861 01b2 4FF0FF35 		mov	r5, #-1
 1862 01b6 2846     		mov	r0, r5
 1863 01b8 C4F82C52 		str	r5, [r4, #556]
 1864 01bc 03B0     		add	sp, sp, #12
 1865              		@ sp needed
 1866 01be BDE8F08F 		pop	{r4, r5, r6, r7, r8, r9, r10, fp, pc}
 1867              	.L546:
 1868 01c2 0123     		movs	r3, #1
 1869 01c4 3A46     		mov	r2, r7
 1870 01c6 2146     		mov	r1, r4
 1871 01c8 94F80102 		ldrb	r0, [r4, #513]	@ zero_extendqisi2
 1872 01cc FFF7FEFF 		bl	disk_write
 1873 01d0 08BB     		cbnz	r0, .L462
 1874 01d2 D4F82022 		ldr	r2, [r4, #544]
 1875 01d6 D4F81832 		ldr	r3, [r4, #536]
 1876 01da 84F80402 		strb	r0, [r4, #516]
 1877 01de BA1A     		subs	r2, r7, r2
 1878 01e0 9A42     		cmp	r2, r3
 1879 01e2 D3D2     		bcs	.L470
 1880 01e4 94F803A2 		ldrb	r10, [r4, #515]	@ zero_extendqisi2
 1881 01e8 BAF1010F 		cmp	r10, #1
 1882 01ec 02D8     		bhi	.L471
 1883 01ee CDE7     		b	.L470
 1884              	.L547:
 1885 01f0 D4F81832 		ldr	r3, [r4, #536]
 1886              	.L471:
 1887 01f4 94F80102 		ldrb	r0, [r4, #513]	@ zero_extendqisi2
 1888 01f8 1F44     		add	r7, r7, r3
 1889 01fa 0AF1FF3A 		add	r10, r10, #-1
 1890 01fe 3A46     		mov	r2, r7
 1891 0200 0123     		movs	r3, #1
 1892 0202 2146     		mov	r1, r4
 1893 0204 FFF7FEFF 		bl	disk_write
 1894 0208 BAF1010F 		cmp	r10, #1
 1895 020c F0D1     		bne	.L547
 1896 020e BDE7     		b	.L470
 1897              	.L478:
 1898 0210 0128     		cmp	r0, #1
ARM GAS  /tmp/ccFKl8QX.s 			page 34


 1899 0212 7FF46BAF 		bne	.L525
 1900              	.L462:
 1901 0216 4FF0FF35 		mov	r5, #-1
 1902 021a 2846     		mov	r0, r5
 1903 021c 03B0     		add	sp, sp, #12
 1904              		@ sp needed
 1905 021e BDE8F08F 		pop	{r4, r5, r6, r7, r8, r9, r10, fp, pc}
 1906              	.L541:
 1907 0222 3A46     		mov	r2, r7
 1908 0224 2146     		mov	r1, r4
 1909 0226 94F80102 		ldrb	r0, [r4, #513]	@ zero_extendqisi2
 1910 022a FFF7FEFF 		bl	disk_write
 1911 022e 0028     		cmp	r0, #0
 1912 0230 F1D1     		bne	.L462
 1913 0232 D4F82022 		ldr	r2, [r4, #544]
 1914 0236 D4F81832 		ldr	r3, [r4, #536]
 1915 023a 84F80402 		strb	r0, [r4, #516]
 1916 023e BA1A     		subs	r2, r7, r2
 1917 0240 9A42     		cmp	r2, r3
 1918 0242 BFF40EAF 		bcs	.L461
 1919 0246 94F80382 		ldrb	r8, [r4, #515]	@ zero_extendqisi2
 1920 024a B8F1010F 		cmp	r8, #1
 1921 024e 02D8     		bhi	.L463
 1922 0250 07E7     		b	.L461
 1923              	.L548:
 1924 0252 D4F81832 		ldr	r3, [r4, #536]
 1925              	.L463:
 1926 0256 94F80102 		ldrb	r0, [r4, #513]	@ zero_extendqisi2
 1927 025a 1F44     		add	r7, r7, r3
 1928 025c 08F1FF38 		add	r8, r8, #-1
 1929 0260 3A46     		mov	r2, r7
 1930 0262 0123     		movs	r3, #1
 1931 0264 2146     		mov	r1, r4
 1932 0266 FFF7FEFF 		bl	disk_write
 1933 026a B8F1010F 		cmp	r8, #1
 1934 026e F0D1     		bne	.L548
 1935 0270 F7E6     		b	.L461
 1936              	.L545:
 1937 0272 0123     		movs	r3, #1
 1938 0274 3A46     		mov	r2, r7
 1939 0276 2146     		mov	r1, r4
 1940 0278 94F80102 		ldrb	r0, [r4, #513]	@ zero_extendqisi2
 1941 027c FFF7FEFF 		bl	disk_write
 1942 0280 0028     		cmp	r0, #0
 1943 0282 C8D1     		bne	.L462
 1944 0284 D4F82022 		ldr	r2, [r4, #544]
 1945 0288 D4F81832 		ldr	r3, [r4, #536]
 1946 028c 84F80402 		strb	r0, [r4, #516]
 1947 0290 BA1A     		subs	r2, r7, r2
 1948 0292 9A42     		cmp	r2, r3
 1949 0294 BFF454AF 		bcs	.L473
 1950 0298 94F803A2 		ldrb	r10, [r4, #515]	@ zero_extendqisi2
 1951 029c BAF1010F 		cmp	r10, #1
 1952 02a0 02D8     		bhi	.L474
 1953 02a2 4DE7     		b	.L473
 1954              	.L549:
 1955 02a4 D4F81832 		ldr	r3, [r4, #536]
ARM GAS  /tmp/ccFKl8QX.s 			page 35


 1956              	.L474:
 1957 02a8 94F80102 		ldrb	r0, [r4, #513]	@ zero_extendqisi2
 1958 02ac 1F44     		add	r7, r7, r3
 1959 02ae 0AF1FF3A 		add	r10, r10, #-1
 1960 02b2 3A46     		mov	r2, r7
 1961 02b4 0123     		movs	r3, #1
 1962 02b6 2146     		mov	r1, r4
 1963 02b8 FFF7FEFF 		bl	disk_write
 1964 02bc BAF1010F 		cmp	r10, #1
 1965 02c0 F0D1     		bne	.L549
 1966 02c2 3DE7     		b	.L473
 1967              	.L475:
 1968 02c4 0025     		movs	r5, #0
 1969 02c6 12E7     		b	.L448
 1970              	.L542:
 1971 02c8 0123     		movs	r3, #1
 1972 02ca 3A46     		mov	r2, r7
 1973 02cc 2146     		mov	r1, r4
 1974 02ce 94F80102 		ldrb	r0, [r4, #513]	@ zero_extendqisi2
 1975 02d2 FFF7FEFF 		bl	disk_write
 1976 02d6 0028     		cmp	r0, #0
 1977 02d8 9DD1     		bne	.L462
 1978 02da D4F82022 		ldr	r2, [r4, #544]
 1979 02de D4F81832 		ldr	r3, [r4, #536]
 1980 02e2 84F80402 		strb	r0, [r4, #516]
 1981 02e6 BA1A     		subs	r2, r7, r2
 1982 02e8 9A42     		cmp	r2, r3
 1983 02ea BFF4D9AE 		bcs	.L465
 1984 02ee 94F803B2 		ldrb	fp, [r4, #515]	@ zero_extendqisi2
 1985 02f2 BBF1010F 		cmp	fp, #1
 1986 02f6 02D8     		bhi	.L466
 1987 02f8 D2E6     		b	.L465
 1988              	.L550:
 1989 02fa D4F81832 		ldr	r3, [r4, #536]
 1990              	.L466:
 1991 02fe 94F80102 		ldrb	r0, [r4, #513]	@ zero_extendqisi2
 1992 0302 1F44     		add	r7, r7, r3
 1993 0304 0BF1FF3B 		add	fp, fp, #-1
 1994 0308 3A46     		mov	r2, r7
 1995 030a 0123     		movs	r3, #1
 1996 030c 2146     		mov	r1, r4
 1997 030e FFF7FEFF 		bl	disk_write
 1998 0312 BBF1010F 		cmp	fp, #1
 1999 0316 F0D1     		bne	.L550
 2000 0318 C2E6     		b	.L465
 2001              	.L543:
 2002 031a D4F81432 		ldr	r3, [r4, #532]
 2003 031e AB42     		cmp	r3, r5
 2004 0320 7FF6E4AE 		bls	.L525
 2005 0324 6FF07042 		mvn	r2, #-268435456
 2006 0328 2946     		mov	r1, r5
 2007 032a 2046     		mov	r0, r4
 2008 032c FFF7FEFF 		bl	put_fat.part.8
 2009 0330 0028     		cmp	r0, #0
 2010 0332 7FF46DAF 		bne	.L478
 2011 0336 B9F1000F 		cmp	r9, #0
 2012 033a 10D0     		beq	.L481
ARM GAS  /tmp/ccFKl8QX.s 			page 36


 2013 033c B9F1010F 		cmp	r9, #1
 2014 0340 7FF6D4AE 		bls	.L525
 2015 0344 D4F81432 		ldr	r3, [r4, #532]
 2016 0348 9945     		cmp	r9, r3
 2017 034a BFF4CFAE 		bcs	.L525
 2018 034e 4946     		mov	r1, r9
 2019 0350 2A46     		mov	r2, r5
 2020 0352 2046     		mov	r0, r4
 2021 0354 FFF7FEFF 		bl	put_fat.part.8
 2022 0358 0028     		cmp	r0, #0
 2023 035a 7FF459AF 		bne	.L478
 2024              	.L481:
 2025 035e D4F81032 		ldr	r3, [r4, #528]
 2026 0362 C4F80C52 		str	r5, [r4, #524]
 2027 0366 5A1C     		adds	r2, r3, #1
 2028 0368 3FF4C1AE 		beq	.L448
 2029 036c 94F80522 		ldrb	r2, [r4, #517]	@ zero_extendqisi2
 2030 0370 013B     		subs	r3, r3, #1
 2031 0372 42F00102 		orr	r2, r2, #1
 2032 0376 C4F81032 		str	r3, [r4, #528]
 2033 037a 84F80522 		strb	r2, [r4, #517]
 2034 037e B6E6     		b	.L448
 2036              		.section	.text.f_write.part.12,"ax",%progbits
 2037              		.align	1
 2038              		.p2align 2,,3
 2039              		.syntax unified
 2040              		.thumb
 2041              		.thumb_func
 2042              		.fpu fpv4-sp-d16
 2044              	f_write.part.12:
 2045              		@ args = 0, pretend = 0, frame = 24
 2046              		@ frame_needed = 0, uses_anonymous_args = 0
 2047 0000 2DE9F04F 		push	{r4, r5, r6, r7, r8, r9, r10, fp, lr}
 2048 0004 D0F80842 		ldr	r4, [r0, #520]
 2049 0008 D442     		cmn	r4, r2
 2050 000a 87B0     		sub	sp, sp, #28
 2051 000c 8146     		mov	r9, r0
 2052 000e 0FD3     		bcc	.L655
 2053              	.L552:
 2054 0010 D9F80C32 		ldr	r3, [r9, #524]
 2055 0014 A342     		cmp	r3, r4
 2056 0016 99F80632 		ldrb	r3, [r9, #518]	@ zero_extendqisi2
 2057 001a 38BF     		it	cc
 2058 001c C9F80C42 		strcc	r4, [r9, #524]
 2059 0020 43F02003 		orr	r3, r3, #32
 2060 0024 0020     		movs	r0, #0
 2061 0026 89F80632 		strb	r3, [r9, #518]
 2062 002a 07B0     		add	sp, sp, #28
 2063              		@ sp needed
 2064 002c BDE8F08F 		pop	{r4, r5, r6, r7, r8, r9, r10, fp, pc}
 2065              	.L655:
 2066 0030 9246     		mov	r10, r2
 2067 0032 002A     		cmp	r2, #0
 2068 0034 ECD0     		beq	.L552
 2069 0036 9846     		mov	r8, r3
 2070 0038 4342     		negs	r3, r0
 2071 003a 03F00303 		and	r3, r3, #3
ARM GAS  /tmp/ccFKl8QX.s 			page 37


 2072 003e 1846     		mov	r0, r3
 2073 0040 0293     		str	r3, [sp, #8]
 2074 0042 C3F5FE73 		rsb	r3, r3, #508
 2075 0046 9B08     		lsrs	r3, r3, #2
 2076 0048 0133     		adds	r3, r3, #1
 2077 004a 0493     		str	r3, [sp, #16]
 2078 004c 9B00     		lsls	r3, r3, #2
 2079 004e 0193     		str	r3, [sp, #4]
 2080 0050 C0F50073 		rsb	r3, r0, #512
 2081 0054 0593     		str	r3, [sp, #20]
 2082 0056 09F10403 		add	r3, r9, #4
 2083 005a 0D46     		mov	r5, r1
 2084 005c 0393     		str	r3, [sp, #12]
 2085 005e C346     		mov	fp, r8
 2086              	.L596:
 2087 0060 C4F30802 		ubfx	r2, r4, #0, #9
 2088 0064 002A     		cmp	r2, #0
 2089 0066 40F0C280 		bne	.L553
 2090 006a D9F80002 		ldr	r0, [r9, #512]
 2091 006e 90F80222 		ldrb	r2, [r0, #514]	@ zero_extendqisi2
 2092 0072 630A     		lsrs	r3, r4, #9
 2093 0074 571E     		subs	r7, r2, #1
 2094 0076 1F40     		ands	r7, r7, r3
 2095 0078 17F0FF07 		ands	r7, r7, #255
 2096 007c 16D1     		bne	.L554
 2097 007e 002C     		cmp	r4, #0
 2098 0080 40F04881 		bne	.L555
 2099 0084 D9F81032 		ldr	r3, [r9, #528]
 2100 0088 002B     		cmp	r3, #0
 2101 008a 00F07281 		beq	.L656
 2102              	.L556:
 2103 008e 012B     		cmp	r3, #1
 2104 0090 00F08881 		beq	.L569
 2105 0094 5A1C     		adds	r2, r3, #1
 2106 0096 00F05A81 		beq	.L568
 2107 009a D9F81022 		ldr	r2, [r9, #528]
 2108 009e C9F81432 		str	r3, [r9, #532]
 2109 00a2 D9F80002 		ldr	r0, [r9, #512]
 2110 00a6 0AB9     		cbnz	r2, .L554
 2111 00a8 C9F81032 		str	r3, [r9, #528]
 2112              	.L554:
 2113 00ac 99F80632 		ldrb	r3, [r9, #518]	@ zero_extendqisi2
 2114 00b0 5B06     		lsls	r3, r3, #25
 2115 00b2 00F11481 		bmi	.L657
 2116              	.L567:
 2117 00b6 D9F81432 		ldr	r3, [r9, #532]
 2118 00ba D0F81422 		ldr	r2, [r0, #532]
 2119 00be A3F10208 		sub	r8, r3, #2
 2120 00c2 023A     		subs	r2, r2, #2
 2121 00c4 9045     		cmp	r8, r2
 2122 00c6 80F06D81 		bcs	.L569
 2123 00ca 90F80232 		ldrb	r3, [r0, #514]	@ zero_extendqisi2
 2124 00ce D0F82822 		ldr	r2, [r0, #552]
 2125 00d2 0092     		str	r2, [sp]
 2126 00d4 08FB03F8 		mul	r8, r8, r3
 2127 00d8 18EB0206 		adds	r6, r8, r2
 2128 00dc 00F06281 		beq	.L569
ARM GAS  /tmp/ccFKl8QX.s 			page 38


 2129 00e0 5FEA5A24 		lsrs	r4, r10, #9
 2130 00e4 3E44     		add	r6, r6, r7
 2131 00e6 73D0     		beq	.L570
 2132 00e8 3A19     		adds	r2, r7, r4
 2133 00ea 9342     		cmp	r3, r2
 2134 00ec 38BF     		it	cc
 2135 00ee DC1B     		subcc	r4, r3, r7
 2136 00f0 90F80102 		ldrb	r0, [r0, #513]	@ zero_extendqisi2
 2137 00f4 2346     		mov	r3, r4
 2138 00f6 3246     		mov	r2, r6
 2139 00f8 2946     		mov	r1, r5
 2140 00fa FFF7FEFF 		bl	disk_write
 2141 00fe 0028     		cmp	r0, #0
 2142 0100 40F02581 		bne	.L568
 2143 0104 D9F81822 		ldr	r2, [r9, #536]
 2144 0108 961B     		subs	r6, r2, r6
 2145 010a B442     		cmp	r4, r6
 2146 010c 5BD9     		bls	.L572
 2147 010e 009B     		ldr	r3, [sp]
 2148 0110 0398     		ldr	r0, [sp, #12]
 2149 0112 D21B     		subs	r2, r2, r7
 2150 0114 D21A     		subs	r2, r2, r3
 2151 0116 A2EB0802 		sub	r2, r2, r8
 2152 011a 5202     		lsls	r2, r2, #9
 2153 011c A918     		adds	r1, r5, r2
 2154 011e 8842     		cmp	r0, r1
 2155 0120 05EB4623 		add	r3, r5, r6, lsl #9
 2156 0124 04D9     		bls	.L604
 2157 0126 111D     		adds	r1, r2, #4
 2158 0128 2944     		add	r1, r1, r5
 2159 012a 8945     		cmp	r9, r1
 2160 012c C0F02F81 		bcc	.L573
 2161              	.L604:
 2162 0130 0298     		ldr	r0, [sp, #8]
 2163 0132 0028     		cmp	r0, #0
 2164 0134 00F02581 		beq	.L600
 2165 0138 1978     		ldrb	r1, [r3]	@ zero_extendqisi2
 2166 013a 89F80010 		strb	r1, [r9]
 2167 013e 0128     		cmp	r0, #1
 2168 0140 09F10107 		add	r7, r9, #1
 2169 0144 03F1010E 		add	lr, r3, #1
 2170 0148 00F03681 		beq	.L601
 2171 014c 5978     		ldrb	r1, [r3, #1]	@ zero_extendqisi2
 2172 014e 89F80110 		strb	r1, [r9, #1]
 2173 0152 0328     		cmp	r0, #3
 2174 0154 09F10207 		add	r7, r9, #2
 2175 0158 03F1020E 		add	lr, r3, #2
 2176 015c 40F02881 		bne	.L602
 2177 0160 9978     		ldrb	r1, [r3, #2]	@ zero_extendqisi2
 2178 0162 89F80210 		strb	r1, [r9, #2]
 2179 0166 03F1030E 		add	lr, r3, #3
 2180 016a 09F10307 		add	r7, r9, #3
 2181 016e 40F2FD16 		movw	r6, #509
 2182 0172 0146     		mov	r1, r0
 2183              	.L575:
 2184 0174 0B46     		mov	r3, r1
 2185 0176 1344     		add	r3, r3, r2
ARM GAS  /tmp/ccFKl8QX.s 			page 39


 2186 0178 DDF810C0 		ldr	ip, [sp, #16]
 2187 017c 2B44     		add	r3, r3, r5
 2188 017e 4944     		add	r1, r9, r1
 2189 0180 0022     		movs	r2, #0
 2190              	.L577:
 2191 0182 0132     		adds	r2, r2, #1
 2192 0184 53F8040B 		ldr	r0, [r3], #4	@ unaligned
 2193 0188 41F8040B 		str	r0, [r1], #4
 2194 018c 9445     		cmp	ip, r2
 2195 018e F8D8     		bhi	.L577
 2196 0190 0198     		ldr	r0, [sp, #4]
 2197 0192 0599     		ldr	r1, [sp, #20]
 2198 0194 8842     		cmp	r0, r1
 2199 0196 A6EB0006 		sub	r6, r6, r0
 2200 019a 07EB0003 		add	r3, r7, r0
 2201 019e 0EEB0002 		add	r2, lr, r0
 2202 01a2 0AD0     		beq	.L582
 2203 01a4 1EF80010 		ldrb	r1, [lr, r0]	@ zero_extendqisi2
 2204 01a8 3954     		strb	r1, [r7, r0]
 2205 01aa 012E     		cmp	r6, #1
 2206 01ac 05D0     		beq	.L582
 2207 01ae 5178     		ldrb	r1, [r2, #1]	@ zero_extendqisi2
 2208 01b0 5970     		strb	r1, [r3, #1]
 2209 01b2 022E     		cmp	r6, #2
 2210 01b4 01D0     		beq	.L582
 2211 01b6 9278     		ldrb	r2, [r2, #2]	@ zero_extendqisi2
 2212 01b8 9A70     		strb	r2, [r3, #2]
 2213              	.L582:
 2214 01ba 99F80632 		ldrb	r3, [r9, #518]	@ zero_extendqisi2
 2215 01be 23F04003 		bic	r3, r3, #64
 2216 01c2 89F80632 		strb	r3, [r9, #518]
 2217              	.L572:
 2218 01c6 6302     		lsls	r3, r4, #9
 2219 01c8 E918     		adds	r1, r5, r3
 2220 01ca D9F80842 		ldr	r4, [r9, #520]
 2221 01ce 72E0     		b	.L583
 2222              	.L570:
 2223 01d0 D9F81832 		ldr	r3, [r9, #536]
 2224 01d4 D9F80822 		ldr	r2, [r9, #520]
 2225 01d8 9E42     		cmp	r6, r3
 2226 01da 04D0     		beq	.L585
 2227 01dc D9F80C32 		ldr	r3, [r9, #524]
 2228 01e0 9A42     		cmp	r2, r3
 2229 01e2 C0F0BA80 		bcc	.L658
 2230              	.L585:
 2231 01e6 C9F81862 		str	r6, [r9, #536]
 2232 01ea C2F30802 		ubfx	r2, r2, #0, #9
 2233              	.L553:
 2234 01ee C2F50073 		rsb	r3, r2, #512
 2235 01f2 111D     		adds	r1, r2, #4
 2236 01f4 5345     		cmp	r3, r10
 2237 01f6 4944     		add	r1, r1, r9
 2238 01f8 09EB0200 		add	r0, r9, r2
 2239 01fc 05F10404 		add	r4, r5, #4
 2240 0200 28BF     		it	cs
 2241 0202 5346     		movcs	r3, r10
 2242 0204 A042     		cmp	r0, r4
ARM GAS  /tmp/ccFKl8QX.s 			page 40


 2243 0206 38BF     		it	cc
 2244 0208 8D42     		cmpcc	r5, r1
 2245 020a 03F1FF3E 		add	lr, r3, #-1
 2246 020e 78D3     		bcc	.L586
 2247 0210 0B2B     		cmp	r3, #11
 2248 0212 76D9     		bls	.L586
 2249 0214 6942     		negs	r1, r5
 2250 0216 11F00301 		ands	r1, r1, #3
 2251 021a 5CD0     		beq	.L603
 2252 021c 2C78     		ldrb	r4, [r5]	@ zero_extendqisi2
 2253 021e 0470     		strb	r4, [r0]
 2254 0220 0129     		cmp	r1, #1
 2255 0222 00F10104 		add	r4, r0, #1
 2256 0226 05F10106 		add	r6, r5, #1
 2257 022a A3F10207 		sub	r7, r3, #2
 2258 022e 0ED0     		beq	.L587
 2259 0230 6C78     		ldrb	r4, [r5, #1]	@ zero_extendqisi2
 2260 0232 4470     		strb	r4, [r0, #1]
 2261 0234 0329     		cmp	r1, #3
 2262 0236 00F10204 		add	r4, r0, #2
 2263 023a 05F10206 		add	r6, r5, #2
 2264 023e A3F10307 		sub	r7, r3, #3
 2265 0242 04D1     		bne	.L587
 2266 0244 AC78     		ldrb	r4, [r5, #2]	@ zero_extendqisi2
 2267 0246 8470     		strb	r4, [r0, #2]
 2268 0248 EE1C     		adds	r6, r5, #3
 2269 024a C41C     		adds	r4, r0, #3
 2270 024c 1F1F     		subs	r7, r3, #4
 2271              	.L587:
 2272 024e A3EB0108 		sub	r8, r3, r1
 2273 0252 A8F10400 		sub	r0, r8, #4
 2274 0256 8008     		lsrs	r0, r0, #2
 2275 0258 AEEB010E 		sub	lr, lr, r1
 2276 025c 0130     		adds	r0, r0, #1
 2277 025e BEF1020F 		cmp	lr, #2
 2278 0262 4FEA800C 		lsl	ip, r0, #2
 2279 0266 14D9     		bls	.L589
 2280 0268 0A44     		add	r2, r2, r1
 2281 026a 4A44     		add	r2, r2, r9
 2282 026c 2944     		add	r1, r1, r5
 2283 026e 4FF0000E 		mov	lr, #0
 2284 0272 0093     		str	r3, [sp]
 2285              	.L590:
 2286 0274 0EF1010E 		add	lr, lr, #1
 2287 0278 51F8043B 		ldr	r3, [r1], #4
 2288 027c 42F8043B 		str	r3, [r2], #4	@ unaligned
 2289 0280 7045     		cmp	r0, lr
 2290 0282 F7D8     		bhi	.L590
 2291 0284 E045     		cmp	r8, ip
 2292 0286 009B     		ldr	r3, [sp]
 2293 0288 6444     		add	r4, r4, ip
 2294 028a 6644     		add	r6, r6, ip
 2295 028c A7EB0C07 		sub	r7, r7, ip
 2296 0290 1FD0     		beq	.L652
 2297              	.L589:
 2298 0292 3278     		ldrb	r2, [r6]	@ zero_extendqisi2
 2299 0294 2270     		strb	r2, [r4]
ARM GAS  /tmp/ccFKl8QX.s 			page 41


 2300 0296 E7B1     		cbz	r7, .L652
 2301 0298 7278     		ldrb	r2, [r6, #1]	@ zero_extendqisi2
 2302 029a 6270     		strb	r2, [r4, #1]
 2303 029c 012F     		cmp	r7, #1
 2304 029e 18D0     		beq	.L652
 2305 02a0 B278     		ldrb	r2, [r6, #2]	@ zero_extendqisi2
 2306 02a2 A270     		strb	r2, [r4, #2]
 2307 02a4 E918     		adds	r1, r5, r3
 2308              	.L595:
 2309 02a6 99F80622 		ldrb	r2, [r9, #518]	@ zero_extendqisi2
 2310 02aa D9F80842 		ldr	r4, [r9, #520]
 2311 02ae 42F04002 		orr	r2, r2, #64
 2312 02b2 89F80622 		strb	r2, [r9, #518]
 2313              	.L583:
 2314 02b6 DBF80020 		ldr	r2, [fp]
 2315 02ba 1C44     		add	r4, r4, r3
 2316 02bc 1A44     		add	r2, r2, r3
 2317 02be BAEB030A 		subs	r10, r10, r3
 2318 02c2 C9F80842 		str	r4, [r9, #520]
 2319 02c6 0D46     		mov	r5, r1
 2320 02c8 CBF80020 		str	r2, [fp]
 2321 02cc 7FF4C8AE 		bne	.L596
 2322 02d0 9EE6     		b	.L552
 2323              	.L652:
 2324 02d2 E918     		adds	r1, r5, r3
 2325 02d4 E7E7     		b	.L595
 2326              	.L603:
 2327 02d6 0446     		mov	r4, r0
 2328 02d8 7746     		mov	r7, lr
 2329 02da 2E46     		mov	r6, r5
 2330 02dc B7E7     		b	.L587
 2331              	.L657:
 2332 02de 90F80102 		ldrb	r0, [r0, #513]	@ zero_extendqisi2
 2333 02e2 D9F81822 		ldr	r2, [r9, #536]
 2334 02e6 0123     		movs	r3, #1
 2335 02e8 4946     		mov	r1, r9
 2336 02ea FFF7FEFF 		bl	disk_write
 2337 02ee 70BB     		cbnz	r0, .L568
 2338 02f0 99F80632 		ldrb	r3, [r9, #518]	@ zero_extendqisi2
 2339 02f4 D9F80002 		ldr	r0, [r9, #512]
 2340 02f8 23F04003 		bic	r3, r3, #64
 2341 02fc 89F80632 		strb	r3, [r9, #518]
 2342 0300 D9E6     		b	.L567
 2343              	.L586:
 2344 0302 0138     		subs	r0, r0, #1
 2345 0304 E918     		adds	r1, r5, r3
 2346              	.L594:
 2347 0306 15F8012B 		ldrb	r2, [r5], #1	@ zero_extendqisi2
 2348 030a 00F8012F 		strb	r2, [r0, #1]!
 2349 030e 8D42     		cmp	r5, r1
 2350 0310 F9D1     		bne	.L594
 2351 0312 C8E7     		b	.L595
 2352              	.L555:
 2353 0314 D9F82412 		ldr	r1, [r9, #548]
 2354 0318 0029     		cmp	r1, #0
 2355 031a 51D0     		beq	.L558
 2356 031c B3FBF2F3 		udiv	r3, r3, r2
ARM GAS  /tmp/ccFKl8QX.s 			page 42


 2357 0320 4A68     		ldr	r2, [r1, #4]
 2358 0322 0431     		adds	r1, r1, #4
 2359 0324 002A     		cmp	r2, #0
 2360 0326 3FF473AE 		beq	.L552
 2361 032a 9342     		cmp	r3, r2
 2362 032c 07D3     		bcc	.L559
 2363              	.L561:
 2364 032e 9B1A     		subs	r3, r3, r2
 2365 0330 51F8082F 		ldr	r2, [r1, #8]!
 2366 0334 002A     		cmp	r2, #0
 2367 0336 3FF46BAE 		beq	.L552
 2368 033a 9A42     		cmp	r2, r3
 2369 033c F7D9     		bls	.L561
 2370              	.L559:
 2371 033e 4A68     		ldr	r2, [r1, #4]
 2372 0340 1344     		add	r3, r3, r2
 2373 0342 002B     		cmp	r3, #0
 2374 0344 7FF4A3AE 		bne	.L556
 2375              	.L659:
 2376 0348 D9F80842 		ldr	r4, [r9, #520]
 2377 034c 60E6     		b	.L552
 2378              	.L568:
 2379 034e 0120     		movs	r0, #1
 2380 0350 89F80702 		strb	r0, [r9, #519]
 2381 0354 07B0     		add	sp, sp, #28
 2382              		@ sp needed
 2383 0356 BDE8F08F 		pop	{r4, r5, r6, r7, r8, r9, r10, fp, pc}
 2384              	.L658:
 2385 035a 90F80102 		ldrb	r0, [r0, #513]	@ zero_extendqisi2
 2386 035e 0123     		movs	r3, #1
 2387 0360 3246     		mov	r2, r6
 2388 0362 4946     		mov	r1, r9
 2389 0364 FFF7FEFF 		bl	disk_read
 2390 0368 0028     		cmp	r0, #0
 2391 036a F0D1     		bne	.L568
 2392 036c D9F80822 		ldr	r2, [r9, #520]
 2393 0370 39E7     		b	.L585
 2394              	.L656:
 2395 0372 3946     		mov	r1, r7
 2396 0374 FFF7FEFF 		bl	create_chain
 2397 0378 0346     		mov	r3, r0
 2398 037a 002B     		cmp	r3, #0
 2399 037c 7FF487AE 		bne	.L556
 2400 0380 E2E7     		b	.L659
 2401              	.L600:
 2402 0382 9E46     		mov	lr, r3
 2403 0384 4F46     		mov	r7, r9
 2404 0386 4FF40076 		mov	r6, #512
 2405 038a 0146     		mov	r1, r0
 2406 038c F2E6     		b	.L575
 2407              	.L573:
 2408 038e 09F1FF32 		add	r2, r9, #-1
 2409 0392 03F50070 		add	r0, r3, #512
 2410              	.L581:
 2411 0396 13F8011B 		ldrb	r1, [r3], #1	@ zero_extendqisi2
 2412 039a 02F8011F 		strb	r1, [r2, #1]!
 2413 039e 8342     		cmp	r3, r0
ARM GAS  /tmp/ccFKl8QX.s 			page 43


 2414 03a0 F9D1     		bne	.L581
 2415 03a2 0AE7     		b	.L582
 2416              	.L569:
 2417 03a4 0220     		movs	r0, #2
 2418 03a6 89F80702 		strb	r0, [r9, #519]
 2419 03aa 07B0     		add	sp, sp, #28
 2420              		@ sp needed
 2421 03ac BDE8F08F 		pop	{r4, r5, r6, r7, r8, r9, r10, fp, pc}
 2422              	.L602:
 2423 03b0 4FF4FF76 		mov	r6, #510
 2424 03b4 0146     		mov	r1, r0
 2425 03b6 DDE6     		b	.L575
 2426              	.L601:
 2427 03b8 40F2FF16 		movw	r6, #511
 2428 03bc 0146     		mov	r1, r0
 2429 03be D9E6     		b	.L575
 2430              	.L558:
 2431 03c0 D9F81412 		ldr	r1, [r9, #532]
 2432 03c4 FFF7FEFF 		bl	create_chain
 2433 03c8 0346     		mov	r3, r0
 2434 03ca 002B     		cmp	r3, #0
 2435 03cc 7FF45FAE 		bne	.L556
 2436 03d0 BAE7     		b	.L659
 2438 03d2 00BF     		.section	.text.f_read.part.11,"ax",%progbits
 2439              		.align	1
 2440              		.p2align 2,,3
 2441              		.syntax unified
 2442              		.thumb
 2443              		.thumb_func
 2444              		.fpu fpv4-sp-d16
 2446              	f_read.part.11:
 2447              		@ args = 0, pretend = 0, frame = 24
 2448              		@ frame_needed = 0, uses_anonymous_args = 0
 2449 0000 2DE9F04F 		push	{r4, r5, r6, r7, r8, r9, r10, fp, lr}
 2450 0004 D0F80852 		ldr	r5, [r0, #520]
 2451 0008 D0F80C42 		ldr	r4, [r0, #524]
 2452 000c A4EB050A 		sub	r10, r4, r5
 2453 0010 9245     		cmp	r10, r2
 2454 0012 28BF     		it	cs
 2455 0014 9246     		movcs	r10, r2
 2456 0016 87B0     		sub	sp, sp, #28
 2457 0018 BAF1000F 		cmp	r10, #0
 2458 001c 6ED0     		beq	.L706
 2459 001e 9B46     		mov	fp, r3
 2460 0020 4342     		negs	r3, r0
 2461 0022 03F00302 		and	r2, r3, #3
 2462 0026 C2F5FE73 		rsb	r3, r2, #508
 2463 002a 9B08     		lsrs	r3, r3, #2
 2464 002c 8046     		mov	r8, r0
 2465 002e 0192     		str	r2, [sp, #4]
 2466 0030 581C     		adds	r0, r3, #1
 2467 0032 C2F50072 		rsb	r2, r2, #512
 2468 0036 8946     		mov	r9, r1
 2469 0038 0592     		str	r2, [sp, #20]
 2470 003a 8100     		lsls	r1, r0, #2
 2471 003c 08F10402 		add	r2, r8, #4
 2472 0040 0490     		str	r0, [sp, #16]
ARM GAS  /tmp/ccFKl8QX.s 			page 44


 2473 0042 0391     		str	r1, [sp, #12]
 2474 0044 0292     		str	r2, [sp, #8]
 2475              	.L705:
 2476 0046 C5F30802 		ubfx	r2, r5, #0, #9
 2477 004a 002A     		cmp	r2, #0
 2478 004c 40F08380 		bne	.L663
 2479 0050 D8F80002 		ldr	r0, [r8, #512]
 2480 0054 90F80222 		ldrb	r2, [r0, #514]	@ zero_extendqisi2
 2481 0058 6B0A     		lsrs	r3, r5, #9
 2482 005a 571E     		subs	r7, r2, #1
 2483 005c 1F40     		ands	r7, r7, r3
 2484 005e 17F0FF07 		ands	r7, r7, #255
 2485 0062 40F0D680 		bne	.L664
 2486 0066 002D     		cmp	r5, #0
 2487 0068 40F0E580 		bne	.L665
 2488 006c D8F81052 		ldr	r5, [r8, #528]
 2489              	.L666:
 2490 0070 012D     		cmp	r5, #1
 2491 0072 40F2F380 		bls	.L672
 2492 0076 691C     		adds	r1, r5, #1
 2493 0078 00F0F680 		beq	.L678
 2494 007c D8F80002 		ldr	r0, [r8, #512]
 2495 0080 C8F81452 		str	r5, [r8, #532]
 2496              	.L675:
 2497 0084 D0F81432 		ldr	r3, [r0, #532]
 2498 0088 023D     		subs	r5, r5, #2
 2499 008a 023B     		subs	r3, r3, #2
 2500 008c 9D42     		cmp	r5, r3
 2501 008e 80F0E580 		bcs	.L672
 2502 0092 90F80232 		ldrb	r3, [r0, #514]	@ zero_extendqisi2
 2503 0096 D0F82822 		ldr	r2, [r0, #552]
 2504 009a 0092     		str	r2, [sp]
 2505 009c 05FB03F5 		mul	r5, r5, r3
 2506 00a0 AE18     		adds	r6, r5, r2
 2507 00a2 00F0DB80 		beq	.L672
 2508 00a6 5FEA5A24 		lsrs	r4, r10, #9
 2509 00aa 3E44     		add	r6, r6, r7
 2510 00ac 2AD0     		beq	.L676
 2511 00ae 3A19     		adds	r2, r7, r4
 2512 00b0 9342     		cmp	r3, r2
 2513 00b2 38BF     		it	cc
 2514 00b4 DC1B     		subcc	r4, r3, r7
 2515 00b6 90F80102 		ldrb	r0, [r0, #513]	@ zero_extendqisi2
 2516 00ba 2346     		mov	r3, r4
 2517 00bc 3246     		mov	r2, r6
 2518 00be 4946     		mov	r1, r9
 2519 00c0 FFF7FEFF 		bl	disk_read
 2520 00c4 0028     		cmp	r0, #0
 2521 00c6 40F0CF80 		bne	.L678
 2522 00ca 98F80632 		ldrb	r3, [r8, #518]	@ zero_extendqisi2
 2523 00ce 5A06     		lsls	r2, r3, #25
 2524 00d0 05D5     		bpl	.L681
 2525 00d2 D8F81822 		ldr	r2, [r8, #536]
 2526 00d6 961B     		subs	r6, r2, r6
 2527 00d8 B442     		cmp	r4, r6
 2528 00da 00F2CB80 		bhi	.L755
 2529              	.L681:
ARM GAS  /tmp/ccFKl8QX.s 			page 45


 2530 00de D8F80852 		ldr	r5, [r8, #520]
 2531 00e2 6302     		lsls	r3, r4, #9
 2532              	.L680:
 2533 00e4 DBF80020 		ldr	r2, [fp]
 2534 00e8 1D44     		add	r5, r5, r3
 2535 00ea 1A44     		add	r2, r2, r3
 2536 00ec BAEB030A 		subs	r10, r10, r3
 2537 00f0 C8F80852 		str	r5, [r8, #520]
 2538 00f4 9944     		add	r9, r9, r3
 2539 00f6 CBF80020 		str	r2, [fp]
 2540 00fa A4D1     		bne	.L705
 2541              	.L706:
 2542 00fc 0020     		movs	r0, #0
 2543 00fe 07B0     		add	sp, sp, #28
 2544              		@ sp needed
 2545 0100 BDE8F08F 		pop	{r4, r5, r6, r7, r8, r9, r10, fp, pc}
 2546              	.L676:
 2547 0104 D8F81822 		ldr	r2, [r8, #536]
 2548 0108 9642     		cmp	r6, r2
 2549 010a 1ED0     		beq	.L692
 2550 010c 98F80632 		ldrb	r3, [r8, #518]	@ zero_extendqisi2
 2551 0110 5B06     		lsls	r3, r3, #25
 2552 0112 10D5     		bpl	.L694
 2553 0114 90F80102 		ldrb	r0, [r0, #513]	@ zero_extendqisi2
 2554 0118 0123     		movs	r3, #1
 2555 011a 4146     		mov	r1, r8
 2556 011c FFF7FEFF 		bl	disk_write
 2557 0120 0028     		cmp	r0, #0
 2558 0122 40F0A180 		bne	.L678
 2559 0126 98F80632 		ldrb	r3, [r8, #518]	@ zero_extendqisi2
 2560 012a D8F80002 		ldr	r0, [r8, #512]
 2561 012e 23F04003 		bic	r3, r3, #64
 2562 0132 88F80632 		strb	r3, [r8, #518]
 2563              	.L694:
 2564 0136 90F80102 		ldrb	r0, [r0, #513]	@ zero_extendqisi2
 2565 013a 0123     		movs	r3, #1
 2566 013c 3246     		mov	r2, r6
 2567 013e 4146     		mov	r1, r8
 2568 0140 FFF7FEFF 		bl	disk_read
 2569 0144 0028     		cmp	r0, #0
 2570 0146 40F08F80 		bne	.L678
 2571              	.L692:
 2572 014a D8F80822 		ldr	r2, [r8, #520]
 2573 014e C8F81862 		str	r6, [r8, #536]
 2574 0152 C2F30802 		ubfx	r2, r2, #0, #9
 2575              	.L663:
 2576 0156 C2F50073 		rsb	r3, r2, #512
 2577 015a 111D     		adds	r1, r2, #4
 2578 015c 5345     		cmp	r3, r10
 2579 015e 4144     		add	r1, r1, r8
 2580 0160 08EB0200 		add	r0, r8, r2
 2581 0164 09F10404 		add	r4, r9, #4
 2582 0168 28BF     		it	cs
 2583 016a 5346     		movcs	r3, r10
 2584 016c A042     		cmp	r0, r4
 2585 016e 38BF     		it	cc
 2586 0170 8945     		cmpcc	r9, r1
ARM GAS  /tmp/ccFKl8QX.s 			page 46


 2587 0172 03F1FF37 		add	r7, r3, #-1
 2588 0176 53D3     		bcc	.L695
 2589 0178 0B2B     		cmp	r3, #11
 2590 017a 51D9     		bls	.L695
 2591 017c 4142     		negs	r1, r0
 2592 017e 11F00301 		ands	r1, r1, #3
 2593 0182 49D0     		beq	.L712
 2594 0184 0478     		ldrb	r4, [r0]	@ zero_extendqisi2
 2595 0186 89F80040 		strb	r4, [r9]
 2596 018a 0129     		cmp	r1, #1
 2597 018c 09F10104 		add	r4, r9, #1
 2598 0190 00F10105 		add	r5, r0, #1
 2599 0194 A3F10206 		sub	r6, r3, #2
 2600 0198 11D0     		beq	.L696
 2601 019a 4478     		ldrb	r4, [r0, #1]	@ zero_extendqisi2
 2602 019c 89F80140 		strb	r4, [r9, #1]
 2603 01a0 0329     		cmp	r1, #3
 2604 01a2 09F10204 		add	r4, r9, #2
 2605 01a6 00F10205 		add	r5, r0, #2
 2606 01aa A3F10306 		sub	r6, r3, #3
 2607 01ae 06D1     		bne	.L696
 2608 01b0 8478     		ldrb	r4, [r0, #2]	@ zero_extendqisi2
 2609 01b2 89F80240 		strb	r4, [r9, #2]
 2610 01b6 C51C     		adds	r5, r0, #3
 2611 01b8 09F10304 		add	r4, r9, #3
 2612 01bc 1E1F     		subs	r6, r3, #4
 2613              	.L696:
 2614 01be A3EB010C 		sub	ip, r3, r1
 2615 01c2 ACF10400 		sub	r0, ip, #4
 2616 01c6 8008     		lsrs	r0, r0, #2
 2617 01c8 7F1A     		subs	r7, r7, r1
 2618 01ca 0130     		adds	r0, r0, #1
 2619 01cc 022F     		cmp	r7, #2
 2620 01ce 4FEA800E 		lsl	lr, r0, #2
 2621 01d2 12D9     		bls	.L698
 2622 01d4 0A44     		add	r2, r2, r1
 2623 01d6 4244     		add	r2, r2, r8
 2624 01d8 4944     		add	r1, r1, r9
 2625 01da 0027     		movs	r7, #0
 2626 01dc 0093     		str	r3, [sp]
 2627              	.L699:
 2628 01de 0137     		adds	r7, r7, #1
 2629 01e0 52F8043B 		ldr	r3, [r2], #4
 2630 01e4 41F8043B 		str	r3, [r1], #4	@ unaligned
 2631 01e8 B842     		cmp	r0, r7
 2632 01ea F8D8     		bhi	.L699
 2633 01ec F445     		cmp	ip, lr
 2634 01ee 009B     		ldr	r3, [sp]
 2635 01f0 7444     		add	r4, r4, lr
 2636 01f2 7544     		add	r5, r5, lr
 2637 01f4 A6EB0E06 		sub	r6, r6, lr
 2638 01f8 08D0     		beq	.L704
 2639              	.L698:
 2640 01fa 2A78     		ldrb	r2, [r5]	@ zero_extendqisi2
 2641 01fc 2270     		strb	r2, [r4]
 2642 01fe 2EB1     		cbz	r6, .L704
 2643 0200 6A78     		ldrb	r2, [r5, #1]	@ zero_extendqisi2
ARM GAS  /tmp/ccFKl8QX.s 			page 47


 2644 0202 6270     		strb	r2, [r4, #1]
 2645 0204 012E     		cmp	r6, #1
 2646 0206 01D0     		beq	.L704
 2647 0208 AA78     		ldrb	r2, [r5, #2]	@ zero_extendqisi2
 2648 020a A270     		strb	r2, [r4, #2]
 2649              	.L704:
 2650 020c D8F80852 		ldr	r5, [r8, #520]
 2651 0210 68E7     		b	.L680
 2652              	.L664:
 2653 0212 D8F81452 		ldr	r5, [r8, #532]
 2654 0216 35E7     		b	.L675
 2655              	.L712:
 2656 0218 0546     		mov	r5, r0
 2657 021a 3E46     		mov	r6, r7
 2658 021c 4C46     		mov	r4, r9
 2659 021e CEE7     		b	.L696
 2660              	.L695:
 2661 0220 09F1FF31 		add	r1, r9, #-1
 2662 0224 C418     		adds	r4, r0, r3
 2663 0226 0246     		mov	r2, r0
 2664              	.L703:
 2665 0228 12F8010B 		ldrb	r0, [r2], #1	@ zero_extendqisi2
 2666 022c 01F8010F 		strb	r0, [r1, #1]!
 2667 0230 A242     		cmp	r2, r4
 2668 0232 F9D1     		bne	.L703
 2669 0234 EAE7     		b	.L704
 2670              	.L665:
 2671 0236 D8F82412 		ldr	r1, [r8, #548]
 2672 023a 0029     		cmp	r1, #0
 2673 023c 7FD0     		beq	.L667
 2674 023e B3FBF2F3 		udiv	r3, r3, r2
 2675 0242 4A68     		ldr	r2, [r1, #4]
 2676 0244 0431     		adds	r1, r1, #4
 2677 0246 4AB1     		cbz	r2, .L672
 2678 0248 9342     		cmp	r3, r2
 2679 024a 02D2     		bcs	.L671
 2680 024c 6FE0     		b	.L669
 2681              	.L741:
 2682 024e 9A42     		cmp	r2, r3
 2683 0250 6DD8     		bhi	.L669
 2684              	.L671:
 2685 0252 9B1A     		subs	r3, r3, r2
 2686 0254 51F8082F 		ldr	r2, [r1, #8]!
 2687 0258 002A     		cmp	r2, #0
 2688 025a F8D1     		bne	.L741
 2689              	.L672:
 2690 025c 0220     		movs	r0, #2
 2691 025e 88F80702 		strb	r0, [r8, #519]
 2692 0262 07B0     		add	sp, sp, #28
 2693              		@ sp needed
 2694 0264 BDE8F08F 		pop	{r4, r5, r6, r7, r8, r9, r10, fp, pc}
 2695              	.L678:
 2696 0268 0120     		movs	r0, #1
 2697 026a 88F80702 		strb	r0, [r8, #519]
 2698 026e 07B0     		add	sp, sp, #28
 2699              		@ sp needed
 2700 0270 BDE8F08F 		pop	{r4, r5, r6, r7, r8, r9, r10, fp, pc}
ARM GAS  /tmp/ccFKl8QX.s 			page 48


 2701              	.L755:
 2702 0274 009B     		ldr	r3, [sp]
 2703 0276 0299     		ldr	r1, [sp, #8]
 2704 0278 D21B     		subs	r2, r2, r7
 2705 027a D21A     		subs	r2, r2, r3
 2706 027c 521B     		subs	r2, r2, r5
 2707 027e 5202     		lsls	r2, r2, #9
 2708 0280 09EB0203 		add	r3, r9, r2
 2709 0284 9942     		cmp	r1, r3
 2710 0286 09EB4626 		add	r6, r9, r6, lsl #9
 2711 028a 0ED9     		bls	.L713
 2712 028c 131D     		adds	r3, r2, #4
 2713 028e 4B44     		add	r3, r3, r9
 2714 0290 9845     		cmp	r8, r3
 2715 0292 0AD2     		bcs	.L713
 2716 0294 721E     		subs	r2, r6, #1
 2717 0296 08F50070 		add	r0, r8, #512
 2718 029a 4346     		mov	r3, r8
 2719              	.L690:
 2720 029c 13F8011B 		ldrb	r1, [r3], #1	@ zero_extendqisi2
 2721 02a0 02F8011F 		strb	r1, [r2, #1]!
 2722 02a4 8342     		cmp	r3, r0
 2723 02a6 F9D1     		bne	.L690
 2724 02a8 19E7     		b	.L681
 2725              	.L713:
 2726 02aa 0199     		ldr	r1, [sp, #4]
 2727 02ac 0029     		cmp	r1, #0
 2728 02ae 41D0     		beq	.L709
 2729 02b0 98F80030 		ldrb	r3, [r8]	@ zero_extendqisi2
 2730 02b4 3370     		strb	r3, [r6]
 2731 02b6 0129     		cmp	r1, #1
 2732 02b8 06F10105 		add	r5, r6, #1
 2733 02bc 08F10107 		add	r7, r8, #1
 2734 02c0 4CD0     		beq	.L710
 2735 02c2 98F80130 		ldrb	r3, [r8, #1]	@ zero_extendqisi2
 2736 02c6 7370     		strb	r3, [r6, #1]
 2737 02c8 0329     		cmp	r1, #3
 2738 02ca 06F10205 		add	r5, r6, #2
 2739 02ce 08F10207 		add	r7, r8, #2
 2740 02d2 40D1     		bne	.L711
 2741 02d4 98F80230 		ldrb	r3, [r8, #2]	@ zero_extendqisi2
 2742 02d8 B370     		strb	r3, [r6, #2]
 2743 02da F51C     		adds	r5, r6, #3
 2744 02dc 08F10307 		add	r7, r8, #3
 2745 02e0 40F2FD16 		movw	r6, #509
 2746              	.L684:
 2747 02e4 0A44     		add	r2, r2, r1
 2748 02e6 DDF810E0 		ldr	lr, [sp, #16]
 2749 02ea 4A44     		add	r2, r2, r9
 2750 02ec 4144     		add	r1, r8, r1
 2751 02ee 0023     		movs	r3, #0
 2752              	.L686:
 2753 02f0 0133     		adds	r3, r3, #1
 2754 02f2 51F8040B 		ldr	r0, [r1], #4
 2755 02f6 42F8040B 		str	r0, [r2], #4	@ unaligned
 2756 02fa 9E45     		cmp	lr, r3
 2757 02fc F8D8     		bhi	.L686
ARM GAS  /tmp/ccFKl8QX.s 			page 49


 2758 02fe 0398     		ldr	r0, [sp, #12]
 2759 0300 0599     		ldr	r1, [sp, #20]
 2760 0302 8842     		cmp	r0, r1
 2761 0304 A6EB0006 		sub	r6, r6, r0
 2762 0308 05EB0003 		add	r3, r5, r0
 2763 030c 07EB0002 		add	r2, r7, r0
 2764 0310 3FF4E5AE 		beq	.L681
 2765 0314 395C     		ldrb	r1, [r7, r0]	@ zero_extendqisi2
 2766 0316 2954     		strb	r1, [r5, r0]
 2767 0318 012E     		cmp	r6, #1
 2768 031a 3FF4E0AE 		beq	.L681
 2769 031e 5178     		ldrb	r1, [r2, #1]	@ zero_extendqisi2
 2770 0320 5970     		strb	r1, [r3, #1]
 2771 0322 022E     		cmp	r6, #2
 2772 0324 3FF4DBAE 		beq	.L681
 2773 0328 9278     		ldrb	r2, [r2, #2]	@ zero_extendqisi2
 2774 032a 9A70     		strb	r2, [r3, #2]
 2775 032c D7E6     		b	.L681
 2776              	.L669:
 2777 032e 4D68     		ldr	r5, [r1, #4]
 2778 0330 1D44     		add	r5, r5, r3
 2779 0332 9DE6     		b	.L666
 2780              	.L709:
 2781 0334 3546     		mov	r5, r6
 2782 0336 4746     		mov	r7, r8
 2783 0338 4FF40076 		mov	r6, #512
 2784 033c D2E7     		b	.L684
 2785              	.L667:
 2786 033e D8F81412 		ldr	r1, [r8, #532]
 2787 0342 0129     		cmp	r1, #1
 2788 0344 8AD9     		bls	.L672
 2789 0346 D0F81432 		ldr	r3, [r0, #532]
 2790 034a 9942     		cmp	r1, r3
 2791 034c 86D2     		bcs	.L672
 2792 034e FFF7FEFF 		bl	get_fat.part.6
 2793 0352 0546     		mov	r5, r0
 2794 0354 8CE6     		b	.L666
 2795              	.L711:
 2796 0356 4FF4FF76 		mov	r6, #510
 2797 035a C3E7     		b	.L684
 2798              	.L710:
 2799 035c 40F2FF16 		movw	r6, #511
 2800 0360 C0E7     		b	.L684
 2802 0362 00BF     		.section	.text.follow_path,"ax",%progbits
 2803              		.align	1
 2804              		.p2align 2,,3
 2805              		.syntax unified
 2806              		.thumb
 2807              		.thumb_func
 2808              		.fpu fpv4-sp-d16
 2810              	follow_path:
 2811              		@ args = 0, pretend = 0, frame = 8
 2812              		@ frame_needed = 0, uses_anonymous_args = 0
 2813 0000 2DE9F04F 		push	{r4, r5, r6, r7, r8, r9, r10, fp, lr}
 2814 0004 0B78     		ldrb	r3, [r1]	@ zero_extendqisi2
 2815 0006 83B0     		sub	sp, sp, #12
 2816 0008 2F2B     		cmp	r3, #47
ARM GAS  /tmp/ccFKl8QX.s 			page 50


 2817 000a 0191     		str	r1, [sp, #4]
 2818 000c 0646     		mov	r6, r0
 2819 000e 7FD0     		beq	.L757
 2820 0010 5C2B     		cmp	r3, #92
 2821 0012 7DD0     		beq	.L757
 2822              	.L758:
 2823 0014 0024     		movs	r4, #0
 2824 0016 019B     		ldr	r3, [sp, #4]
 2825 0018 C6F80842 		str	r4, [r6, #520]
 2826 001c 1B78     		ldrb	r3, [r3]	@ zero_extendqisi2
 2827 001e 1F2B     		cmp	r3, #31
 2828 0020 40F27181 		bls	.L862
 2829 0024 D6F81822 		ldr	r2, [r6, #536]
 2830              	.L798:
 2831 0028 0199     		ldr	r1, [sp, #4]
 2832              	.L761:
 2833 002a 0B78     		ldrb	r3, [r1]	@ zero_extendqisi2
 2834 002c 2F2B     		cmp	r3, #47
 2835 002e 0846     		mov	r0, r1
 2836 0030 01F10101 		add	r1, r1, #1
 2837 0034 F9D0     		beq	.L761
 2838 0036 5C2B     		cmp	r3, #92
 2839 0038 F7D0     		beq	.L761
 2840 003a 2023     		movs	r3, #32
 2841 003c 4FF0000E 		mov	lr, #0
 2842 0040 1370     		strb	r3, [r2]
 2843 0042 5370     		strb	r3, [r2, #1]
 2844 0044 9370     		strb	r3, [r2, #2]
 2845 0046 D370     		strb	r3, [r2, #3]
 2846 0048 1371     		strb	r3, [r2, #4]
 2847 004a 5371     		strb	r3, [r2, #5]
 2848 004c 9371     		strb	r3, [r2, #6]
 2849 004e D371     		strb	r3, [r2, #7]
 2850 0050 1372     		strb	r3, [r2, #8]
 2851 0052 5372     		strb	r3, [r2, #9]
 2852 0054 9372     		strb	r3, [r2, #10]
 2853 0056 7146     		mov	r1, lr
 2854 0058 F446     		mov	ip, lr
 2855 005a 00F1FF39 		add	r9, r0, #-1
 2856 005e 4FF00808 		mov	r8, #8
 2857              	.L763:
 2858 0062 19F8013F 		ldrb	r3, [r9, #1]!	@ zero_extendqisi2
 2859 0066 202B     		cmp	r3, #32
 2860 0068 01F10101 		add	r1, r1, #1
 2861 006c 23D9     		bls	.L764
 2862              	.L865:
 2863 006e 2F2B     		cmp	r3, #47
 2864 0070 47D0     		beq	.L765
 2865 0072 5C2B     		cmp	r3, #92
 2866 0074 45D0     		beq	.L765
 2867 0076 2E2B     		cmp	r3, #46
 2868 0078 29D0     		beq	.L766
 2869 007a F045     		cmp	r8, lr
 2870 007c 21D9     		bls	.L811
 2871 007e 1C06     		lsls	r4, r3, #24
 2872 0080 39D4     		bmi	.L863
 2873              	.L769:
ARM GAS  /tmp/ccFKl8QX.s 			page 51


 2874 0082 222B     		cmp	r3, #34
 2875 0084 1DD0     		beq	.L811
 2876 0086 B84D     		ldr	r5, .L873
 2877 0088 2A24     		movs	r4, #42
 2878              	.L771:
 2879 008a A342     		cmp	r3, r4
 2880 008c 19D0     		beq	.L811
 2881 008e 15F8014F 		ldrb	r4, [r5, #1]!	@ zero_extendqisi2
 2882 0092 002C     		cmp	r4, #0
 2883 0094 F9D1     		bne	.L771
 2884 0096 A3F14104 		sub	r4, r3, #65
 2885 009a 192C     		cmp	r4, #25
 2886 009c 22D8     		bhi	.L864
 2887 009e 4CF0020C 		orr	ip, ip, #2
 2888              	.L774:
 2889 00a2 02F80E30 		strb	r3, [r2, lr]
 2890 00a6 19F8013F 		ldrb	r3, [r9, #1]!	@ zero_extendqisi2
 2891 00aa 202B     		cmp	r3, #32
 2892 00ac 0EF1010E 		add	lr, lr, #1
 2893 00b0 01F10101 		add	r1, r1, #1
 2894 00b4 DBD8     		bhi	.L865
 2895              	.L764:
 2896 00b6 4318     		adds	r3, r0, r1
 2897 00b8 0193     		str	r3, [sp, #4]
 2898 00ba 0423     		movs	r3, #4
 2899 00bc BEF1000F 		cmp	lr, #0
 2900 00c0 2AD1     		bne	.L866
 2901              	.L811:
 2902 00c2 4FF00609 		mov	r9, #6
 2903              	.L812:
 2904 00c6 4846     		mov	r0, r9
 2905 00c8 03B0     		add	sp, sp, #12
 2906              		@ sp needed
 2907 00ca BDE8F08F 		pop	{r4, r5, r6, r7, r8, r9, r10, fp, pc}
 2908              	.L766:
 2909 00ce B8F1080F 		cmp	r8, #8
 2910 00d2 F6D1     		bne	.L811
 2911 00d4 4FEA8C0C 		lsl	ip, ip, #2
 2912 00d8 C646     		mov	lr, r8
 2913 00da 5FFA8CFC 		uxtb	ip, ip
 2914 00de 4FF00B08 		mov	r8, #11
 2915 00e2 BEE7     		b	.L763
 2916              	.L864:
 2917 00e4 A3F16104 		sub	r4, r3, #97
 2918 00e8 192C     		cmp	r4, #25
 2919 00ea DAD8     		bhi	.L774
 2920 00ec 203B     		subs	r3, r3, #32
 2921 00ee DBB2     		uxtb	r3, r3
 2922 00f0 4CF0010C 		orr	ip, ip, #1
 2923 00f4 D5E7     		b	.L774
 2924              	.L863:
 2925 00f6 803B     		subs	r3, r3, #128
 2926 00f8 9C4C     		ldr	r4, .L873+4
 2927 00fa 4CF0030C 		orr	ip, ip, #3
 2928 00fe E35C     		ldrb	r3, [r4, r3]	@ zero_extendqisi2
 2929 0100 BFE7     		b	.L769
 2930              	.L765:
ARM GAS  /tmp/ccFKl8QX.s 			page 52


 2931 0102 4318     		adds	r3, r0, r1
 2932 0104 0193     		str	r3, [sp, #4]
 2933 0106 0023     		movs	r3, #0
 2934 0108 BEF1000F 		cmp	lr, #0
 2935 010c D9D0     		beq	.L811
 2936 010e 03E0     		b	.L866
 2937              	.L757:
 2938 0110 019B     		ldr	r3, [sp, #4]
 2939 0112 0133     		adds	r3, r3, #1
 2940 0114 0193     		str	r3, [sp, #4]
 2941 0116 7DE7     		b	.L758
 2942              	.L866:
 2943 0118 1178     		ldrb	r1, [r2]	@ zero_extendqisi2
 2944 011a E529     		cmp	r1, #229
 2945 011c 04BF     		itt	eq
 2946 011e 0521     		moveq	r1, #5
 2947 0120 1170     		strbeq	r1, [r2]
 2948 0122 B8F1080F 		cmp	r8, #8
 2949 0126 04BF     		itt	eq
 2950 0128 4FEA8C0C 		lsleq	ip, ip, #2
 2951 012c 5FFA8CFC 		uxtbeq	ip, ip
 2952 0130 0CF00301 		and	r1, ip, #3
 2953 0134 0129     		cmp	r1, #1
 2954 0136 0CF00C0C 		and	ip, ip, #12
 2955 013a 08BF     		it	eq
 2956 013c 43F01003 		orreq	r3, r3, #16
 2957 0140 BCF1040F 		cmp	ip, #4
 2958 0144 08BF     		it	eq
 2959 0146 43F00803 		orreq	r3, r3, #8
 2960 014a D372     		strb	r3, [r2, #11]
 2961 014c 0021     		movs	r1, #0
 2962 014e 3046     		mov	r0, r6
 2963 0150 FFF7FEFF 		bl	dir_sdi
 2964 0154 8146     		mov	r9, r0
 2965 0156 0028     		cmp	r0, #0
 2966 0158 40F0FE80 		bne	.L779
 2967 015c D6F80042 		ldr	r4, [r6, #512]
 2968 0160 D6F81072 		ldr	r7, [r6, #528]
 2969              	.L795:
 2970 0164 D4F82C52 		ldr	r5, [r4, #556]
 2971 0168 BD42     		cmp	r5, r7
 2972 016a 17D0     		beq	.L780
 2973 016c 94F80432 		ldrb	r3, [r4, #516]	@ zero_extendqisi2
 2974 0170 002B     		cmp	r3, #0
 2975 0172 68D1     		bne	.L867
 2976              	.L783:
 2977 0174 0123     		movs	r3, #1
 2978 0176 3A46     		mov	r2, r7
 2979 0178 2146     		mov	r1, r4
 2980 017a 94F80102 		ldrb	r0, [r4, #513]	@ zero_extendqisi2
 2981 017e FFF7FEFF 		bl	disk_read
 2982 0182 48B1     		cbz	r0, .L868
 2983 0184 4FF00109 		mov	r9, #1
 2984 0188 4FF0FF33 		mov	r3, #-1
 2985 018c 4846     		mov	r0, r9
 2986 018e C4F82C32 		str	r3, [r4, #556]
 2987 0192 03B0     		add	sp, sp, #12
ARM GAS  /tmp/ccFKl8QX.s 			page 53


 2988              		@ sp needed
 2989 0194 BDE8F08F 		pop	{r4, r5, r6, r7, r8, r9, r10, fp, pc}
 2990              	.L868:
 2991 0198 C4F82C72 		str	r7, [r4, #556]
 2992              	.L780:
 2993 019c D6F81432 		ldr	r3, [r6, #532]
 2994 01a0 1978     		ldrb	r1, [r3]	@ zero_extendqisi2
 2995 01a2 0029     		cmp	r1, #0
 2996 01a4 36D0     		beq	.L786
 2997 01a6 D87A     		ldrb	r0, [r3, #11]	@ zero_extendqisi2
 2998 01a8 0707     		lsls	r7, r0, #28
 2999 01aa 2CD4     		bmi	.L787
 3000 01ac D6F81822 		ldr	r2, [r6, #536]
 3001 01b0 1478     		ldrb	r4, [r2]	@ zero_extendqisi2
 3002 01b2 8C42     		cmp	r4, r1
 3003 01b4 27D1     		bne	.L787
 3004 01b6 5C78     		ldrb	r4, [r3, #1]	@ zero_extendqisi2
 3005 01b8 5178     		ldrb	r1, [r2, #1]	@ zero_extendqisi2
 3006 01ba 8C42     		cmp	r4, r1
 3007 01bc 23D1     		bne	.L787
 3008 01be 9C78     		ldrb	r4, [r3, #2]	@ zero_extendqisi2
 3009 01c0 9178     		ldrb	r1, [r2, #2]	@ zero_extendqisi2
 3010 01c2 8C42     		cmp	r4, r1
 3011 01c4 1FD1     		bne	.L787
 3012 01c6 D478     		ldrb	r4, [r2, #3]	@ zero_extendqisi2
 3013 01c8 D978     		ldrb	r1, [r3, #3]	@ zero_extendqisi2
 3014 01ca 8C42     		cmp	r4, r1
 3015 01cc 1BD1     		bne	.L787
 3016 01ce 1C79     		ldrb	r4, [r3, #4]	@ zero_extendqisi2
 3017 01d0 1179     		ldrb	r1, [r2, #4]	@ zero_extendqisi2
 3018 01d2 8C42     		cmp	r4, r1
 3019 01d4 17D1     		bne	.L787
 3020 01d6 5C79     		ldrb	r4, [r3, #5]	@ zero_extendqisi2
 3021 01d8 5179     		ldrb	r1, [r2, #5]	@ zero_extendqisi2
 3022 01da 8C42     		cmp	r4, r1
 3023 01dc 13D1     		bne	.L787
 3024 01de 9C79     		ldrb	r4, [r3, #6]	@ zero_extendqisi2
 3025 01e0 9179     		ldrb	r1, [r2, #6]	@ zero_extendqisi2
 3026 01e2 8C42     		cmp	r4, r1
 3027 01e4 0FD1     		bne	.L787
 3028 01e6 DC79     		ldrb	r4, [r3, #7]	@ zero_extendqisi2
 3029 01e8 D179     		ldrb	r1, [r2, #7]	@ zero_extendqisi2
 3030 01ea 8C42     		cmp	r4, r1
 3031 01ec 0BD1     		bne	.L787
 3032 01ee 1C7A     		ldrb	r4, [r3, #8]	@ zero_extendqisi2
 3033 01f0 117A     		ldrb	r1, [r2, #8]	@ zero_extendqisi2
 3034 01f2 8C42     		cmp	r4, r1
 3035 01f4 07D1     		bne	.L787
 3036 01f6 5C7A     		ldrb	r4, [r3, #9]	@ zero_extendqisi2
 3037 01f8 517A     		ldrb	r1, [r2, #9]	@ zero_extendqisi2
 3038 01fa 8C42     		cmp	r4, r1
 3039 01fc 03D1     		bne	.L787
 3040 01fe 9C7A     		ldrb	r4, [r3, #10]	@ zero_extendqisi2
 3041 0200 917A     		ldrb	r1, [r2, #10]	@ zero_extendqisi2
 3042 0202 8C42     		cmp	r4, r1
 3043 0204 46D0     		beq	.L788
 3044              	.L787:
ARM GAS  /tmp/ccFKl8QX.s 			page 54


 3045 0206 B6F80682 		ldrh	r8, [r6, #518]
 3046 020a 08F10108 		add	r8, r8, #1
 3047 020e 1FFA88F3 		uxth	r3, r8
 3048 0212 43B9     		cbnz	r3, .L869
 3049              	.L786:
 3050 0214 D6F81832 		ldr	r3, [r6, #536]
 3051 0218 DB7A     		ldrb	r3, [r3, #11]	@ zero_extendqisi2
 3052              	.L804:
 3053 021a 5C07     		lsls	r4, r3, #29
 3054 021c 00F19980 		bmi	.L810
 3055              	.L796:
 3056 0220 4FF00509 		mov	r9, #5
 3057 0224 4FE7     		b	.L812
 3058              	.L869:
 3059 0226 D6F81072 		ldr	r7, [r6, #528]
 3060 022a 002F     		cmp	r7, #0
 3061 022c F2D0     		beq	.L786
 3062 022e 18F00F0B 		ands	fp, r8, #15
 3063 0232 45D0     		beq	.L789
 3064 0234 D6F80042 		ldr	r4, [r6, #512]
 3065              	.L790:
 3066 0238 A6F80682 		strh	r8, [r6, #518]	@ movhi
 3067 023c 04EB4B13 		add	r3, r4, fp, lsl #5
 3068 0240 C6F81432 		str	r3, [r6, #532]
 3069 0244 8EE7     		b	.L795
 3070              	.L867:
 3071 0246 0123     		movs	r3, #1
 3072 0248 2A46     		mov	r2, r5
 3073 024a 2146     		mov	r1, r4
 3074 024c 94F80102 		ldrb	r0, [r4, #513]	@ zero_extendqisi2
 3075 0250 FFF7FEFF 		bl	disk_write
 3076 0254 88BB     		cbnz	r0, .L782
 3077 0256 D4F82022 		ldr	r2, [r4, #544]
 3078 025a D4F81832 		ldr	r3, [r4, #536]
 3079 025e 84F80402 		strb	r0, [r4, #516]
 3080 0262 AA1A     		subs	r2, r5, r2
 3081 0264 9A42     		cmp	r2, r3
 3082 0266 85D2     		bcs	.L783
 3083 0268 94F803B2 		ldrb	fp, [r4, #515]	@ zero_extendqisi2
 3084 026c BBF1010F 		cmp	fp, #1
 3085 0270 02D8     		bhi	.L784
 3086 0272 7FE7     		b	.L783
 3087              	.L870:
 3088 0274 D4F81832 		ldr	r3, [r4, #536]
 3089              	.L784:
 3090 0278 94F80102 		ldrb	r0, [r4, #513]	@ zero_extendqisi2
 3091 027c 1D44     		add	r5, r5, r3
 3092 027e 0BF1FF3B 		add	fp, fp, #-1
 3093 0282 2A46     		mov	r2, r5
 3094 0284 0123     		movs	r3, #1
 3095 0286 2146     		mov	r1, r4
 3096 0288 FFF7FEFF 		bl	disk_write
 3097 028c BBF1010F 		cmp	fp, #1
 3098 0290 F0D1     		bne	.L870
 3099 0292 6FE7     		b	.L783
 3100              	.L788:
 3101 0294 D17A     		ldrb	r1, [r2, #11]	@ zero_extendqisi2
ARM GAS  /tmp/ccFKl8QX.s 			page 55


 3102 0296 4907     		lsls	r1, r1, #29
 3103 0298 3FF515AF 		bmi	.L812
 3104 029c C006     		lsls	r0, r0, #27
 3105 029e BFD5     		bpl	.L796
 3106 02a0 D6F80012 		ldr	r1, [r6, #512]
 3107 02a4 DC7E     		ldrb	r4, [r3, #27]	@ zero_extendqisi2
 3108 02a6 91F80002 		ldrb	r0, [r1, #512]	@ zero_extendqisi2
 3109 02aa 997E     		ldrb	r1, [r3, #26]	@ zero_extendqisi2
 3110 02ac 0328     		cmp	r0, #3
 3111 02ae 41EA0421 		orr	r1, r1, r4, lsl #8
 3112 02b2 12D0     		beq	.L871
 3113              	.L797:
 3114 02b4 C6F80812 		str	r1, [r6, #520]
 3115 02b8 B6E6     		b	.L798
 3116              	.L782:
 3117 02ba 4FF00109 		mov	r9, #1
 3118 02be 02E7     		b	.L812
 3119              	.L789:
 3120 02c0 D6F80C12 		ldr	r1, [r6, #524]
 3121 02c4 D6F80042 		ldr	r4, [r6, #512]
 3122 02c8 0137     		adds	r7, r7, #1
 3123 02ca C6F81072 		str	r7, [r6, #528]
 3124 02ce 59B9     		cbnz	r1, .L791
 3125 02d0 B4F80832 		ldrh	r3, [r4, #520]
 3126 02d4 9845     		cmp	r8, r3
 3127 02d6 9DD2     		bcs	.L786
 3128 02d8 AEE7     		b	.L790
 3129              	.L871:
 3130 02da 587D     		ldrb	r0, [r3, #21]	@ zero_extendqisi2
 3131 02dc 1B7D     		ldrb	r3, [r3, #20]	@ zero_extendqisi2
 3132 02de 43EA0023 		orr	r3, r3, r0, lsl #8
 3133 02e2 41EA0341 		orr	r1, r1, r3, lsl #16
 3134 02e6 E5E7     		b	.L797
 3135              	.L791:
 3136 02e8 94F80232 		ldrb	r3, [r4, #514]	@ zero_extendqisi2
 3137 02ec 013B     		subs	r3, r3, #1
 3138 02ee 13EA1813 		ands	r3, r3, r8, lsr #4
 3139 02f2 A1D1     		bne	.L790
 3140 02f4 0129     		cmp	r1, #1
 3141 02f6 03D9     		bls	.L793
 3142 02f8 D4F81432 		ldr	r3, [r4, #532]
 3143 02fc 9942     		cmp	r1, r3
 3144 02fe 0AD3     		bcc	.L872
 3145              	.L793:
 3146 0300 4FF00209 		mov	r9, #2
 3147 0304 DFE6     		b	.L812
 3148              	.L862:
 3149 0306 2146     		mov	r1, r4
 3150 0308 3046     		mov	r0, r6
 3151 030a FFF7FEFF 		bl	dir_sdi
 3152 030e C6F81442 		str	r4, [r6, #532]
 3153 0312 8146     		mov	r9, r0
 3154 0314 D7E6     		b	.L812
 3155              	.L872:
 3156 0316 2046     		mov	r0, r4
 3157 0318 FFF7FEFF 		bl	get_fat.part.6
 3158 031c 0128     		cmp	r0, #1
ARM GAS  /tmp/ccFKl8QX.s 			page 56


 3159 031e EFD9     		bls	.L793
 3160 0320 451C     		adds	r5, r0, #1
 3161 0322 CAD0     		beq	.L782
 3162 0324 D6F80042 		ldr	r4, [r6, #512]
 3163 0328 D4F81432 		ldr	r3, [r4, #532]
 3164 032c 9842     		cmp	r0, r3
 3165 032e BFF471AF 		bcs	.L786
 3166 0332 023B     		subs	r3, r3, #2
 3167 0334 821E     		subs	r2, r0, #2
 3168 0336 9A42     		cmp	r2, r3
 3169 0338 C6F80C02 		str	r0, [r6, #524]
 3170 033c 3BBF     		ittet	cc
 3171 033e 94F802A2 		ldrbcc	r10, [r4, #514]	@ zero_extendqisi2
 3172 0342 D4F82832 		ldrcc	r3, [r4, #552]
 3173 0346 0027     		movcs	r7, #0
 3174 0348 02FB0A37 		mlacc	r7, r2, r10, r3
 3175 034c C6F81072 		str	r7, [r6, #528]
 3176 0350 72E7     		b	.L790
 3177              	.L810:
 3178 0352 4FF00409 		mov	r9, #4
 3179 0356 B6E6     		b	.L812
 3180              	.L779:
 3181 0358 D6F81832 		ldr	r3, [r6, #536]
 3182 035c 0428     		cmp	r0, #4
 3183 035e DB7A     		ldrb	r3, [r3, #11]	@ zero_extendqisi2
 3184 0360 7FF4B1AE 		bne	.L812
 3185 0364 59E7     		b	.L804
 3186              	.L874:
 3187 0366 00BF     		.align	2
 3188              	.L873:
 3189 0368 01000000 		.word	.LC0+1
 3190 036c 00000000 		.word	.LANCHOR3
 3192              		.section	.text.dir_register,"ax",%progbits
 3193              		.align	1
 3194              		.p2align 2,,3
 3195              		.syntax unified
 3196              		.thumb
 3197              		.thumb_func
 3198              		.fpu fpv4-sp-d16
 3200              	dir_register:
 3201              		@ args = 0, pretend = 0, frame = 8
 3202              		@ frame_needed = 0, uses_anonymous_args = 0
 3203 0000 2DE9F04F 		push	{r4, r5, r6, r7, r8, r9, r10, fp, lr}
 3204 0004 0021     		movs	r1, #0
 3205 0006 83B0     		sub	sp, sp, #12
 3206 0008 0646     		mov	r6, r0
 3207 000a FFF7FEFF 		bl	dir_sdi
 3208 000e 8146     		mov	r9, r0
 3209 0010 38B1     		cbz	r0, .L963
 3210 0012 0428     		cmp	r0, #4
 3211 0014 01D1     		bne	.L955
 3212              	.L914:
 3213 0016 4FF00709 		mov	r9, #7
 3214              	.L955:
 3215 001a 4846     		mov	r0, r9
 3216 001c 03B0     		add	sp, sp, #12
 3217              		@ sp needed
ARM GAS  /tmp/ccFKl8QX.s 			page 57


 3218 001e BDE8F08F 		pop	{r4, r5, r6, r7, r8, r9, r10, fp, pc}
 3219              	.L963:
 3220 0022 D6F80042 		ldr	r4, [r6, #512]
 3221 0026 D6F81082 		ldr	r8, [r6, #528]
 3222 002a 4FF0010A 		mov	r10, #1
 3223              	.L902:
 3224 002e D4F82C52 		ldr	r5, [r4, #556]
 3225 0032 4545     		cmp	r5, r8
 3226 0034 17D0     		beq	.L877
 3227 0036 94F80432 		ldrb	r3, [r4, #516]	@ zero_extendqisi2
 3228 003a 002B     		cmp	r3, #0
 3229 003c 74D1     		bne	.L964
 3230              	.L880:
 3231 003e 0123     		movs	r3, #1
 3232 0040 4246     		mov	r2, r8
 3233 0042 2146     		mov	r1, r4
 3234 0044 94F80102 		ldrb	r0, [r4, #513]	@ zero_extendqisi2
 3235 0048 FFF7FEFF 		bl	disk_read
 3236 004c 48B1     		cbz	r0, .L965
 3237              	.L912:
 3238 004e 4FF0FF33 		mov	r3, #-1
 3239 0052 C4F82C32 		str	r3, [r4, #556]
 3240              	.L960:
 3241 0056 4FF00109 		mov	r9, #1
 3242 005a 4846     		mov	r0, r9
 3243 005c 03B0     		add	sp, sp, #12
 3244              		@ sp needed
 3245 005e BDE8F08F 		pop	{r4, r5, r6, r7, r8, r9, r10, fp, pc}
 3246              	.L965:
 3247 0062 C4F82C82 		str	r8, [r4, #556]
 3248              	.L877:
 3249 0066 D6F81402 		ldr	r0, [r6, #532]
 3250 006a 0378     		ldrb	r3, [r0]	@ zero_extendqisi2
 3251 006c E52B     		cmp	r3, #229
 3252 006e 01D0     		beq	.L885
 3253 0070 002B     		cmp	r3, #0
 3254 0072 42D1     		bne	.L966
 3255              	.L885:
 3256 0074 D6F80042 		ldr	r4, [r6, #512]
 3257 0078 D6F81072 		ldr	r7, [r6, #528]
 3258 007c D4F82C52 		ldr	r5, [r4, #556]
 3259 0080 AF42     		cmp	r7, r5
 3260 0082 11D0     		beq	.L884
 3261 0084 94F80432 		ldrb	r3, [r4, #516]	@ zero_extendqisi2
 3262 0088 002B     		cmp	r3, #0
 3263 008a 40F09180 		bne	.L967
 3264              	.L906:
 3265 008e 0123     		movs	r3, #1
 3266 0090 3A46     		mov	r2, r7
 3267 0092 2146     		mov	r1, r4
 3268 0094 94F80102 		ldrb	r0, [r4, #513]	@ zero_extendqisi2
 3269 0098 FFF7FEFF 		bl	disk_read
 3270 009c 0028     		cmp	r0, #0
 3271 009e D6D1     		bne	.L912
 3272 00a0 D6F81402 		ldr	r0, [r6, #532]
 3273 00a4 C4F82C72 		str	r7, [r4, #556]
 3274              	.L884:
ARM GAS  /tmp/ccFKl8QX.s 			page 58


 3275 00a8 2022     		movs	r2, #32
 3276 00aa 0021     		movs	r1, #0
 3277 00ac FFF7FEFF 		bl	memset
 3278 00b0 D6F81412 		ldr	r1, [r6, #532]
 3279 00b4 D6F81802 		ldr	r0, [r6, #536]
 3280 00b8 01F10803 		add	r3, r1, #8
 3281 00bc 00F10802 		add	r2, r0, #8
 3282 00c0 9842     		cmp	r0, r3
 3283 00c2 38BF     		it	cc
 3284 00c4 9142     		cmpcc	r1, r2
 3285 00c6 C0F09D80 		bcc	.L908
 3286 00ca 40EA0103 		orr	r3, r0, r1
 3287 00ce 5B07     		lsls	r3, r3, #29
 3288 00d0 40F09880 		bne	.L908
 3289 00d4 D0E90023 		ldrd	r2, [r0]
 3290 00d8 C1E90023 		strd	r2, [r1]
 3291              	.L959:
 3292 00dc 037A     		ldrb	r3, [r0, #8]	@ zero_extendqisi2
 3293 00de 0B72     		strb	r3, [r1, #8]
 3294 00e0 437A     		ldrb	r3, [r0, #9]	@ zero_extendqisi2
 3295 00e2 4B72     		strb	r3, [r1, #9]
 3296 00e4 837A     		ldrb	r3, [r0, #10]	@ zero_extendqisi2
 3297 00e6 8B72     		strb	r3, [r1, #10]
 3298 00e8 D6F80032 		ldr	r3, [r6, #512]
 3299 00ec 0122     		movs	r2, #1
 3300 00ee 4846     		mov	r0, r9
 3301 00f0 83F80422 		strb	r2, [r3, #516]
 3302 00f4 03B0     		add	sp, sp, #12
 3303              		@ sp needed
 3304 00f6 BDE8F08F 		pop	{r4, r5, r6, r7, r8, r9, r10, fp, pc}
 3305              	.L966:
 3306 00fa B6F80652 		ldrh	r5, [r6, #518]
 3307 00fe 0135     		adds	r5, r5, #1
 3308 0100 ABB2     		uxth	r3, r5
 3309 0102 002B     		cmp	r3, #0
 3310 0104 87D0     		beq	.L914
 3311 0106 D6F81082 		ldr	r8, [r6, #528]
 3312 010a B8F1000F 		cmp	r8, #0
 3313 010e 82D0     		beq	.L914
 3314 0110 15F00F07 		ands	r7, r5, #15
 3315 0114 2ED0     		beq	.L887
 3316 0116 D6F80042 		ldr	r4, [r6, #512]
 3317              	.L888:
 3318 011a A6F80652 		strh	r5, [r6, #518]	@ movhi
 3319 011e 04EB4717 		add	r7, r4, r7, lsl #5
 3320 0122 C6F81472 		str	r7, [r6, #532]
 3321 0126 82E7     		b	.L902
 3322              	.L964:
 3323 0128 0123     		movs	r3, #1
 3324 012a 2A46     		mov	r2, r5
 3325 012c 2146     		mov	r1, r4
 3326 012e 94F80102 		ldrb	r0, [r4, #513]	@ zero_extendqisi2
 3327 0132 FFF7FEFF 		bl	disk_write
 3328 0136 0028     		cmp	r0, #0
 3329 0138 8DD1     		bne	.L960
 3330 013a D4F82022 		ldr	r2, [r4, #544]
 3331 013e D4F81832 		ldr	r3, [r4, #536]
ARM GAS  /tmp/ccFKl8QX.s 			page 59


 3332 0142 84F80402 		strb	r0, [r4, #516]
 3333 0146 AA1A     		subs	r2, r5, r2
 3334 0148 9A42     		cmp	r2, r3
 3335 014a BFF478AF 		bcs	.L880
 3336 014e 94F80372 		ldrb	r7, [r4, #515]	@ zero_extendqisi2
 3337 0152 012F     		cmp	r7, #1
 3338 0154 02D8     		bhi	.L881
 3339 0156 72E7     		b	.L880
 3340              	.L968:
 3341 0158 D4F81832 		ldr	r3, [r4, #536]
 3342              	.L881:
 3343 015c 94F80102 		ldrb	r0, [r4, #513]	@ zero_extendqisi2
 3344 0160 1D44     		add	r5, r5, r3
 3345 0162 013F     		subs	r7, r7, #1
 3346 0164 2A46     		mov	r2, r5
 3347 0166 0123     		movs	r3, #1
 3348 0168 2146     		mov	r1, r4
 3349 016a FFF7FEFF 		bl	disk_write
 3350 016e 012F     		cmp	r7, #1
 3351 0170 F2D1     		bne	.L968
 3352 0172 64E7     		b	.L880
 3353              	.L887:
 3354 0174 D6F80C12 		ldr	r1, [r6, #524]
 3355 0178 D6F80042 		ldr	r4, [r6, #512]
 3356 017c 08F10108 		add	r8, r8, #1
 3357 0180 C6F81082 		str	r8, [r6, #528]
 3358 0184 71B1     		cbz	r1, .L969
 3359 0186 94F80232 		ldrb	r3, [r4, #514]	@ zero_extendqisi2
 3360 018a 013B     		subs	r3, r3, #1
 3361 018c 13EA151B 		ands	fp, r3, r5, lsr #4
 3362 0190 C3D1     		bne	.L888
 3363 0192 0129     		cmp	r1, #1
 3364 0194 03D9     		bls	.L890
 3365 0196 D4F81432 		ldr	r3, [r4, #532]
 3366 019a 9942     		cmp	r1, r3
 3367 019c 43D3     		bcc	.L970
 3368              	.L890:
 3369 019e 4FF00209 		mov	r9, #2
 3370 01a2 3AE7     		b	.L955
 3371              	.L969:
 3372 01a4 B4F80832 		ldrh	r3, [r4, #520]
 3373 01a8 9D42     		cmp	r5, r3
 3374 01aa BFF434AF 		bcs	.L914
 3375 01ae B4E7     		b	.L888
 3376              	.L967:
 3377 01b0 0123     		movs	r3, #1
 3378 01b2 2A46     		mov	r2, r5
 3379 01b4 2146     		mov	r1, r4
 3380 01b6 94F80102 		ldrb	r0, [r4, #513]	@ zero_extendqisi2
 3381 01ba FFF7FEFF 		bl	disk_write
 3382 01be 0028     		cmp	r0, #0
 3383 01c0 7FF449AF 		bne	.L960
 3384 01c4 D4F82022 		ldr	r2, [r4, #544]
 3385 01c8 D4F81832 		ldr	r3, [r4, #536]
 3386 01cc 84F80402 		strb	r0, [r4, #516]
 3387 01d0 AA1A     		subs	r2, r5, r2
 3388 01d2 9A42     		cmp	r2, r3
ARM GAS  /tmp/ccFKl8QX.s 			page 60


 3389 01d4 BFF45BAF 		bcs	.L906
 3390 01d8 94F80382 		ldrb	r8, [r4, #515]	@ zero_extendqisi2
 3391 01dc B8F1010F 		cmp	r8, #1
 3392 01e0 02D8     		bhi	.L907
 3393 01e2 54E7     		b	.L906
 3394              	.L971:
 3395 01e4 D4F81832 		ldr	r3, [r4, #536]
 3396              	.L907:
 3397 01e8 94F80102 		ldrb	r0, [r4, #513]	@ zero_extendqisi2
 3398 01ec 1D44     		add	r5, r5, r3
 3399 01ee 08F1FF38 		add	r8, r8, #-1
 3400 01f2 2A46     		mov	r2, r5
 3401 01f4 0123     		movs	r3, #1
 3402 01f6 2146     		mov	r1, r4
 3403 01f8 FFF7FEFF 		bl	disk_write
 3404 01fc B8F1010F 		cmp	r8, #1
 3405 0200 F0D1     		bne	.L971
 3406 0202 44E7     		b	.L906
 3407              	.L908:
 3408 0204 0378     		ldrb	r3, [r0]	@ zero_extendqisi2
 3409 0206 0B70     		strb	r3, [r1]
 3410 0208 4378     		ldrb	r3, [r0, #1]	@ zero_extendqisi2
 3411 020a 4B70     		strb	r3, [r1, #1]
 3412 020c 8378     		ldrb	r3, [r0, #2]	@ zero_extendqisi2
 3413 020e 8B70     		strb	r3, [r1, #2]
 3414 0210 C378     		ldrb	r3, [r0, #3]	@ zero_extendqisi2
 3415 0212 CB70     		strb	r3, [r1, #3]
 3416 0214 0379     		ldrb	r3, [r0, #4]	@ zero_extendqisi2
 3417 0216 0B71     		strb	r3, [r1, #4]
 3418 0218 4379     		ldrb	r3, [r0, #5]	@ zero_extendqisi2
 3419 021a 4B71     		strb	r3, [r1, #5]
 3420 021c 8379     		ldrb	r3, [r0, #6]	@ zero_extendqisi2
 3421 021e 8B71     		strb	r3, [r1, #6]
 3422 0220 C379     		ldrb	r3, [r0, #7]	@ zero_extendqisi2
 3423 0222 CB71     		strb	r3, [r1, #7]
 3424 0224 5AE7     		b	.L959
 3425              	.L970:
 3426 0226 2046     		mov	r0, r4
 3427 0228 FFF7FEFF 		bl	get_fat.part.6
 3428 022c 0128     		cmp	r0, #1
 3429 022e 8046     		mov	r8, r0
 3430 0230 B5D9     		bls	.L890
 3431 0232 B0F1FF3F 		cmp	r0, #-1
 3432 0236 3FF40EAF 		beq	.L960
 3433 023a D6F80042 		ldr	r4, [r6, #512]
 3434 023e D4F81412 		ldr	r1, [r4, #532]
 3435 0242 8842     		cmp	r0, r1
 3436 0244 10D2     		bcs	.L893
 3437 0246 821E     		subs	r2, r0, #2
 3438              	.L894:
 3439 0248 0239     		subs	r1, r1, #2
 3440 024a 8A42     		cmp	r2, r1
 3441 024c C6F80C82 		str	r8, [r6, #524]
 3442 0250 3BBF     		ittet	cc
 3443 0252 94F80282 		ldrbcc	r8, [r4, #514]	@ zero_extendqisi2
 3444 0256 D4F82832 		ldrcc	r3, [r4, #552]
 3445 025a 4FF00008 		movcs	r8, #0
ARM GAS  /tmp/ccFKl8QX.s 			page 61


 3446 025e 02FB0838 		mlacc	r8, r2, r8, r3
 3447 0262 C6F81082 		str	r8, [r6, #528]
 3448 0266 58E7     		b	.L888
 3449              	.L893:
 3450 0268 2046     		mov	r0, r4
 3451 026a D6F80C12 		ldr	r1, [r6, #524]
 3452 026e FFF7FEFF 		bl	create_chain
 3453 0272 8046     		mov	r8, r0
 3454 0274 0028     		cmp	r0, #0
 3455 0276 3FF4CEAE 		beq	.L914
 3456 027a 0128     		cmp	r0, #1
 3457 027c 8FD0     		beq	.L890
 3458 027e B0F1FF3F 		cmp	r0, #-1
 3459 0282 3FF4E8AE 		beq	.L960
 3460 0286 D6F80002 		ldr	r0, [r6, #512]
 3461 028a 90F80432 		ldrb	r3, [r0, #516]	@ zero_extendqisi2
 3462 028e ABBB     		cbnz	r3, .L972
 3463              	.L896:
 3464 0290 4FF40072 		mov	r2, #512
 3465 0294 0021     		movs	r1, #0
 3466 0296 FFF7FEFF 		bl	memset
 3467 029a D6F80042 		ldr	r4, [r6, #512]
 3468 029e D4F81432 		ldr	r3, [r4, #532]
 3469 02a2 94F80212 		ldrb	r1, [r4, #514]	@ zero_extendqisi2
 3470 02a6 023B     		subs	r3, r3, #2
 3471 02a8 A8F10202 		sub	r2, r8, #2
 3472 02ac 9A42     		cmp	r2, r3
 3473 02ae 36BF     		itet	cc
 3474 02b0 D4F82832 		ldrcc	r3, [r4, #552]
 3475 02b4 0023     		movcs	r3, #0
 3476 02b6 02FB0133 		mlacc	r3, r2, r1, r3
 3477 02ba C4F82C32 		str	r3, [r4, #556]
 3478 02be B1B1     		cbz	r1, .L899
 3479              	.L900:
 3480 02c0 84F804A2 		strb	r10, [r4, #516]
 3481 02c4 2046     		mov	r0, r4
 3482 02c6 0192     		str	r2, [sp, #4]
 3483 02c8 FFF7FEFF 		bl	sync_window.part.4
 3484 02cc 0BF1010B 		add	fp, fp, #1
 3485 02d0 0028     		cmp	r0, #0
 3486 02d2 7FF4C0AE 		bne	.L960
 3487 02d6 D6F80042 		ldr	r4, [r6, #512]
 3488 02da 019A     		ldr	r2, [sp, #4]
 3489 02dc D4F82C32 		ldr	r3, [r4, #556]
 3490 02e0 94F80212 		ldrb	r1, [r4, #514]	@ zero_extendqisi2
 3491 02e4 0133     		adds	r3, r3, #1
 3492 02e6 8B45     		cmp	fp, r1
 3493 02e8 C4F82C32 		str	r3, [r4, #556]
 3494 02ec E8D3     		bcc	.L900
 3495              	.L899:
 3496 02ee A3EB0B03 		sub	r3, r3, fp
 3497 02f2 D4F81412 		ldr	r1, [r4, #532]
 3498 02f6 C4F82C32 		str	r3, [r4, #556]
 3499 02fa A5E7     		b	.L894
 3500              	.L972:
 3501 02fc FFF7FEFF 		bl	sync_window.part.4
 3502 0300 0028     		cmp	r0, #0
ARM GAS  /tmp/ccFKl8QX.s 			page 62


 3503 0302 7FF4A8AE 		bne	.L960
 3504 0306 D6F80002 		ldr	r0, [r6, #512]
 3505 030a C1E7     		b	.L896
 3507              		.section	.text.putc_bfd,"ax",%progbits
 3508              		.align	1
 3509              		.p2align 2,,3
 3510              		.syntax unified
 3511              		.thumb
 3512              		.thumb_func
 3513              		.fpu fpv4-sp-d16
 3515              	putc_bfd:
 3516              		@ args = 0, pretend = 0, frame = 8
 3517              		@ frame_needed = 0, uses_anonymous_args = 0
 3518 0000 F0B5     		push	{r4, r5, r6, r7, lr}
 3519 0002 0A29     		cmp	r1, #10
 3520 0004 83B0     		sub	sp, sp, #12
 3521 0006 0E46     		mov	r6, r1
 3522 0008 0546     		mov	r5, r0
 3523 000a 4468     		ldr	r4, [r0, #4]
 3524 000c 1DD0     		beq	.L1008
 3525              	.L980:
 3526 000e 002C     		cmp	r4, #0
 3527 0010 08DB     		blt	.L973
 3528 0012 2B19     		adds	r3, r5, r4
 3529 0014 0134     		adds	r4, r4, #1
 3530 0016 3C2C     		cmp	r4, #60
 3531 0018 1E73     		strb	r6, [r3, #12]
 3532 001a 05DC     		bgt	.L1009
 3533              	.L982:
 3534 001c AB68     		ldr	r3, [r5, #8]
 3535 001e 6C60     		str	r4, [r5, #4]
 3536 0020 0133     		adds	r3, r3, #1
 3537 0022 AB60     		str	r3, [r5, #8]
 3538              	.L973:
 3539 0024 03B0     		add	sp, sp, #12
 3540              		@ sp needed
 3541 0026 F0BD     		pop	{r4, r5, r6, r7, pc}
 3542              	.L1009:
 3543 0028 2E68     		ldr	r6, [r5]
 3544 002a 0021     		movs	r1, #0
 3545 002c 0191     		str	r1, [sp, #4]
 3546 002e CEB1     		cbz	r6, .L993
 3547 0030 D6F80022 		ldr	r2, [r6, #512]
 3548 0034 3AB1     		cbz	r2, .L994
 3549 0036 92F80032 		ldrb	r3, [r2, #512]	@ zero_extendqisi2
 3550 003a ABB9     		cbnz	r3, .L1010
 3551              	.L983:
 3552 003c E41A     		subs	r4, r4, r3
 3553 003e 18BF     		it	ne
 3554 0040 4FF0FF34 		movne	r4, #-1
 3555 0044 EAE7     		b	.L982
 3556              	.L994:
 3557 0046 1346     		mov	r3, r2
 3558 0048 F8E7     		b	.L983
 3559              	.L1008:
 3560 004a 002C     		cmp	r4, #0
 3561 004c EADB     		blt	.L973
ARM GAS  /tmp/ccFKl8QX.s 			page 63


 3562 004e 0319     		adds	r3, r0, r4
 3563 0050 0134     		adds	r4, r4, #1
 3564 0052 0D22     		movs	r2, #13
 3565 0054 3C2C     		cmp	r4, #60
 3566 0056 1A73     		strb	r2, [r3, #12]
 3567 0058 26DC     		bgt	.L1011
 3568              	.L976:
 3569 005a AB68     		ldr	r3, [r5, #8]
 3570 005c 6C60     		str	r4, [r5, #4]
 3571 005e 0133     		adds	r3, r3, #1
 3572 0060 AB60     		str	r3, [r5, #8]
 3573 0062 D4E7     		b	.L980
 3574              	.L993:
 3575 0064 3346     		mov	r3, r6
 3576 0066 E9E7     		b	.L983
 3577              	.L1010:
 3578 0068 B6F80432 		ldrh	r3, [r6, #516]
 3579 006c B2F80602 		ldrh	r0, [r2, #518]
 3580 0070 9842     		cmp	r0, r3
 3581 0072 18BF     		it	ne
 3582 0074 0B46     		movne	r3, r1
 3583 0076 E1D1     		bne	.L983
 3584 0078 92F80102 		ldrb	r0, [r2, #513]	@ zero_extendqisi2
 3585 007c FFF7FEFF 		bl	disk_status
 3586 0080 C207     		lsls	r2, r0, #31
 3587 0082 01D5     		bpl	.L1012
 3588              	.L1007:
 3589 0084 019B     		ldr	r3, [sp, #4]
 3590 0086 D9E7     		b	.L983
 3591              	.L1012:
 3592 0088 96F80732 		ldrb	r3, [r6, #519]	@ zero_extendqisi2
 3593 008c 002B     		cmp	r3, #0
 3594 008e F9D1     		bne	.L1007
 3595 0090 96F80632 		ldrb	r3, [r6, #518]	@ zero_extendqisi2
 3596 0094 9B07     		lsls	r3, r3, #30
 3597 0096 F5D5     		bpl	.L1007
 3598 0098 3046     		mov	r0, r6
 3599 009a 01AB     		add	r3, sp, #4
 3600 009c 2246     		mov	r2, r4
 3601 009e 05F10C01 		add	r1, r5, #12
 3602 00a2 FFF7FEFF 		bl	f_write.part.12
 3603 00a6 EDE7     		b	.L1007
 3604              	.L1011:
 3605 00a8 0768     		ldr	r7, [r0]
 3606 00aa 0021     		movs	r1, #0
 3607 00ac 0191     		str	r1, [sp, #4]
 3608 00ae 57B1     		cbz	r7, .L989
 3609 00b0 D7F80022 		ldr	r2, [r7, #512]
 3610 00b4 4AB1     		cbz	r2, .L990
 3611 00b6 92F80032 		ldrb	r3, [r2, #512]	@ zero_extendqisi2
 3612 00ba 43B9     		cbnz	r3, .L1013
 3613              	.L977:
 3614 00bc E41A     		subs	r4, r4, r3
 3615 00be 18BF     		it	ne
 3616 00c0 4FF0FF34 		movne	r4, #-1
 3617 00c4 C9E7     		b	.L976
 3618              	.L989:
ARM GAS  /tmp/ccFKl8QX.s 			page 64


 3619 00c6 3B46     		mov	r3, r7
 3620 00c8 F8E7     		b	.L977
 3621              	.L990:
 3622 00ca 1346     		mov	r3, r2
 3623 00cc F6E7     		b	.L977
 3624              	.L1013:
 3625 00ce B7F80432 		ldrh	r3, [r7, #516]
 3626 00d2 B2F80602 		ldrh	r0, [r2, #518]
 3627 00d6 9842     		cmp	r0, r3
 3628 00d8 18BF     		it	ne
 3629 00da 0B46     		movne	r3, r1
 3630 00dc EED1     		bne	.L977
 3631 00de 92F80102 		ldrb	r0, [r2, #513]	@ zero_extendqisi2
 3632 00e2 FFF7FEFF 		bl	disk_status
 3633 00e6 C007     		lsls	r0, r0, #31
 3634 00e8 01D5     		bpl	.L1014
 3635              	.L1006:
 3636 00ea 019B     		ldr	r3, [sp, #4]
 3637 00ec E6E7     		b	.L977
 3638              	.L1014:
 3639 00ee 97F80732 		ldrb	r3, [r7, #519]	@ zero_extendqisi2
 3640 00f2 002B     		cmp	r3, #0
 3641 00f4 F9D1     		bne	.L1006
 3642 00f6 97F80632 		ldrb	r3, [r7, #518]	@ zero_extendqisi2
 3643 00fa 9907     		lsls	r1, r3, #30
 3644 00fc F5D5     		bpl	.L1006
 3645 00fe 3846     		mov	r0, r7
 3646 0100 01AB     		add	r3, sp, #4
 3647 0102 2246     		mov	r2, r4
 3648 0104 05F10C01 		add	r1, r5, #12
 3649 0108 FFF7FEFF 		bl	f_write.part.12
 3650 010c EDE7     		b	.L1006
 3652 010e 00BF     		.section	.text.clust2sect,"ax",%progbits
 3653              		.align	1
 3654              		.p2align 2,,3
 3655              		.global	clust2sect
 3656              		.syntax unified
 3657              		.thumb
 3658              		.thumb_func
 3659              		.fpu fpv4-sp-d16
 3661              	clust2sect:
 3662              		@ args = 0, pretend = 0, frame = 0
 3663              		@ frame_needed = 0, uses_anonymous_args = 0
 3664              		@ link register save eliminated.
 3665 0000 D0F81432 		ldr	r3, [r0, #532]
 3666 0004 0239     		subs	r1, r1, #2
 3667 0006 023B     		subs	r3, r3, #2
 3668 0008 9942     		cmp	r1, r3
 3669 000a 3DBF     		ittte	cc
 3670 000c 90F80232 		ldrbcc	r3, [r0, #514]	@ zero_extendqisi2
 3671 0010 D0F82802 		ldrcc	r0, [r0, #552]
 3672 0014 01FB0300 		mlacc	r0, r1, r3, r0
 3673 0018 0020     		movcs	r0, #0
 3674 001a 7047     		bx	lr
 3676              		.section	.text.get_fat,"ax",%progbits
 3677              		.align	1
 3678              		.p2align 2,,3
ARM GAS  /tmp/ccFKl8QX.s 			page 65


 3679              		.global	get_fat
 3680              		.syntax unified
 3681              		.thumb
 3682              		.thumb_func
 3683              		.fpu fpv4-sp-d16
 3685              	get_fat:
 3686              		@ args = 0, pretend = 0, frame = 0
 3687              		@ frame_needed = 0, uses_anonymous_args = 0
 3688 0000 0129     		cmp	r1, #1
 3689 0002 12D9     		bls	.L1044
 3690 0004 D0F81432 		ldr	r3, [r0, #532]
 3691 0008 9942     		cmp	r1, r3
 3692 000a 0ED2     		bcs	.L1044
 3693 000c 2DE9F047 		push	{r4, r5, r6, r7, r8, r9, r10, lr}
 3694 0010 90F80032 		ldrb	r3, [r0, #512]	@ zero_extendqisi2
 3695 0014 022B     		cmp	r3, #2
 3696 0016 0446     		mov	r4, r0
 3697 0018 0D46     		mov	r5, r1
 3698 001a 4BD0     		beq	.L1020
 3699 001c 032B     		cmp	r3, #3
 3700 001e 63D0     		beq	.L1021
 3701 0020 012B     		cmp	r3, #1
 3702 0022 04D0     		beq	.L1081
 3703 0024 0120     		movs	r0, #1
 3704 0026 BDE8F087 		pop	{r4, r5, r6, r7, r8, r9, r10, pc}
 3705              	.L1044:
 3706 002a 0120     		movs	r0, #1
 3707 002c 7047     		bx	lr
 3708              	.L1081:
 3709 002e D0F82072 		ldr	r7, [r0, #544]
 3710 0032 D0F82C62 		ldr	r6, [r0, #556]
 3711 0036 01EB5109 		add	r9, r1, r1, lsr #1
 3712 003a 07EB5928 		add	r8, r7, r9, lsr #9
 3713 003e B045     		cmp	r8, r6
 3714 0040 12D0     		beq	.L1023
 3715 0042 90F80422 		ldrb	r2, [r0, #516]	@ zero_extendqisi2
 3716 0046 002A     		cmp	r2, #0
 3717 0048 40F0AC80 		bne	.L1082
 3718              	.L1024:
 3719 004c 0123     		movs	r3, #1
 3720 004e 4246     		mov	r2, r8
 3721 0050 2146     		mov	r1, r4
 3722 0052 94F80102 		ldrb	r0, [r4, #513]	@ zero_extendqisi2
 3723 0056 FFF7FEFF 		bl	disk_read
 3724 005a 0028     		cmp	r0, #0
 3725 005c 3ED1     		bne	.L1038
 3726 005e D4F82072 		ldr	r7, [r4, #544]
 3727 0062 C4F82C82 		str	r8, [r4, #556]
 3728 0066 4646     		mov	r6, r8
 3729              	.L1023:
 3730 0068 09F10108 		add	r8, r9, #1
 3731 006c 07EB5827 		add	r7, r7, r8, lsr #9
 3732 0070 C9F30809 		ubfx	r9, r9, #0, #9
 3733 0074 B742     		cmp	r7, r6
 3734 0076 14F809A0 		ldrb	r10, [r4, r9]	@ zero_extendqisi2
 3735 007a 0ED0     		beq	.L1027
 3736 007c 94F80432 		ldrb	r3, [r4, #516]	@ zero_extendqisi2
ARM GAS  /tmp/ccFKl8QX.s 			page 66


 3737 0080 002B     		cmp	r3, #0
 3738 0082 40F0DB80 		bne	.L1083
 3739              	.L1028:
 3740 0086 0123     		movs	r3, #1
 3741 0088 3A46     		mov	r2, r7
 3742 008a 2146     		mov	r1, r4
 3743 008c 94F80102 		ldrb	r0, [r4, #513]	@ zero_extendqisi2
 3744 0090 FFF7FEFF 		bl	disk_read
 3745 0094 10BB     		cbnz	r0, .L1038
 3746 0096 C4F82C72 		str	r7, [r4, #556]
 3747              	.L1027:
 3748 009a C8F30808 		ubfx	r8, r8, #0, #9
 3749 009e EB07     		lsls	r3, r5, #31
 3750 00a0 14F80800 		ldrb	r0, [r4, r8]	@ zero_extendqisi2
 3751 00a4 4AEA0020 		orr	r0, r10, r0, lsl #8
 3752 00a8 4CBF     		ite	mi
 3753 00aa 0009     		lsrmi	r0, r0, #4
 3754 00ac C0F30B00 		ubfxpl	r0, r0, #0, #12
 3755 00b0 BDE8F087 		pop	{r4, r5, r6, r7, r8, r9, r10, pc}
 3756              	.L1020:
 3757 00b4 D0F82062 		ldr	r6, [r0, #544]
 3758 00b8 D0F82C82 		ldr	r8, [r0, #556]
 3759 00bc 06EB1126 		add	r6, r6, r1, lsr #8
 3760 00c0 4645     		cmp	r6, r8
 3761 00c2 3CD0     		beq	.L1032
 3762 00c4 90F80432 		ldrb	r3, [r0, #516]	@ zero_extendqisi2
 3763 00c8 002B     		cmp	r3, #0
 3764 00ca 42D1     		bne	.L1084
 3765              	.L1033:
 3766 00cc 0123     		movs	r3, #1
 3767 00ce 3246     		mov	r2, r6
 3768 00d0 2146     		mov	r1, r4
 3769 00d2 94F80102 		ldrb	r0, [r4, #513]	@ zero_extendqisi2
 3770 00d6 FFF7FEFF 		bl	disk_read
 3771 00da 70B3     		cbz	r0, .L1085
 3772              	.L1038:
 3773 00dc 4FF0FF30 		mov	r0, #-1
 3774 00e0 C4F82C02 		str	r0, [r4, #556]
 3775 00e4 BDE8F087 		pop	{r4, r5, r6, r7, r8, r9, r10, pc}
 3776              	.L1021:
 3777 00e8 D0F82062 		ldr	r6, [r0, #544]
 3778 00ec D0F82C82 		ldr	r8, [r0, #556]
 3779 00f0 06EBD116 		add	r6, r6, r1, lsr #7
 3780 00f4 4645     		cmp	r6, r8
 3781 00f6 0ED0     		beq	.L1035
 3782 00f8 90F80432 		ldrb	r3, [r0, #516]	@ zero_extendqisi2
 3783 00fc 002B     		cmp	r3, #0
 3784 00fe 76D1     		bne	.L1086
 3785              	.L1036:
 3786 0100 0123     		movs	r3, #1
 3787 0102 3246     		mov	r2, r6
 3788 0104 2146     		mov	r1, r4
 3789 0106 94F80102 		ldrb	r0, [r4, #513]	@ zero_extendqisi2
 3790 010a FFF7FEFF 		bl	disk_read
 3791 010e 0028     		cmp	r0, #0
 3792 0110 E4D1     		bne	.L1038
 3793 0112 C4F82C62 		str	r6, [r4, #556]
ARM GAS  /tmp/ccFKl8QX.s 			page 67


 3794              	.L1035:
 3795 0116 A900     		lsls	r1, r5, #2
 3796 0118 01F4FE71 		and	r1, r1, #508
 3797 011c 6318     		adds	r3, r4, r1
 3798 011e 625C     		ldrb	r2, [r4, r1]	@ zero_extendqisi2
 3799 0120 9878     		ldrb	r0, [r3, #2]	@ zero_extendqisi2
 3800 0122 D978     		ldrb	r1, [r3, #3]	@ zero_extendqisi2
 3801 0124 5B78     		ldrb	r3, [r3, #1]	@ zero_extendqisi2
 3802 0126 0004     		lsls	r0, r0, #16
 3803 0128 40EA0160 		orr	r0, r0, r1, lsl #24
 3804 012c 1043     		orrs	r0, r0, r2
 3805 012e 40EA0320 		orr	r0, r0, r3, lsl #8
 3806 0132 20F07040 		bic	r0, r0, #-268435456
 3807 0136 BDE8F087 		pop	{r4, r5, r6, r7, r8, r9, r10, pc}
 3808              	.L1085:
 3809 013a C4F82C62 		str	r6, [r4, #556]
 3810              	.L1032:
 3811 013e 6900     		lsls	r1, r5, #1
 3812 0140 01F4FF71 		and	r1, r1, #510
 3813 0144 6318     		adds	r3, r4, r1
 3814 0146 605C     		ldrb	r0, [r4, r1]	@ zero_extendqisi2
 3815 0148 5B78     		ldrb	r3, [r3, #1]	@ zero_extendqisi2
 3816 014a 40EA0320 		orr	r0, r0, r3, lsl #8
 3817 014e BDE8F087 		pop	{r4, r5, r6, r7, r8, r9, r10, pc}
 3818              	.L1084:
 3819 0152 0146     		mov	r1, r0
 3820 0154 0123     		movs	r3, #1
 3821 0156 4246     		mov	r2, r8
 3822 0158 90F80102 		ldrb	r0, [r0, #513]	@ zero_extendqisi2
 3823 015c FFF7FEFF 		bl	disk_write
 3824 0160 E0B9     		cbnz	r0, .L1029
 3825 0162 D4F82022 		ldr	r2, [r4, #544]
 3826 0166 D4F81832 		ldr	r3, [r4, #536]
 3827 016a 84F80402 		strb	r0, [r4, #516]
 3828 016e A8EB0202 		sub	r2, r8, r2
 3829 0172 9A42     		cmp	r2, r3
 3830 0174 AAD2     		bcs	.L1033
 3831 0176 94F80372 		ldrb	r7, [r4, #515]	@ zero_extendqisi2
 3832 017a 012F     		cmp	r7, #1
 3833 017c 02D8     		bhi	.L1034
 3834 017e A5E7     		b	.L1033
 3835              	.L1087:
 3836 0180 D4F81832 		ldr	r3, [r4, #536]
 3837              	.L1034:
 3838 0184 94F80102 		ldrb	r0, [r4, #513]	@ zero_extendqisi2
 3839 0188 9844     		add	r8, r8, r3
 3840 018a 013F     		subs	r7, r7, #1
 3841 018c 4246     		mov	r2, r8
 3842 018e 0123     		movs	r3, #1
 3843 0190 2146     		mov	r1, r4
 3844 0192 FFF7FEFF 		bl	disk_write
 3845 0196 012F     		cmp	r7, #1
 3846 0198 F2D1     		bne	.L1087
 3847 019a 97E7     		b	.L1033
 3848              	.L1029:
 3849 019c 4FF0FF30 		mov	r0, #-1
 3850 01a0 BDE8F087 		pop	{r4, r5, r6, r7, r8, r9, r10, pc}
ARM GAS  /tmp/ccFKl8QX.s 			page 68


 3851              	.L1082:
 3852 01a4 0146     		mov	r1, r0
 3853 01a6 3246     		mov	r2, r6
 3854 01a8 90F80102 		ldrb	r0, [r0, #513]	@ zero_extendqisi2
 3855 01ac FFF7FEFF 		bl	disk_write
 3856 01b0 0028     		cmp	r0, #0
 3857 01b2 F3D1     		bne	.L1029
 3858 01b4 D4F82022 		ldr	r2, [r4, #544]
 3859 01b8 D4F81832 		ldr	r3, [r4, #536]
 3860 01bc 84F80402 		strb	r0, [r4, #516]
 3861 01c0 B21A     		subs	r2, r6, r2
 3862 01c2 9A42     		cmp	r2, r3
 3863 01c4 BFF442AF 		bcs	.L1024
 3864 01c8 94F80372 		ldrb	r7, [r4, #515]	@ zero_extendqisi2
 3865 01cc 012F     		cmp	r7, #1
 3866 01ce 02D8     		bhi	.L1026
 3867 01d0 3CE7     		b	.L1024
 3868              	.L1088:
 3869 01d2 D4F81832 		ldr	r3, [r4, #536]
 3870              	.L1026:
 3871 01d6 94F80102 		ldrb	r0, [r4, #513]	@ zero_extendqisi2
 3872 01da 1E44     		add	r6, r6, r3
 3873 01dc 013F     		subs	r7, r7, #1
 3874 01de 3246     		mov	r2, r6
 3875 01e0 0123     		movs	r3, #1
 3876 01e2 2146     		mov	r1, r4
 3877 01e4 FFF7FEFF 		bl	disk_write
 3878 01e8 012F     		cmp	r7, #1
 3879 01ea F2D1     		bne	.L1088
 3880 01ec 2EE7     		b	.L1024
 3881              	.L1086:
 3882 01ee 0146     		mov	r1, r0
 3883 01f0 0123     		movs	r3, #1
 3884 01f2 4246     		mov	r2, r8
 3885 01f4 90F80102 		ldrb	r0, [r0, #513]	@ zero_extendqisi2
 3886 01f8 FFF7FEFF 		bl	disk_write
 3887 01fc 0028     		cmp	r0, #0
 3888 01fe CDD1     		bne	.L1029
 3889 0200 D4F82022 		ldr	r2, [r4, #544]
 3890 0204 D4F81832 		ldr	r3, [r4, #536]
 3891 0208 84F80402 		strb	r0, [r4, #516]
 3892 020c A8EB0202 		sub	r2, r8, r2
 3893 0210 9A42     		cmp	r2, r3
 3894 0212 BFF475AF 		bcs	.L1036
 3895 0216 94F80372 		ldrb	r7, [r4, #515]	@ zero_extendqisi2
 3896 021a 012F     		cmp	r7, #1
 3897 021c 02D8     		bhi	.L1037
 3898 021e 6FE7     		b	.L1036
 3899              	.L1089:
 3900 0220 D4F81832 		ldr	r3, [r4, #536]
 3901              	.L1037:
 3902 0224 94F80102 		ldrb	r0, [r4, #513]	@ zero_extendqisi2
 3903 0228 9844     		add	r8, r8, r3
 3904 022a 013F     		subs	r7, r7, #1
 3905 022c 4246     		mov	r2, r8
 3906 022e 0123     		movs	r3, #1
 3907 0230 2146     		mov	r1, r4
ARM GAS  /tmp/ccFKl8QX.s 			page 69


 3908 0232 FFF7FEFF 		bl	disk_write
 3909 0236 012F     		cmp	r7, #1
 3910 0238 F2D1     		bne	.L1089
 3911 023a 61E7     		b	.L1036
 3912              	.L1083:
 3913 023c 0123     		movs	r3, #1
 3914 023e 3246     		mov	r2, r6
 3915 0240 2146     		mov	r1, r4
 3916 0242 94F80102 		ldrb	r0, [r4, #513]	@ zero_extendqisi2
 3917 0246 FFF7FEFF 		bl	disk_write
 3918 024a 0028     		cmp	r0, #0
 3919 024c A6D1     		bne	.L1029
 3920 024e D4F82022 		ldr	r2, [r4, #544]
 3921 0252 D4F81832 		ldr	r3, [r4, #536]
 3922 0256 84F80402 		strb	r0, [r4, #516]
 3923 025a B21A     		subs	r2, r6, r2
 3924 025c 9A42     		cmp	r2, r3
 3925 025e BFF412AF 		bcs	.L1028
 3926 0262 94F80392 		ldrb	r9, [r4, #515]	@ zero_extendqisi2
 3927 0266 B9F1010F 		cmp	r9, #1
 3928 026a 02D8     		bhi	.L1030
 3929 026c 0BE7     		b	.L1028
 3930              	.L1090:
 3931 026e D4F81832 		ldr	r3, [r4, #536]
 3932              	.L1030:
 3933 0272 94F80102 		ldrb	r0, [r4, #513]	@ zero_extendqisi2
 3934 0276 1E44     		add	r6, r6, r3
 3935 0278 09F1FF39 		add	r9, r9, #-1
 3936 027c 3246     		mov	r2, r6
 3937 027e 0123     		movs	r3, #1
 3938 0280 2146     		mov	r1, r4
 3939 0282 FFF7FEFF 		bl	disk_write
 3940 0286 B9F1010F 		cmp	r9, #1
 3941 028a F0D1     		bne	.L1090
 3942 028c FBE6     		b	.L1028
 3944 028e 00BF     		.section	.text.put_fat,"ax",%progbits
 3945              		.align	1
 3946              		.p2align 2,,3
 3947              		.global	put_fat
 3948              		.syntax unified
 3949              		.thumb
 3950              		.thumb_func
 3951              		.fpu fpv4-sp-d16
 3953              	put_fat:
 3954              		@ args = 0, pretend = 0, frame = 0
 3955              		@ frame_needed = 0, uses_anonymous_args = 0
 3956 0000 0129     		cmp	r1, #1
 3957 0002 03D9     		bls	.L1122
 3958 0004 D0F81432 		ldr	r3, [r0, #532]
 3959 0008 9942     		cmp	r1, r3
 3960 000a 01D3     		bcc	.L1160
 3961              	.L1122:
 3962 000c 0220     		movs	r0, #2
 3963 000e 7047     		bx	lr
 3964              	.L1160:
 3965 0010 2DE9F047 		push	{r4, r5, r6, r7, r8, r9, r10, lr}
 3966 0014 90F80032 		ldrb	r3, [r0, #512]	@ zero_extendqisi2
ARM GAS  /tmp/ccFKl8QX.s 			page 70


 3967 0018 022B     		cmp	r3, #2
 3968 001a 1646     		mov	r6, r2
 3969 001c 0446     		mov	r4, r0
 3970 001e 0D46     		mov	r5, r1
 3971 0020 07D0     		beq	.L1093
 3972 0022 032B     		cmp	r3, #3
 3973 0024 00F0A180 		beq	.L1094
 3974 0028 012B     		cmp	r3, #1
 3975 002a 29D0     		beq	.L1161
 3976 002c 0220     		movs	r0, #2
 3977 002e BDE8F087 		pop	{r4, r5, r6, r7, r8, r9, r10, pc}
 3978              	.L1093:
 3979 0032 D0F82072 		ldr	r7, [r0, #544]
 3980 0036 D0F82C92 		ldr	r9, [r0, #556]
 3981 003a 07EB1127 		add	r7, r7, r1, lsr #8
 3982 003e 4F45     		cmp	r7, r9
 3983 0040 10D0     		beq	.L1108
 3984 0042 90F80432 		ldrb	r3, [r0, #516]	@ zero_extendqisi2
 3985 0046 002B     		cmp	r3, #0
 3986 0048 40F02681 		bne	.L1162
 3987              	.L1109:
 3988 004c 0123     		movs	r3, #1
 3989 004e 3A46     		mov	r2, r7
 3990 0050 2146     		mov	r1, r4
 3991 0052 94F80102 		ldrb	r0, [r4, #513]	@ zero_extendqisi2
 3992 0056 FFF7FEFF 		bl	disk_read
 3993 005a 0028     		cmp	r0, #0
 3994 005c 40F0B280 		bne	.L1114
 3995 0060 C4F82C72 		str	r7, [r4, #556]
 3996              	.L1108:
 3997 0064 6900     		lsls	r1, r5, #1
 3998 0066 01F4FF71 		and	r1, r1, #510
 3999 006a 6218     		adds	r2, r4, r1
 4000 006c 6654     		strb	r6, [r4, r1]
 4001 006e C6F30725 		ubfx	r5, r6, #8, #8
 4002 0072 0123     		movs	r3, #1
 4003 0074 5570     		strb	r5, [r2, #1]
 4004 0076 84F80432 		strb	r3, [r4, #516]
 4005 007a 0020     		movs	r0, #0
 4006 007c BDE8F087 		pop	{r4, r5, r6, r7, r8, r9, r10, pc}
 4007              	.L1161:
 4008 0080 D0F82022 		ldr	r2, [r0, #544]
 4009 0084 D0F82C72 		ldr	r7, [r0, #556]
 4010 0088 01EB5108 		add	r8, r1, r1, lsr #1
 4011 008c 02EB5829 		add	r9, r2, r8, lsr #9
 4012 0090 B945     		cmp	r9, r7
 4013 0092 13D0     		beq	.L1096
 4014 0094 90F80422 		ldrb	r2, [r0, #516]	@ zero_extendqisi2
 4015 0098 002A     		cmp	r2, #0
 4016 009a 40F0D580 		bne	.L1163
 4017              	.L1097:
 4018 009e 0123     		movs	r3, #1
 4019 00a0 4A46     		mov	r2, r9
 4020 00a2 2146     		mov	r1, r4
 4021 00a4 94F80102 		ldrb	r0, [r4, #513]	@ zero_extendqisi2
 4022 00a8 FFF7FEFF 		bl	disk_read
 4023 00ac 0028     		cmp	r0, #0
ARM GAS  /tmp/ccFKl8QX.s 			page 71


 4024 00ae 40F08980 		bne	.L1114
 4025 00b2 D4F82022 		ldr	r2, [r4, #544]
 4026 00b6 C4F82C92 		str	r9, [r4, #556]
 4027 00ba 4F46     		mov	r7, r9
 4028              	.L1096:
 4029 00bc 15F0010A 		ands	r10, r5, #1
 4030 00c0 08F10109 		add	r9, r8, #1
 4031 00c4 C8F30808 		ubfx	r8, r8, #0, #9
 4032 00c8 00F08380 		beq	.L1100
 4033 00cc 14F80830 		ldrb	r3, [r4, r8]	@ zero_extendqisi2
 4034 00d0 02EB5925 		add	r5, r2, r9, lsr #9
 4035 00d4 03F00F03 		and	r3, r3, #15
 4036 00d8 43EA0613 		orr	r3, r3, r6, lsl #4
 4037 00dc 0122     		movs	r2, #1
 4038 00de AF42     		cmp	r7, r5
 4039 00e0 04F80830 		strb	r3, [r4, r8]
 4040 00e4 84F80422 		strb	r2, [r4, #516]
 4041 00e8 00F00081 		beq	.L1164
 4042              	.L1101:
 4043 00ec 0123     		movs	r3, #1
 4044 00ee 3A46     		mov	r2, r7
 4045 00f0 2146     		mov	r1, r4
 4046 00f2 94F80102 		ldrb	r0, [r4, #513]	@ zero_extendqisi2
 4047 00f6 FFF7FEFF 		bl	disk_write
 4048 00fa 0028     		cmp	r0, #0
 4049 00fc 66D1     		bne	.L1155
 4050 00fe D4F82022 		ldr	r2, [r4, #544]
 4051 0102 D4F81832 		ldr	r3, [r4, #536]
 4052 0106 84F80402 		strb	r0, [r4, #516]
 4053 010a BA1A     		subs	r2, r7, r2
 4054 010c 9A42     		cmp	r2, r3
 4055 010e 14D2     		bcs	.L1105
 4056 0110 94F80382 		ldrb	r8, [r4, #515]	@ zero_extendqisi2
 4057 0114 B8F1010F 		cmp	r8, #1
 4058 0118 02D8     		bhi	.L1106
 4059 011a 0EE0     		b	.L1105
 4060              	.L1165:
 4061 011c D4F81832 		ldr	r3, [r4, #536]
 4062              	.L1106:
 4063 0120 94F80102 		ldrb	r0, [r4, #513]	@ zero_extendqisi2
 4064 0124 1F44     		add	r7, r7, r3
 4065 0126 08F1FF38 		add	r8, r8, #-1
 4066 012a 3A46     		mov	r2, r7
 4067 012c 0123     		movs	r3, #1
 4068 012e 2146     		mov	r1, r4
 4069 0130 FFF7FEFF 		bl	disk_write
 4070 0134 B8F1010F 		cmp	r8, #1
 4071 0138 F0D1     		bne	.L1165
 4072              	.L1105:
 4073 013a 0123     		movs	r3, #1
 4074 013c 2A46     		mov	r2, r5
 4075 013e 2146     		mov	r1, r4
 4076 0140 94F80102 		ldrb	r0, [r4, #513]	@ zero_extendqisi2
 4077 0144 FFF7FEFF 		bl	disk_read
 4078 0148 E0BB     		cbnz	r0, .L1114
 4079 014a C4F82C52 		str	r5, [r4, #556]
 4080 014e C9F30803 		ubfx	r3, r9, #0, #9
ARM GAS  /tmp/ccFKl8QX.s 			page 72


 4081 0152 BAF1000F 		cmp	r10, #0
 4082 0156 47D0     		beq	.L1120
 4083              	.L1119:
 4084 0158 C6F30712 		ubfx	r2, r6, #4, #8
 4085              	.L1107:
 4086 015c 0121     		movs	r1, #1
 4087 015e E254     		strb	r2, [r4, r3]
 4088 0160 84F80412 		strb	r1, [r4, #516]
 4089 0164 0020     		movs	r0, #0
 4090 0166 BDE8F087 		pop	{r4, r5, r6, r7, r8, r9, r10, pc}
 4091              	.L1094:
 4092 016a D0F82072 		ldr	r7, [r0, #544]
 4093 016e D0F82C92 		ldr	r9, [r0, #556]
 4094 0172 07EBD117 		add	r7, r7, r1, lsr #7
 4095 0176 4F45     		cmp	r7, r9
 4096 0178 0CD0     		beq	.L1111
 4097 017a 90F80432 		ldrb	r3, [r0, #516]	@ zero_extendqisi2
 4098 017e D3BB     		cbnz	r3, .L1166
 4099              	.L1112:
 4100 0180 0123     		movs	r3, #1
 4101 0182 3A46     		mov	r2, r7
 4102 0184 2146     		mov	r1, r4
 4103 0186 94F80102 		ldrb	r0, [r4, #513]	@ zero_extendqisi2
 4104 018a FFF7FEFF 		bl	disk_read
 4105 018e C8B9     		cbnz	r0, .L1114
 4106 0190 C4F82C72 		str	r7, [r4, #556]
 4107              	.L1111:
 4108 0194 A900     		lsls	r1, r5, #2
 4109 0196 01F4FE71 		and	r1, r1, #508
 4110 019a 6318     		adds	r3, r4, r1
 4111 019c 0125     		movs	r5, #1
 4112 019e DA78     		ldrb	r2, [r3, #3]	@ zero_extendqisi2
 4113 01a0 1206     		lsls	r2, r2, #24
 4114 01a2 02F07042 		and	r2, r2, #-268435456
 4115 01a6 3243     		orrs	r2, r2, r6
 4116 01a8 6254     		strb	r2, [r4, r1]
 4117 01aa C2F3072E 		ubfx	lr, r2, #8, #8
 4118 01ae 170C     		lsrs	r7, r2, #16
 4119 01b0 160E     		lsrs	r6, r2, #24
 4120 01b2 83F801E0 		strb	lr, [r3, #1]
 4121 01b6 9F70     		strb	r7, [r3, #2]
 4122 01b8 DE70     		strb	r6, [r3, #3]
 4123 01ba 84F80452 		strb	r5, [r4, #516]
 4124 01be 0020     		movs	r0, #0
 4125 01c0 BDE8F087 		pop	{r4, r5, r6, r7, r8, r9, r10, pc}
 4126              	.L1114:
 4127 01c4 4FF0FF33 		mov	r3, #-1
 4128 01c8 C4F82C32 		str	r3, [r4, #556]
 4129              	.L1155:
 4130 01cc 0120     		movs	r0, #1
 4131 01ce BDE8F087 		pop	{r4, r5, r6, r7, r8, r9, r10, pc}
 4132              	.L1100:
 4133 01d2 02EB5925 		add	r5, r2, r9, lsr #9
 4134 01d6 0123     		movs	r3, #1
 4135 01d8 AF42     		cmp	r7, r5
 4136 01da 04F80860 		strb	r6, [r4, r8]
 4137 01de 84F80432 		strb	r3, [r4, #516]
ARM GAS  /tmp/ccFKl8QX.s 			page 73


 4138 01e2 83D1     		bne	.L1101
 4139 01e4 C9F30803 		ubfx	r3, r9, #0, #9
 4140              	.L1120:
 4141 01e8 E25C     		ldrb	r2, [r4, r3]	@ zero_extendqisi2
 4142 01ea C6F30326 		ubfx	r6, r6, #8, #4
 4143 01ee 22F00F02 		bic	r2, r2, #15
 4144 01f2 3243     		orrs	r2, r2, r6
 4145 01f4 B2E7     		b	.L1107
 4146              	.L1166:
 4147 01f6 0146     		mov	r1, r0
 4148 01f8 0123     		movs	r3, #1
 4149 01fa 4A46     		mov	r2, r9
 4150 01fc 90F80102 		ldrb	r0, [r0, #513]	@ zero_extendqisi2
 4151 0200 FFF7FEFF 		bl	disk_write
 4152 0204 0028     		cmp	r0, #0
 4153 0206 E1D1     		bne	.L1155
 4154 0208 D4F82022 		ldr	r2, [r4, #544]
 4155 020c D4F81832 		ldr	r3, [r4, #536]
 4156 0210 84F80402 		strb	r0, [r4, #516]
 4157 0214 A9EB0202 		sub	r2, r9, r2
 4158 0218 9A42     		cmp	r2, r3
 4159 021a B1D2     		bcs	.L1112
 4160 021c 94F80382 		ldrb	r8, [r4, #515]	@ zero_extendqisi2
 4161 0220 B8F1010F 		cmp	r8, #1
 4162 0224 02D8     		bhi	.L1113
 4163 0226 ABE7     		b	.L1112
 4164              	.L1167:
 4165 0228 D4F81832 		ldr	r3, [r4, #536]
 4166              	.L1113:
 4167 022c 94F80102 		ldrb	r0, [r4, #513]	@ zero_extendqisi2
 4168 0230 9944     		add	r9, r9, r3
 4169 0232 08F1FF38 		add	r8, r8, #-1
 4170 0236 4A46     		mov	r2, r9
 4171 0238 0123     		movs	r3, #1
 4172 023a 2146     		mov	r1, r4
 4173 023c FFF7FEFF 		bl	disk_write
 4174 0240 B8F1010F 		cmp	r8, #1
 4175 0244 F0D1     		bne	.L1167
 4176 0246 9BE7     		b	.L1112
 4177              	.L1163:
 4178 0248 0146     		mov	r1, r0
 4179 024a 3A46     		mov	r2, r7
 4180 024c 90F80102 		ldrb	r0, [r0, #513]	@ zero_extendqisi2
 4181 0250 FFF7FEFF 		bl	disk_write
 4182 0254 0028     		cmp	r0, #0
 4183 0256 B9D1     		bne	.L1155
 4184 0258 D4F82022 		ldr	r2, [r4, #544]
 4185 025c D4F81832 		ldr	r3, [r4, #536]
 4186 0260 84F80402 		strb	r0, [r4, #516]
 4187 0264 BA1A     		subs	r2, r7, r2
 4188 0266 9A42     		cmp	r2, r3
 4189 0268 BFF419AF 		bcs	.L1097
 4190 026c 94F803A2 		ldrb	r10, [r4, #515]	@ zero_extendqisi2
 4191 0270 BAF1010F 		cmp	r10, #1
 4192 0274 02D8     		bhi	.L1099
 4193 0276 12E7     		b	.L1097
 4194              	.L1168:
ARM GAS  /tmp/ccFKl8QX.s 			page 74


 4195 0278 D4F81832 		ldr	r3, [r4, #536]
 4196              	.L1099:
 4197 027c 94F80102 		ldrb	r0, [r4, #513]	@ zero_extendqisi2
 4198 0280 1F44     		add	r7, r7, r3
 4199 0282 0AF1FF3A 		add	r10, r10, #-1
 4200 0286 3A46     		mov	r2, r7
 4201 0288 0123     		movs	r3, #1
 4202 028a 2146     		mov	r1, r4
 4203 028c FFF7FEFF 		bl	disk_write
 4204 0290 BAF1010F 		cmp	r10, #1
 4205 0294 F0D1     		bne	.L1168
 4206 0296 02E7     		b	.L1097
 4207              	.L1162:
 4208 0298 0146     		mov	r1, r0
 4209 029a 0123     		movs	r3, #1
 4210 029c 4A46     		mov	r2, r9
 4211 029e 90F80102 		ldrb	r0, [r0, #513]	@ zero_extendqisi2
 4212 02a2 FFF7FEFF 		bl	disk_write
 4213 02a6 0028     		cmp	r0, #0
 4214 02a8 90D1     		bne	.L1155
 4215 02aa D4F82022 		ldr	r2, [r4, #544]
 4216 02ae D4F81832 		ldr	r3, [r4, #536]
 4217 02b2 84F80402 		strb	r0, [r4, #516]
 4218 02b6 A9EB0202 		sub	r2, r9, r2
 4219 02ba 9A42     		cmp	r2, r3
 4220 02bc BFF4C6AE 		bcs	.L1109
 4221 02c0 94F80382 		ldrb	r8, [r4, #515]	@ zero_extendqisi2
 4222 02c4 B8F1010F 		cmp	r8, #1
 4223 02c8 02D8     		bhi	.L1110
 4224 02ca BFE6     		b	.L1109
 4225              	.L1169:
 4226 02cc D4F81832 		ldr	r3, [r4, #536]
 4227              	.L1110:
 4228 02d0 94F80102 		ldrb	r0, [r4, #513]	@ zero_extendqisi2
 4229 02d4 9944     		add	r9, r9, r3
 4230 02d6 08F1FF38 		add	r8, r8, #-1
 4231 02da 4A46     		mov	r2, r9
 4232 02dc 0123     		movs	r3, #1
 4233 02de 2146     		mov	r1, r4
 4234 02e0 FFF7FEFF 		bl	disk_write
 4235 02e4 B8F1010F 		cmp	r8, #1
 4236 02e8 F0D1     		bne	.L1169
 4237 02ea AFE6     		b	.L1109
 4238              	.L1164:
 4239 02ec C9F30803 		ubfx	r3, r9, #0, #9
 4240 02f0 32E7     		b	.L1119
 4242 02f2 00BF     		.section	.text.f_mount,"ax",%progbits
 4243              		.align	1
 4244              		.p2align 2,,3
 4245              		.global	f_mount
 4246              		.syntax unified
 4247              		.thumb
 4248              		.thumb_func
 4249              		.fpu fpv4-sp-d16
 4251              	f_mount:
 4252              		@ args = 0, pretend = 0, frame = 8
 4253              		@ frame_needed = 0, uses_anonymous_args = 0
ARM GAS  /tmp/ccFKl8QX.s 			page 75


 4254 0000 10B5     		push	{r4, lr}
 4255 0002 82B0     		sub	sp, sp, #8
 4256 0004 0190     		str	r0, [sp, #4]
 4257 0006 0091     		str	r1, [sp]
 4258 0008 61B3     		cbz	r1, .L1191
 4259 000a 0C78     		ldrb	r4, [r1]	@ zero_extendqisi2
 4260 000c 202C     		cmp	r4, #32
 4261 000e 09D9     		bls	.L1172
 4262 0010 3A2C     		cmp	r4, #58
 4263 0012 27D0     		beq	.L1191
 4264 0014 0846     		mov	r0, r1
 4265 0016 01E0     		b	.L1173
 4266              	.L1194:
 4267 0018 3A2B     		cmp	r3, #58
 4268 001a 1ED0     		beq	.L1193
 4269              	.L1173:
 4270 001c 10F8013F 		ldrb	r3, [r0, #1]!	@ zero_extendqisi2
 4271 0020 202B     		cmp	r3, #32
 4272 0022 F9D8     		bhi	.L1194
 4273              	.L1172:
 4274 0024 1649     		ldr	r1, .L1196
 4275 0026 0B68     		ldr	r3, [r1]
 4276 0028 6BB1     		cbz	r3, .L1175
 4277 002a 1648     		ldr	r0, .L1196+4
 4278 002c 0468     		ldr	r4, [r0]
 4279 002e 9C42     		cmp	r4, r3
 4280 0030 04BF     		itt	eq
 4281 0032 0024     		moveq	r4, #0
 4282 0034 0460     		streq	r4, [r0]
 4283 0036 C468     		ldr	r4, [r0, #12]
 4284 0038 A342     		cmp	r3, r4
 4285 003a 04BF     		itt	eq
 4286 003c 0024     		moveq	r4, #0
 4287 003e C460     		streq	r4, [r0, #12]
 4288 0040 0020     		movs	r0, #0
 4289 0042 83F80002 		strb	r0, [r3, #512]
 4290              	.L1175:
 4291 0046 019B     		ldr	r3, [sp, #4]
 4292 0048 B3B1     		cbz	r3, .L1178
 4293 004a 0020     		movs	r0, #0
 4294 004c 012A     		cmp	r2, #1
 4295 004e 0B60     		str	r3, [r1]
 4296 0050 83F80002 		strb	r0, [r3, #512]
 4297 0054 09D0     		beq	.L1195
 4298              	.L1189:
 4299 0056 02B0     		add	sp, sp, #8
 4300              		@ sp needed
 4301 0058 10BD     		pop	{r4, pc}
 4302              	.L1193:
 4303 005a 0131     		adds	r1, r1, #1
 4304 005c 8842     		cmp	r0, r1
 4305 005e 01D1     		bne	.L1191
 4306 0060 302C     		cmp	r4, #48
 4307 0062 DFD0     		beq	.L1172
 4308              	.L1191:
 4309 0064 0B20     		movs	r0, #11
 4310 0066 02B0     		add	sp, sp, #8
ARM GAS  /tmp/ccFKl8QX.s 			page 76


 4311              		@ sp needed
 4312 0068 10BD     		pop	{r4, pc}
 4313              	.L1195:
 4314 006a 0246     		mov	r2, r0
 4315 006c 6946     		mov	r1, sp
 4316 006e 01A8     		add	r0, sp, #4
 4317 0070 FFF7FEFF 		bl	find_volume
 4318 0074 02B0     		add	sp, sp, #8
 4319              		@ sp needed
 4320 0076 10BD     		pop	{r4, pc}
 4321              	.L1178:
 4322 0078 0B60     		str	r3, [r1]
 4323 007a 1846     		mov	r0, r3
 4324 007c EBE7     		b	.L1189
 4325              	.L1197:
 4326 007e 00BF     		.align	2
 4327              	.L1196:
 4328 0080 00000000 		.word	.LANCHOR0
 4329 0084 00000000 		.word	.LANCHOR2
 4331              		.section	.text.f_open,"ax",%progbits
 4332              		.align	1
 4333              		.p2align 2,,3
 4334              		.global	f_open
 4335              		.syntax unified
 4336              		.thumb
 4337              		.thumb_func
 4338              		.fpu fpv4-sp-d16
 4340              	f_open:
 4341              		@ args = 0, pretend = 0, frame = 568
 4342              		@ frame_needed = 0, uses_anonymous_args = 0
 4343 0000 A0B3     		cbz	r0, .L1297
 4344 0002 2DE9F04F 		push	{r4, r5, r6, r7, r8, r9, r10, fp, lr}
 4345 0006 ADF50F7D 		sub	sp, sp, #572
 4346 000a 0023     		movs	r3, #0
 4347 000c 0D46     		mov	r5, r1
 4348 000e 0446     		mov	r4, r0
 4349 0010 8693     		str	r3, [sp, #536]
 4350 0012 C0F80032 		str	r3, [r0, #512]
 4351 0016 0029     		cmp	r1, #0
 4352 0018 65D0     		beq	.L1200
 4353 001a 0978     		ldrb	r1, [r1]	@ zero_extendqisi2
 4354 001c 2029     		cmp	r1, #32
 4355 001e 1646     		mov	r6, r2
 4356 0020 0BD9     		bls	.L1201
 4357 0022 3A29     		cmp	r1, #58
 4358 0024 5FD0     		beq	.L1200
 4359 0026 2B46     		mov	r3, r5
 4360 0028 02E0     		b	.L1202
 4361              	.L1417:
 4362 002a 3A2A     		cmp	r2, #58
 4363 002c 20D0     		beq	.L1416
 4364 002e 0346     		mov	r3, r0
 4365              	.L1202:
 4366 0030 5A78     		ldrb	r2, [r3, #1]	@ zero_extendqisi2
 4367 0032 202A     		cmp	r2, #32
 4368 0034 03F10100 		add	r0, r3, #1
 4369 0038 F7D8     		bhi	.L1417
ARM GAS  /tmp/ccFKl8QX.s 			page 77


 4370              	.L1201:
 4371 003a C64B     		ldr	r3, .L1443
 4372 003c 1F68     		ldr	r7, [r3]
 4373 003e 002F     		cmp	r7, #0
 4374 0040 00F08D80 		beq	.L1299
 4375 0044 8697     		str	r7, [sp, #536]
 4376 0046 97F80032 		ldrb	r3, [r7, #512]	@ zero_extendqisi2
 4377 004a 06F01E08 		and	r8, r6, #30
 4378 004e B3B9     		cbnz	r3, .L1418
 4379              	.L1205:
 4380 0050 0020     		movs	r0, #0
 4381 0052 87F80002 		strb	r0, [r7, #512]
 4382 0056 87F80102 		strb	r0, [r7, #513]
 4383 005a FFF7FEFF 		bl	disk_initialize
 4384 005e C107     		lsls	r1, r0, #31
 4385 0060 7FD5     		bpl	.L1419
 4386 0062 0320     		movs	r0, #3
 4387              	.L1327:
 4388 0064 0DF50F7D 		add	sp, sp, #572
 4389              		@ sp needed
 4390 0068 BDE8F08F 		pop	{r4, r5, r6, r7, r8, r9, r10, fp, pc}
 4391              	.L1297:
 4392 006c 0920     		movs	r0, #9
 4393 006e 7047     		bx	lr
 4394              	.L1416:
 4395 0070 0135     		adds	r5, r5, #1
 4396 0072 A842     		cmp	r0, r5
 4397 0074 37D1     		bne	.L1200
 4398 0076 3029     		cmp	r1, #48
 4399 0078 35D1     		bne	.L1200
 4400 007a 9D1C     		adds	r5, r3, #2
 4401 007c DDE7     		b	.L1201
 4402              	.L1418:
 4403 007e 97F80102 		ldrb	r0, [r7, #513]	@ zero_extendqisi2
 4404 0082 FFF7FEFF 		bl	disk_status
 4405 0086 C307     		lsls	r3, r0, #31
 4406 0088 E2D4     		bmi	.L1205
 4407 008a B8F1000F 		cmp	r8, #0
 4408 008e 01D0     		beq	.L1252
 4409 0090 4007     		lsls	r0, r0, #29
 4410 0092 6BD4     		bmi	.L1208
 4411              	.L1252:
 4412 0094 2946     		mov	r1, r5
 4413 0096 02AB     		add	r3, sp, #8
 4414 0098 06A8     		add	r0, sp, #24
 4415 009a 8C93     		str	r3, [sp, #560]
 4416 009c FFF7FEFF 		bl	follow_path
 4417 00a0 06F01F07 		and	r7, r6, #31
 4418 00a4 8B9D     		ldr	r5, [sp, #556]
 4419 00a6 00BB     		cbnz	r0, .L1420
 4420 00a8 002D     		cmp	r5, #0
 4421 00aa 00F00B81 		beq	.L1307
 4422 00ae DFF8A882 		ldr	r8, .L1443+4
 4423 00b2 869A     		ldr	r2, [sp, #536]
 4424 00b4 D8F80030 		ldr	r3, [r8]
 4425 00b8 DDF820E2 		ldr	lr, [sp, #544]
 4426 00bc BDF81E12 		ldrh	r1, [sp, #542]
ARM GAS  /tmp/ccFKl8QX.s 			page 78


 4427 00c0 002B     		cmp	r3, #0
 4428 00c2 00F03981 		beq	.L1308
 4429 00c6 9342     		cmp	r3, r2
 4430 00c8 00F03881 		beq	.L1421
 4431              	.L1253:
 4432 00cc D8F80C30 		ldr	r3, [r8, #12]
 4433 00d0 002B     		cmp	r3, #0
 4434 00d2 00F0C980 		beq	.L1255
 4435 00d6 9342     		cmp	r3, r2
 4436 00d8 00F09E80 		beq	.L1422
 4437              	.L1256:
 4438 00dc 0028     		cmp	r0, #0
 4439 00de 40F0C380 		bne	.L1255
 4440              	.L1314:
 4441 00e2 1220     		movs	r0, #18
 4442 00e4 BEE7     		b	.L1327
 4443              	.L1200:
 4444 00e6 0B20     		movs	r0, #11
 4445 00e8 BCE7     		b	.L1327
 4446              	.L1420:
 4447 00ea 16F01C0F 		tst	r6, #28
 4448 00ee B9D0     		beq	.L1327
 4449 00f0 0428     		cmp	r0, #4
 4450 00f2 B7D1     		bne	.L1327
 4451 00f4 DFF86082 		ldr	r8, .L1443+4
 4452 00f8 D8F80030 		ldr	r3, [r8]
 4453 00fc 1BB1     		cbz	r3, .L1258
 4454 00fe D8F80C30 		ldr	r3, [r8, #12]
 4455 0102 002B     		cmp	r3, #0
 4456 0104 EDD1     		bne	.L1314
 4457              	.L1258:
 4458 0106 06A8     		add	r0, sp, #24
 4459 0108 FFF7FEFF 		bl	dir_register
 4460 010c 47F00807 		orr	r7, r7, #8
 4461 0110 8B9D     		ldr	r5, [sp, #556]
 4462 0112 0028     		cmp	r0, #0
 4463 0114 A6D1     		bne	.L1327
 4464              	.L1286:
 4465 0116 3E07     		lsls	r6, r7, #28
 4466 0118 00F1D680 		bmi	.L1423
 4467              	.L1398:
 4468 011c 869E     		ldr	r6, [sp, #536]
 4469 011e D6F82CB2 		ldr	fp, [r6, #556]
 4470              	.L1260:
 4471 0122 D8F80010 		ldr	r1, [r8]
 4472 0126 C4F81CB2 		str	fp, [r4, #540]
 4473 012a B142     		cmp	r1, r6
 4474 012c C4F82052 		str	r5, [r4, #544]
 4475 0130 27F00102 		bic	r2, r7, #1
 4476 0134 DDF820A2 		ldr	r10, [sp, #544]
 4477 0138 BDF81EC2 		ldrh	ip, [sp, #542]
 4478 013c 00F0B680 		beq	.L1424
 4479              	.L1269:
 4480 0140 D8F80C30 		ldr	r3, [r8, #12]
 4481 0144 B342     		cmp	r3, r6
 4482 0146 27D0     		beq	.L1425
 4483              	.L1271:
ARM GAS  /tmp/ccFKl8QX.s 			page 79


 4484 0148 0029     		cmp	r1, #0
 4485 014a 00F00781 		beq	.L1324
 4486 014e 002B     		cmp	r3, #0
 4487 0150 00F04D81 		beq	.L1426
 4488              	.L1273:
 4489 0154 0023     		movs	r3, #0
 4490 0156 C4F82832 		str	r3, [r4, #552]
 4491 015a 0220     		movs	r0, #2
 4492 015c 82E7     		b	.L1327
 4493              	.L1299:
 4494 015e 0C20     		movs	r0, #12
 4495 0160 80E7     		b	.L1327
 4496              	.L1419:
 4497 0162 B8F1000F 		cmp	r8, #0
 4498 0166 03D0     		beq	.L1207
 4499 0168 4207     		lsls	r2, r0, #29
 4500 016a 01D5     		bpl	.L1207
 4501              	.L1208:
 4502 016c 0A20     		movs	r0, #10
 4503 016e 79E7     		b	.L1327
 4504              	.L1207:
 4505 0170 0022     		movs	r2, #0
 4506 0172 4FF0FF39 		mov	r9, #-1
 4507 0176 87F80422 		strb	r2, [r7, #516]
 4508 017a C7F82C92 		str	r9, [r7, #556]
 4509 017e 0123     		movs	r3, #1
 4510 0180 3946     		mov	r1, r7
 4511 0182 97F80102 		ldrb	r0, [r7, #513]	@ zero_extendqisi2
 4512 0186 FFF7FEFF 		bl	disk_read
 4513 018a 0028     		cmp	r0, #0
 4514 018c 00F0C680 		beq	.L1427
 4515              	.L1239:
 4516 0190 C7F82C92 		str	r9, [r7, #556]
 4517              	.L1399:
 4518 0194 0120     		movs	r0, #1
 4519 0196 65E7     		b	.L1327
 4520              	.L1425:
 4521 0198 D8F81000 		ldr	r0, [r8, #16]
 4522 019c 5045     		cmp	r0, r10
 4523 019e D3D1     		bne	.L1271
 4524 01a0 B8F814E0 		ldrh	lr, [r8, #20]
 4525 01a4 E645     		cmp	lr, ip
 4526 01a6 CFD1     		bne	.L1271
 4527 01a8 0121     		movs	r1, #1
 4528              	.L1270:
 4529 01aa 4B00     		lsls	r3, r1, #1
 4530 01ac 002A     		cmp	r2, #0
 4531 01ae 43D0     		beq	.L1274
 4532 01b0 5A18     		adds	r2, r3, r1
 4533 01b2 08EB8202 		add	r2, r8, r2, lsl #2
 4534 01b6 5289     		ldrh	r2, [r2, #10]
 4535 01b8 002A     		cmp	r2, #0
 4536 01ba CBD1     		bne	.L1273
 4537 01bc 01F1010E 		add	lr, r1, #1
 4538 01c0 4FF48070 		mov	r0, #256
 4539              	.L1275:
 4540 01c4 0022     		movs	r2, #0
ARM GAS  /tmp/ccFKl8QX.s 			page 80


 4541 01c6 C4F828E2 		str	lr, [r4, #552]
 4542 01ca 84F80672 		strb	r7, [r4, #518]
 4543 01ce 84F80722 		strb	r2, [r4, #519]
 4544 01d2 0B44     		add	r3, r3, r1
 4545 01d4 96F80022 		ldrb	r2, [r6, #512]	@ zero_extendqisi2
 4546 01d8 E97E     		ldrb	r1, [r5, #27]	@ zero_extendqisi2
 4547 01da 08EB8308 		add	r8, r8, r3, lsl #2
 4548 01de AB7E     		ldrb	r3, [r5, #26]	@ zero_extendqisi2
 4549 01e0 A8F80A00 		strh	r0, [r8, #10]	@ movhi
 4550 01e4 032A     		cmp	r2, #3
 4551 01e6 43EA0123 		orr	r3, r3, r1, lsl #8
 4552 01ea 2ED0     		beq	.L1428
 4553              	.L1277:
 4554 01ec C4F81032 		str	r3, [r4, #528]
 4555 01f0 EA69     		ldr	r2, [r5, #28]	@ unaligned
 4556 01f2 B6F80632 		ldrh	r3, [r6, #518]
 4557 01f6 A4F80432 		strh	r3, [r4, #516]	@ movhi
 4558 01fa 0020     		movs	r0, #0
 4559 01fc C4F80C22 		str	r2, [r4, #524]
 4560 0200 C4F80062 		str	r6, [r4, #512]
 4561 0204 C4F80802 		str	r0, [r4, #520]
 4562 0208 C4F81802 		str	r0, [r4, #536]
 4563 020c C4F82402 		str	r0, [r4, #548]
 4564 0210 0DF50F7D 		add	sp, sp, #572
 4565              		@ sp needed
 4566 0214 BDE8F08F 		pop	{r4, r5, r6, r7, r8, r9, r10, fp, pc}
 4567              	.L1422:
 4568 0218 D8F81030 		ldr	r3, [r8, #16]
 4569 021c 7345     		cmp	r3, lr
 4570 021e 7FF45DAF 		bne	.L1256
 4571 0222 B8F81430 		ldrh	r3, [r8, #20]
 4572 0226 8B42     		cmp	r3, r1
 4573 0228 7FF458AF 		bne	.L1256
 4574 022c 0120     		movs	r0, #1
 4575              	.L1254:
 4576 022e 17F0FE0F 		tst	r7, #254
 4577 0232 11D0     		beq	.L1429
 4578              	.L1325:
 4579 0234 1020     		movs	r0, #16
 4580 0236 15E7     		b	.L1327
 4581              	.L1274:
 4582 0238 5A18     		adds	r2, r3, r1
 4583 023a 08EB8202 		add	r2, r8, r2, lsl #2
 4584 023e 01F1010E 		add	lr, r1, #1
 4585 0242 5089     		ldrh	r0, [r2, #10]
 4586 0244 0130     		adds	r0, r0, #1
 4587 0246 80B2     		uxth	r0, r0
 4588 0248 BCE7     		b	.L1275
 4589              	.L1428:
 4590 024a 697D     		ldrb	r1, [r5, #21]	@ zero_extendqisi2
 4591 024c 2A7D     		ldrb	r2, [r5, #20]	@ zero_extendqisi2
 4592 024e 42EA0122 		orr	r2, r2, r1, lsl #8
 4593 0252 43EA0243 		orr	r3, r3, r2, lsl #16
 4594 0256 C9E7     		b	.L1277
 4595              	.L1429:
 4596 0258 4300     		lsls	r3, r0, #1
 4597 025a 0344     		add	r3, r3, r0
ARM GAS  /tmp/ccFKl8QX.s 			page 81


 4598 025c 08EB8303 		add	r3, r8, r3, lsl #2
 4599 0260 5B89     		ldrh	r3, [r3, #10]
 4600 0262 B3F5807F 		cmp	r3, #256
 4601 0266 E5D0     		beq	.L1325
 4602              	.L1255:
 4603 0268 16F01C0F 		tst	r6, #28
 4604 026c 08D0     		beq	.L1430
 4605 026e EB7A     		ldrb	r3, [r5, #11]	@ zero_extendqisi2
 4606 0270 13F0110F 		tst	r3, #17
 4607 0274 16D1     		bne	.L1321
 4608 0276 7307     		lsls	r3, r6, #29
 4609 0278 7FF54DAF 		bpl	.L1286
 4610 027c 0820     		movs	r0, #8
 4611 027e F1E6     		b	.L1327
 4612              	.L1430:
 4613 0280 EB7A     		ldrb	r3, [r5, #11]	@ zero_extendqisi2
 4614 0282 D906     		lsls	r1, r3, #27
 4615 0284 10D4     		bmi	.L1320
 4616 0286 B207     		lsls	r2, r6, #30
 4617 0288 01D5     		bpl	.L1396
 4618 028a DB07     		lsls	r3, r3, #31
 4619 028c 0AD4     		bmi	.L1321
 4620              	.L1396:
 4621 028e 06F00806 		and	r6, r6, #8
 4622 0292 002E     		cmp	r6, #0
 4623 0294 3FF442AF 		beq	.L1398
 4624              	.L1268:
 4625 0298 869E     		ldr	r6, [sp, #536]
 4626              	.L1397:
 4627 029a D6F82CB2 		ldr	fp, [r6, #556]
 4628              	.L1291:
 4629 029e 47F02007 		orr	r7, r7, #32
 4630 02a2 3EE7     		b	.L1260
 4631              	.L1321:
 4632 02a4 0720     		movs	r0, #7
 4633 02a6 DDE6     		b	.L1327
 4634              	.L1320:
 4635 02a8 0420     		movs	r0, #4
 4636 02aa DBE6     		b	.L1327
 4637              	.L1424:
 4638 02ac D8F80430 		ldr	r3, [r8, #4]
 4639 02b0 5345     		cmp	r3, r10
 4640 02b2 7FF445AF 		bne	.L1269
 4641 02b6 B8F80830 		ldrh	r3, [r8, #8]
 4642 02ba 6345     		cmp	r3, ip
 4643 02bc 7FF440AF 		bne	.L1269
 4644 02c0 0021     		movs	r1, #0
 4645 02c2 72E7     		b	.L1270
 4646              	.L1307:
 4647 02c4 0620     		movs	r0, #6
 4648 02c6 CDE6     		b	.L1327
 4649              	.L1423:
 4650 02c8 FFF7FEFF 		bl	get_fattime
 4651 02cc 0023     		movs	r3, #0
 4652 02ce 010C     		lsrs	r1, r0, #16
 4653 02d0 020E     		lsrs	r2, r0, #24
 4654 02d2 C0F30726 		ubfx	r6, r0, #8, #8
ARM GAS  /tmp/ccFKl8QX.s 			page 82


 4655 02d6 2974     		strb	r1, [r5, #16]
 4656 02d8 A873     		strb	r0, [r5, #14]
 4657 02da EE73     		strb	r6, [r5, #15]
 4658 02dc 6A74     		strb	r2, [r5, #17]
 4659 02de EB72     		strb	r3, [r5, #11]
 4660 02e0 EB61     		str	r3, [r5, #28]	@ unaligned
 4661 02e2 869B     		ldr	r3, [sp, #536]
 4662 02e4 E97E     		ldrb	r1, [r5, #27]	@ zero_extendqisi2
 4663 02e6 93F80022 		ldrb	r2, [r3, #512]	@ zero_extendqisi2
 4664 02ea AB7E     		ldrb	r3, [r5, #26]	@ zero_extendqisi2
 4665 02ec 032A     		cmp	r2, #3
 4666 02ee 43EA0123 		orr	r3, r3, r1, lsl #8
 4667 02f2 4CD0     		beq	.L1431
 4668              	.L1261:
 4669 02f4 0022     		movs	r2, #0
 4670 02f6 AA76     		strb	r2, [r5, #26]
 4671 02f8 EA76     		strb	r2, [r5, #27]
 4672 02fa 2A75     		strb	r2, [r5, #20]
 4673 02fc 6A75     		strb	r2, [r5, #21]
 4674 02fe 869E     		ldr	r6, [sp, #536]
 4675 0300 4FF00109 		mov	r9, #1
 4676 0304 86F80492 		strb	r9, [r6, #516]
 4677 0308 002B     		cmp	r3, #0
 4678 030a C6D0     		beq	.L1397
 4679 030c 4B45     		cmp	r3, r9
 4680 030e 03D0     		beq	.L1318
 4681 0310 D6F81422 		ldr	r2, [r6, #532]
 4682 0314 9342     		cmp	r3, r2
 4683 0316 41D3     		bcc	.L1432
 4684              	.L1318:
 4685 0318 0220     		movs	r0, #2
 4686 031a A3E6     		b	.L1327
 4687              	.L1427:
 4688 031c 97F8FF21 		ldrb	r2, [r7, #511]	@ zero_extendqisi2
 4689 0320 97F8FE31 		ldrb	r3, [r7, #510]	@ zero_extendqisi2
 4690 0324 C7F82C02 		str	r0, [r7, #556]
 4691 0328 43EA0223 		orr	r3, r3, r2, lsl #8
 4692 032c 4AF65522 		movw	r2, #43605
 4693 0330 9342     		cmp	r3, r2
 4694 0332 60D0     		beq	.L1433
 4695              	.L1241:
 4696 0334 0D20     		movs	r0, #13
 4697 0336 95E6     		b	.L1327
 4698              	.L1308:
 4699 0338 0120     		movs	r0, #1
 4700 033a C7E6     		b	.L1253
 4701              	.L1421:
 4702 033c D8F80430 		ldr	r3, [r8, #4]
 4703 0340 7345     		cmp	r3, lr
 4704 0342 7FF4C3AE 		bne	.L1253
 4705 0346 B8F80830 		ldrh	r3, [r8, #8]
 4706 034a 8B42     		cmp	r3, r1
 4707 034c 7FF4BEAE 		bne	.L1253
 4708 0350 6DE7     		b	.L1254
 4709              	.L1444:
 4710 0352 00BF     		.align	2
 4711              	.L1443:
ARM GAS  /tmp/ccFKl8QX.s 			page 83


 4712 0354 00000000 		.word	.LANCHOR0
 4713 0358 00000000 		.word	.LANCHOR2
 4714              	.L1324:
 4715 035c 4FF0010E 		mov	lr, #1
 4716              	.L1272:
 4717 0360 4B00     		lsls	r3, r1, #1
 4718 0362 03EB0109 		add	r9, r3, r1
 4719 0366 4FEA8909 		lsl	r9, r9, #2
 4720 036a 002A     		cmp	r2, #0
 4721 036c 08EB0902 		add	r2, r8, r9
 4722 0370 48F80960 		str	r6, [r8, r9]
 4723 0374 4FF00009 		mov	r9, #0
 4724 0378 C2F804A0 		str	r10, [r2, #4]
 4725 037c A2F808C0 		strh	ip, [r2, #8]	@ movhi
 4726 0380 A2F80A90 		strh	r9, [r2, #10]	@ movhi
 4727 0384 14BF     		ite	ne
 4728 0386 4FF48070 		movne	r0, #256
 4729 038a 0120     		moveq	r0, #1
 4730 038c 1AE7     		b	.L1275
 4731              	.L1431:
 4732 038e 697D     		ldrb	r1, [r5, #21]	@ zero_extendqisi2
 4733 0390 2A7D     		ldrb	r2, [r5, #20]	@ zero_extendqisi2
 4734 0392 42EA0122 		orr	r2, r2, r1, lsl #8
 4735 0396 43EA0243 		orr	r3, r3, r2, lsl #16
 4736 039a ABE7     		b	.L1261
 4737              	.L1432:
 4738 039c 1946     		mov	r1, r3
 4739 039e 3046     		mov	r0, r6
 4740 03a0 0193     		str	r3, [sp, #4]
 4741 03a2 D6F82CA2 		ldr	r10, [r6, #556]
 4742 03a6 FFF7FEFF 		bl	remove_chain.part.10
 4743 03aa 0028     		cmp	r0, #0
 4744 03ac 7FF45AAE 		bne	.L1327
 4745 03b0 869E     		ldr	r6, [sp, #536]
 4746 03b2 019B     		ldr	r3, [sp, #4]
 4747 03b4 D6F82CB2 		ldr	fp, [r6, #556]
 4748 03b8 013B     		subs	r3, r3, #1
 4749 03ba DA45     		cmp	r10, fp
 4750 03bc C6F80C32 		str	r3, [r6, #524]
 4751 03c0 3FF46DAF 		beq	.L1291
 4752 03c4 96F80432 		ldrb	r3, [r6, #516]	@ zero_extendqisi2
 4753 03c8 002B     		cmp	r3, #0
 4754 03ca 40F09C81 		bne	.L1434
 4755              	.L1264:
 4756 03ce 0123     		movs	r3, #1
 4757 03d0 5246     		mov	r2, r10
 4758 03d2 3146     		mov	r1, r6
 4759 03d4 96F80102 		ldrb	r0, [r6, #513]	@ zero_extendqisi2
 4760 03d8 FFF7FEFF 		bl	disk_read
 4761 03dc 0028     		cmp	r0, #0
 4762 03de 00F08F81 		beq	.L1435
 4763 03e2 4FF0FF33 		mov	r3, #-1
 4764 03e6 C6F82C32 		str	r3, [r6, #556]
 4765 03ea 0120     		movs	r0, #1
 4766 03ec 3AE6     		b	.L1327
 4767              	.L1426:
 4768 03ee 4FF0020E 		mov	lr, #2
ARM GAS  /tmp/ccFKl8QX.s 			page 84


 4769 03f2 0121     		movs	r1, #1
 4770 03f4 B4E7     		b	.L1272
 4771              	.L1433:
 4772 03f6 D7F83630 		ldr	r3, [r7, #54]	@ unaligned
 4773 03fa D84A     		ldr	r2, .L1445
 4774 03fc 23F07F43 		bic	r3, r3, #-16777216
 4775 0400 9342     		cmp	r3, r2
 4776 0402 00F0FB81 		beq	.L1302
 4777 0406 D7F85230 		ldr	r3, [r7, #82]	@ unaligned
 4778 040a 23F07F43 		bic	r3, r3, #-16777216
 4779 040e 9342     		cmp	r3, r2
 4780 0410 00F0F481 		beq	.L1302
 4781 0414 97F8C231 		ldrb	r3, [r7, #450]	@ zero_extendqisi2
 4782 0418 002B     		cmp	r3, #0
 4783 041a 00F05281 		beq	.L1303
 4784 041e D7F8C681 		ldr	r8, [r7, #454]	@ unaligned
 4785              	.L1212:
 4786 0422 97F8D231 		ldrb	r3, [r7, #466]	@ zero_extendqisi2
 4787 0426 0BB1     		cbz	r3, .L1213
 4788 0428 D7F8D631 		ldr	r3, [r7, #470]	@ unaligned
 4789              	.L1213:
 4790 042c 0393     		str	r3, [sp, #12]
 4791 042e 97F8E231 		ldrb	r3, [r7, #482]	@ zero_extendqisi2
 4792 0432 0BB1     		cbz	r3, .L1214
 4793 0434 D7F8E631 		ldr	r3, [r7, #486]	@ unaligned
 4794              	.L1214:
 4795 0438 0493     		str	r3, [sp, #16]
 4796 043a 97F8F231 		ldrb	r3, [r7, #498]	@ zero_extendqisi2
 4797 043e 0BB1     		cbz	r3, .L1215
 4798 0440 D7F8F631 		ldr	r3, [r7, #502]	@ unaligned
 4799              	.L1215:
 4800 0444 0593     		str	r3, [sp, #20]
 4801 0446 B8F1000F 		cmp	r8, #0
 4802 044a 40F0F480 		bne	.L1436
 4803              	.L1217:
 4804 044e DDF80C80 		ldr	r8, [sp, #12]
 4805 0452 B8F1000F 		cmp	r8, #0
 4806 0456 40F0D980 		bne	.L1437
 4807              	.L1225:
 4808 045a DDF81080 		ldr	r8, [sp, #16]
 4809 045e B8F1000F 		cmp	r8, #0
 4810 0462 40F01981 		bne	.L1438
 4811              	.L1231:
 4812 0466 DDF81480 		ldr	r8, [sp, #20]
 4813 046a B8F1000F 		cmp	r8, #0
 4814 046e 3FF461AF 		beq	.L1241
 4815 0472 4FF0FF39 		mov	r9, #-1
 4816 0476 0023     		movs	r3, #0
 4817 0478 C845     		cmp	r8, r9
 4818 047a 87F80432 		strb	r3, [r7, #516]
 4819 047e C7F82C92 		str	r9, [r7, #556]
 4820 0482 0BD0     		beq	.L1238
 4821 0484 0123     		movs	r3, #1
 4822 0486 4246     		mov	r2, r8
 4823 0488 3946     		mov	r1, r7
 4824 048a 97F80102 		ldrb	r0, [r7, #513]	@ zero_extendqisi2
 4825 048e FFF7FEFF 		bl	disk_read
ARM GAS  /tmp/ccFKl8QX.s 			page 85


 4826 0492 0028     		cmp	r0, #0
 4827 0494 7FF47CAE 		bne	.L1239
 4828 0498 C7F82C82 		str	r8, [r7, #556]
 4829              	.L1238:
 4830 049c 97F8FF21 		ldrb	r2, [r7, #511]	@ zero_extendqisi2
 4831 04a0 97F8FE31 		ldrb	r3, [r7, #510]	@ zero_extendqisi2
 4832 04a4 43EA0223 		orr	r3, r3, r2, lsl #8
 4833 04a8 4AF65522 		movw	r2, #43605
 4834 04ac 9342     		cmp	r3, r2
 4835 04ae 7FF441AF 		bne	.L1241
 4836 04b2 D7F83630 		ldr	r3, [r7, #54]	@ unaligned
 4837 04b6 A94A     		ldr	r2, .L1445
 4838 04b8 23F07F43 		bic	r3, r3, #-16777216
 4839 04bc 9342     		cmp	r3, r2
 4840 04be 06D0     		beq	.L1211
 4841 04c0 D7F85230 		ldr	r3, [r7, #82]	@ unaligned
 4842 04c4 23F07F43 		bic	r3, r3, #-16777216
 4843 04c8 9342     		cmp	r3, r2
 4844 04ca 7FF433AF 		bne	.L1241
 4845              	.L1211:
 4846 04ce 3A7B     		ldrb	r2, [r7, #12]	@ zero_extendqisi2
 4847 04d0 FB7A     		ldrb	r3, [r7, #11]	@ zero_extendqisi2
 4848 04d2 43EA0223 		orr	r3, r3, r2, lsl #8
 4849 04d6 B3F5007F 		cmp	r3, #512
 4850 04da 7FF42BAF 		bne	.L1241
 4851 04de FB7D     		ldrb	r3, [r7, #23]	@ zero_extendqisi2
 4852 04e0 387C     		ldrb	r0, [r7, #16]	@ zero_extendqisi2
 4853 04e2 BA7D     		ldrb	r2, [r7, #22]	@ zero_extendqisi2
 4854 04e4 87F80302 		strb	r0, [r7, #515]
 4855 04e8 52EA0322 		orrs	r2, r2, r3, lsl #8
 4856 04ec 00F1FF33 		add	r3, r0, #-1
 4857 04f0 08BF     		it	eq
 4858 04f2 7A6A     		ldreq	r2, [r7, #36]
 4859 04f4 C7F81822 		str	r2, [r7, #536]
 4860 04f8 012B     		cmp	r3, #1
 4861 04fa 3FF61BAF 		bhi	.L1241
 4862 04fe 97F80DC0 		ldrb	ip, [r7, #13]	@ zero_extendqisi2
 4863 0502 87F802C2 		strb	ip, [r7, #514]
 4864 0506 02FB00F0 		mul	r0, r2, r0
 4865 050a BCF1000F 		cmp	ip, #0
 4866 050e 3FF411AF 		beq	.L1241
 4867 0512 0CF1FF33 		add	r3, ip, #-1
 4868 0516 13EA0C0F 		tst	r3, ip
 4869 051a 7FF40BAF 		bne	.L1241
 4870 051e BB7C     		ldrb	r3, [r7, #18]	@ zero_extendqisi2
 4871 0520 97F81190 		ldrb	r9, [r7, #17]	@ zero_extendqisi2
 4872 0524 49EA0329 		orr	r9, r9, r3, lsl #8
 4873 0528 19F00F0F 		tst	r9, #15
 4874 052c A7F80892 		strh	r9, [r7, #520]	@ movhi
 4875 0530 7FF400AF 		bne	.L1241
 4876 0534 397D     		ldrb	r1, [r7, #20]	@ zero_extendqisi2
 4877 0536 FB7C     		ldrb	r3, [r7, #19]	@ zero_extendqisi2
 4878 0538 97F80FE0 		ldrb	lr, [r7, #15]	@ zero_extendqisi2
 4879 053c 53EA0123 		orrs	r3, r3, r1, lsl #8
 4880 0540 B97B     		ldrb	r1, [r7, #14]	@ zero_extendqisi2
 4881 0542 08BF     		it	eq
 4882 0544 3B6A     		ldreq	r3, [r7, #32]
ARM GAS  /tmp/ccFKl8QX.s 			page 86


 4883 0546 51EA0E21 		orrs	r1, r1, lr, lsl #8
 4884 054a 3FF4F3AE 		beq	.L1241
 4885 054e 01EB191E 		add	lr, r1, r9, lsr #4
 4886 0552 8644     		add	lr, lr, r0
 4887 0554 9E45     		cmp	lr, r3
 4888 0556 3FF6EDAE 		bhi	.L1241
 4889 055a A3EB0E03 		sub	r3, r3, lr
 4890 055e B3FBFCF3 		udiv	r3, r3, ip
 4891 0562 002B     		cmp	r3, #0
 4892 0564 3FF4E6AE 		beq	.L1241
 4893 0568 40F6F57C 		movw	ip, #4085
 4894 056c 6345     		cmp	r3, ip
 4895 056e 40F26B81 		bls	.L1244
 4896 0572 4FF6F57C 		movw	ip, #65525
 4897 0576 6345     		cmp	r3, ip
 4898 0578 40F24281 		bls	.L1439
 4899 057c 0233     		adds	r3, r3, #2
 4900 057e 4144     		add	r1, r1, r8
 4901 0580 0EEB0800 		add	r0, lr, r8
 4902 0584 C7F81432 		str	r3, [r7, #532]
 4903 0588 C7F82012 		str	r1, [r7, #544]
 4904 058c C7F82802 		str	r0, [r7, #552]
 4905 0590 C7F81C82 		str	r8, [r7, #540]
 4906 0594 B9F1000F 		cmp	r9, #0
 4907 0598 7FF4CCAE 		bne	.L1241
 4908 059c 9B00     		lsls	r3, r3, #2
 4909 059e 03F2FF13 		addw	r3, r3, #511
 4910 05a2 F96A     		ldr	r1, [r7, #44]
 4911 05a4 C7F82412 		str	r1, [r7, #548]
 4912 05a8 B2EB532F 		cmp	r2, r3, lsr #9
 4913 05ac FFF4C2AE 		bcc	.L1241
 4914 05b0 97F83120 		ldrb	r2, [r7, #49]	@ zero_extendqisi2
 4915 05b4 97F83030 		ldrb	r3, [r7, #48]	@ zero_extendqisi2
 4916 05b8 43EA0223 		orr	r3, r3, r2, lsl #8
 4917 05bc 8021     		movs	r1, #128
 4918 05be 4FF0FF32 		mov	r2, #-1
 4919 05c2 012B     		cmp	r3, #1
 4920 05c4 C7F81022 		str	r2, [r7, #528]
 4921 05c8 C7F80C22 		str	r2, [r7, #524]
 4922 05cc 87F80512 		strb	r1, [r7, #517]
 4923 05d0 00F0E780 		beq	.L1440
 4924              	.L1395:
 4925 05d4 0322     		movs	r2, #3
 4926              	.L1248:
 4927 05d6 6249     		ldr	r1, .L1445+4
 4928 05d8 DFF88881 		ldr	r8, .L1445+8
 4929 05dc 0B88     		ldrh	r3, [r1]
 4930 05de 87F80022 		strb	r2, [r7, #512]
 4931 05e2 D8F80020 		ldr	r2, [r8]
 4932 05e6 0133     		adds	r3, r3, #1
 4933 05e8 9BB2     		uxth	r3, r3
 4934 05ea 9742     		cmp	r7, r2
 4935 05ec 0B80     		strh	r3, [r1]	@ movhi
 4936 05ee A7F80632 		strh	r3, [r7, #518]	@ movhi
 4937 05f2 04BF     		itt	eq
 4938 05f4 0023     		moveq	r3, #0
 4939 05f6 C8F80030 		streq	r3, [r8]
ARM GAS  /tmp/ccFKl8QX.s 			page 87


 4940 05fa D8F80C30 		ldr	r3, [r8, #12]
 4941 05fe 9F42     		cmp	r7, r3
 4942 0600 7FF448AD 		bne	.L1252
 4943 0604 0023     		movs	r3, #0
 4944 0606 C8F80C30 		str	r3, [r8, #12]
 4945 060a 43E5     		b	.L1252
 4946              	.L1437:
 4947 060c 4FF0FF39 		mov	r9, #-1
 4948 0610 0023     		movs	r3, #0
 4949 0612 C845     		cmp	r8, r9
 4950 0614 87F80432 		strb	r3, [r7, #516]
 4951 0618 C7F82C92 		str	r9, [r7, #556]
 4952 061c 55D0     		beq	.L1229
 4953 061e 0123     		movs	r3, #1
 4954 0620 4246     		mov	r2, r8
 4955 0622 3946     		mov	r1, r7
 4956 0624 97F80102 		ldrb	r0, [r7, #513]	@ zero_extendqisi2
 4957 0628 FFF7FEFF 		bl	disk_read
 4958 062c 0028     		cmp	r0, #0
 4959 062e 4AD0     		beq	.L1228
 4960 0630 C7F82C92 		str	r9, [r7, #556]
 4961 0634 11E7     		b	.L1225
 4962              	.L1436:
 4963 0636 4FF0FF39 		mov	r9, #-1
 4964 063a 0023     		movs	r3, #0
 4965 063c C845     		cmp	r8, r9
 4966 063e 87F80432 		strb	r3, [r7, #516]
 4967 0642 C7F82C92 		str	r9, [r7, #556]
 4968 0646 14D0     		beq	.L1223
 4969 0648 0123     		movs	r3, #1
 4970 064a 4246     		mov	r2, r8
 4971 064c 3946     		mov	r1, r7
 4972 064e 97F80102 		ldrb	r0, [r7, #513]	@ zero_extendqisi2
 4973 0652 FFF7FEFF 		bl	disk_read
 4974 0656 E0B9     		cbnz	r0, .L1441
 4975 0658 97F8FF21 		ldrb	r2, [r7, #511]	@ zero_extendqisi2
 4976 065c 97F8FE31 		ldrb	r3, [r7, #510]	@ zero_extendqisi2
 4977 0660 C7F82C82 		str	r8, [r7, #556]
 4978 0664 43EA0223 		orr	r3, r3, r2, lsl #8
 4979 0668 4AF65522 		movw	r2, #43605
 4980 066c 9342     		cmp	r3, r2
 4981 066e 7FF4EEAE 		bne	.L1217
 4982              	.L1223:
 4983 0672 D7F83630 		ldr	r3, [r7, #54]	@ unaligned
 4984 0676 394A     		ldr	r2, .L1445
 4985 0678 23F07F43 		bic	r3, r3, #-16777216
 4986 067c 9342     		cmp	r3, r2
 4987 067e 3FF426AF 		beq	.L1211
 4988 0682 D7F85230 		ldr	r3, [r7, #82]	@ unaligned
 4989 0686 23F07F43 		bic	r3, r3, #-16777216
 4990 068a 9342     		cmp	r3, r2
 4991 068c 7FF4DFAE 		bne	.L1217
 4992 0690 1DE7     		b	.L1211
 4993              	.L1441:
 4994 0692 C7F82C92 		str	r9, [r7, #556]
 4995 0696 DAE6     		b	.L1217
 4996              	.L1438:
ARM GAS  /tmp/ccFKl8QX.s 			page 88


 4997 0698 4FF0FF39 		mov	r9, #-1
 4998 069c 0023     		movs	r3, #0
 4999 069e C845     		cmp	r8, r9
 5000 06a0 87F80432 		strb	r3, [r7, #516]
 5001 06a4 C7F82C92 		str	r9, [r7, #556]
 5002 06a8 60D0     		beq	.L1235
 5003 06aa 0123     		movs	r3, #1
 5004 06ac 4246     		mov	r2, r8
 5005 06ae 3946     		mov	r1, r7
 5006 06b0 97F80102 		ldrb	r0, [r7, #513]	@ zero_extendqisi2
 5007 06b4 FFF7FEFF 		bl	disk_read
 5008 06b8 0028     		cmp	r0, #0
 5009 06ba 55D0     		beq	.L1234
 5010 06bc C7F82C92 		str	r9, [r7, #556]
 5011 06c0 D1E6     		b	.L1231
 5012              	.L1303:
 5013 06c2 9846     		mov	r8, r3
 5014 06c4 ADE6     		b	.L1212
 5015              	.L1228:
 5016 06c6 C7F82C82 		str	r8, [r7, #556]
 5017              	.L1229:
 5018 06ca 97F8FF21 		ldrb	r2, [r7, #511]	@ zero_extendqisi2
 5019 06ce 97F8FE31 		ldrb	r3, [r7, #510]	@ zero_extendqisi2
 5020 06d2 43EA0223 		orr	r3, r3, r2, lsl #8
 5021 06d6 4AF65522 		movw	r2, #43605
 5022 06da 9342     		cmp	r3, r2
 5023 06dc 7FF4BDAE 		bne	.L1225
 5024 06e0 D7F83630 		ldr	r3, [r7, #54]	@ unaligned
 5025 06e4 1D4A     		ldr	r2, .L1445
 5026 06e6 23F07F43 		bic	r3, r3, #-16777216
 5027 06ea 9342     		cmp	r3, r2
 5028 06ec 3FF4EFAE 		beq	.L1211
 5029 06f0 D7F85230 		ldr	r3, [r7, #82]	@ unaligned
 5030 06f4 23F07F43 		bic	r3, r3, #-16777216
 5031 06f8 9342     		cmp	r3, r2
 5032 06fa 7FF4AEAE 		bne	.L1225
 5033 06fe E6E6     		b	.L1211
 5034              	.L1435:
 5035 0700 C6F82CA2 		str	r10, [r6, #556]
 5036 0704 C8E5     		b	.L1268
 5037              	.L1434:
 5038 0706 4B46     		mov	r3, r9
 5039 0708 5A46     		mov	r2, fp
 5040 070a 3146     		mov	r1, r6
 5041 070c 96F80102 		ldrb	r0, [r6, #513]	@ zero_extendqisi2
 5042 0710 FFF7FEFF 		bl	disk_write
 5043 0714 0028     		cmp	r0, #0
 5044 0716 7FF43DAD 		bne	.L1399
 5045 071a D6F82022 		ldr	r2, [r6, #544]
 5046 071e D6F81832 		ldr	r3, [r6, #536]
 5047 0722 86F80402 		strb	r0, [r6, #516]
 5048 0726 ABEB0202 		sub	r2, fp, r2
 5049 072a 9A42     		cmp	r2, r3
 5050 072c BFF44FAE 		bcs	.L1264
 5051 0730 96F80392 		ldrb	r9, [r6, #515]	@ zero_extendqisi2
 5052 0734 B9F1010F 		cmp	r9, #1
 5053 0738 02D8     		bhi	.L1265
ARM GAS  /tmp/ccFKl8QX.s 			page 89


 5054 073a 48E6     		b	.L1264
 5055              	.L1442:
 5056 073c D6F81832 		ldr	r3, [r6, #536]
 5057              	.L1265:
 5058 0740 96F80102 		ldrb	r0, [r6, #513]	@ zero_extendqisi2
 5059 0744 9B44     		add	fp, fp, r3
 5060 0746 09F1FF39 		add	r9, r9, #-1
 5061 074a 5A46     		mov	r2, fp
 5062 074c 0123     		movs	r3, #1
 5063 074e 3146     		mov	r1, r6
 5064 0750 FFF7FEFF 		bl	disk_write
 5065 0754 B9F1010F 		cmp	r9, #1
 5066 0758 F0D1     		bne	.L1442
 5067 075a 38E6     		b	.L1264
 5068              	.L1446:
 5069              		.align	2
 5070              	.L1445:
 5071 075c 46415400 		.word	5521734
 5072 0760 00000000 		.word	.LANCHOR1
 5073 0764 00000000 		.word	.LANCHOR2
 5074              	.L1234:
 5075 0768 C7F82C82 		str	r8, [r7, #556]
 5076              	.L1235:
 5077 076c 97F8FF21 		ldrb	r2, [r7, #511]	@ zero_extendqisi2
 5078 0770 97F8FE31 		ldrb	r3, [r7, #510]	@ zero_extendqisi2
 5079 0774 43EA0223 		orr	r3, r3, r2, lsl #8
 5080 0778 4AF65522 		movw	r2, #43605
 5081 077c 9342     		cmp	r3, r2
 5082 077e 7FF472AE 		bne	.L1231
 5083 0782 D7F83630 		ldr	r3, [r7, #54]	@ unaligned
 5084 0786 454A     		ldr	r2, .L1447
 5085 0788 23F07F43 		bic	r3, r3, #-16777216
 5086 078c 9342     		cmp	r3, r2
 5087 078e 3FF49EAE 		beq	.L1211
 5088 0792 D7F85230 		ldr	r3, [r7, #82]	@ unaligned
 5089 0796 23F07F43 		bic	r3, r3, #-16777216
 5090 079a 9342     		cmp	r3, r2
 5091 079c 7FF463AE 		bne	.L1231
 5092 07a0 95E6     		b	.L1211
 5093              	.L1440:
 5094 07a2 08F10101 		add	r1, r8, #1
 5095 07a6 3846     		mov	r0, r7
 5096 07a8 FFF7FEFF 		bl	move_window
 5097 07ac 0028     		cmp	r0, #0
 5098 07ae 7FF411AF 		bne	.L1395
 5099 07b2 97F8FF21 		ldrb	r2, [r7, #511]	@ zero_extendqisi2
 5100 07b6 97F8FE31 		ldrb	r3, [r7, #510]	@ zero_extendqisi2
 5101 07ba 87F80592 		strb	r9, [r7, #517]
 5102 07be 43EA0223 		orr	r3, r3, r2, lsl #8
 5103 07c2 4AF65522 		movw	r2, #43605
 5104 07c6 9342     		cmp	r3, r2
 5105 07c8 7FF404AF 		bne	.L1395
 5106 07cc 344B     		ldr	r3, .L1447+4
 5107 07ce 3A68     		ldr	r2, [r7]
 5108 07d0 9A42     		cmp	r2, r3
 5109 07d2 7FF4FFAE 		bne	.L1395
 5110 07d6 03F1FF53 		add	r3, r3, #534773760
ARM GAS  /tmp/ccFKl8QX.s 			page 90


 5111 07da 03F50053 		add	r3, r3, #8192
 5112 07de D7F8E421 		ldr	r2, [r7, #484]
 5113 07e2 2033     		adds	r3, r3, #32
 5114 07e4 9A42     		cmp	r2, r3
 5115 07e6 7FF4F5AE 		bne	.L1395
 5116 07ea D7F8E821 		ldr	r2, [r7, #488]
 5117 07ee D7F8EC31 		ldr	r3, [r7, #492]
 5118 07f2 C7F81022 		str	r2, [r7, #528]
 5119 07f6 C7F80C32 		str	r3, [r7, #524]
 5120 07fa EBE6     		b	.L1395
 5121              	.L1302:
 5122 07fc 8046     		mov	r8, r0
 5123 07fe 66E6     		b	.L1211
 5124              	.L1439:
 5125 0800 0233     		adds	r3, r3, #2
 5126 0802 4144     		add	r1, r1, r8
 5127 0804 C644     		add	lr, lr, r8
 5128 0806 C7F81432 		str	r3, [r7, #532]
 5129 080a C7F82012 		str	r1, [r7, #544]
 5130 080e C7F828E2 		str	lr, [r7, #552]
 5131 0812 C7F81C82 		str	r8, [r7, #540]
 5132 0816 B9F1000F 		cmp	r9, #0
 5133 081a 3FF48BAD 		beq	.L1241
 5134 081e 5B00     		lsls	r3, r3, #1
 5135 0820 03F2FF13 		addw	r3, r3, #511
 5136 0824 0144     		add	r1, r1, r0
 5137 0826 B2EB532F 		cmp	r2, r3, lsr #9
 5138 082a C7F82412 		str	r1, [r7, #548]
 5139 082e FFF481AD 		bcc	.L1241
 5140 0832 4FF0FF33 		mov	r3, #-1
 5141 0836 8022     		movs	r2, #128
 5142 0838 87F80522 		strb	r2, [r7, #517]
 5143 083c C7F81032 		str	r3, [r7, #528]
 5144 0840 C7F80C32 		str	r3, [r7, #524]
 5145 0844 0222     		movs	r2, #2
 5146 0846 C6E6     		b	.L1248
 5147              	.L1244:
 5148 0848 0233     		adds	r3, r3, #2
 5149 084a 4144     		add	r1, r1, r8
 5150 084c C644     		add	lr, lr, r8
 5151 084e C7F81432 		str	r3, [r7, #532]
 5152 0852 C7F82012 		str	r1, [r7, #544]
 5153 0856 C7F828E2 		str	lr, [r7, #552]
 5154 085a C7F81C82 		str	r8, [r7, #540]
 5155 085e B9F1000F 		cmp	r9, #0
 5156 0862 3FF467AD 		beq	.L1241
 5157 0866 03F0010E 		and	lr, r3, #1
 5158 086a 0EF2FF1E 		addw	lr, lr, #511
 5159 086e 03EB4303 		add	r3, r3, r3, lsl #1
 5160 0872 0EEB5303 		add	r3, lr, r3, lsr #1
 5161 0876 0144     		add	r1, r1, r0
 5162 0878 B2EB532F 		cmp	r2, r3, lsr #9
 5163 087c C7F82412 		str	r1, [r7, #548]
 5164 0880 FFF458AD 		bcc	.L1241
 5165 0884 4FF0FF33 		mov	r3, #-1
 5166 0888 8022     		movs	r2, #128
 5167 088a 87F80522 		strb	r2, [r7, #517]
ARM GAS  /tmp/ccFKl8QX.s 			page 91


 5168 088e C7F81032 		str	r3, [r7, #528]
 5169 0892 C7F80C32 		str	r3, [r7, #524]
 5170 0896 0122     		movs	r2, #1
 5171 0898 9DE6     		b	.L1248
 5172              	.L1448:
 5173 089a 00BF     		.align	2
 5174              	.L1447:
 5175 089c 46415400 		.word	5521734
 5176 08a0 52526141 		.word	1096897106
 5178              		.section	.text.f_read,"ax",%progbits
 5179              		.align	1
 5180              		.p2align 2,,3
 5181              		.global	f_read
 5182              		.syntax unified
 5183              		.thumb
 5184              		.thumb_func
 5185              		.fpu fpv4-sp-d16
 5187              	f_read:
 5188              		@ args = 0, pretend = 0, frame = 16
 5189              		@ frame_needed = 0, uses_anonymous_args = 0
 5190 0000 70B5     		push	{r4, r5, r6, lr}
 5191 0002 0024     		movs	r4, #0
 5192 0004 84B0     		sub	sp, sp, #16
 5193 0006 1C60     		str	r4, [r3]
 5194 0008 28B1     		cbz	r0, .L1452
 5195 000a D0F80052 		ldr	r5, [r0, #512]
 5196 000e 15B1     		cbz	r5, .L1452
 5197 0010 95F80042 		ldrb	r4, [r5, #512]	@ zero_extendqisi2
 5198 0014 14B9     		cbnz	r4, .L1468
 5199              	.L1452:
 5200 0016 0920     		movs	r0, #9
 5201              	.L1463:
 5202 0018 04B0     		add	sp, sp, #16
 5203              		@ sp needed
 5204 001a 70BD     		pop	{r4, r5, r6, pc}
 5205              	.L1468:
 5206 001c B5F80662 		ldrh	r6, [r5, #518]
 5207 0020 B0F80442 		ldrh	r4, [r0, #516]
 5208 0024 A642     		cmp	r6, r4
 5209 0026 F6D1     		bne	.L1452
 5210 0028 0446     		mov	r4, r0
 5211 002a 95F80102 		ldrb	r0, [r5, #513]	@ zero_extendqisi2
 5212 002e 0392     		str	r2, [sp, #12]
 5213 0030 0291     		str	r1, [sp, #8]
 5214 0032 0193     		str	r3, [sp, #4]
 5215 0034 FFF7FEFF 		bl	disk_status
 5216 0038 10F0010F 		tst	r0, #1
 5217 003c 019B     		ldr	r3, [sp, #4]
 5218 003e 0299     		ldr	r1, [sp, #8]
 5219 0040 039A     		ldr	r2, [sp, #12]
 5220 0042 E8D1     		bne	.L1452
 5221 0044 94F80702 		ldrb	r0, [r4, #519]	@ zero_extendqisi2
 5222 0048 0028     		cmp	r0, #0
 5223 004a E5D1     		bne	.L1463
 5224 004c 94F80602 		ldrb	r0, [r4, #518]	@ zero_extendqisi2
 5225 0050 C007     		lsls	r0, r0, #31
 5226 0052 02D4     		bmi	.L1469
ARM GAS  /tmp/ccFKl8QX.s 			page 92


 5227 0054 0720     		movs	r0, #7
 5228 0056 04B0     		add	sp, sp, #16
 5229              		@ sp needed
 5230 0058 70BD     		pop	{r4, r5, r6, pc}
 5231              	.L1469:
 5232 005a 2046     		mov	r0, r4
 5233 005c 04B0     		add	sp, sp, #16
 5234              		@ sp needed
 5235 005e BDE87040 		pop	{r4, r5, r6, lr}
 5236 0062 FFF7FEBF 		b	f_read.part.11
 5238 0066 00BF     		.section	.text.f_write,"ax",%progbits
 5239              		.align	1
 5240              		.p2align 2,,3
 5241              		.global	f_write
 5242              		.syntax unified
 5243              		.thumb
 5244              		.thumb_func
 5245              		.fpu fpv4-sp-d16
 5247              	f_write:
 5248              		@ args = 0, pretend = 0, frame = 16
 5249              		@ frame_needed = 0, uses_anonymous_args = 0
 5250 0000 70B5     		push	{r4, r5, r6, lr}
 5251 0002 0024     		movs	r4, #0
 5252 0004 84B0     		sub	sp, sp, #16
 5253 0006 1C60     		str	r4, [r3]
 5254 0008 28B1     		cbz	r0, .L1473
 5255 000a D0F80052 		ldr	r5, [r0, #512]
 5256 000e 15B1     		cbz	r5, .L1473
 5257 0010 95F80042 		ldrb	r4, [r5, #512]	@ zero_extendqisi2
 5258 0014 14B9     		cbnz	r4, .L1489
 5259              	.L1473:
 5260 0016 0920     		movs	r0, #9
 5261              	.L1484:
 5262 0018 04B0     		add	sp, sp, #16
 5263              		@ sp needed
 5264 001a 70BD     		pop	{r4, r5, r6, pc}
 5265              	.L1489:
 5266 001c B5F80662 		ldrh	r6, [r5, #518]
 5267 0020 B0F80442 		ldrh	r4, [r0, #516]
 5268 0024 A642     		cmp	r6, r4
 5269 0026 F6D1     		bne	.L1473
 5270 0028 0446     		mov	r4, r0
 5271 002a 95F80102 		ldrb	r0, [r5, #513]	@ zero_extendqisi2
 5272 002e 0392     		str	r2, [sp, #12]
 5273 0030 0291     		str	r1, [sp, #8]
 5274 0032 0193     		str	r3, [sp, #4]
 5275 0034 FFF7FEFF 		bl	disk_status
 5276 0038 10F0010F 		tst	r0, #1
 5277 003c 019B     		ldr	r3, [sp, #4]
 5278 003e 0299     		ldr	r1, [sp, #8]
 5279 0040 039A     		ldr	r2, [sp, #12]
 5280 0042 E8D1     		bne	.L1473
 5281 0044 94F80702 		ldrb	r0, [r4, #519]	@ zero_extendqisi2
 5282 0048 0028     		cmp	r0, #0
 5283 004a E5D1     		bne	.L1484
 5284 004c 94F80602 		ldrb	r0, [r4, #518]	@ zero_extendqisi2
 5285 0050 8007     		lsls	r0, r0, #30
ARM GAS  /tmp/ccFKl8QX.s 			page 93


 5286 0052 02D4     		bmi	.L1490
 5287 0054 0720     		movs	r0, #7
 5288 0056 04B0     		add	sp, sp, #16
 5289              		@ sp needed
 5290 0058 70BD     		pop	{r4, r5, r6, pc}
 5291              	.L1490:
 5292 005a 2046     		mov	r0, r4
 5293 005c 04B0     		add	sp, sp, #16
 5294              		@ sp needed
 5295 005e BDE87040 		pop	{r4, r5, r6, lr}
 5296 0062 FFF7FEBF 		b	f_write.part.12
 5298 0066 00BF     		.section	.text.f_sync,"ax",%progbits
 5299              		.align	1
 5300              		.p2align 2,,3
 5301              		.global	f_sync
 5302              		.syntax unified
 5303              		.thumb
 5304              		.thumb_func
 5305              		.fpu fpv4-sp-d16
 5307              	f_sync:
 5308              		@ args = 0, pretend = 0, frame = 0
 5309              		@ frame_needed = 0, uses_anonymous_args = 0
 5310 0000 28B1     		cbz	r0, .L1521
 5311 0002 D0F80032 		ldr	r3, [r0, #512]
 5312 0006 13B1     		cbz	r3, .L1521
 5313 0008 93F80022 		ldrb	r2, [r3, #512]	@ zero_extendqisi2
 5314 000c 0AB9     		cbnz	r2, .L1526
 5315              	.L1521:
 5316 000e 0920     		movs	r0, #9
 5317 0010 7047     		bx	lr
 5318              	.L1526:
 5319 0012 B3F80612 		ldrh	r1, [r3, #518]
 5320 0016 B0F80422 		ldrh	r2, [r0, #516]
 5321 001a 9142     		cmp	r1, r2
 5322 001c F7D1     		bne	.L1521
 5323 001e 2DE9F041 		push	{r4, r5, r6, r7, r8, lr}
 5324 0022 0446     		mov	r4, r0
 5325 0024 93F80102 		ldrb	r0, [r3, #513]	@ zero_extendqisi2
 5326 0028 FFF7FEFF 		bl	disk_status
 5327 002c C207     		lsls	r2, r0, #31
 5328 002e 02D5     		bpl	.L1527
 5329 0030 0920     		movs	r0, #9
 5330 0032 BDE8F081 		pop	{r4, r5, r6, r7, r8, pc}
 5331              	.L1527:
 5332 0036 94F80632 		ldrb	r3, [r4, #518]	@ zero_extendqisi2
 5333 003a 13F02000 		ands	r0, r3, #32
 5334 003e 2DD0     		beq	.L1528
 5335 0040 5B06     		lsls	r3, r3, #25
 5336 0042 10D5     		bpl	.L1496
 5337 0044 D4F80032 		ldr	r3, [r4, #512]
 5338 0048 D4F81822 		ldr	r2, [r4, #536]
 5339 004c 93F80102 		ldrb	r0, [r3, #513]	@ zero_extendqisi2
 5340 0050 2146     		mov	r1, r4
 5341 0052 0123     		movs	r3, #1
 5342 0054 FFF7FEFF 		bl	disk_write
 5343 0058 E8B9     		cbnz	r0, .L1524
 5344 005a 94F80632 		ldrb	r3, [r4, #518]	@ zero_extendqisi2
ARM GAS  /tmp/ccFKl8QX.s 			page 94


 5345 005e 23F04003 		bic	r3, r3, #64
 5346 0062 84F80632 		strb	r3, [r4, #518]
 5347              	.L1496:
 5348 0066 D4F80052 		ldr	r5, [r4, #512]
 5349 006a D4F81C72 		ldr	r7, [r4, #540]
 5350 006e D5F82C62 		ldr	r6, [r5, #556]
 5351 0072 B742     		cmp	r7, r6
 5352 0074 16D0     		beq	.L1498
 5353 0076 95F80432 		ldrb	r3, [r5, #516]	@ zero_extendqisi2
 5354 007a 002B     		cmp	r3, #0
 5355 007c 4CD1     		bne	.L1529
 5356              	.L1501:
 5357 007e 0123     		movs	r3, #1
 5358 0080 3A46     		mov	r2, r7
 5359 0082 2946     		mov	r1, r5
 5360 0084 95F80102 		ldrb	r0, [r5, #513]	@ zero_extendqisi2
 5361 0088 FFF7FEFF 		bl	disk_read
 5362 008c 40B1     		cbz	r0, .L1530
 5363 008e 4FF0FF33 		mov	r3, #-1
 5364 0092 C5F82C32 		str	r3, [r5, #556]
 5365              	.L1524:
 5366 0096 0120     		movs	r0, #1
 5367 0098 BDE8F081 		pop	{r4, r5, r6, r7, r8, pc}
 5368              	.L1528:
 5369 009c BDE8F081 		pop	{r4, r5, r6, r7, r8, pc}
 5370              	.L1530:
 5371 00a0 C5F82C72 		str	r7, [r5, #556]
 5372              	.L1498:
 5373 00a4 D4F82052 		ldr	r5, [r4, #544]
 5374 00a8 EB7A     		ldrb	r3, [r5, #11]	@ zero_extendqisi2
 5375 00aa 43F02003 		orr	r3, r3, #32
 5376 00ae EB72     		strb	r3, [r5, #11]
 5377 00b0 D4F80C32 		ldr	r3, [r4, #524]
 5378 00b4 2B77     		strb	r3, [r5, #28]
 5379 00b6 B4F80C32 		ldrh	r3, [r4, #524]
 5380 00ba 1B0A     		lsrs	r3, r3, #8
 5381 00bc 6B77     		strb	r3, [r5, #29]
 5382 00be B4F80E32 		ldrh	r3, [r4, #526]
 5383 00c2 AB77     		strb	r3, [r5, #30]
 5384 00c4 94F80F32 		ldrb	r3, [r4, #527]	@ zero_extendqisi2
 5385 00c8 EB77     		strb	r3, [r5, #31]
 5386 00ca D4F81032 		ldr	r3, [r4, #528]
 5387 00ce AB76     		strb	r3, [r5, #26]
 5388 00d0 1A0C     		lsrs	r2, r3, #16
 5389 00d2 110A     		lsrs	r1, r2, #8
 5390 00d4 C3F30723 		ubfx	r3, r3, #8, #8
 5391 00d8 EB76     		strb	r3, [r5, #27]
 5392 00da 2A75     		strb	r2, [r5, #20]
 5393 00dc 6975     		strb	r1, [r5, #21]
 5394 00de FFF7FEFF 		bl	get_fattime
 5395 00e2 0023     		movs	r3, #0
 5396 00e4 C0F30726 		ubfx	r6, r0, #8, #8
 5397 00e8 010C     		lsrs	r1, r0, #16
 5398 00ea 020E     		lsrs	r2, r0, #24
 5399 00ec A875     		strb	r0, [r5, #22]
 5400 00ee 2976     		strb	r1, [r5, #24]
 5401 00f0 EE75     		strb	r6, [r5, #23]
ARM GAS  /tmp/ccFKl8QX.s 			page 95


 5402 00f2 6A76     		strb	r2, [r5, #25]
 5403 00f4 AB74     		strb	r3, [r5, #18]
 5404 00f6 EB74     		strb	r3, [r5, #19]
 5405 00f8 94F80632 		ldrb	r3, [r4, #518]	@ zero_extendqisi2
 5406 00fc D4F80022 		ldr	r2, [r4, #512]
 5407 0100 23F02003 		bic	r3, r3, #32
 5408 0104 0121     		movs	r1, #1
 5409 0106 84F80632 		strb	r3, [r4, #518]
 5410 010a 82F80412 		strb	r1, [r2, #516]
 5411 010e 1046     		mov	r0, r2
 5412 0110 BDE8F041 		pop	{r4, r5, r6, r7, r8, lr}
 5413 0114 FFF7FEBF 		b	sync_fs
 5414              	.L1529:
 5415 0118 0123     		movs	r3, #1
 5416 011a 3246     		mov	r2, r6
 5417 011c 2946     		mov	r1, r5
 5418 011e 95F80102 		ldrb	r0, [r5, #513]	@ zero_extendqisi2
 5419 0122 FFF7FEFF 		bl	disk_write
 5420 0126 0028     		cmp	r0, #0
 5421 0128 B5D1     		bne	.L1524
 5422 012a D5F82022 		ldr	r2, [r5, #544]
 5423 012e D5F81832 		ldr	r3, [r5, #536]
 5424 0132 85F80402 		strb	r0, [r5, #516]
 5425 0136 B21A     		subs	r2, r6, r2
 5426 0138 9A42     		cmp	r2, r3
 5427 013a A0D2     		bcs	.L1501
 5428 013c 95F80382 		ldrb	r8, [r5, #515]	@ zero_extendqisi2
 5429 0140 B8F1010F 		cmp	r8, #1
 5430 0144 02D8     		bhi	.L1502
 5431 0146 9AE7     		b	.L1501
 5432              	.L1531:
 5433 0148 D5F81832 		ldr	r3, [r5, #536]
 5434              	.L1502:
 5435 014c 95F80102 		ldrb	r0, [r5, #513]	@ zero_extendqisi2
 5436 0150 1E44     		add	r6, r6, r3
 5437 0152 08F1FF38 		add	r8, r8, #-1
 5438 0156 3246     		mov	r2, r6
 5439 0158 0123     		movs	r3, #1
 5440 015a 2946     		mov	r1, r5
 5441 015c FFF7FEFF 		bl	disk_write
 5442 0160 B8F1010F 		cmp	r8, #1
 5443 0164 F0D1     		bne	.L1531
 5444 0166 8AE7     		b	.L1501
 5446              		.section	.text.f_close,"ax",%progbits
 5447              		.align	1
 5448              		.p2align 2,,3
 5449              		.global	f_close
 5450              		.syntax unified
 5451              		.thumb
 5452              		.thumb_func
 5453              		.fpu fpv4-sp-d16
 5455              	f_close:
 5456              		@ args = 0, pretend = 0, frame = 0
 5457              		@ frame_needed = 0, uses_anonymous_args = 0
 5458 0000 28B1     		cbz	r0, .L1579
 5459 0002 D0F80032 		ldr	r3, [r0, #512]
 5460 0006 13B1     		cbz	r3, .L1579
ARM GAS  /tmp/ccFKl8QX.s 			page 96


 5461 0008 93F80022 		ldrb	r2, [r3, #512]	@ zero_extendqisi2
 5462 000c 0AB9     		cbnz	r2, .L1586
 5463              	.L1579:
 5464 000e 0920     		movs	r0, #9
 5465 0010 7047     		bx	lr
 5466              	.L1586:
 5467 0012 B3F80612 		ldrh	r1, [r3, #518]
 5468 0016 B0F80422 		ldrh	r2, [r0, #516]
 5469 001a 9142     		cmp	r1, r2
 5470 001c F7D1     		bne	.L1579
 5471 001e 2DE9F041 		push	{r4, r5, r6, r7, r8, lr}
 5472 0022 0446     		mov	r4, r0
 5473 0024 93F80102 		ldrb	r0, [r3, #513]	@ zero_extendqisi2
 5474 0028 FFF7FEFF 		bl	disk_status
 5475 002c C507     		lsls	r5, r0, #31
 5476 002e 02D5     		bpl	.L1587
 5477              	.L1533:
 5478 0030 0920     		movs	r0, #9
 5479 0032 BDE8F081 		pop	{r4, r5, r6, r7, r8, pc}
 5480              	.L1587:
 5481 0036 94F80632 		ldrb	r3, [r4, #518]	@ zero_extendqisi2
 5482 003a 9A06     		lsls	r2, r3, #26
 5483 003c 2DD5     		bpl	.L1547
 5484 003e 5806     		lsls	r0, r3, #25
 5485 0040 10D5     		bpl	.L1535
 5486 0042 D4F80032 		ldr	r3, [r4, #512]
 5487 0046 D4F81822 		ldr	r2, [r4, #536]
 5488 004a 93F80102 		ldrb	r0, [r3, #513]	@ zero_extendqisi2
 5489 004e 2146     		mov	r1, r4
 5490 0050 0123     		movs	r3, #1
 5491 0052 FFF7FEFF 		bl	disk_write
 5492 0056 E8B9     		cbnz	r0, .L1582
 5493 0058 94F80632 		ldrb	r3, [r4, #518]	@ zero_extendqisi2
 5494 005c 23F04003 		bic	r3, r3, #64
 5495 0060 84F80632 		strb	r3, [r4, #518]
 5496              	.L1535:
 5497 0064 D4F80052 		ldr	r5, [r4, #512]
 5498 0068 D4F81C72 		ldr	r7, [r4, #540]
 5499 006c D5F82C62 		ldr	r6, [r5, #556]
 5500 0070 B742     		cmp	r7, r6
 5501 0072 30D0     		beq	.L1538
 5502 0074 95F80432 		ldrb	r3, [r5, #516]	@ zero_extendqisi2
 5503 0078 002B     		cmp	r3, #0
 5504 007a 68D1     		bne	.L1588
 5505              	.L1541:
 5506 007c 0123     		movs	r3, #1
 5507 007e 3A46     		mov	r2, r7
 5508 0080 2946     		mov	r1, r5
 5509 0082 95F80102 		ldrb	r0, [r5, #513]	@ zero_extendqisi2
 5510 0086 FFF7FEFF 		bl	disk_read
 5511 008a 10B3     		cbz	r0, .L1589
 5512 008c 4FF0FF33 		mov	r3, #-1
 5513 0090 C5F82C32 		str	r3, [r5, #556]
 5514              	.L1582:
 5515 0094 0120     		movs	r0, #1
 5516 0096 BDE8F081 		pop	{r4, r5, r6, r7, r8, pc}
 5517              	.L1547:
ARM GAS  /tmp/ccFKl8QX.s 			page 97


 5518 009a D4F80032 		ldr	r3, [r4, #512]
 5519 009e 002B     		cmp	r3, #0
 5520 00a0 C6D0     		beq	.L1533
 5521 00a2 93F80022 		ldrb	r2, [r3, #512]	@ zero_extendqisi2
 5522 00a6 002A     		cmp	r2, #0
 5523 00a8 C2D0     		beq	.L1533
 5524 00aa B3F80612 		ldrh	r1, [r3, #518]
 5525 00ae B4F80422 		ldrh	r2, [r4, #516]
 5526 00b2 9142     		cmp	r1, r2
 5527 00b4 BCD1     		bne	.L1533
 5528 00b6 93F80102 		ldrb	r0, [r3, #513]	@ zero_extendqisi2
 5529 00ba FFF7FEFF 		bl	disk_status
 5530 00be C107     		lsls	r1, r0, #31
 5531 00c0 B6D4     		bmi	.L1533
 5532 00c2 D4F82832 		ldr	r3, [r4, #552]
 5533 00c6 013B     		subs	r3, r3, #1
 5534 00c8 012B     		cmp	r3, #1
 5535 00ca 68D9     		bls	.L1550
 5536 00cc 0220     		movs	r0, #2
 5537 00ce BDE8F081 		pop	{r4, r5, r6, r7, r8, pc}
 5538              	.L1589:
 5539 00d2 C5F82C72 		str	r7, [r5, #556]
 5540              	.L1538:
 5541 00d6 D4F82052 		ldr	r5, [r4, #544]
 5542 00da EB7A     		ldrb	r3, [r5, #11]	@ zero_extendqisi2
 5543 00dc 43F02003 		orr	r3, r3, #32
 5544 00e0 EB72     		strb	r3, [r5, #11]
 5545 00e2 D4F80C32 		ldr	r3, [r4, #524]
 5546 00e6 2B77     		strb	r3, [r5, #28]
 5547 00e8 B4F80C32 		ldrh	r3, [r4, #524]
 5548 00ec 1B0A     		lsrs	r3, r3, #8
 5549 00ee 6B77     		strb	r3, [r5, #29]
 5550 00f0 B4F80E32 		ldrh	r3, [r4, #526]
 5551 00f4 AB77     		strb	r3, [r5, #30]
 5552 00f6 94F80F32 		ldrb	r3, [r4, #527]	@ zero_extendqisi2
 5553 00fa EB77     		strb	r3, [r5, #31]
 5554 00fc D4F81032 		ldr	r3, [r4, #528]
 5555 0100 AB76     		strb	r3, [r5, #26]
 5556 0102 1A0C     		lsrs	r2, r3, #16
 5557 0104 110A     		lsrs	r1, r2, #8
 5558 0106 C3F30723 		ubfx	r3, r3, #8, #8
 5559 010a EB76     		strb	r3, [r5, #27]
 5560 010c 2A75     		strb	r2, [r5, #20]
 5561 010e 6975     		strb	r1, [r5, #21]
 5562 0110 FFF7FEFF 		bl	get_fattime
 5563 0114 0023     		movs	r3, #0
 5564 0116 010C     		lsrs	r1, r0, #16
 5565 0118 020E     		lsrs	r2, r0, #24
 5566 011a C0F30726 		ubfx	r6, r0, #8, #8
 5567 011e A875     		strb	r0, [r5, #22]
 5568 0120 2976     		strb	r1, [r5, #24]
 5569 0122 EE75     		strb	r6, [r5, #23]
 5570 0124 6A76     		strb	r2, [r5, #25]
 5571 0126 AB74     		strb	r3, [r5, #18]
 5572 0128 EB74     		strb	r3, [r5, #19]
 5573 012a 94F80632 		ldrb	r3, [r4, #518]	@ zero_extendqisi2
 5574 012e D4F80022 		ldr	r2, [r4, #512]
ARM GAS  /tmp/ccFKl8QX.s 			page 98


 5575 0132 23F02003 		bic	r3, r3, #32
 5576 0136 0121     		movs	r1, #1
 5577 0138 84F80632 		strb	r3, [r4, #518]
 5578 013c 1046     		mov	r0, r2
 5579 013e 82F80412 		strb	r1, [r2, #516]
 5580 0142 FFF7FEFF 		bl	sync_fs
 5581 0146 0028     		cmp	r0, #0
 5582 0148 A7D0     		beq	.L1547
 5583 014a BDE8F081 		pop	{r4, r5, r6, r7, r8, pc}
 5584              	.L1588:
 5585 014e 0123     		movs	r3, #1
 5586 0150 3246     		mov	r2, r6
 5587 0152 2946     		mov	r1, r5
 5588 0154 95F80102 		ldrb	r0, [r5, #513]	@ zero_extendqisi2
 5589 0158 FFF7FEFF 		bl	disk_write
 5590 015c 0028     		cmp	r0, #0
 5591 015e 99D1     		bne	.L1582
 5592 0160 D5F82022 		ldr	r2, [r5, #544]
 5593 0164 D5F81832 		ldr	r3, [r5, #536]
 5594 0168 85F80402 		strb	r0, [r5, #516]
 5595 016c B21A     		subs	r2, r6, r2
 5596 016e 9A42     		cmp	r2, r3
 5597 0170 84D2     		bcs	.L1541
 5598 0172 95F80382 		ldrb	r8, [r5, #515]	@ zero_extendqisi2
 5599 0176 B8F1010F 		cmp	r8, #1
 5600 017a 02D8     		bhi	.L1542
 5601 017c 7EE7     		b	.L1541
 5602              	.L1590:
 5603 017e D5F81832 		ldr	r3, [r5, #536]
 5604              	.L1542:
 5605 0182 95F80102 		ldrb	r0, [r5, #513]	@ zero_extendqisi2
 5606 0186 1E44     		add	r6, r6, r3
 5607 0188 08F1FF38 		add	r8, r8, #-1
 5608 018c 3246     		mov	r2, r6
 5609 018e 0123     		movs	r3, #1
 5610 0190 2946     		mov	r1, r5
 5611 0192 FFF7FEFF 		bl	disk_write
 5612 0196 B8F1010F 		cmp	r8, #1
 5613 019a F0D1     		bne	.L1590
 5614 019c 6EE7     		b	.L1541
 5615              	.L1550:
 5616 019e 5D00     		lsls	r5, r3, #1
 5617 01a0 0B4E     		ldr	r6, .L1591
 5618 01a2 EA18     		adds	r2, r5, r3
 5619 01a4 06EB8202 		add	r2, r6, r2, lsl #2
 5620 01a8 5189     		ldrh	r1, [r2, #10]
 5621 01aa 21F48070 		bic	r0, r1, #256
 5622 01ae 80B2     		uxth	r0, r0
 5623 01b0 40B1     		cbz	r0, .L1544
 5624 01b2 0139     		subs	r1, r1, #1
 5625 01b4 89B2     		uxth	r1, r1
 5626 01b6 5181     		strh	r1, [r2, #10]	@ movhi
 5627 01b8 29B1     		cbz	r1, .L1551
 5628              	.L1545:
 5629 01ba 0020     		movs	r0, #0
 5630 01bc C4F80002 		str	r0, [r4, #512]
 5631 01c0 BDE8F081 		pop	{r4, r5, r6, r7, r8, pc}
ARM GAS  /tmp/ccFKl8QX.s 			page 99


 5632              	.L1544:
 5633 01c4 5081     		strh	r0, [r2, #10]	@ movhi
 5634              	.L1551:
 5635 01c6 2B44     		add	r3, r3, r5
 5636 01c8 9B00     		lsls	r3, r3, #2
 5637 01ca 0022     		movs	r2, #0
 5638 01cc F250     		str	r2, [r6, r3]
 5639 01ce F4E7     		b	.L1545
 5640              	.L1592:
 5641              		.align	2
 5642              	.L1591:
 5643 01d0 00000000 		.word	.LANCHOR2
 5645              		.section	.text.f_lseek,"ax",%progbits
 5646              		.align	1
 5647              		.p2align 2,,3
 5648              		.global	f_lseek
 5649              		.syntax unified
 5650              		.thumb
 5651              		.thumb_func
 5652              		.fpu fpv4-sp-d16
 5654              	f_lseek:
 5655              		@ args = 0, pretend = 0, frame = 0
 5656              		@ frame_needed = 0, uses_anonymous_args = 0
 5657 0000 58B1     		cbz	r0, .L1689
 5658 0002 D0F80032 		ldr	r3, [r0, #512]
 5659 0006 2DE9F047 		push	{r4, r5, r6, r7, r8, r9, r10, lr}
 5660 000a 0446     		mov	r4, r0
 5661 000c 13B1     		cbz	r3, .L1596
 5662 000e 93F80022 		ldrb	r2, [r3, #512]	@ zero_extendqisi2
 5663 0012 22B9     		cbnz	r2, .L1690
 5664              	.L1596:
 5665 0014 0920     		movs	r0, #9
 5666 0016 BDE8F087 		pop	{r4, r5, r6, r7, r8, r9, r10, pc}
 5667              	.L1689:
 5668 001a 0920     		movs	r0, #9
 5669 001c 7047     		bx	lr
 5670              	.L1690:
 5671 001e 0D46     		mov	r5, r1
 5672 0020 B0F80422 		ldrh	r2, [r0, #516]
 5673 0024 B3F80612 		ldrh	r1, [r3, #518]
 5674 0028 9142     		cmp	r1, r2
 5675 002a F3D1     		bne	.L1596
 5676 002c 93F80102 		ldrb	r0, [r3, #513]	@ zero_extendqisi2
 5677 0030 FFF7FEFF 		bl	disk_status
 5678 0034 C007     		lsls	r0, r0, #31
 5679 0036 EDD4     		bmi	.L1596
 5680 0038 94F80702 		ldrb	r0, [r4, #519]	@ zero_extendqisi2
 5681 003c 0028     		cmp	r0, #0
 5682 003e 67D1     		bne	.L1691
 5683 0040 D4F82402 		ldr	r0, [r4, #548]
 5684 0044 0028     		cmp	r0, #0
 5685 0046 65D0     		beq	.L1598
 5686 0048 691C     		adds	r1, r5, #1
 5687 004a 00F0FA80 		beq	.L1692
 5688 004e D4F80C32 		ldr	r3, [r4, #524]
 5689 0052 9D42     		cmp	r5, r3
 5690 0054 28BF     		it	cs
ARM GAS  /tmp/ccFKl8QX.s 			page 100


 5691 0056 1D46     		movcs	r5, r3
 5692 0058 C4F80852 		str	r5, [r4, #520]
 5693 005c 002D     		cmp	r5, #0
 5694 005e 00F0BF80 		beq	.L1685
 5695 0062 D4F80012 		ldr	r1, [r4, #512]
 5696 0066 4368     		ldr	r3, [r0, #4]
 5697 0068 91F80272 		ldrb	r7, [r1, #514]	@ zero_extendqisi2
 5698 006c 6E1E     		subs	r6, r5, #1
 5699 006e 760A     		lsrs	r6, r6, #9
 5700 0070 0430     		adds	r0, r0, #4
 5701 0072 B6FBF7F2 		udiv	r2, r6, r7
 5702 0076 53B1     		cbz	r3, .L1640
 5703 0078 9A42     		cmp	r2, r3
 5704 007a 03D2     		bcs	.L1614
 5705 007c 0AE1     		b	.L1612
 5706              	.L1678:
 5707 007e 9342     		cmp	r3, r2
 5708 0080 00F20881 		bhi	.L1612
 5709              	.L1614:
 5710 0084 D21A     		subs	r2, r2, r3
 5711 0086 50F8083F 		ldr	r3, [r0, #8]!
 5712 008a 002B     		cmp	r3, #0
 5713 008c F7D1     		bne	.L1678
 5714              	.L1640:
 5715 008e 6FF00100 		mvn	r0, #1
 5716              	.L1611:
 5717 0092 D1F81422 		ldr	r2, [r1, #532]
 5718 0096 C4F81432 		str	r3, [r4, #532]
 5719 009a 931E     		subs	r3, r2, #2
 5720 009c 8342     		cmp	r3, r0
 5721 009e 40F2CB80 		bls	.L1602
 5722 00a2 D1F82832 		ldr	r3, [r1, #552]
 5723 00a6 00FB0730 		mla	r0, r0, r7, r3
 5724 00aa 0028     		cmp	r0, #0
 5725 00ac 00F0C480 		beq	.L1602
 5726 00b0 C5F30805 		ubfx	r5, r5, #0, #9
 5727 00b4 002D     		cmp	r5, #0
 5728 00b6 00F09380 		beq	.L1685
 5729 00ba 7D1E     		subs	r5, r7, #1
 5730 00bc 3540     		ands	r5, r5, r6
 5731 00be D4F81822 		ldr	r2, [r4, #536]
 5732 00c2 0544     		add	r5, r5, r0
 5733 00c4 9542     		cmp	r5, r2
 5734 00c6 00F08B80 		beq	.L1685
 5735 00ca 94F80632 		ldrb	r3, [r4, #518]	@ zero_extendqisi2
 5736 00ce 5E06     		lsls	r6, r3, #25
 5737 00d0 10D5     		bpl	.L1618
 5738 00d2 91F80102 		ldrb	r0, [r1, #513]	@ zero_extendqisi2
 5739 00d6 0123     		movs	r3, #1
 5740 00d8 2146     		mov	r1, r4
 5741 00da FFF7FEFF 		bl	disk_write
 5742 00de 0028     		cmp	r0, #0
 5743 00e0 40F0DC80 		bne	.L1619
 5744 00e4 94F80632 		ldrb	r3, [r4, #518]	@ zero_extendqisi2
 5745 00e8 D4F80012 		ldr	r1, [r4, #512]
 5746 00ec 23F04003 		bic	r3, r3, #64
 5747 00f0 84F80632 		strb	r3, [r4, #518]
ARM GAS  /tmp/ccFKl8QX.s 			page 101


 5748              	.L1618:
 5749 00f4 91F80102 		ldrb	r0, [r1, #513]	@ zero_extendqisi2
 5750 00f8 0123     		movs	r3, #1
 5751 00fa 2A46     		mov	r2, r5
 5752 00fc 2146     		mov	r1, r4
 5753 00fe FFF7FEFF 		bl	disk_read
 5754 0102 0028     		cmp	r0, #0
 5755 0104 40F0CA80 		bne	.L1619
 5756 0108 C4F81852 		str	r5, [r4, #536]
 5757 010c BDE8F087 		pop	{r4, r5, r6, r7, r8, r9, r10, pc}
 5758              	.L1691:
 5759 0110 BDE8F087 		pop	{r4, r5, r6, r7, r8, r9, r10, pc}
 5760              	.L1598:
 5761 0114 D4F80C32 		ldr	r3, [r4, #524]
 5762 0118 9D42     		cmp	r5, r3
 5763 011a 05D9     		bls	.L1620
 5764 011c 94F80622 		ldrb	r2, [r4, #518]	@ zero_extendqisi2
 5765 0120 12F0020F 		tst	r2, #2
 5766 0124 08BF     		it	eq
 5767 0126 1D46     		moveq	r5, r3
 5768              	.L1620:
 5769 0128 0022     		movs	r2, #0
 5770 012a D4F80832 		ldr	r3, [r4, #520]
 5771 012e C4F80822 		str	r2, [r4, #520]
 5772 0132 002D     		cmp	r5, #0
 5773 0134 54D0     		beq	.L1685
 5774 0136 D4F80002 		ldr	r0, [r4, #512]
 5775 013a 90F80262 		ldrb	r6, [r0, #514]	@ zero_extendqisi2
 5776 013e 7602     		lsls	r6, r6, #9
 5777 0140 002B     		cmp	r3, #0
 5778 0142 00F0B780 		beq	.L1621
 5779 0146 013B     		subs	r3, r3, #1
 5780 0148 6A1E     		subs	r2, r5, #1
 5781 014a B3FBF6F1 		udiv	r1, r3, r6
 5782 014e B2FBF6F2 		udiv	r2, r2, r6
 5783 0152 8A42     		cmp	r2, r1
 5784 0154 C0F0AE80 		bcc	.L1621
 5785 0158 7242     		negs	r2, r6
 5786 015a 1340     		ands	r3, r3, r2
 5787 015c D4F81472 		ldr	r7, [r4, #532]
 5788 0160 C4F80832 		str	r3, [r4, #520]
 5789 0164 ED1A     		subs	r5, r5, r3
 5790              	.L1622:
 5791 0166 002F     		cmp	r7, #0
 5792 0168 3DD1     		bne	.L1624
 5793 016a D4F80832 		ldr	r3, [r4, #520]
 5794              	.L1625:
 5795 016e C3F30802 		ubfx	r2, r3, #0, #9
 5796 0172 002A     		cmp	r2, #0
 5797 0174 00F0EC80 		beq	.L1684
 5798 0178 D4F81822 		ldr	r2, [r4, #536]
 5799 017c 9742     		cmp	r7, r2
 5800 017e 00F0E780 		beq	.L1684
 5801 0182 94F80632 		ldrb	r3, [r4, #518]	@ zero_extendqisi2
 5802 0186 5B06     		lsls	r3, r3, #25
 5803 0188 0FD5     		bpl	.L1635
 5804 018a D4F80032 		ldr	r3, [r4, #512]
ARM GAS  /tmp/ccFKl8QX.s 			page 102


 5805 018e 2146     		mov	r1, r4
 5806 0190 93F80102 		ldrb	r0, [r3, #513]	@ zero_extendqisi2
 5807 0194 0123     		movs	r3, #1
 5808 0196 FFF7FEFF 		bl	disk_write
 5809 019a 0028     		cmp	r0, #0
 5810 019c 7ED1     		bne	.L1619
 5811 019e 94F80632 		ldrb	r3, [r4, #518]	@ zero_extendqisi2
 5812 01a2 23F04003 		bic	r3, r3, #64
 5813 01a6 84F80632 		strb	r3, [r4, #518]
 5814              	.L1635:
 5815 01aa D4F80022 		ldr	r2, [r4, #512]
 5816 01ae 0123     		movs	r3, #1
 5817 01b0 92F80102 		ldrb	r0, [r2, #513]	@ zero_extendqisi2
 5818 01b4 2146     		mov	r1, r4
 5819 01b6 3A46     		mov	r2, r7
 5820 01b8 FFF7FEFF 		bl	disk_read
 5821 01bc 0028     		cmp	r0, #0
 5822 01be 6DD1     		bne	.L1619
 5823 01c0 D4F80832 		ldr	r3, [r4, #520]
 5824 01c4 D4F80C22 		ldr	r2, [r4, #524]
 5825 01c8 C4F81872 		str	r7, [r4, #536]
 5826              	.L1632:
 5827 01cc 9342     		cmp	r3, r2
 5828 01ce 07D9     		bls	.L1685
 5829 01d0 94F80622 		ldrb	r2, [r4, #518]	@ zero_extendqisi2
 5830 01d4 C4F80C32 		str	r3, [r4, #524]
 5831 01d8 42F02003 		orr	r3, r2, #32
 5832 01dc 84F80632 		strb	r3, [r4, #518]
 5833              	.L1685:
 5834 01e0 0020     		movs	r0, #0
 5835 01e2 BDE8F087 		pop	{r4, r5, r6, r7, r8, r9, r10, pc}
 5836              	.L1624:
 5837 01e6 B542     		cmp	r5, r6
 5838 01e8 40F28B80 		bls	.L1683
 5839 01ec D4F80002 		ldr	r0, [r4, #512]
 5840 01f0 16E0     		b	.L1630
 5841              	.L1694:
 5842 01f2 3946     		mov	r1, r7
 5843 01f4 FFF7FEFF 		bl	get_fat.part.6
 5844 01f8 0746     		mov	r7, r0
 5845              	.L1629:
 5846 01fa 7A1C     		adds	r2, r7, #1
 5847 01fc 4ED0     		beq	.L1619
 5848 01fe 012F     		cmp	r7, #1
 5849 0200 1AD9     		bls	.L1602
 5850 0202 D4F80002 		ldr	r0, [r4, #512]
 5851 0206 D0F81432 		ldr	r3, [r0, #532]
 5852 020a 9F42     		cmp	r7, r3
 5853 020c 14D2     		bcs	.L1602
 5854 020e D4F80832 		ldr	r3, [r4, #520]
 5855 0212 C4F81472 		str	r7, [r4, #532]
 5856 0216 3344     		add	r3, r3, r6
 5857 0218 AE42     		cmp	r6, r5
 5858 021a C4F80832 		str	r3, [r4, #520]
 5859 021e 72D2     		bcs	.L1627
 5860              	.L1630:
 5861 0220 94F80632 		ldrb	r3, [r4, #518]	@ zero_extendqisi2
ARM GAS  /tmp/ccFKl8QX.s 			page 103


 5862 0224 9907     		lsls	r1, r3, #30
 5863 0226 A5EB0605 		sub	r5, r5, r6
 5864 022a 62D4     		bmi	.L1693
 5865 022c 012F     		cmp	r7, #1
 5866 022e 03D9     		bls	.L1602
 5867 0230 D0F81432 		ldr	r3, [r0, #532]
 5868 0234 9F42     		cmp	r7, r3
 5869 0236 DCD3     		bcc	.L1694
 5870              	.L1602:
 5871 0238 0220     		movs	r0, #2
 5872 023a 84F80702 		strb	r0, [r4, #519]
 5873 023e BDE8F087 		pop	{r4, r5, r6, r7, r8, r9, r10, pc}
 5874              	.L1692:
 5875 0242 D4F81062 		ldr	r6, [r4, #528]
 5876 0246 D0F80090 		ldr	r9, [r0]
 5877 024a 00F10408 		add	r8, r0, #4
 5878 024e 56B3     		cbz	r6, .L1637
 5879 0250 D4F80002 		ldr	r0, [r4, #512]
 5880 0254 0227     		movs	r7, #2
 5881              	.L1609:
 5882 0256 3546     		mov	r5, r6
 5883 0258 4FF0000A 		mov	r10, #0
 5884 025c 0DE0     		b	.L1607
 5885              	.L1695:
 5886 025e 2946     		mov	r1, r5
 5887 0260 FFF7FEFF 		bl	get_fat.part.6
 5888 0264 0128     		cmp	r0, #1
 5889 0266 0346     		mov	r3, r0
 5890 0268 05F10105 		add	r5, r5, #1
 5891 026c E4D9     		bls	.L1602
 5892 026e 421C     		adds	r2, r0, #1
 5893 0270 14D0     		beq	.L1619
 5894 0272 8542     		cmp	r5, r0
 5895 0274 25D1     		bne	.L1606
 5896 0276 D4F80002 		ldr	r0, [r4, #512]
 5897              	.L1607:
 5898 027a 012D     		cmp	r5, #1
 5899 027c 0AF1010A 		add	r10, r10, #1
 5900 0280 DAD9     		bls	.L1602
 5901 0282 D0F81432 		ldr	r3, [r0, #532]
 5902 0286 9D42     		cmp	r5, r3
 5903 0288 E9D3     		bcc	.L1695
 5904 028a 0220     		movs	r0, #2
 5905 028c 84F80702 		strb	r0, [r4, #519]
 5906 0290 BDE8F087 		pop	{r4, r5, r6, r7, r8, r9, r10, pc}
 5907              	.L1612:
 5908 0294 4368     		ldr	r3, [r0, #4]
 5909 0296 1344     		add	r3, r3, r2
 5910 0298 981E     		subs	r0, r3, #2
 5911 029a FAE6     		b	.L1611
 5912              	.L1619:
 5913 029c 0120     		movs	r0, #1
 5914 029e 84F80702 		strb	r0, [r4, #519]
 5915 02a2 BDE8F087 		pop	{r4, r5, r6, r7, r8, r9, r10, pc}
 5916              	.L1637:
 5917 02a6 0227     		movs	r7, #2
 5918              	.L1600:
ARM GAS  /tmp/ccFKl8QX.s 			page 104


 5919 02a8 4F45     		cmp	r7, r9
 5920 02aa 0760     		str	r7, [r0]
 5921 02ac 1CD9     		bls	.L1696
 5922 02ae 1120     		movs	r0, #17
 5923 02b0 BDE8F087 		pop	{r4, r5, r6, r7, r8, r9, r10, pc}
 5924              	.L1621:
 5925 02b4 D4F81072 		ldr	r7, [r4, #528]
 5926 02b8 002F     		cmp	r7, #0
 5927 02ba 3DD0     		beq	.L1697
 5928              	.L1623:
 5929 02bc C4F81472 		str	r7, [r4, #532]
 5930 02c0 51E7     		b	.L1622
 5931              	.L1606:
 5932 02c2 0237     		adds	r7, r7, #2
 5933 02c4 B945     		cmp	r9, r7
 5934 02c6 05D3     		bcc	.L1608
 5935 02c8 4246     		mov	r2, r8
 5936 02ca 42F808AB 		str	r10, [r2], #8
 5937 02ce C8F80460 		str	r6, [r8, #4]
 5938 02d2 9046     		mov	r8, r2
 5939              	.L1608:
 5940 02d4 D4F80002 		ldr	r0, [r4, #512]
 5941 02d8 D0F81422 		ldr	r2, [r0, #532]
 5942 02dc 9A42     		cmp	r2, r3
 5943 02de 1E46     		mov	r6, r3
 5944 02e0 B9D8     		bhi	.L1609
 5945 02e2 D4F82402 		ldr	r0, [r4, #548]
 5946 02e6 DFE7     		b	.L1600
 5947              	.L1696:
 5948 02e8 0020     		movs	r0, #0
 5949 02ea C8F80000 		str	r0, [r8]
 5950 02ee BDE8F087 		pop	{r4, r5, r6, r7, r8, r9, r10, pc}
 5951              	.L1693:
 5952 02f2 3946     		mov	r1, r7
 5953 02f4 FFF7FEFF 		bl	create_chain
 5954 02f8 0746     		mov	r7, r0
 5955 02fa 0028     		cmp	r0, #0
 5956 02fc 7FF47DAF 		bne	.L1629
 5957 0300 3546     		mov	r5, r6
 5958              	.L1683:
 5959 0302 D4F80832 		ldr	r3, [r4, #520]
 5960              	.L1627:
 5961 0306 2B44     		add	r3, r3, r5
 5962 0308 C5F30802 		ubfx	r2, r5, #0, #9
 5963 030c C4F80832 		str	r3, [r4, #520]
 5964 0310 0AB3     		cbz	r2, .L1641
 5965 0312 D4F80022 		ldr	r2, [r4, #512]
 5966 0316 D2F81412 		ldr	r1, [r2, #532]
 5967 031a B81E     		subs	r0, r7, #2
 5968 031c 0239     		subs	r1, r1, #2
 5969 031e 8842     		cmp	r0, r1
 5970 0320 8AD2     		bcs	.L1602
 5971 0322 92F80272 		ldrb	r7, [r2, #514]	@ zero_extendqisi2
 5972 0326 D2F82822 		ldr	r2, [r2, #552]
 5973 032a 00FB0727 		mla	r7, r0, r7, r2
 5974 032e 002F     		cmp	r7, #0
 5975 0330 82D0     		beq	.L1602
ARM GAS  /tmp/ccFKl8QX.s 			page 105


 5976 0332 07EB5527 		add	r7, r7, r5, lsr #9
 5977 0336 1AE7     		b	.L1625
 5978              	.L1697:
 5979 0338 3946     		mov	r1, r7
 5980 033a FFF7FEFF 		bl	create_chain
 5981 033e 0128     		cmp	r0, #1
 5982 0340 0746     		mov	r7, r0
 5983 0342 3FF479AF 		beq	.L1602
 5984 0346 0130     		adds	r0, r0, #1
 5985 0348 A8D0     		beq	.L1619
 5986 034a C4F81072 		str	r7, [r4, #528]
 5987 034e B5E7     		b	.L1623
 5988              	.L1684:
 5989 0350 D4F80C22 		ldr	r2, [r4, #524]
 5990 0354 3AE7     		b	.L1632
 5991              	.L1641:
 5992 0356 1746     		mov	r7, r2
 5993 0358 09E7     		b	.L1625
 5995 035a 00BF     		.section	.text.f_opendir,"ax",%progbits
 5996              		.align	1
 5997              		.p2align 2,,3
 5998              		.global	f_opendir
 5999              		.syntax unified
 6000              		.thumb
 6001              		.thumb_func
 6002              		.fpu fpv4-sp-d16
 6004              	f_opendir:
 6005              		@ args = 0, pretend = 0, frame = 16
 6006              		@ frame_needed = 0, uses_anonymous_args = 0
 6007 0000 0028     		cmp	r0, #0
 6008 0002 4DD0     		beq	.L1775
 6009 0004 2DE9F041 		push	{r4, r5, r6, r7, r8, lr}
 6010 0008 0C46     		mov	r4, r1
 6011 000a 84B0     		sub	sp, sp, #16
 6012 000c 0546     		mov	r5, r0
 6013 000e 0029     		cmp	r1, #0
 6014 0010 60D0     		beq	.L1700
 6015 0012 0978     		ldrb	r1, [r1]	@ zero_extendqisi2
 6016 0014 2029     		cmp	r1, #32
 6017 0016 0BD9     		bls	.L1701
 6018 0018 3A29     		cmp	r1, #58
 6019 001a 5BD0     		beq	.L1700
 6020 001c 2346     		mov	r3, r4
 6021 001e 02E0     		b	.L1702
 6022              	.L1849:
 6023 0020 3A2A     		cmp	r2, #58
 6024 0022 3FD0     		beq	.L1848
 6025 0024 0346     		mov	r3, r0
 6026              	.L1702:
 6027 0026 5A78     		ldrb	r2, [r3, #1]	@ zero_extendqisi2
 6028 0028 202A     		cmp	r2, #32
 6029 002a 03F10100 		add	r0, r3, #1
 6030 002e F7D8     		bhi	.L1849
 6031              	.L1701:
 6032 0030 574B     		ldr	r3, .L1864
 6033 0032 1E68     		ldr	r6, [r3]
 6034 0034 002E     		cmp	r6, #0
ARM GAS  /tmp/ccFKl8QX.s 			page 106


 6035 0036 53D0     		beq	.L1777
 6036 0038 96F80032 		ldrb	r3, [r6, #512]	@ zero_extendqisi2
 6037 003c 002B     		cmp	r3, #0
 6038 003e 38D0     		beq	.L1708
 6039 0040 96F80102 		ldrb	r0, [r6, #513]	@ zero_extendqisi2
 6040 0044 FFF7FEFF 		bl	disk_status
 6041 0048 C107     		lsls	r1, r0, #31
 6042 004a 32D4     		bmi	.L1708
 6043              	.L1753:
 6044 004c C5F80062 		str	r6, [r5, #512]
 6045 0050 2146     		mov	r1, r4
 6046 0052 C5F818D2 		str	sp, [r5, #536]
 6047 0056 2846     		mov	r0, r5
 6048 0058 FFF7FEFF 		bl	follow_path
 6049 005c 0028     		cmp	r0, #0
 6050 005e 3BD1     		bne	.L1767
 6051 0060 D5F81432 		ldr	r3, [r5, #532]
 6052 0064 63B1     		cbz	r3, .L1754
 6053 0066 DA7A     		ldrb	r2, [r3, #11]	@ zero_extendqisi2
 6054 0068 D206     		lsls	r2, r2, #27
 6055 006a 56D5     		bpl	.L1785
 6056 006c 96F80012 		ldrb	r1, [r6, #512]	@ zero_extendqisi2
 6057 0070 D87E     		ldrb	r0, [r3, #27]	@ zero_extendqisi2
 6058 0072 9A7E     		ldrb	r2, [r3, #26]	@ zero_extendqisi2
 6059 0074 0329     		cmp	r1, #3
 6060 0076 42EA0022 		orr	r2, r2, r0, lsl #8
 6061 007a 54D0     		beq	.L1850
 6062              	.L1756:
 6063 007c C5F80822 		str	r2, [r5, #520]
 6064              	.L1754:
 6065 0080 B6F80632 		ldrh	r3, [r6, #518]
 6066 0084 A5F80432 		strh	r3, [r5, #516]	@ movhi
 6067 0088 0021     		movs	r1, #0
 6068 008a 2846     		mov	r0, r5
 6069 008c FFF7FEFF 		bl	dir_sdi
 6070 0090 10BB     		cbnz	r0, .L1767
 6071 0092 D5F80842 		ldr	r4, [r5, #520]
 6072 0096 002C     		cmp	r4, #0
 6073 0098 4CD1     		bne	.L1851
 6074 009a C5F81C02 		str	r0, [r5, #540]
 6075 009e 16E0     		b	.L1824
 6076              	.L1775:
 6077 00a0 0920     		movs	r0, #9
 6078 00a2 7047     		bx	lr
 6079              	.L1848:
 6080 00a4 0134     		adds	r4, r4, #1
 6081 00a6 A042     		cmp	r0, r4
 6082 00a8 14D1     		bne	.L1700
 6083 00aa 3029     		cmp	r1, #48
 6084 00ac 12D1     		bne	.L1700
 6085 00ae 9C1C     		adds	r4, r3, #2
 6086 00b0 BEE7     		b	.L1701
 6087              	.L1708:
 6088 00b2 0020     		movs	r0, #0
 6089 00b4 86F80002 		strb	r0, [r6, #512]
 6090 00b8 86F80102 		strb	r0, [r6, #513]
 6091 00bc FFF7FEFF 		bl	disk_initialize
ARM GAS  /tmp/ccFKl8QX.s 			page 107


 6092 00c0 10F00102 		ands	r2, r0, #1
 6093 00c4 0ED0     		beq	.L1852
 6094 00c6 0320     		movs	r0, #3
 6095              	.L1755:
 6096 00c8 0023     		movs	r3, #0
 6097 00ca C5F80032 		str	r3, [r5, #512]
 6098              	.L1824:
 6099 00ce 04B0     		add	sp, sp, #16
 6100              		@ sp needed
 6101 00d0 BDE8F081 		pop	{r4, r5, r6, r7, r8, pc}
 6102              	.L1700:
 6103 00d4 0B20     		movs	r0, #11
 6104 00d6 F7E7     		b	.L1755
 6105              	.L1767:
 6106 00d8 0428     		cmp	r0, #4
 6107 00da 08BF     		it	eq
 6108 00dc 0520     		moveq	r0, #5
 6109 00de F3E7     		b	.L1755
 6110              	.L1777:
 6111 00e0 0C20     		movs	r0, #12
 6112 00e2 F1E7     		b	.L1755
 6113              	.L1852:
 6114 00e4 4FF0FF37 		mov	r7, #-1
 6115 00e8 86F80422 		strb	r2, [r6, #516]
 6116 00ec C6F82C72 		str	r7, [r6, #556]
 6117 00f0 0123     		movs	r3, #1
 6118 00f2 3146     		mov	r1, r6
 6119 00f4 96F80102 		ldrb	r0, [r6, #513]	@ zero_extendqisi2
 6120 00f8 FFF7FEFF 		bl	disk_read
 6121 00fc 78B9     		cbnz	r0, .L1709
 6122 00fe 96F8FF21 		ldrb	r2, [r6, #511]	@ zero_extendqisi2
 6123 0102 96F8FE31 		ldrb	r3, [r6, #510]	@ zero_extendqisi2
 6124 0106 C6F82C02 		str	r0, [r6, #556]
 6125 010a 43EA0223 		orr	r3, r3, r2, lsl #8
 6126 010e 4AF65522 		movw	r2, #43605
 6127 0112 9342     		cmp	r3, r2
 6128 0114 40D0     		beq	.L1853
 6129              	.L1741:
 6130 0116 0D20     		movs	r0, #13
 6131 0118 D6E7     		b	.L1755
 6132              	.L1785:
 6133 011a 0520     		movs	r0, #5
 6134 011c D4E7     		b	.L1755
 6135              	.L1709:
 6136 011e C6F82C72 		str	r7, [r6, #556]
 6137 0122 0120     		movs	r0, #1
 6138 0124 D0E7     		b	.L1755
 6139              	.L1850:
 6140 0126 597D     		ldrb	r1, [r3, #21]	@ zero_extendqisi2
 6141 0128 1B7D     		ldrb	r3, [r3, #20]	@ zero_extendqisi2
 6142 012a 43EA0123 		orr	r3, r3, r1, lsl #8
 6143 012e 42EA0342 		orr	r2, r2, r3, lsl #16
 6144 0132 A3E7     		b	.L1756
 6145              	.L1851:
 6146 0134 174B     		ldr	r3, .L1864+4
 6147 0136 D5F800E2 		ldr	lr, [r5, #512]
 6148 013a 1A68     		ldr	r2, [r3]
ARM GAS  /tmp/ccFKl8QX.s 			page 108


 6149 013c 7245     		cmp	r2, lr
 6150 013e 00F0D981 		beq	.L1854
 6151              	.L1758:
 6152 0142 D968     		ldr	r1, [r3, #12]
 6153 0144 7145     		cmp	r1, lr
 6154 0146 0BD0     		beq	.L1855
 6155              	.L1760:
 6156 0148 002A     		cmp	r2, #0
 6157 014a 00F0BE81 		beq	.L1761
 6158 014e 0122     		movs	r2, #1
 6159 0150 0029     		cmp	r1, #0
 6160 0152 00F0BA81 		beq	.L1761
 6161 0156 0023     		movs	r3, #0
 6162 0158 C5F81C32 		str	r3, [r5, #540]
 6163 015c 1220     		movs	r0, #18
 6164 015e B3E7     		b	.L1755
 6165              	.L1855:
 6166 0160 1E69     		ldr	r6, [r3, #16]
 6167 0162 B442     		cmp	r4, r6
 6168 0164 F0D1     		bne	.L1760
 6169 0166 9F8A     		ldrh	r7, [r3, #20]
 6170 0168 B5F80662 		ldrh	r6, [r5, #518]
 6171 016c B742     		cmp	r7, r6
 6172 016e EBD1     		bne	.L1760
 6173 0170 0122     		movs	r2, #1
 6174              	.L1759:
 6175 0172 0C24     		movs	r4, #12
 6176 0174 04FB0234 		mla	r4, r4, r2, r3
 6177 0178 5100     		lsls	r1, r2, #1
 6178 017a 6489     		ldrh	r4, [r4, #10]
 6179 017c 0134     		adds	r4, r4, #1
 6180 017e A4B2     		uxth	r4, r4
 6181              	.L1769:
 6182 0180 1144     		add	r1, r1, r2
 6183 0182 03EB8103 		add	r3, r3, r1, lsl #2
 6184 0186 0132     		adds	r2, r2, #1
 6185 0188 5C81     		strh	r4, [r3, #10]	@ movhi
 6186 018a C5F81C22 		str	r2, [r5, #540]
 6187 018e 9EE7     		b	.L1824
 6188              	.L1865:
 6189              		.align	2
 6190              	.L1864:
 6191 0190 00000000 		.word	.LANCHOR0
 6192 0194 00000000 		.word	.LANCHOR2
 6193              	.L1853:
 6194 0198 D6F83630 		ldr	r3, [r6, #54]	@ unaligned
 6195 019c D24A     		ldr	r2, .L1866
 6196 019e 23F07F43 		bic	r3, r3, #-16777216
 6197 01a2 9342     		cmp	r3, r2
 6198 01a4 00F08B81 		beq	.L1780
 6199 01a8 D6F85230 		ldr	r3, [r6, #82]	@ unaligned
 6200 01ac 23F07F43 		bic	r3, r3, #-16777216
 6201 01b0 9342     		cmp	r3, r2
 6202 01b2 00F08481 		beq	.L1780
 6203 01b6 96F8C271 		ldrb	r7, [r6, #450]	@ zero_extendqisi2
 6204 01ba 0FB1     		cbz	r7, .L1712
 6205 01bc D6F8C671 		ldr	r7, [r6, #454]	@ unaligned
ARM GAS  /tmp/ccFKl8QX.s 			page 109


 6206              	.L1712:
 6207 01c0 96F8D231 		ldrb	r3, [r6, #466]	@ zero_extendqisi2
 6208 01c4 0BB1     		cbz	r3, .L1713
 6209 01c6 D6F8D631 		ldr	r3, [r6, #470]	@ unaligned
 6210              	.L1713:
 6211 01ca 0193     		str	r3, [sp, #4]
 6212 01cc 96F8E231 		ldrb	r3, [r6, #482]	@ zero_extendqisi2
 6213 01d0 0BB1     		cbz	r3, .L1714
 6214 01d2 D6F8E631 		ldr	r3, [r6, #486]	@ unaligned
 6215              	.L1714:
 6216 01d6 0293     		str	r3, [sp, #8]
 6217 01d8 96F8F231 		ldrb	r3, [r6, #498]	@ zero_extendqisi2
 6218 01dc 0BB1     		cbz	r3, .L1715
 6219 01de D6F8F631 		ldr	r3, [r6, #502]	@ unaligned
 6220              	.L1715:
 6221 01e2 0393     		str	r3, [sp, #12]
 6222 01e4 002F     		cmp	r7, #0
 6223 01e6 40F0D580 		bne	.L1856
 6224              	.L1717:
 6225 01ea 019F     		ldr	r7, [sp, #4]
 6226 01ec 002F     		cmp	r7, #0
 6227 01ee 40F00081 		bne	.L1857
 6228              	.L1725:
 6229 01f2 029F     		ldr	r7, [sp, #8]
 6230 01f4 002F     		cmp	r7, #0
 6231 01f6 40F02B81 		bne	.L1858
 6232              	.L1731:
 6233 01fa 039F     		ldr	r7, [sp, #12]
 6234 01fc 002F     		cmp	r7, #0
 6235 01fe 8AD0     		beq	.L1741
 6236 0200 4FF0FF38 		mov	r8, #-1
 6237 0204 0023     		movs	r3, #0
 6238 0206 4745     		cmp	r7, r8
 6239 0208 86F80432 		strb	r3, [r6, #516]
 6240 020c C6F82C82 		str	r8, [r6, #556]
 6241 0210 0BD0     		beq	.L1738
 6242 0212 0123     		movs	r3, #1
 6243 0214 3A46     		mov	r2, r7
 6244 0216 3146     		mov	r1, r6
 6245 0218 96F80102 		ldrb	r0, [r6, #513]	@ zero_extendqisi2
 6246 021c FFF7FEFF 		bl	disk_read
 6247 0220 0028     		cmp	r0, #0
 6248 0222 40F04E81 		bne	.L1739
 6249 0226 C6F82C72 		str	r7, [r6, #556]
 6250              	.L1738:
 6251 022a 96F8FF11 		ldrb	r1, [r6, #511]	@ zero_extendqisi2
 6252 022e 96F8FE31 		ldrb	r3, [r6, #510]	@ zero_extendqisi2
 6253 0232 4AF65522 		movw	r2, #43605
 6254 0236 43EA0123 		orr	r3, r3, r1, lsl #8
 6255 023a 9342     		cmp	r3, r2
 6256 023c 7FF46BAF 		bne	.L1741
 6257 0240 D6F83630 		ldr	r3, [r6, #54]	@ unaligned
 6258 0244 A84A     		ldr	r2, .L1866
 6259 0246 23F07F43 		bic	r3, r3, #-16777216
 6260 024a 9342     		cmp	r3, r2
 6261 024c 06D0     		beq	.L1711
 6262 024e D6F85230 		ldr	r3, [r6, #82]	@ unaligned
ARM GAS  /tmp/ccFKl8QX.s 			page 110


 6263 0252 23F07F43 		bic	r3, r3, #-16777216
 6264 0256 9342     		cmp	r3, r2
 6265 0258 7FF45DAF 		bne	.L1741
 6266              	.L1711:
 6267 025c 327B     		ldrb	r2, [r6, #12]	@ zero_extendqisi2
 6268 025e F37A     		ldrb	r3, [r6, #11]	@ zero_extendqisi2
 6269 0260 43EA0223 		orr	r3, r3, r2, lsl #8
 6270 0264 B3F5007F 		cmp	r3, #512
 6271 0268 7FF455AF 		bne	.L1741
 6272 026c F27D     		ldrb	r2, [r6, #23]	@ zero_extendqisi2
 6273 026e B37D     		ldrb	r3, [r6, #22]	@ zero_extendqisi2
 6274 0270 317C     		ldrb	r1, [r6, #16]	@ zero_extendqisi2
 6275 0272 86F80312 		strb	r1, [r6, #515]
 6276 0276 53EA0223 		orrs	r3, r3, r2, lsl #8
 6277 027a 18BF     		it	ne
 6278 027c 1A46     		movne	r2, r3
 6279 027e 01F1FF33 		add	r3, r1, #-1
 6280 0282 08BF     		it	eq
 6281 0284 726A     		ldreq	r2, [r6, #36]
 6282 0286 C6F81822 		str	r2, [r6, #536]
 6283 028a 012B     		cmp	r3, #1
 6284 028c 3FF643AF 		bhi	.L1741
 6285 0290 96F80DC0 		ldrb	ip, [r6, #13]	@ zero_extendqisi2
 6286 0294 86F802C2 		strb	ip, [r6, #514]
 6287 0298 02FB01F1 		mul	r1, r2, r1
 6288 029c BCF1000F 		cmp	ip, #0
 6289 02a0 3FF439AF 		beq	.L1741
 6290 02a4 0CF1FF33 		add	r3, ip, #-1
 6291 02a8 13EA0C0F 		tst	r3, ip
 6292 02ac 7FF433AF 		bne	.L1741
 6293 02b0 B37C     		ldrb	r3, [r6, #18]	@ zero_extendqisi2
 6294 02b2 96F81180 		ldrb	r8, [r6, #17]	@ zero_extendqisi2
 6295 02b6 48EA0328 		orr	r8, r8, r3, lsl #8
 6296 02ba 18F00F0F 		tst	r8, #15
 6297 02be A6F80882 		strh	r8, [r6, #520]	@ movhi
 6298 02c2 7FF428AF 		bne	.L1741
 6299 02c6 307D     		ldrb	r0, [r6, #20]	@ zero_extendqisi2
 6300 02c8 F37C     		ldrb	r3, [r6, #19]	@ zero_extendqisi2
 6301 02ca 96F80FE0 		ldrb	lr, [r6, #15]	@ zero_extendqisi2
 6302 02ce 53EA0023 		orrs	r3, r3, r0, lsl #8
 6303 02d2 B07B     		ldrb	r0, [r6, #14]	@ zero_extendqisi2
 6304 02d4 08BF     		it	eq
 6305 02d6 336A     		ldreq	r3, [r6, #32]
 6306 02d8 50EA0E20 		orrs	r0, r0, lr, lsl #8
 6307 02dc 3FF41BAF 		beq	.L1741
 6308 02e0 00EB181E 		add	lr, r0, r8, lsr #4
 6309 02e4 8E44     		add	lr, lr, r1
 6310 02e6 9E45     		cmp	lr, r3
 6311 02e8 3FF615AF 		bhi	.L1741
 6312 02ec A3EB0E03 		sub	r3, r3, lr
 6313 02f0 B3FBFCF3 		udiv	r3, r3, ip
 6314 02f4 002B     		cmp	r3, #0
 6315 02f6 3FF40EAF 		beq	.L1741
 6316 02fa 40F6F57C 		movw	ip, #4085
 6317 02fe 6345     		cmp	r3, ip
 6318 0300 40F25481 		bls	.L1745
 6319 0304 4FF6F57C 		movw	ip, #65525
ARM GAS  /tmp/ccFKl8QX.s 			page 111


 6320 0308 6345     		cmp	r3, ip
 6321 030a 40F22B81 		bls	.L1859
 6322 030e 0233     		adds	r3, r3, #2
 6323 0310 3844     		add	r0, r0, r7
 6324 0312 0EEB0701 		add	r1, lr, r7
 6325 0316 C6F81432 		str	r3, [r6, #532]
 6326 031a C6F82002 		str	r0, [r6, #544]
 6327 031e C6F82812 		str	r1, [r6, #552]
 6328 0322 C6F81C72 		str	r7, [r6, #540]
 6329 0326 B8F1000F 		cmp	r8, #0
 6330 032a 7FF4F4AE 		bne	.L1741
 6331 032e 9B00     		lsls	r3, r3, #2
 6332 0330 03F2FF13 		addw	r3, r3, #511
 6333 0334 F16A     		ldr	r1, [r6, #44]
 6334 0336 C6F82412 		str	r1, [r6, #548]
 6335 033a B2EB532F 		cmp	r2, r3, lsr #9
 6336 033e FFF4EAAE 		bcc	.L1741
 6337 0342 96F83120 		ldrb	r2, [r6, #49]	@ zero_extendqisi2
 6338 0346 96F83030 		ldrb	r3, [r6, #48]	@ zero_extendqisi2
 6339 034a 43EA0223 		orr	r3, r3, r2, lsl #8
 6340 034e 8021     		movs	r1, #128
 6341 0350 4FF0FF32 		mov	r2, #-1
 6342 0354 012B     		cmp	r3, #1
 6343 0356 C6F81022 		str	r2, [r6, #528]
 6344 035a C6F80C22 		str	r2, [r6, #524]
 6345 035e 86F80512 		strb	r1, [r6, #517]
 6346 0362 00F0D380 		beq	.L1860
 6347              	.L1835:
 6348 0366 0320     		movs	r0, #3
 6349              	.L1749:
 6350 0368 604F     		ldr	r7, .L1866+4
 6351 036a 614B     		ldr	r3, .L1866+8
 6352 036c 3A88     		ldrh	r2, [r7]
 6353 036e 1968     		ldr	r1, [r3]
 6354 0370 86F80002 		strb	r0, [r6, #512]
 6355 0374 0132     		adds	r2, r2, #1
 6356 0376 92B2     		uxth	r2, r2
 6357 0378 8E42     		cmp	r6, r1
 6358 037a 3A80     		strh	r2, [r7]	@ movhi
 6359 037c A6F80622 		strh	r2, [r6, #518]	@ movhi
 6360 0380 04BF     		itt	eq
 6361 0382 0022     		moveq	r2, #0
 6362 0384 1A60     		streq	r2, [r3]
 6363 0386 DA68     		ldr	r2, [r3, #12]
 6364 0388 9642     		cmp	r6, r2
 6365 038a 7FF45FAE 		bne	.L1753
 6366 038e 0022     		movs	r2, #0
 6367 0390 DA60     		str	r2, [r3, #12]
 6368 0392 5BE6     		b	.L1753
 6369              	.L1856:
 6370 0394 4FF0FF38 		mov	r8, #-1
 6371 0398 0023     		movs	r3, #0
 6372 039a 4745     		cmp	r7, r8
 6373 039c 86F80432 		strb	r3, [r6, #516]
 6374 03a0 C6F82C82 		str	r8, [r6, #556]
 6375 03a4 15D0     		beq	.L1723
 6376 03a6 0123     		movs	r3, #1
ARM GAS  /tmp/ccFKl8QX.s 			page 112


 6377 03a8 3A46     		mov	r2, r7
 6378 03aa 3146     		mov	r1, r6
 6379 03ac 96F80102 		ldrb	r0, [r6, #513]	@ zero_extendqisi2
 6380 03b0 FFF7FEFF 		bl	disk_read
 6381 03b4 0028     		cmp	r0, #0
 6382 03b6 79D1     		bne	.L1861
 6383 03b8 96F8FF21 		ldrb	r2, [r6, #511]	@ zero_extendqisi2
 6384 03bc 96F8FE31 		ldrb	r3, [r6, #510]	@ zero_extendqisi2
 6385 03c0 C6F82C72 		str	r7, [r6, #556]
 6386 03c4 43EA0223 		orr	r3, r3, r2, lsl #8
 6387 03c8 4AF65522 		movw	r2, #43605
 6388 03cc 9342     		cmp	r3, r2
 6389 03ce 7FF40CAF 		bne	.L1717
 6390              	.L1723:
 6391 03d2 D6F83630 		ldr	r3, [r6, #54]	@ unaligned
 6392 03d6 444A     		ldr	r2, .L1866
 6393 03d8 23F07F43 		bic	r3, r3, #-16777216
 6394 03dc 9342     		cmp	r3, r2
 6395 03de 3FF43DAF 		beq	.L1711
 6396 03e2 D6F85230 		ldr	r3, [r6, #82]	@ unaligned
 6397 03e6 23F07F43 		bic	r3, r3, #-16777216
 6398 03ea 9342     		cmp	r3, r2
 6399 03ec 7FF4FDAE 		bne	.L1717
 6400 03f0 34E7     		b	.L1711
 6401              	.L1857:
 6402 03f2 4FF0FF38 		mov	r8, #-1
 6403 03f6 0023     		movs	r3, #0
 6404 03f8 4745     		cmp	r7, r8
 6405 03fa 86F80432 		strb	r3, [r6, #516]
 6406 03fe C6F82C82 		str	r8, [r6, #556]
 6407 0402 0AD0     		beq	.L1729
 6408 0404 0123     		movs	r3, #1
 6409 0406 3A46     		mov	r2, r7
 6410 0408 3146     		mov	r1, r6
 6411 040a 96F80102 		ldrb	r0, [r6, #513]	@ zero_extendqisi2
 6412 040e FFF7FEFF 		bl	disk_read
 6413 0412 0028     		cmp	r0, #0
 6414 0414 50D1     		bne	.L1862
 6415 0416 C6F82C72 		str	r7, [r6, #556]
 6416              	.L1729:
 6417 041a 96F8FF11 		ldrb	r1, [r6, #511]	@ zero_extendqisi2
 6418 041e 96F8FE31 		ldrb	r3, [r6, #510]	@ zero_extendqisi2
 6419 0422 4AF65522 		movw	r2, #43605
 6420 0426 43EA0123 		orr	r3, r3, r1, lsl #8
 6421 042a 9342     		cmp	r3, r2
 6422 042c 7FF4E1AE 		bne	.L1725
 6423 0430 D6F83630 		ldr	r3, [r6, #54]	@ unaligned
 6424 0434 2C4A     		ldr	r2, .L1866
 6425 0436 23F07F43 		bic	r3, r3, #-16777216
 6426 043a 9342     		cmp	r3, r2
 6427 043c 3FF40EAF 		beq	.L1711
 6428 0440 D6F85230 		ldr	r3, [r6, #82]	@ unaligned
 6429 0444 23F07F43 		bic	r3, r3, #-16777216
 6430 0448 9342     		cmp	r3, r2
 6431 044a 7FF4D2AE 		bne	.L1725
 6432 044e 05E7     		b	.L1711
 6433              	.L1858:
ARM GAS  /tmp/ccFKl8QX.s 			page 113


 6434 0450 4FF0FF38 		mov	r8, #-1
 6435 0454 0023     		movs	r3, #0
 6436 0456 4745     		cmp	r7, r8
 6437 0458 86F80432 		strb	r3, [r6, #516]
 6438 045c C6F82C82 		str	r8, [r6, #556]
 6439 0460 09D0     		beq	.L1735
 6440 0462 0123     		movs	r3, #1
 6441 0464 3A46     		mov	r2, r7
 6442 0466 3146     		mov	r1, r6
 6443 0468 96F80102 		ldrb	r0, [r6, #513]	@ zero_extendqisi2
 6444 046c FFF7FEFF 		bl	disk_read
 6445 0470 F8B9     		cbnz	r0, .L1863
 6446 0472 C6F82C72 		str	r7, [r6, #556]
 6447              	.L1735:
 6448 0476 96F8FF11 		ldrb	r1, [r6, #511]	@ zero_extendqisi2
 6449 047a 96F8FE31 		ldrb	r3, [r6, #510]	@ zero_extendqisi2
 6450 047e 4AF65522 		movw	r2, #43605
 6451 0482 43EA0123 		orr	r3, r3, r1, lsl #8
 6452 0486 9342     		cmp	r3, r2
 6453 0488 7FF4B7AE 		bne	.L1731
 6454 048c D6F83630 		ldr	r3, [r6, #54]	@ unaligned
 6455 0490 154A     		ldr	r2, .L1866
 6456 0492 23F07F43 		bic	r3, r3, #-16777216
 6457 0496 9342     		cmp	r3, r2
 6458 0498 3FF4E0AE 		beq	.L1711
 6459 049c D6F85230 		ldr	r3, [r6, #82]	@ unaligned
 6460 04a0 23F07F43 		bic	r3, r3, #-16777216
 6461 04a4 9342     		cmp	r3, r2
 6462 04a6 7FF4A8AE 		bne	.L1731
 6463 04aa D7E6     		b	.L1711
 6464              	.L1861:
 6465 04ac C6F82C82 		str	r8, [r6, #556]
 6466 04b0 9BE6     		b	.L1717
 6467              	.L1863:
 6468 04b2 C6F82C82 		str	r8, [r6, #556]
 6469 04b6 A0E6     		b	.L1731
 6470              	.L1862:
 6471 04b8 C6F82C82 		str	r8, [r6, #556]
 6472 04bc 99E6     		b	.L1725
 6473              	.L1780:
 6474 04be 0746     		mov	r7, r0
 6475 04c0 CCE6     		b	.L1711
 6476              	.L1739:
 6477 04c2 C6F82C82 		str	r8, [r6, #556]
 6478 04c6 0120     		movs	r0, #1
 6479 04c8 FEE5     		b	.L1755
 6480              	.L1761:
 6481 04ca 5100     		lsls	r1, r2, #1
 6482 04cc 8E18     		adds	r6, r1, r2
 6483 04ce B600     		lsls	r6, r6, #2
 6484 04d0 9F19     		adds	r7, r3, r6
 6485 04d2 43F806E0 		str	lr, [r3, r6]
 6486 04d6 7C60     		str	r4, [r7, #4]
 6487 04d8 B5F80662 		ldrh	r6, [r5, #518]
 6488 04dc 3E81     		strh	r6, [r7, #8]	@ movhi
 6489 04de 0024     		movs	r4, #0
 6490 04e0 7C81     		strh	r4, [r7, #10]	@ movhi
ARM GAS  /tmp/ccFKl8QX.s 			page 114


 6491 04e2 0124     		movs	r4, #1
 6492 04e4 4CE6     		b	.L1769
 6493              	.L1867:
 6494 04e6 00BF     		.align	2
 6495              	.L1866:
 6496 04e8 46415400 		.word	5521734
 6497 04ec 00000000 		.word	.LANCHOR1
 6498 04f0 00000000 		.word	.LANCHOR2
 6499              	.L1854:
 6500 04f4 5968     		ldr	r1, [r3, #4]
 6501 04f6 8C42     		cmp	r4, r1
 6502 04f8 7FF423AE 		bne	.L1758
 6503 04fc 1E89     		ldrh	r6, [r3, #8]
 6504 04fe B5F80612 		ldrh	r1, [r5, #518]
 6505 0502 8E42     		cmp	r6, r1
 6506 0504 7FF41DAE 		bne	.L1758
 6507 0508 0246     		mov	r2, r0
 6508 050a 32E6     		b	.L1759
 6509              	.L1860:
 6510 050c 791C     		adds	r1, r7, #1
 6511 050e 3046     		mov	r0, r6
 6512 0510 FFF7FEFF 		bl	move_window
 6513 0514 0028     		cmp	r0, #0
 6514 0516 7FF426AF 		bne	.L1835
 6515 051a 96F8FF21 		ldrb	r2, [r6, #511]	@ zero_extendqisi2
 6516 051e 96F8FE31 		ldrb	r3, [r6, #510]	@ zero_extendqisi2
 6517 0522 86F80582 		strb	r8, [r6, #517]
 6518 0526 43EA0223 		orr	r3, r3, r2, lsl #8
 6519 052a 4AF65522 		movw	r2, #43605
 6520 052e 9342     		cmp	r3, r2
 6521 0530 7FF419AF 		bne	.L1835
 6522 0534 324B     		ldr	r3, .L1868
 6523 0536 3268     		ldr	r2, [r6]
 6524 0538 9A42     		cmp	r2, r3
 6525 053a 7FF414AF 		bne	.L1835
 6526 053e 03F1FF53 		add	r3, r3, #534773760
 6527 0542 03F50053 		add	r3, r3, #8192
 6528 0546 D6F8E421 		ldr	r2, [r6, #484]
 6529 054a 2033     		adds	r3, r3, #32
 6530 054c 9A42     		cmp	r2, r3
 6531 054e 7FF40AAF 		bne	.L1835
 6532 0552 D6F8E821 		ldr	r2, [r6, #488]
 6533 0556 D6F8EC31 		ldr	r3, [r6, #492]
 6534 055a C6F81022 		str	r2, [r6, #528]
 6535 055e C6F80C32 		str	r3, [r6, #524]
 6536 0562 00E7     		b	.L1835
 6537              	.L1859:
 6538 0564 0233     		adds	r3, r3, #2
 6539 0566 3844     		add	r0, r0, r7
 6540 0568 BE44     		add	lr, lr, r7
 6541 056a C6F81432 		str	r3, [r6, #532]
 6542 056e C6F82002 		str	r0, [r6, #544]
 6543 0572 C6F828E2 		str	lr, [r6, #552]
 6544 0576 C6F81C72 		str	r7, [r6, #540]
 6545 057a B8F1000F 		cmp	r8, #0
 6546 057e 3FF4CAAD 		beq	.L1741
 6547 0582 5B00     		lsls	r3, r3, #1
ARM GAS  /tmp/ccFKl8QX.s 			page 115


 6548 0584 03F2FF13 		addw	r3, r3, #511
 6549 0588 0844     		add	r0, r0, r1
 6550 058a B2EB532F 		cmp	r2, r3, lsr #9
 6551 058e C6F82402 		str	r0, [r6, #548]
 6552 0592 FFF4C0AD 		bcc	.L1741
 6553 0596 4FF0FF33 		mov	r3, #-1
 6554 059a 8022     		movs	r2, #128
 6555 059c C6F81032 		str	r3, [r6, #528]
 6556 05a0 C6F80C32 		str	r3, [r6, #524]
 6557 05a4 86F80522 		strb	r2, [r6, #517]
 6558 05a8 0220     		movs	r0, #2
 6559 05aa DDE6     		b	.L1749
 6560              	.L1745:
 6561 05ac 0233     		adds	r3, r3, #2
 6562 05ae 3844     		add	r0, r0, r7
 6563 05b0 BE44     		add	lr, lr, r7
 6564 05b2 C6F81432 		str	r3, [r6, #532]
 6565 05b6 C6F82002 		str	r0, [r6, #544]
 6566 05ba C6F828E2 		str	lr, [r6, #552]
 6567 05be C6F81C72 		str	r7, [r6, #540]
 6568 05c2 B8F1000F 		cmp	r8, #0
 6569 05c6 3FF4A6AD 		beq	.L1741
 6570 05ca 03F00107 		and	r7, r3, #1
 6571 05ce 07F2FF17 		addw	r7, r7, #511
 6572 05d2 03EB4303 		add	r3, r3, r3, lsl #1
 6573 05d6 07EB5303 		add	r3, r7, r3, lsr #1
 6574 05da 0844     		add	r0, r0, r1
 6575 05dc B2EB532F 		cmp	r2, r3, lsr #9
 6576 05e0 C6F82402 		str	r0, [r6, #548]
 6577 05e4 FFF497AD 		bcc	.L1741
 6578 05e8 4FF0FF33 		mov	r3, #-1
 6579 05ec 8022     		movs	r2, #128
 6580 05ee C6F81032 		str	r3, [r6, #528]
 6581 05f2 C6F80C32 		str	r3, [r6, #524]
 6582 05f6 86F80522 		strb	r2, [r6, #517]
 6583 05fa 0120     		movs	r0, #1
 6584 05fc B4E6     		b	.L1749
 6585              	.L1869:
 6586 05fe 00BF     		.align	2
 6587              	.L1868:
 6588 0600 52526141 		.word	1096897106
 6590              		.section	.text.f_closedir,"ax",%progbits
 6591              		.align	1
 6592              		.p2align 2,,3
 6593              		.global	f_closedir
 6594              		.syntax unified
 6595              		.thumb
 6596              		.thumb_func
 6597              		.fpu fpv4-sp-d16
 6599              	f_closedir:
 6600              		@ args = 0, pretend = 0, frame = 0
 6601              		@ frame_needed = 0, uses_anonymous_args = 0
 6602 0000 28B1     		cbz	r0, .L1892
 6603 0002 D0F80032 		ldr	r3, [r0, #512]
 6604 0006 13B1     		cbz	r3, .L1892
 6605 0008 93F80022 		ldrb	r2, [r3, #512]	@ zero_extendqisi2
 6606 000c 0AB9     		cbnz	r2, .L1896
ARM GAS  /tmp/ccFKl8QX.s 			page 116


 6607              	.L1892:
 6608 000e 0920     		movs	r0, #9
 6609 0010 7047     		bx	lr
 6610              	.L1896:
 6611 0012 B3F80612 		ldrh	r1, [r3, #518]
 6612 0016 B0F80422 		ldrh	r2, [r0, #516]
 6613 001a 9142     		cmp	r1, r2
 6614 001c F7D1     		bne	.L1892
 6615 001e 70B5     		push	{r4, r5, r6, lr}
 6616 0020 0446     		mov	r4, r0
 6617 0022 93F80102 		ldrb	r0, [r3, #513]	@ zero_extendqisi2
 6618 0026 FFF7FEFF 		bl	disk_status
 6619 002a C307     		lsls	r3, r0, #31
 6620 002c 01D5     		bpl	.L1897
 6621 002e 0920     		movs	r0, #9
 6622 0030 70BD     		pop	{r4, r5, r6, pc}
 6623              	.L1897:
 6624 0032 D4F81C32 		ldr	r3, [r4, #540]
 6625 0036 B3B1     		cbz	r3, .L1876
 6626 0038 013B     		subs	r3, r3, #1
 6627 003a 012B     		cmp	r3, #1
 6628 003c 01D9     		bls	.L1898
 6629 003e 0220     		movs	r0, #2
 6630 0040 70BD     		pop	{r4, r5, r6, pc}
 6631              	.L1898:
 6632 0042 5D00     		lsls	r5, r3, #1
 6633 0044 0B4E     		ldr	r6, .L1899
 6634 0046 EA18     		adds	r2, r5, r3
 6635 0048 06EB8202 		add	r2, r6, r2, lsl #2
 6636 004c 5189     		ldrh	r1, [r2, #10]
 6637 004e 21F48070 		bic	r0, r1, #256
 6638 0052 80B2     		uxth	r0, r0
 6639 0054 58B1     		cbz	r0, .L1874
 6640 0056 0139     		subs	r1, r1, #1
 6641 0058 89B2     		uxth	r1, r1
 6642 005a 5181     		strh	r1, [r2, #10]	@ movhi
 6643 005c 19B9     		cbnz	r1, .L1876
 6644              	.L1878:
 6645 005e 2B44     		add	r3, r3, r5
 6646 0060 9B00     		lsls	r3, r3, #2
 6647 0062 0022     		movs	r2, #0
 6648 0064 F250     		str	r2, [r6, r3]
 6649              	.L1876:
 6650 0066 0020     		movs	r0, #0
 6651 0068 C4F80002 		str	r0, [r4, #512]
 6652 006c 70BD     		pop	{r4, r5, r6, pc}
 6653              	.L1874:
 6654 006e 5081     		strh	r0, [r2, #10]	@ movhi
 6655 0070 F5E7     		b	.L1878
 6656              	.L1900:
 6657 0072 00BF     		.align	2
 6658              	.L1899:
 6659 0074 00000000 		.word	.LANCHOR2
 6661              		.section	.text.f_readdir,"ax",%progbits
 6662              		.align	1
 6663              		.p2align 2,,3
 6664              		.global	f_readdir
ARM GAS  /tmp/ccFKl8QX.s 			page 117


 6665              		.syntax unified
 6666              		.thumb
 6667              		.thumb_func
 6668              		.fpu fpv4-sp-d16
 6670              	f_readdir:
 6671              		@ args = 0, pretend = 0, frame = 16
 6672              		@ frame_needed = 0, uses_anonymous_args = 0
 6673 0000 28B1     		cbz	r0, .L2035
 6674 0002 D0F80032 		ldr	r3, [r0, #512]
 6675 0006 13B1     		cbz	r3, .L2035
 6676 0008 93F80022 		ldrb	r2, [r3, #512]	@ zero_extendqisi2
 6677 000c 0AB9     		cbnz	r2, .L2042
 6678              	.L2035:
 6679 000e 0920     		movs	r0, #9
 6680 0010 7047     		bx	lr
 6681              	.L2042:
 6682 0012 2DE9F043 		push	{r4, r5, r6, r7, r8, r9, lr}
 6683 0016 B0F80422 		ldrh	r2, [r0, #516]
 6684 001a B3F80642 		ldrh	r4, [r3, #518]
 6685 001e 9442     		cmp	r4, r2
 6686 0020 85B0     		sub	sp, sp, #20
 6687 0022 03D0     		beq	.L2043
 6688              	.L1904:
 6689 0024 0920     		movs	r0, #9
 6690              	.L2029:
 6691 0026 05B0     		add	sp, sp, #20
 6692              		@ sp needed
 6693 0028 BDE8F083 		pop	{r4, r5, r6, r7, r8, r9, pc}
 6694              	.L2043:
 6695 002c 0546     		mov	r5, r0
 6696 002e 93F80102 		ldrb	r0, [r3, #513]	@ zero_extendqisi2
 6697 0032 0F46     		mov	r7, r1
 6698 0034 FFF7FEFF 		bl	disk_status
 6699 0038 C107     		lsls	r1, r0, #31
 6700 003a F3D4     		bmi	.L1904
 6701 003c 002F     		cmp	r7, #0
 6702 003e 00F0C080 		beq	.L2044
 6703 0042 D5F81092 		ldr	r9, [r5, #528]
 6704 0046 01AB     		add	r3, sp, #4
 6705 0048 C5F81832 		str	r3, [r5, #536]
 6706 004c B9F1000F 		cmp	r9, #0
 6707 0050 35D0     		beq	.L1906
 6708 0052 D5F80042 		ldr	r4, [r5, #512]
 6709              	.L1907:
 6710 0056 D4F82C82 		ldr	r8, [r4, #556]
 6711 005a C845     		cmp	r8, r9
 6712 005c 18D0     		beq	.L1908
 6713 005e 94F80432 		ldrb	r3, [r4, #516]	@ zero_extendqisi2
 6714 0062 002B     		cmp	r3, #0
 6715 0064 4DD1     		bne	.L2045
 6716              	.L1911:
 6717 0066 0123     		movs	r3, #1
 6718 0068 4A46     		mov	r2, r9
 6719 006a 2146     		mov	r1, r4
 6720 006c 94F80102 		ldrb	r0, [r4, #513]	@ zero_extendqisi2
 6721 0070 FFF7FEFF 		bl	disk_read
 6722 0074 50B1     		cbz	r0, .L2046
ARM GAS  /tmp/ccFKl8QX.s 			page 118


 6723 0076 4FF0FF33 		mov	r3, #-1
 6724 007a C4F82C32 		str	r3, [r4, #556]
 6725 007e 0120     		movs	r0, #1
 6726              	.L1913:
 6727 0080 0023     		movs	r3, #0
 6728 0082 C5F81032 		str	r3, [r5, #528]
 6729 0086 05B0     		add	sp, sp, #20
 6730              		@ sp needed
 6731 0088 BDE8F083 		pop	{r4, r5, r6, r7, r8, r9, pc}
 6732              	.L2046:
 6733 008c C4F82C92 		str	r9, [r4, #556]
 6734              	.L1908:
 6735 0090 D5F81412 		ldr	r1, [r5, #532]
 6736 0094 0B78     		ldrb	r3, [r1]	@ zero_extendqisi2
 6737 0096 93B1     		cbz	r3, .L1906
 6738 0098 E52B     		cmp	r3, #229
 6739 009a 0BD0     		beq	.L1915
 6740 009c 2E2B     		cmp	r3, #46
 6741 009e 09D0     		beq	.L1915
 6742 00a0 CA7A     		ldrb	r2, [r1, #11]	@ zero_extendqisi2
 6743 00a2 02F03F02 		and	r2, r2, #63
 6744 00a6 0F2A     		cmp	r2, #15
 6745 00a8 04D0     		beq	.L1915
 6746 00aa 22F02002 		bic	r2, r2, #32
 6747 00ae 082A     		cmp	r2, #8
 6748 00b0 40F08C80 		bne	.L2047
 6749              	.L1915:
 6750 00b4 B5F80662 		ldrh	r6, [r5, #518]
 6751 00b8 0136     		adds	r6, r6, #1
 6752 00ba B3B2     		uxth	r3, r6
 6753 00bc 83B9     		cbnz	r3, .L2048
 6754              	.L1906:
 6755 00be 0023     		movs	r3, #0
 6756 00c0 07F10902 		add	r2, r7, #9
 6757 00c4 C5F81032 		str	r3, [r5, #528]
 6758              	.L1917:
 6759 00c8 0023     		movs	r3, #0
 6760 00ca 1370     		strb	r3, [r2]
 6761 00cc B5F80642 		ldrh	r4, [r5, #518]
 6762 00d0 0134     		adds	r4, r4, #1
 6763 00d2 A3B2     		uxth	r3, r4
 6764 00d4 002B     		cmp	r3, #0
 6765 00d6 62D1     		bne	.L2049
 6766              	.L1948:
 6767 00d8 0020     		movs	r0, #0
 6768 00da C5F81002 		str	r0, [r5, #528]
 6769 00de A2E7     		b	.L2029
 6770              	.L2048:
 6771 00e0 D5F81092 		ldr	r9, [r5, #528]
 6772 00e4 B9F1000F 		cmp	r9, #0
 6773 00e8 E9D0     		beq	.L1906
 6774 00ea 16F00F03 		ands	r3, r6, #15
 6775 00ee 2FD0     		beq	.L1918
 6776 00f0 D5F80042 		ldr	r4, [r5, #512]
 6777 00f4 A5F80662 		strh	r6, [r5, #518]	@ movhi
 6778 00f8 04EB4313 		add	r3, r4, r3, lsl #5
 6779 00fc C5F81432 		str	r3, [r5, #532]
ARM GAS  /tmp/ccFKl8QX.s 			page 119


 6780 0100 A9E7     		b	.L1907
 6781              	.L2045:
 6782 0102 0123     		movs	r3, #1
 6783 0104 4246     		mov	r2, r8
 6784 0106 2146     		mov	r1, r4
 6785 0108 94F80102 		ldrb	r0, [r4, #513]	@ zero_extendqisi2
 6786 010c FFF7FEFF 		bl	disk_write
 6787 0110 E0B9     		cbnz	r0, .L1910
 6788 0112 D4F82022 		ldr	r2, [r4, #544]
 6789 0116 D4F81832 		ldr	r3, [r4, #536]
 6790 011a 84F80402 		strb	r0, [r4, #516]
 6791 011e A8EB0202 		sub	r2, r8, r2
 6792 0122 9A42     		cmp	r2, r3
 6793 0124 9FD2     		bcs	.L1911
 6794 0126 94F80362 		ldrb	r6, [r4, #515]	@ zero_extendqisi2
 6795 012a 012E     		cmp	r6, #1
 6796 012c 02D8     		bhi	.L1912
 6797 012e 9AE7     		b	.L1911
 6798              	.L2050:
 6799 0130 D4F81832 		ldr	r3, [r4, #536]
 6800              	.L1912:
 6801 0134 94F80102 		ldrb	r0, [r4, #513]	@ zero_extendqisi2
 6802 0138 9844     		add	r8, r8, r3
 6803 013a 013E     		subs	r6, r6, #1
 6804 013c 4246     		mov	r2, r8
 6805 013e 0123     		movs	r3, #1
 6806 0140 2146     		mov	r1, r4
 6807 0142 FFF7FEFF 		bl	disk_write
 6808 0146 012E     		cmp	r6, #1
 6809 0148 F2D1     		bne	.L2050
 6810 014a 8CE7     		b	.L1911
 6811              	.L1910:
 6812 014c 0120     		movs	r0, #1
 6813 014e 97E7     		b	.L1913
 6814              	.L1918:
 6815 0150 D5F80C12 		ldr	r1, [r5, #524]
 6816 0154 D5F80042 		ldr	r4, [r5, #512]
 6817 0158 09F10109 		add	r9, r9, #1
 6818 015c C5F81092 		str	r9, [r5, #528]
 6819 0160 71B9     		cbnz	r1, .L1920
 6820 0162 B4F80832 		ldrh	r3, [r4, #520]
 6821 0166 9E42     		cmp	r6, r3
 6822 0168 A9D2     		bcs	.L1906
 6823              	.L1921:
 6824 016a A5F80662 		strh	r6, [r5, #518]	@ movhi
 6825 016e C5F81442 		str	r4, [r5, #532]
 6826 0172 B9F1000F 		cmp	r9, #0
 6827 0176 7FF46EAF 		bne	.L1907
 6828 017a 07F10902 		add	r2, r7, #9
 6829 017e A3E7     		b	.L1917
 6830              	.L1920:
 6831 0180 94F80232 		ldrb	r3, [r4, #514]	@ zero_extendqisi2
 6832 0184 013B     		subs	r3, r3, #1
 6833 0186 13EA1613 		ands	r3, r3, r6, lsr #4
 6834 018a EED1     		bne	.L1921
 6835 018c 0129     		cmp	r1, #1
 6836 018e 04D9     		bls	.L1923
ARM GAS  /tmp/ccFKl8QX.s 			page 120


 6837 0190 D4F81432 		ldr	r3, [r4, #532]
 6838 0194 9942     		cmp	r1, r3
 6839 0196 C0F08E80 		bcc	.L2051
 6840              	.L1923:
 6841 019a 0220     		movs	r0, #2
 6842 019c 70E7     		b	.L1913
 6843              	.L2049:
 6844 019e D5F81032 		ldr	r3, [r5, #528]
 6845 01a2 002B     		cmp	r3, #0
 6846 01a4 98D0     		beq	.L1948
 6847 01a6 14F00F06 		ands	r6, r4, #15
 6848 01aa 00F0A580 		beq	.L1949
 6849 01ae D5F80032 		ldr	r3, [r5, #512]
 6850              	.L1950:
 6851 01b2 A5F80642 		strh	r4, [r5, #518]	@ movhi
 6852 01b6 03EB4613 		add	r3, r3, r6, lsl #5
 6853 01ba C5F81432 		str	r3, [r5, #532]
 6854 01be 0020     		movs	r0, #0
 6855 01c0 31E7     		b	.L2029
 6856              	.L2044:
 6857 01c2 3946     		mov	r1, r7
 6858 01c4 2846     		mov	r0, r5
 6859 01c6 FFF7FEFF 		bl	dir_sdi
 6860 01ca 2CE7     		b	.L2029
 6861              	.L2047:
 6862 01cc D5F81002 		ldr	r0, [r5, #528]
 6863 01d0 07F10902 		add	r2, r7, #9
 6864 01d4 0028     		cmp	r0, #0
 6865 01d6 3FF477AF 		beq	.L1917
 6866 01da 202B     		cmp	r3, #32
 6867 01dc 05D0     		beq	.L1926
 6868 01de 052B     		cmp	r3, #5
 6869 01e0 08BF     		it	eq
 6870 01e2 E523     		moveq	r3, #229
 6871 01e4 7B72     		strb	r3, [r7, #9]
 6872 01e6 07F10A02 		add	r2, r7, #10
 6873              	.L1926:
 6874 01ea 4B78     		ldrb	r3, [r1, #1]	@ zero_extendqisi2
 6875 01ec 202B     		cmp	r3, #32
 6876 01ee 60D0     		beq	.L1961
 6877 01f0 052B     		cmp	r3, #5
 6878 01f2 08BF     		it	eq
 6879 01f4 E523     		moveq	r3, #229
 6880 01f6 1370     		strb	r3, [r2]
 6881 01f8 531C     		adds	r3, r2, #1
 6882              	.L1928:
 6883 01fa 8A78     		ldrb	r2, [r1, #2]	@ zero_extendqisi2
 6884 01fc 202A     		cmp	r2, #32
 6885 01fe 04D0     		beq	.L1930
 6886 0200 052A     		cmp	r2, #5
 6887 0202 08BF     		it	eq
 6888 0204 E522     		moveq	r2, #229
 6889 0206 1A70     		strb	r2, [r3]
 6890 0208 0133     		adds	r3, r3, #1
 6891              	.L1930:
 6892 020a CA78     		ldrb	r2, [r1, #3]	@ zero_extendqisi2
 6893 020c 202A     		cmp	r2, #32
ARM GAS  /tmp/ccFKl8QX.s 			page 121


 6894 020e 04D0     		beq	.L1932
 6895 0210 052A     		cmp	r2, #5
 6896 0212 08BF     		it	eq
 6897 0214 E522     		moveq	r2, #229
 6898 0216 1A70     		strb	r2, [r3]
 6899 0218 0133     		adds	r3, r3, #1
 6900              	.L1932:
 6901 021a 0A79     		ldrb	r2, [r1, #4]	@ zero_extendqisi2
 6902 021c 202A     		cmp	r2, #32
 6903 021e 04D0     		beq	.L1934
 6904 0220 052A     		cmp	r2, #5
 6905 0222 08BF     		it	eq
 6906 0224 E522     		moveq	r2, #229
 6907 0226 1A70     		strb	r2, [r3]
 6908 0228 0133     		adds	r3, r3, #1
 6909              	.L1934:
 6910 022a 4A79     		ldrb	r2, [r1, #5]	@ zero_extendqisi2
 6911 022c 202A     		cmp	r2, #32
 6912 022e 04D0     		beq	.L1936
 6913 0230 052A     		cmp	r2, #5
 6914 0232 08BF     		it	eq
 6915 0234 E522     		moveq	r2, #229
 6916 0236 1A70     		strb	r2, [r3]
 6917 0238 0133     		adds	r3, r3, #1
 6918              	.L1936:
 6919 023a 8A79     		ldrb	r2, [r1, #6]	@ zero_extendqisi2
 6920 023c 202A     		cmp	r2, #32
 6921 023e 04D0     		beq	.L1938
 6922 0240 052A     		cmp	r2, #5
 6923 0242 08BF     		it	eq
 6924 0244 E522     		moveq	r2, #229
 6925 0246 1A70     		strb	r2, [r3]
 6926 0248 0133     		adds	r3, r3, #1
 6927              	.L1938:
 6928 024a CA79     		ldrb	r2, [r1, #7]	@ zero_extendqisi2
 6929 024c 202A     		cmp	r2, #32
 6930 024e 04D0     		beq	.L1940
 6931 0250 052A     		cmp	r2, #5
 6932 0252 08BF     		it	eq
 6933 0254 E522     		moveq	r2, #229
 6934 0256 1A70     		strb	r2, [r3]
 6935 0258 0133     		adds	r3, r3, #1
 6936              	.L1940:
 6937 025a 087A     		ldrb	r0, [r1, #8]	@ zero_extendqisi2
 6938 025c 2028     		cmp	r0, #32
 6939 025e 26D0     		beq	.L1975
 6940 0260 0528     		cmp	r0, #5
 6941 0262 1A46     		mov	r2, r3
 6942 0264 08BF     		it	eq
 6943 0266 E520     		moveq	r0, #229
 6944 0268 2E24     		movs	r4, #46
 6945 026a 02F8024B 		strb	r4, [r2], #2
 6946 026e 5870     		strb	r0, [r3, #1]
 6947              	.L1942:
 6948 0270 4B7A     		ldrb	r3, [r1, #9]	@ zero_extendqisi2
 6949 0272 202B     		cmp	r3, #32
 6950 0274 04D0     		beq	.L1944
ARM GAS  /tmp/ccFKl8QX.s 			page 122


 6951 0276 052B     		cmp	r3, #5
 6952 0278 08BF     		it	eq
 6953 027a E523     		moveq	r3, #229
 6954 027c 1370     		strb	r3, [r2]
 6955 027e 0132     		adds	r2, r2, #1
 6956              	.L1944:
 6957 0280 8B7A     		ldrb	r3, [r1, #10]	@ zero_extendqisi2
 6958 0282 202B     		cmp	r3, #32
 6959 0284 04D0     		beq	.L1946
 6960 0286 052B     		cmp	r3, #5
 6961 0288 08BF     		it	eq
 6962 028a E523     		moveq	r3, #229
 6963 028c 1370     		strb	r3, [r2]
 6964 028e 0132     		adds	r2, r2, #1
 6965              	.L1946:
 6966 0290 CB7A     		ldrb	r3, [r1, #11]	@ zero_extendqisi2
 6967 0292 3B72     		strb	r3, [r7, #8]
 6968 0294 CB69     		ldr	r3, [r1, #28]	@ unaligned
 6969 0296 3B60     		str	r3, [r7]
 6970 0298 487E     		ldrb	r0, [r1, #25]	@ zero_extendqisi2
 6971 029a 0B7E     		ldrb	r3, [r1, #24]	@ zero_extendqisi2
 6972 029c 43EA0023 		orr	r3, r3, r0, lsl #8
 6973 02a0 BB80     		strh	r3, [r7, #4]	@ movhi
 6974 02a2 C87D     		ldrb	r0, [r1, #23]	@ zero_extendqisi2
 6975 02a4 8B7D     		ldrb	r3, [r1, #22]	@ zero_extendqisi2
 6976 02a6 43EA0023 		orr	r3, r3, r0, lsl #8
 6977 02aa FB80     		strh	r3, [r7, #6]	@ movhi
 6978 02ac 0CE7     		b	.L1917
 6979              	.L1975:
 6980 02ae 1A46     		mov	r2, r3
 6981 02b0 DEE7     		b	.L1942
 6982              	.L1961:
 6983 02b2 1346     		mov	r3, r2
 6984 02b4 A1E7     		b	.L1928
 6985              	.L2051:
 6986 02b6 2046     		mov	r0, r4
 6987 02b8 FFF7FEFF 		bl	get_fat.part.6
 6988 02bc 0128     		cmp	r0, #1
 6989 02be 7FF66CAF 		bls	.L1923
 6990 02c2 421C     		adds	r2, r0, #1
 6991 02c4 3FF442AF 		beq	.L1910
 6992 02c8 D5F80042 		ldr	r4, [r5, #512]
 6993 02cc D4F81432 		ldr	r3, [r4, #532]
 6994 02d0 9842     		cmp	r0, r3
 6995 02d2 BFF4F4AE 		bcs	.L1906
 6996 02d6 023B     		subs	r3, r3, #2
 6997 02d8 821E     		subs	r2, r0, #2
 6998 02da 9A42     		cmp	r2, r3
 6999 02dc C5F80C02 		str	r0, [r5, #524]
 7000 02e0 3BBF     		ittet	cc
 7001 02e2 94F80292 		ldrbcc	r9, [r4, #514]	@ zero_extendqisi2
 7002 02e6 D4F82832 		ldrcc	r3, [r4, #552]
 7003 02ea 4FF00009 		movcs	r9, #0
 7004 02ee 02FB0939 		mlacc	r9, r2, r9, r3
 7005 02f2 C5F81092 		str	r9, [r5, #528]
 7006 02f6 38E7     		b	.L1921
 7007              	.L1949:
ARM GAS  /tmp/ccFKl8QX.s 			page 123


 7008 02f8 D5F80C12 		ldr	r1, [r5, #524]
 7009 02fc 0133     		adds	r3, r3, #1
 7010 02fe C5F81032 		str	r3, [r5, #528]
 7011 0302 D5F80032 		ldr	r3, [r5, #512]
 7012 0306 29B9     		cbnz	r1, .L1951
 7013 0308 B3F80822 		ldrh	r2, [r3, #520]
 7014 030c 9442     		cmp	r4, r2
 7015 030e BFF4E3AE 		bcs	.L1948
 7016 0312 4EE7     		b	.L1950
 7017              	.L1951:
 7018 0314 93F80222 		ldrb	r2, [r3, #514]	@ zero_extendqisi2
 7019 0318 013A     		subs	r2, r2, #1
 7020 031a 12EA1412 		ands	r2, r2, r4, lsr #4
 7021 031e 7FF448AF 		bne	.L1950
 7022 0322 0129     		cmp	r1, #1
 7023 0324 03D9     		bls	.L1953
 7024 0326 D3F81422 		ldr	r2, [r3, #532]
 7025 032a 9142     		cmp	r1, r2
 7026 032c 01D3     		bcc	.L2052
 7027              	.L1953:
 7028 032e 0220     		movs	r0, #2
 7029 0330 79E6     		b	.L2029
 7030              	.L2052:
 7031 0332 1846     		mov	r0, r3
 7032 0334 FFF7FEFF 		bl	get_fat.part.6
 7033 0338 0128     		cmp	r0, #1
 7034 033a F8D9     		bls	.L1953
 7035 033c 431C     		adds	r3, r0, #1
 7036 033e 16D0     		beq	.L1981
 7037 0340 D5F80032 		ldr	r3, [r5, #512]
 7038 0344 D3F81422 		ldr	r2, [r3, #532]
 7039 0348 9042     		cmp	r0, r2
 7040 034a BFF4C5AE 		bcs	.L1948
 7041 034e 023A     		subs	r2, r2, #2
 7042 0350 811E     		subs	r1, r0, #2
 7043 0352 9142     		cmp	r1, r2
 7044 0354 C5F80C02 		str	r0, [r5, #524]
 7045 0358 3BBF     		ittet	cc
 7046 035a 93F80222 		ldrbcc	r2, [r3, #514]	@ zero_extendqisi2
 7047 035e D3F82802 		ldrcc	r0, [r3, #552]
 7048 0362 0022     		movcs	r2, #0
 7049 0364 01FB0202 		mlacc	r2, r1, r2, r0
 7050 0368 C5F81022 		str	r2, [r5, #528]
 7051 036c 21E7     		b	.L1950
 7052              	.L1981:
 7053 036e 0120     		movs	r0, #1
 7054 0370 59E6     		b	.L2029
 7056 0372 00BF     		.section	.text.f_stat,"ax",%progbits
 7057              		.align	1
 7058              		.p2align 2,,3
 7059              		.global	f_stat
 7060              		.syntax unified
 7061              		.thumb
 7062              		.thumb_func
 7063              		.fpu fpv4-sp-d16
 7065              	f_stat:
 7066              		@ args = 0, pretend = 0, frame = 560
ARM GAS  /tmp/ccFKl8QX.s 			page 124


 7067              		@ frame_needed = 0, uses_anonymous_args = 0
 7068 0000 2DE9F041 		push	{r4, r5, r6, r7, r8, lr}
 7069 0004 ADF50C7D 		sub	sp, sp, #560
 7070 0008 0023     		movs	r3, #0
 7071 000a 8493     		str	r3, [sp, #528]
 7072 000c 0028     		cmp	r0, #0
 7073 000e 00F0F281 		beq	.L2054
 7074 0012 0446     		mov	r4, r0
 7075 0014 0078     		ldrb	r0, [r0]	@ zero_extendqisi2
 7076 0016 2028     		cmp	r0, #32
 7077 0018 0E46     		mov	r6, r1
 7078 001a 0DD9     		bls	.L2055
 7079 001c 3A28     		cmp	r0, #58
 7080 001e 00F0EA81 		beq	.L2054
 7081 0022 2346     		mov	r3, r4
 7082 0024 03E0     		b	.L2056
 7083              	.L2235:
 7084 0026 3A2A     		cmp	r2, #58
 7085 0028 00F0B781 		beq	.L2234
 7086 002c 0B46     		mov	r3, r1
 7087              	.L2056:
 7088 002e 5A78     		ldrb	r2, [r3, #1]	@ zero_extendqisi2
 7089 0030 202A     		cmp	r2, #32
 7090 0032 03F10101 		add	r1, r3, #1
 7091 0036 F6D8     		bhi	.L2235
 7092              	.L2055:
 7093 0038 0F4B     		ldr	r3, .L2247
 7094 003a 1D68     		ldr	r5, [r3]
 7095 003c 002D     		cmp	r5, #0
 7096 003e 00F0B781 		beq	.L2142
 7097              	.L2242:
 7098 0042 8495     		str	r5, [sp, #528]
 7099 0044 95F80032 		ldrb	r3, [r5, #512]	@ zero_extendqisi2
 7100 0048 33B1     		cbz	r3, .L2062
 7101 004a 95F80102 		ldrb	r0, [r5, #513]	@ zero_extendqisi2
 7102 004e FFF7FEFF 		bl	disk_status
 7103 0052 C307     		lsls	r3, r0, #31
 7104 0054 40F11C81 		bpl	.L2107
 7105              	.L2062:
 7106 0058 0020     		movs	r0, #0
 7107 005a 85F80002 		strb	r0, [r5, #512]
 7108 005e 85F80102 		strb	r0, [r5, #513]
 7109 0062 FFF7FEFF 		bl	disk_initialize
 7110 0066 10F00102 		ands	r2, r0, #1
 7111 006a 00F0B181 		beq	.L2236
 7112 006e 0320     		movs	r0, #3
 7113              	.L2172:
 7114 0070 0DF50C7D 		add	sp, sp, #560
 7115              		@ sp needed
 7116 0074 BDE8F081 		pop	{r4, r5, r6, r7, r8, pc}
 7117              	.L2248:
 7118              		.align	2
 7119              	.L2247:
 7120 0078 00000000 		.word	.LANCHOR0
 7121              	.L2243:
 7122 007c 95F8FF21 		ldrb	r2, [r5, #511]	@ zero_extendqisi2
 7123 0080 95F8FE31 		ldrb	r3, [r5, #510]	@ zero_extendqisi2
ARM GAS  /tmp/ccFKl8QX.s 			page 125


 7124 0084 C5F82C02 		str	r0, [r5, #556]
 7125 0088 43EA0223 		orr	r3, r3, r2, lsl #8
 7126 008c 4AF65522 		movw	r2, #43605
 7127 0090 9342     		cmp	r3, r2
 7128 0092 40F0B581 		bne	.L2095
 7129 0096 D5F83630 		ldr	r3, [r5, #54]	@ unaligned
 7130 009a C84A     		ldr	r2, .L2249
 7131 009c 23F07F43 		bic	r3, r3, #-16777216
 7132 00a0 9342     		cmp	r3, r2
 7133 00a2 00F04882 		beq	.L2145
 7134 00a6 D5F85230 		ldr	r3, [r5, #82]	@ unaligned
 7135 00aa 23F07F43 		bic	r3, r3, #-16777216
 7136 00ae 9342     		cmp	r3, r2
 7137 00b0 00F04182 		beq	.L2145
 7138 00b4 95F8C271 		ldrb	r7, [r5, #450]	@ zero_extendqisi2
 7139 00b8 0FB1     		cbz	r7, .L2066
 7140 00ba D5F8C671 		ldr	r7, [r5, #454]	@ unaligned
 7141              	.L2066:
 7142 00be 95F8D231 		ldrb	r3, [r5, #466]	@ zero_extendqisi2
 7143 00c2 0BB1     		cbz	r3, .L2067
 7144 00c4 D5F8D631 		ldr	r3, [r5, #470]	@ unaligned
 7145              	.L2067:
 7146 00c8 0193     		str	r3, [sp, #4]
 7147 00ca 95F8E231 		ldrb	r3, [r5, #482]	@ zero_extendqisi2
 7148 00ce 0BB1     		cbz	r3, .L2068
 7149 00d0 D5F8E631 		ldr	r3, [r5, #486]	@ unaligned
 7150              	.L2068:
 7151 00d4 0293     		str	r3, [sp, #8]
 7152 00d6 95F8F231 		ldrb	r3, [r5, #498]	@ zero_extendqisi2
 7153 00da 0BB1     		cbz	r3, .L2069
 7154 00dc D5F8F631 		ldr	r3, [r5, #502]	@ unaligned
 7155              	.L2069:
 7156 00e0 0393     		str	r3, [sp, #12]
 7157 00e2 002F     		cmp	r7, #0
 7158 00e4 40F09281 		bne	.L2237
 7159              	.L2071:
 7160 00e8 019F     		ldr	r7, [sp, #4]
 7161 00ea 002F     		cmp	r7, #0
 7162 00ec 40F0BD81 		bne	.L2238
 7163              	.L2079:
 7164 00f0 029F     		ldr	r7, [sp, #8]
 7165 00f2 002F     		cmp	r7, #0
 7166 00f4 40F0E881 		bne	.L2239
 7167              	.L2085:
 7168 00f8 039F     		ldr	r7, [sp, #12]
 7169 00fa 002F     		cmp	r7, #0
 7170 00fc 00F08081 		beq	.L2095
 7171 0100 4FF0FF38 		mov	r8, #-1
 7172 0104 0023     		movs	r3, #0
 7173 0106 4745     		cmp	r7, r8
 7174 0108 85F80432 		strb	r3, [r5, #516]
 7175 010c C5F82C82 		str	r8, [r5, #556]
 7176 0110 0BD0     		beq	.L2092
 7177 0112 0123     		movs	r3, #1
 7178 0114 3A46     		mov	r2, r7
 7179 0116 2946     		mov	r1, r5
 7180 0118 95F80102 		ldrb	r0, [r5, #513]	@ zero_extendqisi2
ARM GAS  /tmp/ccFKl8QX.s 			page 126


 7181 011c FFF7FEFF 		bl	disk_read
 7182 0120 0028     		cmp	r0, #0
 7183 0122 40F00A82 		bne	.L2093
 7184 0126 C5F82C72 		str	r7, [r5, #556]
 7185              	.L2092:
 7186 012a 95F8FF21 		ldrb	r2, [r5, #511]	@ zero_extendqisi2
 7187 012e 95F8FE31 		ldrb	r3, [r5, #510]	@ zero_extendqisi2
 7188 0132 43EA0223 		orr	r3, r3, r2, lsl #8
 7189 0136 4AF65522 		movw	r2, #43605
 7190 013a 9342     		cmp	r3, r2
 7191 013c 40F06081 		bne	.L2095
 7192 0140 D5F83630 		ldr	r3, [r5, #54]	@ unaligned
 7193 0144 9D4A     		ldr	r2, .L2249
 7194 0146 23F07F43 		bic	r3, r3, #-16777216
 7195 014a 9342     		cmp	r3, r2
 7196 014c 06D0     		beq	.L2065
 7197 014e D5F85230 		ldr	r3, [r5, #82]	@ unaligned
 7198 0152 23F07F43 		bic	r3, r3, #-16777216
 7199 0156 9342     		cmp	r3, r2
 7200 0158 40F05281 		bne	.L2095
 7201              	.L2065:
 7202 015c 2A7B     		ldrb	r2, [r5, #12]	@ zero_extendqisi2
 7203 015e EB7A     		ldrb	r3, [r5, #11]	@ zero_extendqisi2
 7204 0160 43EA0223 		orr	r3, r3, r2, lsl #8
 7205 0164 B3F5007F 		cmp	r3, #512
 7206 0168 40F04A81 		bne	.L2095
 7207 016c EA7D     		ldrb	r2, [r5, #23]	@ zero_extendqisi2
 7208 016e AB7D     		ldrb	r3, [r5, #22]	@ zero_extendqisi2
 7209 0170 297C     		ldrb	r1, [r5, #16]	@ zero_extendqisi2
 7210 0172 85F80312 		strb	r1, [r5, #515]
 7211 0176 53EA0223 		orrs	r3, r3, r2, lsl #8
 7212 017a 18BF     		it	ne
 7213 017c 1A46     		movne	r2, r3
 7214 017e 01F1FF33 		add	r3, r1, #-1
 7215 0182 08BF     		it	eq
 7216 0184 6A6A     		ldreq	r2, [r5, #36]
 7217 0186 C5F81822 		str	r2, [r5, #536]
 7218 018a 012B     		cmp	r3, #1
 7219 018c 00F23881 		bhi	.L2095
 7220 0190 95F80DC0 		ldrb	ip, [r5, #13]	@ zero_extendqisi2
 7221 0194 85F802C2 		strb	ip, [r5, #514]
 7222 0198 02FB01F1 		mul	r1, r2, r1
 7223 019c BCF1000F 		cmp	ip, #0
 7224 01a0 00F02E81 		beq	.L2095
 7225 01a4 0CF1FF33 		add	r3, ip, #-1
 7226 01a8 13EA0C0F 		tst	r3, ip
 7227 01ac 40F02881 		bne	.L2095
 7228 01b0 AB7C     		ldrb	r3, [r5, #18]	@ zero_extendqisi2
 7229 01b2 95F81180 		ldrb	r8, [r5, #17]	@ zero_extendqisi2
 7230 01b6 48EA0328 		orr	r8, r8, r3, lsl #8
 7231 01ba 18F00F0F 		tst	r8, #15
 7232 01be A5F80882 		strh	r8, [r5, #520]	@ movhi
 7233 01c2 40F01D81 		bne	.L2095
 7234 01c6 287D     		ldrb	r0, [r5, #20]	@ zero_extendqisi2
 7235 01c8 EB7C     		ldrb	r3, [r5, #19]	@ zero_extendqisi2
 7236 01ca 95F80FE0 		ldrb	lr, [r5, #15]	@ zero_extendqisi2
 7237 01ce 53EA0023 		orrs	r3, r3, r0, lsl #8
ARM GAS  /tmp/ccFKl8QX.s 			page 127


 7238 01d2 A87B     		ldrb	r0, [r5, #14]	@ zero_extendqisi2
 7239 01d4 08BF     		it	eq
 7240 01d6 2B6A     		ldreq	r3, [r5, #32]
 7241 01d8 50EA0E20 		orrs	r0, r0, lr, lsl #8
 7242 01dc 00F01081 		beq	.L2095
 7243 01e0 00EB181E 		add	lr, r0, r8, lsr #4
 7244 01e4 8E44     		add	lr, lr, r1
 7245 01e6 9E45     		cmp	lr, r3
 7246 01e8 00F20A81 		bhi	.L2095
 7247 01ec A3EB0E03 		sub	r3, r3, lr
 7248 01f0 B3FBFCF3 		udiv	r3, r3, ip
 7249 01f4 002B     		cmp	r3, #0
 7250 01f6 00F00381 		beq	.L2095
 7251 01fa 40F6F57C 		movw	ip, #4085
 7252 01fe 6345     		cmp	r3, ip
 7253 0200 40F2EF81 		bls	.L2099
 7254 0204 4FF6F57C 		movw	ip, #65525
 7255 0208 6345     		cmp	r3, ip
 7256 020a 40F2C681 		bls	.L2240
 7257 020e 0233     		adds	r3, r3, #2
 7258 0210 3844     		add	r0, r0, r7
 7259 0212 0EEB0701 		add	r1, lr, r7
 7260 0216 C5F81432 		str	r3, [r5, #532]
 7261 021a C5F82002 		str	r0, [r5, #544]
 7262 021e C5F82812 		str	r1, [r5, #552]
 7263 0222 C5F81C72 		str	r7, [r5, #540]
 7264 0226 B8F1000F 		cmp	r8, #0
 7265 022a 40F0E980 		bne	.L2095
 7266 022e 9B00     		lsls	r3, r3, #2
 7267 0230 03F2FF13 		addw	r3, r3, #511
 7268 0234 E96A     		ldr	r1, [r5, #44]
 7269 0236 C5F82412 		str	r1, [r5, #548]
 7270 023a B2EB532F 		cmp	r2, r3, lsr #9
 7271 023e C0F0DF80 		bcc	.L2095
 7272 0242 95F83120 		ldrb	r2, [r5, #49]	@ zero_extendqisi2
 7273 0246 95F83030 		ldrb	r3, [r5, #48]	@ zero_extendqisi2
 7274 024a 43EA0223 		orr	r3, r3, r2, lsl #8
 7275 024e 8021     		movs	r1, #128
 7276 0250 4FF0FF32 		mov	r2, #-1
 7277 0254 012B     		cmp	r3, #1
 7278 0256 C5F81022 		str	r2, [r5, #528]
 7279 025a C5F80C22 		str	r2, [r5, #524]
 7280 025e 85F80512 		strb	r1, [r5, #517]
 7281 0262 00F06E81 		beq	.L2241
 7282              	.L2221:
 7283 0266 0322     		movs	r2, #3
 7284              	.L2103:
 7285 0268 5548     		ldr	r0, .L2249+4
 7286 026a 5649     		ldr	r1, .L2249+8
 7287 026c 0388     		ldrh	r3, [r0]
 7288 026e 85F80022 		strb	r2, [r5, #512]
 7289 0272 0A68     		ldr	r2, [r1]
 7290 0274 0133     		adds	r3, r3, #1
 7291 0276 9BB2     		uxth	r3, r3
 7292 0278 9542     		cmp	r5, r2
 7293 027a 0380     		strh	r3, [r0]	@ movhi
 7294 027c A5F80632 		strh	r3, [r5, #518]	@ movhi
ARM GAS  /tmp/ccFKl8QX.s 			page 128


 7295 0280 04BF     		itt	eq
 7296 0282 0023     		moveq	r3, #0
 7297 0284 0B60     		streq	r3, [r1]
 7298 0286 CB68     		ldr	r3, [r1, #12]
 7299 0288 9D42     		cmp	r5, r3
 7300 028a 01D1     		bne	.L2107
 7301 028c 0023     		movs	r3, #0
 7302 028e CB60     		str	r3, [r1, #12]
 7303              	.L2107:
 7304 0290 2146     		mov	r1, r4
 7305 0292 04A8     		add	r0, sp, #16
 7306 0294 CDF828D2 		str	sp, [sp, #552]
 7307 0298 FFF7FEFF 		bl	follow_path
 7308 029c 0028     		cmp	r0, #0
 7309 029e 7FF4E7AE 		bne	.L2172
 7310 02a2 899B     		ldr	r3, [sp, #548]
 7311 02a4 002B     		cmp	r3, #0
 7312 02a6 00F09180 		beq	.L2150
 7313 02aa 002E     		cmp	r6, #0
 7314 02ac 3FF4E0AE 		beq	.L2172
 7315 02b0 8899     		ldr	r1, [sp, #544]
 7316 02b2 06F10902 		add	r2, r6, #9
 7317 02b6 0029     		cmp	r1, #0
 7318 02b8 69D0     		beq	.L2109
 7319 02ba 1978     		ldrb	r1, [r3]	@ zero_extendqisi2
 7320 02bc 2029     		cmp	r1, #32
 7321 02be 05D0     		beq	.L2110
 7322 02c0 0529     		cmp	r1, #5
 7323 02c2 08BF     		it	eq
 7324 02c4 E521     		moveq	r1, #229
 7325 02c6 7172     		strb	r1, [r6, #9]
 7326 02c8 06F10A02 		add	r2, r6, #10
 7327              	.L2110:
 7328 02cc 5978     		ldrb	r1, [r3, #1]	@ zero_extendqisi2
 7329 02ce 2029     		cmp	r1, #32
 7330 02d0 04D0     		beq	.L2112
 7331 02d2 0529     		cmp	r1, #5
 7332 02d4 08BF     		it	eq
 7333 02d6 E521     		moveq	r1, #229
 7334 02d8 1170     		strb	r1, [r2]
 7335 02da 0132     		adds	r2, r2, #1
 7336              	.L2112:
 7337 02dc 9978     		ldrb	r1, [r3, #2]	@ zero_extendqisi2
 7338 02de 2029     		cmp	r1, #32
 7339 02e0 04D0     		beq	.L2114
 7340 02e2 0529     		cmp	r1, #5
 7341 02e4 08BF     		it	eq
 7342 02e6 E521     		moveq	r1, #229
 7343 02e8 1170     		strb	r1, [r2]
 7344 02ea 0132     		adds	r2, r2, #1
 7345              	.L2114:
 7346 02ec D978     		ldrb	r1, [r3, #3]	@ zero_extendqisi2
 7347 02ee 2029     		cmp	r1, #32
 7348 02f0 04D0     		beq	.L2116
 7349 02f2 0529     		cmp	r1, #5
 7350 02f4 08BF     		it	eq
 7351 02f6 E521     		moveq	r1, #229
ARM GAS  /tmp/ccFKl8QX.s 			page 129


 7352 02f8 1170     		strb	r1, [r2]
 7353 02fa 0132     		adds	r2, r2, #1
 7354              	.L2116:
 7355 02fc 1979     		ldrb	r1, [r3, #4]	@ zero_extendqisi2
 7356 02fe 2029     		cmp	r1, #32
 7357 0300 04D0     		beq	.L2118
 7358 0302 0529     		cmp	r1, #5
 7359 0304 08BF     		it	eq
 7360 0306 E521     		moveq	r1, #229
 7361 0308 1170     		strb	r1, [r2]
 7362 030a 0132     		adds	r2, r2, #1
 7363              	.L2118:
 7364 030c 5979     		ldrb	r1, [r3, #5]	@ zero_extendqisi2
 7365 030e 2029     		cmp	r1, #32
 7366 0310 04D0     		beq	.L2120
 7367 0312 0529     		cmp	r1, #5
 7368 0314 08BF     		it	eq
 7369 0316 E521     		moveq	r1, #229
 7370 0318 1170     		strb	r1, [r2]
 7371 031a 0132     		adds	r2, r2, #1
 7372              	.L2120:
 7373 031c 9979     		ldrb	r1, [r3, #6]	@ zero_extendqisi2
 7374 031e 2029     		cmp	r1, #32
 7375 0320 04D0     		beq	.L2122
 7376 0322 0529     		cmp	r1, #5
 7377 0324 08BF     		it	eq
 7378 0326 E521     		moveq	r1, #229
 7379 0328 1170     		strb	r1, [r2]
 7380 032a 0132     		adds	r2, r2, #1
 7381              	.L2122:
 7382 032c D979     		ldrb	r1, [r3, #7]	@ zero_extendqisi2
 7383 032e 2029     		cmp	r1, #32
 7384 0330 04D0     		beq	.L2124
 7385 0332 0529     		cmp	r1, #5
 7386 0334 08BF     		it	eq
 7387 0336 E521     		moveq	r1, #229
 7388 0338 1170     		strb	r1, [r2]
 7389 033a 0132     		adds	r2, r2, #1
 7390              	.L2124:
 7391 033c 1C7A     		ldrb	r4, [r3, #8]	@ zero_extendqisi2
 7392 033e 202C     		cmp	r4, #32
 7393 0340 62D0     		beq	.L2166
 7394 0342 052C     		cmp	r4, #5
 7395 0344 1146     		mov	r1, r2
 7396 0346 08BF     		it	eq
 7397 0348 E524     		moveq	r4, #229
 7398 034a 2E25     		movs	r5, #46
 7399 034c 01F8025B 		strb	r5, [r1], #2
 7400 0350 5470     		strb	r4, [r2, #1]
 7401              	.L2126:
 7402 0352 5A7A     		ldrb	r2, [r3, #9]	@ zero_extendqisi2
 7403 0354 202A     		cmp	r2, #32
 7404 0356 55D0     		beq	.L2168
 7405 0358 052A     		cmp	r2, #5
 7406 035a 08BF     		it	eq
 7407 035c E522     		moveq	r2, #229
 7408 035e 0A70     		strb	r2, [r1]
ARM GAS  /tmp/ccFKl8QX.s 			page 130


 7409 0360 4A1C     		adds	r2, r1, #1
 7410              	.L2128:
 7411 0362 997A     		ldrb	r1, [r3, #10]	@ zero_extendqisi2
 7412 0364 2029     		cmp	r1, #32
 7413 0366 04D0     		beq	.L2130
 7414 0368 0529     		cmp	r1, #5
 7415 036a 08BF     		it	eq
 7416 036c E521     		moveq	r1, #229
 7417 036e 1170     		strb	r1, [r2]
 7418 0370 0132     		adds	r2, r2, #1
 7419              	.L2130:
 7420 0372 D97A     		ldrb	r1, [r3, #11]	@ zero_extendqisi2
 7421 0374 3172     		strb	r1, [r6, #8]
 7422 0376 D969     		ldr	r1, [r3, #28]	@ unaligned
 7423 0378 3160     		str	r1, [r6]
 7424 037a 5C7E     		ldrb	r4, [r3, #25]	@ zero_extendqisi2
 7425 037c 197E     		ldrb	r1, [r3, #24]	@ zero_extendqisi2
 7426 037e 41EA0421 		orr	r1, r1, r4, lsl #8
 7427 0382 B180     		strh	r1, [r6, #4]	@ movhi
 7428 0384 D97D     		ldrb	r1, [r3, #23]	@ zero_extendqisi2
 7429 0386 9B7D     		ldrb	r3, [r3, #22]	@ zero_extendqisi2
 7430 0388 43EA0123 		orr	r3, r3, r1, lsl #8
 7431 038c F380     		strh	r3, [r6, #6]	@ movhi
 7432              	.L2109:
 7433 038e 0023     		movs	r3, #0
 7434 0390 1370     		strb	r3, [r2]
 7435 0392 0DF50C7D 		add	sp, sp, #560
 7436              		@ sp needed
 7437 0396 BDE8F081 		pop	{r4, r5, r6, r7, r8, pc}
 7438              	.L2234:
 7439 039a 0134     		adds	r4, r4, #1
 7440 039c A142     		cmp	r1, r4
 7441 039e 2AD1     		bne	.L2054
 7442 03a0 3028     		cmp	r0, #48
 7443 03a2 28D1     		bne	.L2054
 7444 03a4 9C1C     		adds	r4, r3, #2
 7445 03a6 084B     		ldr	r3, .L2249+12
 7446 03a8 1D68     		ldr	r5, [r3]
 7447 03aa 002D     		cmp	r5, #0
 7448 03ac 7FF449AE 		bne	.L2242
 7449              	.L2142:
 7450 03b0 0C20     		movs	r0, #12
 7451 03b2 0DF50C7D 		add	sp, sp, #560
 7452              		@ sp needed
 7453 03b6 BDE8F081 		pop	{r4, r5, r6, r7, r8, pc}
 7454              	.L2250:
 7455 03ba 00BF     		.align	2
 7456              	.L2249:
 7457 03bc 46415400 		.word	5521734
 7458 03c0 00000000 		.word	.LANCHOR1
 7459 03c4 00000000 		.word	.LANCHOR2
 7460 03c8 00000000 		.word	.LANCHOR0
 7461              	.L2150:
 7462 03cc 0620     		movs	r0, #6
 7463 03ce 4FE6     		b	.L2172
 7464              	.L2236:
 7465 03d0 4FF0FF37 		mov	r7, #-1
ARM GAS  /tmp/ccFKl8QX.s 			page 131


 7466 03d4 85F80422 		strb	r2, [r5, #516]
 7467 03d8 C5F82C72 		str	r7, [r5, #556]
 7468 03dc 0123     		movs	r3, #1
 7469 03de 2946     		mov	r1, r5
 7470 03e0 95F80102 		ldrb	r0, [r5, #513]	@ zero_extendqisi2
 7471 03e4 FFF7FEFF 		bl	disk_read
 7472 03e8 0028     		cmp	r0, #0
 7473 03ea 3FF447AE 		beq	.L2243
 7474 03ee C5F82C72 		str	r7, [r5, #556]
 7475 03f2 0120     		movs	r0, #1
 7476 03f4 3CE6     		b	.L2172
 7477              	.L2054:
 7478 03f6 0B20     		movs	r0, #11
 7479 03f8 0DF50C7D 		add	sp, sp, #560
 7480              		@ sp needed
 7481 03fc BDE8F081 		pop	{r4, r5, r6, r7, r8, pc}
 7482              	.L2095:
 7483 0400 0D20     		movs	r0, #13
 7484 0402 35E6     		b	.L2172
 7485              	.L2168:
 7486 0404 0A46     		mov	r2, r1
 7487 0406 ACE7     		b	.L2128
 7488              	.L2166:
 7489 0408 1146     		mov	r1, r2
 7490 040a A2E7     		b	.L2126
 7491              	.L2237:
 7492 040c 4FF0FF38 		mov	r8, #-1
 7493 0410 0023     		movs	r3, #0
 7494 0412 4745     		cmp	r7, r8
 7495 0414 85F80432 		strb	r3, [r5, #516]
 7496 0418 C5F82C82 		str	r8, [r5, #556]
 7497 041c 15D0     		beq	.L2077
 7498 041e 0123     		movs	r3, #1
 7499 0420 3A46     		mov	r2, r7
 7500 0422 2946     		mov	r1, r5
 7501 0424 95F80102 		ldrb	r0, [r5, #513]	@ zero_extendqisi2
 7502 0428 FFF7FEFF 		bl	disk_read
 7503 042c 0028     		cmp	r0, #0
 7504 042e 79D1     		bne	.L2244
 7505 0430 95F8FF21 		ldrb	r2, [r5, #511]	@ zero_extendqisi2
 7506 0434 95F8FE31 		ldrb	r3, [r5, #510]	@ zero_extendqisi2
 7507 0438 C5F82C72 		str	r7, [r5, #556]
 7508 043c 43EA0223 		orr	r3, r3, r2, lsl #8
 7509 0440 4AF65522 		movw	r2, #43605
 7510 0444 9342     		cmp	r3, r2
 7511 0446 7FF44FAE 		bne	.L2071
 7512              	.L2077:
 7513 044a D5F83630 		ldr	r3, [r5, #54]	@ unaligned
 7514 044e 794A     		ldr	r2, .L2251
 7515 0450 23F07F43 		bic	r3, r3, #-16777216
 7516 0454 9342     		cmp	r3, r2
 7517 0456 3FF481AE 		beq	.L2065
 7518 045a D5F85230 		ldr	r3, [r5, #82]	@ unaligned
 7519 045e 23F07F43 		bic	r3, r3, #-16777216
 7520 0462 9342     		cmp	r3, r2
 7521 0464 7FF440AE 		bne	.L2071
 7522 0468 78E6     		b	.L2065
ARM GAS  /tmp/ccFKl8QX.s 			page 132


 7523              	.L2238:
 7524 046a 4FF0FF38 		mov	r8, #-1
 7525 046e 0023     		movs	r3, #0
 7526 0470 4745     		cmp	r7, r8
 7527 0472 85F80432 		strb	r3, [r5, #516]
 7528 0476 C5F82C82 		str	r8, [r5, #556]
 7529 047a 0AD0     		beq	.L2083
 7530 047c 0123     		movs	r3, #1
 7531 047e 3A46     		mov	r2, r7
 7532 0480 2946     		mov	r1, r5
 7533 0482 95F80102 		ldrb	r0, [r5, #513]	@ zero_extendqisi2
 7534 0486 FFF7FEFF 		bl	disk_read
 7535 048a 0028     		cmp	r0, #0
 7536 048c 4DD1     		bne	.L2245
 7537 048e C5F82C72 		str	r7, [r5, #556]
 7538              	.L2083:
 7539 0492 95F8FF21 		ldrb	r2, [r5, #511]	@ zero_extendqisi2
 7540 0496 95F8FE31 		ldrb	r3, [r5, #510]	@ zero_extendqisi2
 7541 049a 43EA0223 		orr	r3, r3, r2, lsl #8
 7542 049e 4AF65522 		movw	r2, #43605
 7543 04a2 9342     		cmp	r3, r2
 7544 04a4 7FF424AE 		bne	.L2079
 7545 04a8 D5F83630 		ldr	r3, [r5, #54]	@ unaligned
 7546 04ac 614A     		ldr	r2, .L2251
 7547 04ae 23F07F43 		bic	r3, r3, #-16777216
 7548 04b2 9342     		cmp	r3, r2
 7549 04b4 3FF452AE 		beq	.L2065
 7550 04b8 D5F85230 		ldr	r3, [r5, #82]	@ unaligned
 7551 04bc 23F07F43 		bic	r3, r3, #-16777216
 7552 04c0 9342     		cmp	r3, r2
 7553 04c2 7FF415AE 		bne	.L2079
 7554 04c6 49E6     		b	.L2065
 7555              	.L2239:
 7556 04c8 4FF0FF38 		mov	r8, #-1
 7557 04cc 0023     		movs	r3, #0
 7558 04ce 4745     		cmp	r7, r8
 7559 04d0 85F80432 		strb	r3, [r5, #516]
 7560 04d4 C5F82C82 		str	r8, [r5, #556]
 7561 04d8 09D0     		beq	.L2089
 7562 04da 0123     		movs	r3, #1
 7563 04dc 3A46     		mov	r2, r7
 7564 04de 2946     		mov	r1, r5
 7565 04e0 95F80102 		ldrb	r0, [r5, #513]	@ zero_extendqisi2
 7566 04e4 FFF7FEFF 		bl	disk_read
 7567 04e8 10BB     		cbnz	r0, .L2246
 7568 04ea C5F82C72 		str	r7, [r5, #556]
 7569              	.L2089:
 7570 04ee 95F8FF21 		ldrb	r2, [r5, #511]	@ zero_extendqisi2
 7571 04f2 95F8FE31 		ldrb	r3, [r5, #510]	@ zero_extendqisi2
 7572 04f6 43EA0223 		orr	r3, r3, r2, lsl #8
 7573 04fa 4AF65522 		movw	r2, #43605
 7574 04fe 9342     		cmp	r3, r2
 7575 0500 7FF4FAAD 		bne	.L2085
 7576 0504 D5F83630 		ldr	r3, [r5, #54]	@ unaligned
 7577 0508 4A4A     		ldr	r2, .L2251
 7578 050a 23F07F43 		bic	r3, r3, #-16777216
 7579 050e 9342     		cmp	r3, r2
ARM GAS  /tmp/ccFKl8QX.s 			page 133


 7580 0510 3FF424AE 		beq	.L2065
 7581 0514 D5F85230 		ldr	r3, [r5, #82]	@ unaligned
 7582 0518 23F07F43 		bic	r3, r3, #-16777216
 7583 051c 9342     		cmp	r3, r2
 7584 051e 7FF4EBAD 		bne	.L2085
 7585 0522 1BE6     		b	.L2065
 7586              	.L2244:
 7587 0524 C5F82C82 		str	r8, [r5, #556]
 7588 0528 DEE5     		b	.L2071
 7589              	.L2245:
 7590 052a C5F82C82 		str	r8, [r5, #556]
 7591 052e DFE5     		b	.L2079
 7592              	.L2246:
 7593 0530 C5F82C82 		str	r8, [r5, #556]
 7594 0534 E0E5     		b	.L2085
 7595              	.L2145:
 7596 0536 0746     		mov	r7, r0
 7597 0538 10E6     		b	.L2065
 7598              	.L2093:
 7599 053a C5F82C82 		str	r8, [r5, #556]
 7600 053e 0120     		movs	r0, #1
 7601 0540 96E5     		b	.L2172
 7602              	.L2241:
 7603 0542 791C     		adds	r1, r7, #1
 7604 0544 2846     		mov	r0, r5
 7605 0546 FFF7FEFF 		bl	move_window
 7606 054a 0028     		cmp	r0, #0
 7607 054c 7FF48BAE 		bne	.L2221
 7608 0550 95F8FF21 		ldrb	r2, [r5, #511]	@ zero_extendqisi2
 7609 0554 95F8FE31 		ldrb	r3, [r5, #510]	@ zero_extendqisi2
 7610 0558 85F80582 		strb	r8, [r5, #517]
 7611 055c 43EA0223 		orr	r3, r3, r2, lsl #8
 7612 0560 4AF65522 		movw	r2, #43605
 7613 0564 9342     		cmp	r3, r2
 7614 0566 7FF47EAE 		bne	.L2221
 7615 056a 334B     		ldr	r3, .L2251+4
 7616 056c 2A68     		ldr	r2, [r5]
 7617 056e 9A42     		cmp	r2, r3
 7618 0570 7FF479AE 		bne	.L2221
 7619 0574 03F1FF53 		add	r3, r3, #534773760
 7620 0578 03F50053 		add	r3, r3, #8192
 7621 057c D5F8E421 		ldr	r2, [r5, #484]
 7622 0580 2033     		adds	r3, r3, #32
 7623 0582 9A42     		cmp	r2, r3
 7624 0584 7FF46FAE 		bne	.L2221
 7625 0588 D5F8E821 		ldr	r2, [r5, #488]
 7626 058c D5F8EC31 		ldr	r3, [r5, #492]
 7627 0590 C5F81022 		str	r2, [r5, #528]
 7628 0594 C5F80C32 		str	r3, [r5, #524]
 7629 0598 65E6     		b	.L2221
 7630              	.L2240:
 7631 059a 0233     		adds	r3, r3, #2
 7632 059c 3844     		add	r0, r0, r7
 7633 059e BE44     		add	lr, lr, r7
 7634 05a0 C5F81432 		str	r3, [r5, #532]
 7635 05a4 C5F82002 		str	r0, [r5, #544]
 7636 05a8 C5F828E2 		str	lr, [r5, #552]
ARM GAS  /tmp/ccFKl8QX.s 			page 134


 7637 05ac C5F81C72 		str	r7, [r5, #540]
 7638 05b0 B8F1000F 		cmp	r8, #0
 7639 05b4 3FF424AF 		beq	.L2095
 7640 05b8 5B00     		lsls	r3, r3, #1
 7641 05ba 03F2FF13 		addw	r3, r3, #511
 7642 05be 0844     		add	r0, r0, r1
 7643 05c0 B2EB532F 		cmp	r2, r3, lsr #9
 7644 05c4 C5F82402 		str	r0, [r5, #548]
 7645 05c8 FFF41AAF 		bcc	.L2095
 7646 05cc 4FF0FF33 		mov	r3, #-1
 7647 05d0 8022     		movs	r2, #128
 7648 05d2 85F80522 		strb	r2, [r5, #517]
 7649 05d6 C5F81032 		str	r3, [r5, #528]
 7650 05da C5F80C32 		str	r3, [r5, #524]
 7651 05de 0222     		movs	r2, #2
 7652 05e0 42E6     		b	.L2103
 7653              	.L2099:
 7654 05e2 0233     		adds	r3, r3, #2
 7655 05e4 3844     		add	r0, r0, r7
 7656 05e6 BE44     		add	lr, lr, r7
 7657 05e8 C5F81432 		str	r3, [r5, #532]
 7658 05ec C5F82002 		str	r0, [r5, #544]
 7659 05f0 C5F828E2 		str	lr, [r5, #552]
 7660 05f4 C5F81C72 		str	r7, [r5, #540]
 7661 05f8 B8F1000F 		cmp	r8, #0
 7662 05fc 3FF400AF 		beq	.L2095
 7663 0600 03F00107 		and	r7, r3, #1
 7664 0604 07F2FF17 		addw	r7, r7, #511
 7665 0608 03EB4303 		add	r3, r3, r3, lsl #1
 7666 060c 07EB5303 		add	r3, r7, r3, lsr #1
 7667 0610 0844     		add	r0, r0, r1
 7668 0612 B2EB532F 		cmp	r2, r3, lsr #9
 7669 0616 C5F82402 		str	r0, [r5, #548]
 7670 061a FFF4F1AE 		bcc	.L2095
 7671 061e 4FF0FF33 		mov	r3, #-1
 7672 0622 8022     		movs	r2, #128
 7673 0624 85F80522 		strb	r2, [r5, #517]
 7674 0628 C5F81032 		str	r3, [r5, #528]
 7675 062c C5F80C32 		str	r3, [r5, #524]
 7676 0630 0122     		movs	r2, #1
 7677 0632 19E6     		b	.L2103
 7678              	.L2252:
 7679              		.align	2
 7680              	.L2251:
 7681 0634 46415400 		.word	5521734
 7682 0638 52526141 		.word	1096897106
 7684              		.section	.text.f_getfree,"ax",%progbits
 7685              		.align	1
 7686              		.p2align 2,,3
 7687              		.global	f_getfree
 7688              		.syntax unified
 7689              		.thumb
 7690              		.thumb_func
 7691              		.fpu fpv4-sp-d16
 7693              	f_getfree:
 7694              		@ args = 0, pretend = 0, frame = 16
 7695              		@ frame_needed = 0, uses_anonymous_args = 0
ARM GAS  /tmp/ccFKl8QX.s 			page 135


 7696 0000 2DE9F04F 		push	{r4, r5, r6, r7, r8, r9, r10, fp, lr}
 7697 0004 85B0     		sub	sp, sp, #20
 7698 0006 04AB     		add	r3, sp, #16
 7699 0008 0191     		str	r1, [sp, #4]
 7700 000a 43F8040D 		str	r0, [r3, #-4]!
 7701 000e 1446     		mov	r4, r2
 7702 0010 1046     		mov	r0, r2
 7703 0012 1946     		mov	r1, r3
 7704 0014 0022     		movs	r2, #0
 7705 0016 FFF7FEFF 		bl	find_volume
 7706 001a 8346     		mov	fp, r0
 7707 001c 68BB     		cbnz	r0, .L2280
 7708 001e 2568     		ldr	r5, [r4]
 7709 0020 D5F81442 		ldr	r4, [r5, #532]
 7710 0024 D5F81032 		ldr	r3, [r5, #528]
 7711 0028 A21E     		subs	r2, r4, #2
 7712 002a 9342     		cmp	r3, r2
 7713 002c 29D9     		bls	.L2293
 7714 002e 95F800A2 		ldrb	r10, [r5, #512]	@ zero_extendqisi2
 7715 0032 BAF1010F 		cmp	r10, #1
 7716 0036 7ED0     		beq	.L2294
 7717 0038 D5F82092 		ldr	r9, [r5, #544]
 7718 003c 0290     		str	r0, [sp, #8]
 7719 003e 0346     		mov	r3, r0
 7720 0040 0646     		mov	r6, r0
 7721 0042 8046     		mov	r8, r0
 7722              	.L2272:
 7723 0044 1EB3     		cbz	r6, .L2295
 7724 0046 BAF1020F 		cmp	r10, #2
 7725 004a 42D0     		beq	.L2296
 7726              	.L2268:
 7727 004c 1A68     		ldr	r2, [r3]	@ unaligned
 7728 004e 32F07042 		bics	r2, r2, #-268435456
 7729 0052 08BF     		it	eq
 7730 0054 08F10108 		addeq	r8, r8, #1
 7731 0058 0433     		adds	r3, r3, #4
 7732 005a 043E     		subs	r6, r6, #4
 7733              	.L2270:
 7734 005c 013C     		subs	r4, r4, #1
 7735 005e F1D1     		bne	.L2272
 7736 0060 DDF808B0 		ldr	fp, [sp, #8]
 7737 0064 4746     		mov	r7, r8
 7738              	.L2258:
 7739 0066 95F80532 		ldrb	r3, [r5, #517]	@ zero_extendqisi2
 7740 006a C5F81072 		str	r7, [r5, #528]
 7741 006e 43F00103 		orr	r3, r3, #1
 7742 0072 85F80532 		strb	r3, [r5, #517]
 7743 0076 019B     		ldr	r3, [sp, #4]
 7744 0078 1F60     		str	r7, [r3]
 7745              	.L2280:
 7746 007a 5846     		mov	r0, fp
 7747 007c 05B0     		add	sp, sp, #20
 7748              		@ sp needed
 7749 007e BDE8F08F 		pop	{r4, r5, r6, r7, r8, r9, r10, fp, pc}
 7750              	.L2293:
 7751 0082 019A     		ldr	r2, [sp, #4]
 7752 0084 5846     		mov	r0, fp
ARM GAS  /tmp/ccFKl8QX.s 			page 136


 7753 0086 1360     		str	r3, [r2]
 7754 0088 05B0     		add	sp, sp, #20
 7755              		@ sp needed
 7756 008a BDE8F08F 		pop	{r4, r5, r6, r7, r8, r9, r10, fp, pc}
 7757              	.L2295:
 7758 008e D5F82C72 		ldr	r7, [r5, #556]
 7759 0092 B945     		cmp	r9, r7
 7760 0094 09F1010B 		add	fp, r9, #1
 7761 0098 14D0     		beq	.L2264
 7762 009a 95F80432 		ldrb	r3, [r5, #516]	@ zero_extendqisi2
 7763 009e 13BB     		cbnz	r3, .L2297
 7764              	.L2266:
 7765 00a0 0123     		movs	r3, #1
 7766 00a2 4A46     		mov	r2, r9
 7767 00a4 2946     		mov	r1, r5
 7768 00a6 95F80102 		ldrb	r0, [r5, #513]	@ zero_extendqisi2
 7769 00aa FFF7FEFF 		bl	disk_read
 7770 00ae 38B1     		cbz	r0, .L2298
 7771 00b0 4FF0FF33 		mov	r3, #-1
 7772 00b4 4746     		mov	r7, r8
 7773 00b6 C5F82C32 		str	r3, [r5, #556]
 7774 00ba 4FF0010B 		mov	fp, #1
 7775 00be D2E7     		b	.L2258
 7776              	.L2298:
 7777 00c0 C5F82C92 		str	r9, [r5, #556]
 7778              	.L2264:
 7779 00c4 BAF1020F 		cmp	r10, #2
 7780 00c8 D946     		mov	r9, fp
 7781 00ca 2B46     		mov	r3, r5
 7782 00cc 4FF40076 		mov	r6, #512
 7783 00d0 BCD1     		bne	.L2268
 7784              	.L2296:
 7785 00d2 5978     		ldrb	r1, [r3, #1]	@ zero_extendqisi2
 7786 00d4 1A78     		ldrb	r2, [r3]	@ zero_extendqisi2
 7787 00d6 52EA0122 		orrs	r2, r2, r1, lsl #8
 7788 00da 08BF     		it	eq
 7789 00dc 08F10108 		addeq	r8, r8, #1
 7790 00e0 0233     		adds	r3, r3, #2
 7791 00e2 023E     		subs	r6, r6, #2
 7792 00e4 BAE7     		b	.L2270
 7793              	.L2297:
 7794 00e6 0123     		movs	r3, #1
 7795 00e8 3A46     		mov	r2, r7
 7796 00ea 2946     		mov	r1, r5
 7797 00ec 95F80102 		ldrb	r0, [r5, #513]	@ zero_extendqisi2
 7798 00f0 FFF7FEFF 		bl	disk_write
 7799 00f4 D8B9     		cbnz	r0, .L2279
 7800 00f6 D5F82022 		ldr	r2, [r5, #544]
 7801 00fa D5F81832 		ldr	r3, [r5, #536]
 7802 00fe 85F80462 		strb	r6, [r5, #516]
 7803 0102 BA1A     		subs	r2, r7, r2
 7804 0104 9A42     		cmp	r2, r3
 7805 0106 CBD2     		bcs	.L2266
 7806 0108 95F80362 		ldrb	r6, [r5, #515]	@ zero_extendqisi2
 7807 010c 012E     		cmp	r6, #1
 7808 010e 02D8     		bhi	.L2267
 7809 0110 C6E7     		b	.L2266
ARM GAS  /tmp/ccFKl8QX.s 			page 137


 7810              	.L2299:
 7811 0112 D5F81832 		ldr	r3, [r5, #536]
 7812              	.L2267:
 7813 0116 95F80102 		ldrb	r0, [r5, #513]	@ zero_extendqisi2
 7814 011a 1F44     		add	r7, r7, r3
 7815 011c 013E     		subs	r6, r6, #1
 7816 011e 3A46     		mov	r2, r7
 7817 0120 0123     		movs	r3, #1
 7818 0122 2946     		mov	r1, r5
 7819 0124 FFF7FEFF 		bl	disk_write
 7820 0128 012E     		cmp	r6, #1
 7821 012a F2D1     		bne	.L2299
 7822 012c B8E7     		b	.L2266
 7823              	.L2279:
 7824 012e 4746     		mov	r7, r8
 7825              	.L2290:
 7826 0130 4FF0010B 		mov	fp, #1
 7827 0134 97E7     		b	.L2258
 7828              	.L2294:
 7829 0136 0226     		movs	r6, #2
 7830 0138 0746     		mov	r7, r0
 7831              	.L2259:
 7832 013a B442     		cmp	r4, r6
 7833 013c 3146     		mov	r1, r6
 7834 013e 2846     		mov	r0, r5
 7835 0140 06F10106 		add	r6, r6, #1
 7836 0144 0DD9     		bls	.L2278
 7837 0146 FFF7FEFF 		bl	get_fat.part.6
 7838 014a 431C     		adds	r3, r0, #1
 7839 014c F0D0     		beq	.L2290
 7840 014e 0128     		cmp	r0, #1
 7841 0150 07D0     		beq	.L2278
 7842 0152 00B9     		cbnz	r0, .L2260
 7843 0154 0137     		adds	r7, r7, #1
 7844              	.L2260:
 7845 0156 D5F81442 		ldr	r4, [r5, #532]
 7846 015a A642     		cmp	r6, r4
 7847 015c 83D2     		bcs	.L2258
 7848 015e 012E     		cmp	r6, #1
 7849 0160 EBD8     		bhi	.L2259
 7850              	.L2278:
 7851 0162 4FF0020B 		mov	fp, #2
 7852 0166 7EE7     		b	.L2258
 7854              		.section	.text.f_truncate,"ax",%progbits
 7855              		.align	1
 7856              		.p2align 2,,3
 7857              		.global	f_truncate
 7858              		.syntax unified
 7859              		.thumb
 7860              		.thumb_func
 7861              		.fpu fpv4-sp-d16
 7863              	f_truncate:
 7864              		@ args = 0, pretend = 0, frame = 0
 7865              		@ frame_needed = 0, uses_anonymous_args = 0
 7866 0000 40B1     		cbz	r0, .L2345
 7867 0002 38B5     		push	{r3, r4, r5, lr}
 7868 0004 D0F80032 		ldr	r3, [r0, #512]
ARM GAS  /tmp/ccFKl8QX.s 			page 138


 7869 0008 13B1     		cbz	r3, .L2303
 7870 000a 93F80022 		ldrb	r2, [r3, #512]	@ zero_extendqisi2
 7871 000e 1AB9     		cbnz	r2, .L2346
 7872              	.L2303:
 7873 0010 0920     		movs	r0, #9
 7874 0012 38BD     		pop	{r3, r4, r5, pc}
 7875              	.L2345:
 7876 0014 0920     		movs	r0, #9
 7877 0016 7047     		bx	lr
 7878              	.L2346:
 7879 0018 B3F80612 		ldrh	r1, [r3, #518]
 7880 001c B0F80422 		ldrh	r2, [r0, #516]
 7881 0020 9142     		cmp	r1, r2
 7882 0022 F5D1     		bne	.L2303
 7883 0024 0446     		mov	r4, r0
 7884 0026 93F80102 		ldrb	r0, [r3, #513]	@ zero_extendqisi2
 7885 002a FFF7FEFF 		bl	disk_status
 7886 002e C007     		lsls	r0, r0, #31
 7887 0030 EED4     		bmi	.L2303
 7888 0032 94F80702 		ldrb	r0, [r4, #519]	@ zero_extendqisi2
 7889 0036 28B9     		cbnz	r0, .L2333
 7890 0038 94F80622 		ldrb	r2, [r4, #518]	@ zero_extendqisi2
 7891 003c 9107     		lsls	r1, r2, #30
 7892 003e 02D4     		bmi	.L2347
 7893 0040 0720     		movs	r0, #7
 7894 0042 38BD     		pop	{r3, r4, r5, pc}
 7895              	.L2333:
 7896 0044 38BD     		pop	{r3, r4, r5, pc}
 7897              	.L2347:
 7898 0046 D4F80832 		ldr	r3, [r4, #520]
 7899 004a D4F80C12 		ldr	r1, [r4, #524]
 7900 004e 9942     		cmp	r1, r3
 7901 0050 19D9     		bls	.L2317
 7902 0052 42F02002 		orr	r2, r2, #32
 7903 0056 84F80622 		strb	r2, [r4, #518]
 7904 005a C4F80C32 		str	r3, [r4, #524]
 7905 005e A3B9     		cbnz	r3, .L2306
 7906 0060 D4F81012 		ldr	r1, [r4, #528]
 7907 0064 0129     		cmp	r1, #1
 7908 0066 05D9     		bls	.L2322
 7909 0068 D4F80002 		ldr	r0, [r4, #512]
 7910 006c D0F81432 		ldr	r3, [r0, #532]
 7911 0070 9942     		cmp	r1, r3
 7912 0072 51D3     		bcc	.L2348
 7913              	.L2322:
 7914 0074 0220     		movs	r0, #2
 7915              	.L2307:
 7916 0076 0023     		movs	r3, #0
 7917 0078 C4F81032 		str	r3, [r4, #528]
 7918              	.L2308:
 7919 007c 80B9     		cbnz	r0, .L2311
 7920              	.L2319:
 7921 007e 94F80632 		ldrb	r3, [r4, #518]	@ zero_extendqisi2
 7922 0082 5B06     		lsls	r3, r3, #25
 7923 0084 0FD4     		bmi	.L2313
 7924              	.L2317:
 7925 0086 0020     		movs	r0, #0
ARM GAS  /tmp/ccFKl8QX.s 			page 139


 7926 0088 38BD     		pop	{r3, r4, r5, pc}
 7927              	.L2306:
 7928 008a D4F81412 		ldr	r1, [r4, #532]
 7929 008e 0129     		cmp	r1, #1
 7930 0090 05D9     		bls	.L2309
 7931 0092 D4F80002 		ldr	r0, [r4, #512]
 7932 0096 D0F81432 		ldr	r3, [r0, #532]
 7933 009a 9942     		cmp	r1, r3
 7934 009c 17D3     		bcc	.L2349
 7935              	.L2309:
 7936 009e 0220     		movs	r0, #2
 7937              	.L2311:
 7938 00a0 84F80702 		strb	r0, [r4, #519]
 7939 00a4 38BD     		pop	{r3, r4, r5, pc}
 7940              	.L2313:
 7941 00a6 D4F80032 		ldr	r3, [r4, #512]
 7942 00aa D4F81822 		ldr	r2, [r4, #536]
 7943 00ae 93F80102 		ldrb	r0, [r3, #513]	@ zero_extendqisi2
 7944 00b2 2146     		mov	r1, r4
 7945 00b4 0123     		movs	r3, #1
 7946 00b6 FFF7FEFF 		bl	disk_write
 7947 00ba 30B9     		cbnz	r0, .L2314
 7948 00bc 94F80632 		ldrb	r3, [r4, #518]	@ zero_extendqisi2
 7949 00c0 23F04003 		bic	r3, r3, #64
 7950 00c4 84F80632 		strb	r3, [r4, #518]
 7951 00c8 38BD     		pop	{r3, r4, r5, pc}
 7952              	.L2314:
 7953 00ca 0120     		movs	r0, #1
 7954 00cc E8E7     		b	.L2311
 7955              	.L2349:
 7956 00ce FFF7FEFF 		bl	get_fat.part.6
 7957 00d2 421C     		adds	r2, r0, #1
 7958 00d4 0546     		mov	r5, r0
 7959 00d6 F8D0     		beq	.L2314
 7960 00d8 0128     		cmp	r0, #1
 7961 00da E0D0     		beq	.L2309
 7962 00dc D4F80002 		ldr	r0, [r4, #512]
 7963 00e0 D0F81432 		ldr	r3, [r0, #532]
 7964 00e4 AB42     		cmp	r3, r5
 7965 00e6 CAD9     		bls	.L2319
 7966 00e8 D4F81412 		ldr	r1, [r4, #532]
 7967 00ec 0129     		cmp	r1, #1
 7968 00ee D6D9     		bls	.L2309
 7969 00f0 8B42     		cmp	r3, r1
 7970 00f2 D4D9     		bls	.L2309
 7971 00f4 6FF07042 		mvn	r2, #-268435456
 7972 00f8 FFF7FEFF 		bl	put_fat.part.8
 7973 00fc 0028     		cmp	r0, #0
 7974 00fe CFD1     		bne	.L2311
 7975 0100 012D     		cmp	r5, #1
 7976 0102 CCD9     		bls	.L2309
 7977 0104 D4F80002 		ldr	r0, [r4, #512]
 7978 0108 D0F81432 		ldr	r3, [r0, #532]
 7979 010c 9D42     		cmp	r5, r3
 7980 010e C6D2     		bcs	.L2309
 7981 0110 2946     		mov	r1, r5
 7982 0112 FFF7FEFF 		bl	remove_chain.part.10
ARM GAS  /tmp/ccFKl8QX.s 			page 140


 7983 0116 B1E7     		b	.L2308
 7984              	.L2348:
 7985 0118 FFF7FEFF 		bl	remove_chain.part.10
 7986 011c ABE7     		b	.L2307
 7988              		.section	.text.f_unlink,"ax",%progbits
 7989              		.align	1
 7990              		.p2align 2,,3
 7991              		.global	f_unlink
 7992              		.syntax unified
 7993              		.thumb
 7994              		.thumb_func
 7995              		.fpu fpv4-sp-d16
 7997              	f_unlink:
 7998              		@ args = 0, pretend = 0, frame = 1104
 7999              		@ frame_needed = 0, uses_anonymous_args = 0
 8000 0000 2DE9F043 		push	{r4, r5, r6, r7, r8, r9, lr}
 8001 0004 ADF2544D 		subw	sp, sp, #1108
 8002 0008 0023     		movs	r3, #0
 8003 000a 8493     		str	r3, [sp, #528]
 8004 000c 0028     		cmp	r0, #0
 8005 000e 00F00882 		beq	.L2351
 8006 0012 0446     		mov	r4, r0
 8007 0014 0078     		ldrb	r0, [r0]	@ zero_extendqisi2
 8008 0016 2028     		cmp	r0, #32
 8009 0018 0CD9     		bls	.L2352
 8010 001a 3A28     		cmp	r0, #58
 8011 001c 00F00182 		beq	.L2351
 8012 0020 2346     		mov	r3, r4
 8013 0022 02E0     		b	.L2353
 8014              	.L2571:
 8015 0024 3A2A     		cmp	r2, #58
 8016 0026 21D0     		beq	.L2570
 8017 0028 0B46     		mov	r3, r1
 8018              	.L2353:
 8019 002a 5A78     		ldrb	r2, [r3, #1]	@ zero_extendqisi2
 8020 002c 202A     		cmp	r2, #32
 8021 002e 03F10101 		add	r1, r3, #1
 8022 0032 F7D8     		bhi	.L2571
 8023              	.L2352:
 8024 0034 A84B     		ldr	r3, .L2592
 8025 0036 1D68     		ldr	r5, [r3]
 8026 0038 25B3     		cbz	r5, .L2447
 8027              	.L2574:
 8028 003a 8495     		str	r5, [sp, #528]
 8029 003c 95F80032 		ldrb	r3, [r5, #512]	@ zero_extendqisi2
 8030 0040 2BB1     		cbz	r3, .L2356
 8031 0042 95F80102 		ldrb	r0, [r5, #513]	@ zero_extendqisi2
 8032 0046 FFF7FEFF 		bl	disk_status
 8033 004a C607     		lsls	r6, r0, #31
 8034 004c 1FD5     		bpl	.L2572
 8035              	.L2356:
 8036 004e 0020     		movs	r0, #0
 8037 0050 85F80002 		strb	r0, [r5, #512]
 8038 0054 85F80102 		strb	r0, [r5, #513]
 8039 0058 FFF7FEFF 		bl	disk_initialize
 8040 005c C207     		lsls	r2, r0, #31
 8041 005e 40F1CA81 		bpl	.L2573
ARM GAS  /tmp/ccFKl8QX.s 			page 141


 8042 0062 0320     		movs	r0, #3
 8043              	.L2462:
 8044 0064 0DF2544D 		addw	sp, sp, #1108
 8045              		@ sp needed
 8046 0068 BDE8F083 		pop	{r4, r5, r6, r7, r8, r9, pc}
 8047              	.L2570:
 8048 006c 0134     		adds	r4, r4, #1
 8049 006e A142     		cmp	r1, r4
 8050 0070 40F0D781 		bne	.L2351
 8051 0074 3028     		cmp	r0, #48
 8052 0076 40F0D481 		bne	.L2351
 8053 007a 9C1C     		adds	r4, r3, #2
 8054 007c 964B     		ldr	r3, .L2592
 8055 007e 1D68     		ldr	r5, [r3]
 8056 0080 002D     		cmp	r5, #0
 8057 0082 DAD1     		bne	.L2574
 8058              	.L2447:
 8059 0084 0C20     		movs	r0, #12
 8060 0086 0DF2544D 		addw	sp, sp, #1108
 8061              		@ sp needed
 8062 008a BDE8F083 		pop	{r4, r5, r6, r7, r8, r9, pc}
 8063              	.L2572:
 8064 008e 4107     		lsls	r1, r0, #29
 8065 0090 40F1FE80 		bpl	.L2402
 8066              	.L2358:
 8067 0094 0A20     		movs	r0, #10
 8068 0096 0DF2544D 		addw	sp, sp, #1108
 8069              		@ sp needed
 8070 009a BDE8F083 		pop	{r4, r5, r6, r7, r8, r9, pc}
 8071              	.L2590:
 8072 009e D5F83630 		ldr	r3, [r5, #54]	@ unaligned
 8073 00a2 8E4A     		ldr	r2, .L2592+4
 8074 00a4 23F07F43 		bic	r3, r3, #-16777216
 8075 00a8 9342     		cmp	r3, r2
 8076 00aa 00F08083 		beq	.L2450
 8077 00ae D5F85230 		ldr	r3, [r5, #82]	@ unaligned
 8078 00b2 23F07F43 		bic	r3, r3, #-16777216
 8079 00b6 9342     		cmp	r3, r2
 8080 00b8 00F07983 		beq	.L2450
 8081 00bc 95F8C271 		ldrb	r7, [r5, #450]	@ zero_extendqisi2
 8082 00c0 0FB1     		cbz	r7, .L2362
 8083 00c2 D5F8C671 		ldr	r7, [r5, #454]	@ unaligned
 8084              	.L2362:
 8085 00c6 95F8D231 		ldrb	r3, [r5, #466]	@ zero_extendqisi2
 8086 00ca 0BB1     		cbz	r3, .L2363
 8087 00cc D5F8D631 		ldr	r3, [r5, #470]	@ unaligned
 8088              	.L2363:
 8089 00d0 8D93     		str	r3, [sp, #564]
 8090 00d2 8CAE     		add	r6, sp, #560
 8091 00d4 95F8E231 		ldrb	r3, [r5, #482]	@ zero_extendqisi2
 8092 00d8 0BB1     		cbz	r3, .L2364
 8093 00da D5F8E631 		ldr	r3, [r5, #486]	@ unaligned
 8094              	.L2364:
 8095 00de B360     		str	r3, [r6, #8]
 8096 00e0 95F8F231 		ldrb	r3, [r5, #498]	@ zero_extendqisi2
 8097 00e4 0BB1     		cbz	r3, .L2365
 8098 00e6 D5F8F631 		ldr	r3, [r5, #502]	@ unaligned
ARM GAS  /tmp/ccFKl8QX.s 			page 142


 8099              	.L2365:
 8100 00ea F360     		str	r3, [r6, #12]
 8101 00ec 002F     		cmp	r7, #0
 8102 00ee 40F09482 		bne	.L2575
 8103              	.L2367:
 8104 00f2 7768     		ldr	r7, [r6, #4]
 8105 00f4 002F     		cmp	r7, #0
 8106 00f6 40F0A482 		bne	.L2576
 8107              	.L2375:
 8108 00fa B768     		ldr	r7, [r6, #8]
 8109 00fc 002F     		cmp	r7, #0
 8110 00fe 40F07882 		bne	.L2577
 8111              	.L2381:
 8112 0102 F768     		ldr	r7, [r6, #12]
 8113 0104 002F     		cmp	r7, #0
 8114 0106 00F01182 		beq	.L2391
 8115 010a 4FF0FF36 		mov	r6, #-1
 8116 010e 0023     		movs	r3, #0
 8117 0110 B742     		cmp	r7, r6
 8118 0112 85F80432 		strb	r3, [r5, #516]
 8119 0116 C5F82C62 		str	r6, [r5, #556]
 8120 011a 0BD0     		beq	.L2388
 8121 011c 0123     		movs	r3, #1
 8122 011e 3A46     		mov	r2, r7
 8123 0120 2946     		mov	r1, r5
 8124 0122 95F80102 		ldrb	r0, [r5, #513]	@ zero_extendqisi2
 8125 0126 FFF7FEFF 		bl	disk_read
 8126 012a 0028     		cmp	r0, #0
 8127 012c 40F07581 		bne	.L2359
 8128 0130 C5F82C72 		str	r7, [r5, #556]
 8129              	.L2388:
 8130 0134 95F8FF11 		ldrb	r1, [r5, #511]	@ zero_extendqisi2
 8131 0138 95F8FE31 		ldrb	r3, [r5, #510]	@ zero_extendqisi2
 8132 013c 4AF65522 		movw	r2, #43605
 8133 0140 43EA0123 		orr	r3, r3, r1, lsl #8
 8134 0144 9342     		cmp	r3, r2
 8135 0146 40F0F181 		bne	.L2391
 8136 014a D5F83630 		ldr	r3, [r5, #54]	@ unaligned
 8137 014e 634A     		ldr	r2, .L2592+4
 8138 0150 23F07F43 		bic	r3, r3, #-16777216
 8139 0154 9342     		cmp	r3, r2
 8140 0156 06D0     		beq	.L2361
 8141 0158 D5F85230 		ldr	r3, [r5, #82]	@ unaligned
 8142 015c 23F07F43 		bic	r3, r3, #-16777216
 8143 0160 9342     		cmp	r3, r2
 8144 0162 40F0E381 		bne	.L2391
 8145              	.L2361:
 8146 0166 2A7B     		ldrb	r2, [r5, #12]	@ zero_extendqisi2
 8147 0168 EB7A     		ldrb	r3, [r5, #11]	@ zero_extendqisi2
 8148 016a 43EA0223 		orr	r3, r3, r2, lsl #8
 8149 016e B3F5007F 		cmp	r3, #512
 8150 0172 40F0DB81 		bne	.L2391
 8151 0176 EB7D     		ldrb	r3, [r5, #23]	@ zero_extendqisi2
 8152 0178 297C     		ldrb	r1, [r5, #16]	@ zero_extendqisi2
 8153 017a AA7D     		ldrb	r2, [r5, #22]	@ zero_extendqisi2
 8154 017c 85F80312 		strb	r1, [r5, #515]
 8155 0180 52EA0322 		orrs	r2, r2, r3, lsl #8
ARM GAS  /tmp/ccFKl8QX.s 			page 143


 8156 0184 01F1FF33 		add	r3, r1, #-1
 8157 0188 08BF     		it	eq
 8158 018a 6A6A     		ldreq	r2, [r5, #36]
 8159 018c C5F81822 		str	r2, [r5, #536]
 8160 0190 012B     		cmp	r3, #1
 8161 0192 00F2CB81 		bhi	.L2391
 8162 0196 95F80DC0 		ldrb	ip, [r5, #13]	@ zero_extendqisi2
 8163 019a 85F802C2 		strb	ip, [r5, #514]
 8164 019e 02FB01F1 		mul	r1, r2, r1
 8165 01a2 BCF1000F 		cmp	ip, #0
 8166 01a6 00F0C181 		beq	.L2391
 8167 01aa 0CF1FF33 		add	r3, ip, #-1
 8168 01ae 13EA0C0F 		tst	r3, ip
 8169 01b2 40F0BB81 		bne	.L2391
 8170 01b6 AB7C     		ldrb	r3, [r5, #18]	@ zero_extendqisi2
 8171 01b8 6E7C     		ldrb	r6, [r5, #17]	@ zero_extendqisi2
 8172 01ba 46EA0326 		orr	r6, r6, r3, lsl #8
 8173 01be 3307     		lsls	r3, r6, #28
 8174 01c0 A5F80862 		strh	r6, [r5, #520]	@ movhi
 8175 01c4 40F0B281 		bne	.L2391
 8176 01c8 287D     		ldrb	r0, [r5, #20]	@ zero_extendqisi2
 8177 01ca EB7C     		ldrb	r3, [r5, #19]	@ zero_extendqisi2
 8178 01cc 95F80FE0 		ldrb	lr, [r5, #15]	@ zero_extendqisi2
 8179 01d0 53EA0023 		orrs	r3, r3, r0, lsl #8
 8180 01d4 A87B     		ldrb	r0, [r5, #14]	@ zero_extendqisi2
 8181 01d6 08BF     		it	eq
 8182 01d8 2B6A     		ldreq	r3, [r5, #32]
 8183 01da 50EA0E20 		orrs	r0, r0, lr, lsl #8
 8184 01de 00F0A581 		beq	.L2391
 8185 01e2 00EB161E 		add	lr, r0, r6, lsr #4
 8186 01e6 8E44     		add	lr, lr, r1
 8187 01e8 9E45     		cmp	lr, r3
 8188 01ea 00F29F81 		bhi	.L2391
 8189 01ee A3EB0E03 		sub	r3, r3, lr
 8190 01f2 B3FBFCF3 		udiv	r3, r3, ip
 8191 01f6 002B     		cmp	r3, #0
 8192 01f8 00F09881 		beq	.L2391
 8193 01fc 40F6F57C 		movw	ip, #4085
 8194 0200 6345     		cmp	r3, ip
 8195 0202 40F2AC82 		bls	.L2394
 8196 0206 4FF6F57C 		movw	ip, #65525
 8197 020a 6345     		cmp	r3, ip
 8198 020c 40F28482 		bls	.L2578
 8199 0210 0233     		adds	r3, r3, #2
 8200 0212 3844     		add	r0, r0, r7
 8201 0214 0EEB0701 		add	r1, lr, r7
 8202 0218 C5F81432 		str	r3, [r5, #532]
 8203 021c C5F82002 		str	r0, [r5, #544]
 8204 0220 C5F82812 		str	r1, [r5, #552]
 8205 0224 C5F81C72 		str	r7, [r5, #540]
 8206 0228 002E     		cmp	r6, #0
 8207 022a 40F07F81 		bne	.L2391
 8208 022e 9B00     		lsls	r3, r3, #2
 8209 0230 03F2FF13 		addw	r3, r3, #511
 8210 0234 E96A     		ldr	r1, [r5, #44]
 8211 0236 C5F82412 		str	r1, [r5, #548]
 8212 023a B2EB532F 		cmp	r2, r3, lsr #9
ARM GAS  /tmp/ccFKl8QX.s 			page 144


 8213 023e C0F07581 		bcc	.L2391
 8214 0242 95F83120 		ldrb	r2, [r5, #49]	@ zero_extendqisi2
 8215 0246 95F83030 		ldrb	r3, [r5, #48]	@ zero_extendqisi2
 8216 024a 43EA0223 		orr	r3, r3, r2, lsl #8
 8217 024e 8021     		movs	r1, #128
 8218 0250 4FF0FF32 		mov	r2, #-1
 8219 0254 012B     		cmp	r3, #1
 8220 0256 C5F81022 		str	r2, [r5, #528]
 8221 025a C5F80C22 		str	r2, [r5, #524]
 8222 025e 85F80512 		strb	r1, [r5, #517]
 8223 0262 00F0A682 		beq	.L2579
 8224              	.L2553:
 8225 0266 0321     		movs	r1, #3
 8226              	.L2398:
 8227 0268 1D4E     		ldr	r6, .L2592+8
 8228 026a 1E4B     		ldr	r3, .L2592+12
 8229 026c 3288     		ldrh	r2, [r6]
 8230 026e 1868     		ldr	r0, [r3]
 8231 0270 85F80012 		strb	r1, [r5, #512]
 8232 0274 0132     		adds	r2, r2, #1
 8233 0276 92B2     		uxth	r2, r2
 8234 0278 A842     		cmp	r0, r5
 8235 027a 3280     		strh	r2, [r6]	@ movhi
 8236 027c A5F80622 		strh	r2, [r5, #518]	@ movhi
 8237 0280 04BF     		itt	eq
 8238 0282 0022     		moveq	r2, #0
 8239 0284 1A60     		streq	r2, [r3]
 8240 0286 DA68     		ldr	r2, [r3, #12]
 8241 0288 9542     		cmp	r5, r2
 8242 028a 01D1     		bne	.L2402
 8243 028c 0022     		movs	r2, #0
 8244 028e DA60     		str	r2, [r3, #12]
 8245              	.L2402:
 8246 0290 01AB     		add	r3, sp, #4
 8247 0292 2146     		mov	r1, r4
 8248 0294 04A8     		add	r0, sp, #16
 8249 0296 8A93     		str	r3, [sp, #552]
 8250 0298 FFF7FEFF 		bl	follow_path
 8251 029c 0028     		cmp	r0, #0
 8252 029e 7FF4E1AE 		bne	.L2462
 8253 02a2 104B     		ldr	r3, .L2592+12
 8254 02a4 849A     		ldr	r2, [sp, #528]
 8255 02a6 1968     		ldr	r1, [r3]
 8256 02a8 8698     		ldr	r0, [sp, #536]
 8257 02aa BDF81642 		ldrh	r4, [sp, #534]
 8258 02ae 11B1     		cbz	r1, .L2403
 8259 02b0 8A42     		cmp	r2, r1
 8260 02b2 00F0F980 		beq	.L2580
 8261              	.L2403:
 8262 02b6 D968     		ldr	r1, [r3, #12]
 8263 02b8 11B1     		cbz	r1, .L2405
 8264 02ba 9142     		cmp	r1, r2
 8265 02bc 00F0EA80 		beq	.L2581
 8266              	.L2405:
 8267 02c0 899B     		ldr	r3, [sp, #548]
 8268 02c2 002B     		cmp	r3, #0
 8269 02c4 00F0C380 		beq	.L2457
ARM GAS  /tmp/ccFKl8QX.s 			page 145


 8270 02c8 D97A     		ldrb	r1, [r3, #11]	@ zero_extendqisi2
 8271 02ca C807     		lsls	r0, r1, #31
 8272 02cc 0CD5     		bpl	.L2406
 8273              	.L2417:
 8274 02ce 0720     		movs	r0, #7
 8275 02d0 0DF2544D 		addw	sp, sp, #1108
 8276              		@ sp needed
 8277 02d4 BDE8F083 		pop	{r4, r5, r6, r7, r8, r9, pc}
 8278              	.L2593:
 8279              		.align	2
 8280              	.L2592:
 8281 02d8 00000000 		.word	.LANCHOR0
 8282 02dc 46415400 		.word	5521734
 8283 02e0 00000000 		.word	.LANCHOR1
 8284 02e4 00000000 		.word	.LANCHOR2
 8285              	.L2406:
 8286 02e8 92F80022 		ldrb	r2, [r2, #512]	@ zero_extendqisi2
 8287 02ec D87E     		ldrb	r0, [r3, #27]	@ zero_extendqisi2
 8288 02ee 9D7E     		ldrb	r5, [r3, #26]	@ zero_extendqisi2
 8289 02f0 032A     		cmp	r2, #3
 8290 02f2 45EA0025 		orr	r5, r5, r0, lsl #8
 8291 02f6 00F09980 		beq	.L2582
 8292              	.L2435:
 8293 02fa 002D     		cmp	r5, #0
 8294 02fc 47D0     		beq	.L2407
 8295 02fe CA06     		lsls	r2, r1, #27
 8296 0300 45D5     		bpl	.L2407
 8297 0302 8CAE     		add	r6, sp, #560
 8298 0304 04A9     		add	r1, sp, #16
 8299 0306 3046     		mov	r0, r6
 8300 0308 4FF40872 		mov	r2, #544
 8301 030c FFF7FEFF 		bl	memcpy
 8302 0310 3046     		mov	r0, r6
 8303 0312 0221     		movs	r1, #2
 8304 0314 C6F80852 		str	r5, [r6, #520]
 8305 0318 FFF7FEFF 		bl	dir_sdi
 8306 031c 0028     		cmp	r0, #0
 8307 031e 7FF4A1AE 		bne	.L2462
 8308 0322 D6F81092 		ldr	r9, [r6, #528]
 8309 0326 B9F1000F 		cmp	r9, #0
 8310 032a 30D0     		beq	.L2407
 8311 032c D6F80042 		ldr	r4, [r6, #512]
 8312              	.L2408:
 8313 0330 D4F82C82 		ldr	r8, [r4, #556]
 8314 0334 C145     		cmp	r9, r8
 8315 0336 10D0     		beq	.L2409
 8316 0338 94F80432 		ldrb	r3, [r4, #516]	@ zero_extendqisi2
 8317 033c 002B     		cmp	r3, #0
 8318 033e 40F0BC80 		bne	.L2583
 8319              	.L2412:
 8320 0342 0123     		movs	r3, #1
 8321 0344 4A46     		mov	r2, r9
 8322 0346 2146     		mov	r1, r4
 8323 0348 94F80102 		ldrb	r0, [r4, #513]	@ zero_extendqisi2
 8324 034c FFF7FEFF 		bl	disk_read
 8325 0350 0028     		cmp	r0, #0
 8326 0352 40F0D880 		bne	.L2439
ARM GAS  /tmp/ccFKl8QX.s 			page 146


 8327 0356 C4F82C92 		str	r9, [r4, #556]
 8328              	.L2409:
 8329 035a D6F81422 		ldr	r2, [r6, #532]
 8330 035e 1378     		ldrb	r3, [r2]	@ zero_extendqisi2
 8331 0360 93B1     		cbz	r3, .L2415
 8332 0362 E52B     		cmp	r3, #229
 8333 0364 0AD0     		beq	.L2416
 8334 0366 2E2B     		cmp	r3, #46
 8335 0368 08D0     		beq	.L2416
 8336 036a D37A     		ldrb	r3, [r2, #11]	@ zero_extendqisi2
 8337 036c 03F03F03 		and	r3, r3, #63
 8338 0370 0F2B     		cmp	r3, #15
 8339 0372 03D0     		beq	.L2416
 8340 0374 23F02003 		bic	r3, r3, #32
 8341 0378 082B     		cmp	r3, #8
 8342 037a A8D1     		bne	.L2417
 8343              	.L2416:
 8344 037c B6F80672 		ldrh	r7, [r6, #518]
 8345 0380 0137     		adds	r7, r7, #1
 8346 0382 BBB2     		uxth	r3, r7
 8347 0384 002B     		cmp	r3, #0
 8348 0386 64D1     		bne	.L2584
 8349              	.L2415:
 8350 0388 0023     		movs	r3, #0
 8351 038a C6F81032 		str	r3, [r6, #528]
 8352              	.L2407:
 8353 038e BDF81612 		ldrh	r1, [sp, #534]
 8354 0392 04A8     		add	r0, sp, #16
 8355 0394 FFF7FEFF 		bl	dir_sdi
 8356 0398 0028     		cmp	r0, #0
 8357 039a 7FF463AE 		bne	.L2462
 8358 039e 849C     		ldr	r4, [sp, #528]
 8359 03a0 889F     		ldr	r7, [sp, #544]
 8360 03a2 D4F82C62 		ldr	r6, [r4, #556]
 8361 03a6 B742     		cmp	r7, r6
 8362 03a8 10D0     		beq	.L2425
 8363 03aa 94F80432 		ldrb	r3, [r4, #516]	@ zero_extendqisi2
 8364 03ae 002B     		cmp	r3, #0
 8365 03b0 40F0BE80 		bne	.L2585
 8366              	.L2427:
 8367 03b4 0123     		movs	r3, #1
 8368 03b6 3A46     		mov	r2, r7
 8369 03b8 2146     		mov	r1, r4
 8370 03ba 94F80102 		ldrb	r0, [r4, #513]	@ zero_extendqisi2
 8371 03be FFF7FEFF 		bl	disk_read
 8372 03c2 0028     		cmp	r0, #0
 8373 03c4 40F09F80 		bne	.L2439
 8374 03c8 C4F82C72 		str	r7, [r4, #556]
 8375              	.L2425:
 8376 03cc 2022     		movs	r2, #32
 8377 03ce 0021     		movs	r1, #0
 8378 03d0 8998     		ldr	r0, [sp, #548]
 8379 03d2 FFF7FEFF 		bl	memset
 8380 03d6 899B     		ldr	r3, [sp, #548]
 8381 03d8 E522     		movs	r2, #229
 8382 03da 1A70     		strb	r2, [r3]
 8383 03dc 8498     		ldr	r0, [sp, #528]
ARM GAS  /tmp/ccFKl8QX.s 			page 147


 8384 03de 0123     		movs	r3, #1
 8385 03e0 80F80432 		strb	r3, [r0, #516]
 8386 03e4 85B3     		cbz	r5, .L2429
 8387 03e6 9D42     		cmp	r5, r3
 8388 03e8 03D0     		beq	.L2461
 8389 03ea D0F81432 		ldr	r3, [r0, #532]
 8390 03ee AB42     		cmp	r3, r5
 8391 03f0 23D8     		bhi	.L2586
 8392              	.L2461:
 8393 03f2 0220     		movs	r0, #2
 8394 03f4 36E6     		b	.L2462
 8395              	.L2573:
 8396 03f6 10F00402 		ands	r2, r0, #4
 8397 03fa 7FF44BAE 		bne	.L2358
 8398 03fe 4FF0FF36 		mov	r6, #-1
 8399 0402 85F80422 		strb	r2, [r5, #516]
 8400 0406 C5F82C62 		str	r6, [r5, #556]
 8401 040a 0123     		movs	r3, #1
 8402 040c 2946     		mov	r1, r5
 8403 040e 95F80102 		ldrb	r0, [r5, #513]	@ zero_extendqisi2
 8404 0412 FFF7FEFF 		bl	disk_read
 8405 0416 0028     		cmp	r0, #0
 8406 0418 7BD0     		beq	.L2587
 8407              	.L2359:
 8408 041a C5F82C62 		str	r6, [r5, #556]
 8409 041e 0120     		movs	r0, #1
 8410 0420 20E6     		b	.L2462
 8411              	.L2351:
 8412 0422 0B20     		movs	r0, #11
 8413 0424 0DF2544D 		addw	sp, sp, #1108
 8414              		@ sp needed
 8415 0428 BDE8F083 		pop	{r4, r5, r6, r7, r8, r9, pc}
 8416              	.L2582:
 8417 042c 5A7D     		ldrb	r2, [r3, #21]	@ zero_extendqisi2
 8418 042e 1B7D     		ldrb	r3, [r3, #20]	@ zero_extendqisi2
 8419 0430 43EA0223 		orr	r3, r3, r2, lsl #8
 8420 0434 45EA0345 		orr	r5, r5, r3, lsl #16
 8421 0438 5FE7     		b	.L2435
 8422              	.L2586:
 8423 043a 2946     		mov	r1, r5
 8424 043c FFF7FEFF 		bl	remove_chain.part.10
 8425 0440 0028     		cmp	r0, #0
 8426 0442 7FF40FAE 		bne	.L2462
 8427 0446 8498     		ldr	r0, [sp, #528]
 8428              	.L2429:
 8429 0448 FFF7FEFF 		bl	sync_fs
 8430 044c 0AE6     		b	.L2462
 8431              	.L2457:
 8432 044e 0620     		movs	r0, #6
 8433 0450 08E6     		b	.L2462
 8434              	.L2584:
 8435 0452 D6F81092 		ldr	r9, [r6, #528]
 8436 0456 B9F1000F 		cmp	r9, #0
 8437 045a 95D0     		beq	.L2415
 8438 045c 17F00F03 		ands	r3, r7, #15
 8439 0460 40F08F80 		bne	.L2588
 8440 0464 D6F80C12 		ldr	r1, [r6, #524]
ARM GAS  /tmp/ccFKl8QX.s 			page 148


 8441 0468 D6F80042 		ldr	r4, [r6, #512]
 8442 046c 09F10109 		add	r9, r9, #1
 8443 0470 C6F81092 		str	r9, [r6, #528]
 8444 0474 0029     		cmp	r1, #0
 8445 0476 40F08D80 		bne	.L2420
 8446 047a B4F80832 		ldrh	r3, [r4, #520]
 8447 047e 9F42     		cmp	r7, r3
 8448 0480 82D2     		bcs	.L2415
 8449              	.L2421:
 8450 0482 A6F80672 		strh	r7, [r6, #518]	@ movhi
 8451 0486 C6F81442 		str	r4, [r6, #532]
 8452 048a B9F1000F 		cmp	r9, #0
 8453 048e 7FF44FAF 		bne	.L2408
 8454 0492 1CE7     		b	.L2417
 8455              	.L2581:
 8456 0494 1969     		ldr	r1, [r3, #16]
 8457 0496 8142     		cmp	r1, r0
 8458 0498 7FF412AF 		bne	.L2405
 8459 049c 9B8A     		ldrh	r3, [r3, #20]
 8460 049e A342     		cmp	r3, r4
 8461 04a0 7FF40EAF 		bne	.L2405
 8462              	.L2456:
 8463 04a4 1020     		movs	r0, #16
 8464 04a6 DDE5     		b	.L2462
 8465              	.L2580:
 8466 04a8 5968     		ldr	r1, [r3, #4]
 8467 04aa 8842     		cmp	r0, r1
 8468 04ac 7FF403AF 		bne	.L2403
 8469 04b0 1989     		ldrh	r1, [r3, #8]
 8470 04b2 A142     		cmp	r1, r4
 8471 04b4 7FF4FFAE 		bne	.L2403
 8472 04b8 F4E7     		b	.L2456
 8473              	.L2583:
 8474 04ba 0123     		movs	r3, #1
 8475 04bc 4246     		mov	r2, r8
 8476 04be 2146     		mov	r1, r4
 8477 04c0 94F80102 		ldrb	r0, [r4, #513]	@ zero_extendqisi2
 8478 04c4 FFF7FEFF 		bl	disk_write
 8479 04c8 08BB     		cbnz	r0, .L2554
 8480 04ca D4F82022 		ldr	r2, [r4, #544]
 8481 04ce D4F81832 		ldr	r3, [r4, #536]
 8482 04d2 84F80402 		strb	r0, [r4, #516]
 8483 04d6 A8EB0202 		sub	r2, r8, r2
 8484 04da 9A42     		cmp	r2, r3
 8485 04dc BFF431AF 		bcs	.L2412
 8486 04e0 94F80372 		ldrb	r7, [r4, #515]	@ zero_extendqisi2
 8487 04e4 012F     		cmp	r7, #1
 8488 04e6 02D8     		bhi	.L2413
 8489 04e8 2BE7     		b	.L2412
 8490              	.L2589:
 8491 04ea D4F81832 		ldr	r3, [r4, #536]
 8492              	.L2413:
 8493 04ee 94F80102 		ldrb	r0, [r4, #513]	@ zero_extendqisi2
 8494 04f2 9844     		add	r8, r8, r3
 8495 04f4 013F     		subs	r7, r7, #1
 8496 04f6 4246     		mov	r2, r8
 8497 04f8 0123     		movs	r3, #1
ARM GAS  /tmp/ccFKl8QX.s 			page 149


 8498 04fa 2146     		mov	r1, r4
 8499 04fc FFF7FEFF 		bl	disk_write
 8500 0500 012F     		cmp	r7, #1
 8501 0502 F2D1     		bne	.L2589
 8502 0504 1DE7     		b	.L2412
 8503              	.L2439:
 8504 0506 4FF0FF33 		mov	r3, #-1
 8505 050a C4F82C32 		str	r3, [r4, #556]
 8506              	.L2554:
 8507 050e 0120     		movs	r0, #1
 8508 0510 A8E5     		b	.L2462
 8509              	.L2587:
 8510 0512 95F8FF21 		ldrb	r2, [r5, #511]	@ zero_extendqisi2
 8511 0516 95F8FE31 		ldrb	r3, [r5, #510]	@ zero_extendqisi2
 8512 051a C5F82C02 		str	r0, [r5, #556]
 8513 051e 43EA0223 		orr	r3, r3, r2, lsl #8
 8514 0522 4AF65522 		movw	r2, #43605
 8515 0526 9342     		cmp	r3, r2
 8516 0528 3FF4B9AD 		beq	.L2590
 8517              	.L2391:
 8518 052c 0D20     		movs	r0, #13
 8519 052e 99E5     		b	.L2462
 8520              	.L2585:
 8521 0530 0123     		movs	r3, #1
 8522 0532 3246     		mov	r2, r6
 8523 0534 2146     		mov	r1, r4
 8524 0536 94F80102 		ldrb	r0, [r4, #513]	@ zero_extendqisi2
 8525 053a FFF7FEFF 		bl	disk_write
 8526 053e 0028     		cmp	r0, #0
 8527 0540 E5D1     		bne	.L2554
 8528 0542 D4F82022 		ldr	r2, [r4, #544]
 8529 0546 D4F81832 		ldr	r3, [r4, #536]
 8530 054a 84F80402 		strb	r0, [r4, #516]
 8531 054e B21A     		subs	r2, r6, r2
 8532 0550 9A42     		cmp	r2, r3
 8533 0552 BFF42FAF 		bcs	.L2427
 8534 0556 94F80382 		ldrb	r8, [r4, #515]	@ zero_extendqisi2
 8535 055a B8F1010F 		cmp	r8, #1
 8536 055e 02D8     		bhi	.L2428
 8537 0560 28E7     		b	.L2427
 8538              	.L2591:
 8539 0562 D4F81832 		ldr	r3, [r4, #536]
 8540              	.L2428:
 8541 0566 94F80102 		ldrb	r0, [r4, #513]	@ zero_extendqisi2
 8542 056a 1E44     		add	r6, r6, r3
 8543 056c 08F1FF38 		add	r8, r8, #-1
 8544 0570 3246     		mov	r2, r6
 8545 0572 0123     		movs	r3, #1
 8546 0574 2146     		mov	r1, r4
 8547 0576 FFF7FEFF 		bl	disk_write
 8548 057a B8F1010F 		cmp	r8, #1
 8549 057e F0D1     		bne	.L2591
 8550 0580 18E7     		b	.L2427
 8551              	.L2588:
 8552 0582 D6F80042 		ldr	r4, [r6, #512]
 8553 0586 A6F80672 		strh	r7, [r6, #518]	@ movhi
 8554 058a 04EB4313 		add	r3, r4, r3, lsl #5
ARM GAS  /tmp/ccFKl8QX.s 			page 150


 8555 058e C6F81432 		str	r3, [r6, #532]
 8556 0592 CDE6     		b	.L2408
 8557              	.L2420:
 8558 0594 94F80232 		ldrb	r3, [r4, #514]	@ zero_extendqisi2
 8559 0598 013B     		subs	r3, r3, #1
 8560 059a 13EA1713 		ands	r3, r3, r7, lsr #4
 8561 059e 7FF470AF 		bne	.L2421
 8562 05a2 0129     		cmp	r1, #1
 8563 05a4 7FF625AF 		bls	.L2461
 8564 05a8 D4F81432 		ldr	r3, [r4, #532]
 8565 05ac 9942     		cmp	r1, r3
 8566 05ae BFF420AF 		bcs	.L2461
 8567 05b2 2046     		mov	r0, r4
 8568 05b4 FFF7FEFF 		bl	get_fat.part.6
 8569 05b8 0128     		cmp	r0, #1
 8570 05ba 7FF61AAF 		bls	.L2461
 8571 05be 431C     		adds	r3, r0, #1
 8572 05c0 A5D0     		beq	.L2554
 8573 05c2 D6F80042 		ldr	r4, [r6, #512]
 8574 05c6 D4F81432 		ldr	r3, [r4, #532]
 8575 05ca 9842     		cmp	r0, r3
 8576 05cc BFF4DCAE 		bcs	.L2415
 8577 05d0 023B     		subs	r3, r3, #2
 8578 05d2 821E     		subs	r2, r0, #2
 8579 05d4 9A42     		cmp	r2, r3
 8580 05d6 C6F80C02 		str	r0, [r6, #524]
 8581 05da 3BBF     		ittet	cc
 8582 05dc 94F80292 		ldrbcc	r9, [r4, #514]	@ zero_extendqisi2
 8583 05e0 D4F82832 		ldrcc	r3, [r4, #552]
 8584 05e4 4FF00009 		movcs	r9, #0
 8585 05e8 02FB0939 		mlacc	r9, r2, r9, r3
 8586 05ec C6F81092 		str	r9, [r6, #528]
 8587 05f0 47E7     		b	.L2421
 8588              	.L2577:
 8589 05f2 4FF0FF38 		mov	r8, #-1
 8590 05f6 0023     		movs	r3, #0
 8591 05f8 4745     		cmp	r7, r8
 8592 05fa 85F80432 		strb	r3, [r5, #516]
 8593 05fe C5F82C82 		str	r8, [r5, #556]
 8594 0602 34D0     		beq	.L2385
 8595 0604 0123     		movs	r3, #1
 8596 0606 3A46     		mov	r2, r7
 8597 0608 2946     		mov	r1, r5
 8598 060a 95F80102 		ldrb	r0, [r5, #513]	@ zero_extendqisi2
 8599 060e FFF7FEFF 		bl	disk_read
 8600 0612 50B3     		cbz	r0, .L2384
 8601 0614 C5F82C82 		str	r8, [r5, #556]
 8602 0618 73E5     		b	.L2381
 8603              	.L2575:
 8604 061a 4FF0FF38 		mov	r8, #-1
 8605 061e 0023     		movs	r3, #0
 8606 0620 4745     		cmp	r7, r8
 8607 0622 85F80432 		strb	r3, [r5, #516]
 8608 0626 C5F82C82 		str	r8, [r5, #556]
 8609 062a 48D0     		beq	.L2373
 8610 062c 0123     		movs	r3, #1
 8611 062e 3A46     		mov	r2, r7
ARM GAS  /tmp/ccFKl8QX.s 			page 151


 8612 0630 2946     		mov	r1, r5
 8613 0632 95F80102 		ldrb	r0, [r5, #513]	@ zero_extendqisi2
 8614 0636 FFF7FEFF 		bl	disk_read
 8615 063a 98B3     		cbz	r0, .L2371
 8616 063c C5F82C82 		str	r8, [r5, #556]
 8617 0640 57E5     		b	.L2367
 8618              	.L2576:
 8619 0642 4FF0FF38 		mov	r8, #-1
 8620 0646 0023     		movs	r3, #0
 8621 0648 4745     		cmp	r7, r8
 8622 064a 85F80432 		strb	r3, [r5, #516]
 8623 064e C5F82C82 		str	r8, [r5, #556]
 8624 0652 46D0     		beq	.L2379
 8625 0654 0123     		movs	r3, #1
 8626 0656 3A46     		mov	r2, r7
 8627 0658 2946     		mov	r1, r5
 8628 065a 95F80102 		ldrb	r0, [r5, #513]	@ zero_extendqisi2
 8629 065e FFF7FEFF 		bl	disk_read
 8630 0662 E0B3     		cbz	r0, .L2378
 8631 0664 C5F82C82 		str	r8, [r5, #556]
 8632 0668 47E5     		b	.L2375
 8633              	.L2384:
 8634 066a C5F82C72 		str	r7, [r5, #556]
 8635              	.L2385:
 8636 066e 95F8FF21 		ldrb	r2, [r5, #511]	@ zero_extendqisi2
 8637 0672 95F8FE31 		ldrb	r3, [r5, #510]	@ zero_extendqisi2
 8638 0676 43EA0223 		orr	r3, r3, r2, lsl #8
 8639 067a 4AF65522 		movw	r2, #43605
 8640 067e 9342     		cmp	r3, r2
 8641 0680 7FF43FAD 		bne	.L2381
 8642 0684 D5F83630 		ldr	r3, [r5, #54]	@ unaligned
 8643 0688 604A     		ldr	r2, .L2594
 8644 068a 23F07F43 		bic	r3, r3, #-16777216
 8645 068e 9342     		cmp	r3, r2
 8646 0690 3FF469AD 		beq	.L2361
 8647 0694 D5F85230 		ldr	r3, [r5, #82]	@ unaligned
 8648 0698 23F07F43 		bic	r3, r3, #-16777216
 8649 069c 9342     		cmp	r3, r2
 8650 069e 7FF430AD 		bne	.L2381
 8651 06a2 60E5     		b	.L2361
 8652              	.L2371:
 8653 06a4 95F8FF21 		ldrb	r2, [r5, #511]	@ zero_extendqisi2
 8654 06a8 95F8FE31 		ldrb	r3, [r5, #510]	@ zero_extendqisi2
 8655 06ac C5F82C72 		str	r7, [r5, #556]
 8656 06b0 43EA0223 		orr	r3, r3, r2, lsl #8
 8657 06b4 4AF65522 		movw	r2, #43605
 8658 06b8 9342     		cmp	r3, r2
 8659 06ba 7FF41AAD 		bne	.L2367
 8660              	.L2373:
 8661 06be D5F83630 		ldr	r3, [r5, #54]	@ unaligned
 8662 06c2 524A     		ldr	r2, .L2594
 8663 06c4 23F07F43 		bic	r3, r3, #-16777216
 8664 06c8 9342     		cmp	r3, r2
 8665 06ca 3FF44CAD 		beq	.L2361
 8666 06ce D5F85230 		ldr	r3, [r5, #82]	@ unaligned
 8667 06d2 23F07F43 		bic	r3, r3, #-16777216
 8668 06d6 9342     		cmp	r3, r2
ARM GAS  /tmp/ccFKl8QX.s 			page 152


 8669 06d8 7FF40BAD 		bne	.L2367
 8670 06dc 43E5     		b	.L2361
 8671              	.L2378:
 8672 06de C5F82C72 		str	r7, [r5, #556]
 8673              	.L2379:
 8674 06e2 95F8FF21 		ldrb	r2, [r5, #511]	@ zero_extendqisi2
 8675 06e6 95F8FE31 		ldrb	r3, [r5, #510]	@ zero_extendqisi2
 8676 06ea 43EA0223 		orr	r3, r3, r2, lsl #8
 8677 06ee 4AF65522 		movw	r2, #43605
 8678 06f2 9342     		cmp	r3, r2
 8679 06f4 7FF401AD 		bne	.L2375
 8680 06f8 D5F83630 		ldr	r3, [r5, #54]	@ unaligned
 8681 06fc 434A     		ldr	r2, .L2594
 8682 06fe 23F07F43 		bic	r3, r3, #-16777216
 8683 0702 9342     		cmp	r3, r2
 8684 0704 3FF42FAD 		beq	.L2361
 8685 0708 D5F85230 		ldr	r3, [r5, #82]	@ unaligned
 8686 070c 23F07F43 		bic	r3, r3, #-16777216
 8687 0710 9342     		cmp	r3, r2
 8688 0712 7FF4F2AC 		bne	.L2375
 8689 0716 26E5     		b	.L2361
 8690              	.L2578:
 8691 0718 0233     		adds	r3, r3, #2
 8692 071a 3844     		add	r0, r0, r7
 8693 071c BE44     		add	lr, lr, r7
 8694 071e C5F81432 		str	r3, [r5, #532]
 8695 0722 C5F82002 		str	r0, [r5, #544]
 8696 0726 C5F828E2 		str	lr, [r5, #552]
 8697 072a C5F81C72 		str	r7, [r5, #540]
 8698 072e 002E     		cmp	r6, #0
 8699 0730 3FF4FCAE 		beq	.L2391
 8700 0734 5B00     		lsls	r3, r3, #1
 8701 0736 03F2FF13 		addw	r3, r3, #511
 8702 073a 0844     		add	r0, r0, r1
 8703 073c B2EB532F 		cmp	r2, r3, lsr #9
 8704 0740 C5F82402 		str	r0, [r5, #548]
 8705 0744 FFF4F2AE 		bcc	.L2391
 8706 0748 4FF0FF33 		mov	r3, #-1
 8707 074c 8022     		movs	r2, #128
 8708 074e C5F81032 		str	r3, [r5, #528]
 8709 0752 C5F80C32 		str	r3, [r5, #524]
 8710 0756 85F80522 		strb	r2, [r5, #517]
 8711 075a 0221     		movs	r1, #2
 8712 075c 84E5     		b	.L2398
 8713              	.L2394:
 8714 075e 0233     		adds	r3, r3, #2
 8715 0760 3844     		add	r0, r0, r7
 8716 0762 BE44     		add	lr, lr, r7
 8717 0764 C5F81432 		str	r3, [r5, #532]
 8718 0768 C5F82002 		str	r0, [r5, #544]
 8719 076c C5F828E2 		str	lr, [r5, #552]
 8720 0770 C5F81C72 		str	r7, [r5, #540]
 8721 0774 002E     		cmp	r6, #0
 8722 0776 3FF4D9AE 		beq	.L2391
 8723 077a 03F00106 		and	r6, r3, #1
 8724 077e 06F2FF16 		addw	r6, r6, #511
 8725 0782 03EB4303 		add	r3, r3, r3, lsl #1
ARM GAS  /tmp/ccFKl8QX.s 			page 153


 8726 0786 06EB5303 		add	r3, r6, r3, lsr #1
 8727 078a 0844     		add	r0, r0, r1
 8728 078c B2EB532F 		cmp	r2, r3, lsr #9
 8729 0790 C5F82402 		str	r0, [r5, #548]
 8730 0794 FFF4CAAE 		bcc	.L2391
 8731 0798 4FF0FF33 		mov	r3, #-1
 8732 079c 8022     		movs	r2, #128
 8733 079e C5F81032 		str	r3, [r5, #528]
 8734 07a2 C5F80C32 		str	r3, [r5, #524]
 8735 07a6 85F80522 		strb	r2, [r5, #517]
 8736 07aa 0121     		movs	r1, #1
 8737 07ac 5CE5     		b	.L2398
 8738              	.L2450:
 8739 07ae 0746     		mov	r7, r0
 8740 07b0 D9E4     		b	.L2361
 8741              	.L2579:
 8742 07b2 791C     		adds	r1, r7, #1
 8743 07b4 2846     		mov	r0, r5
 8744 07b6 FFF7FEFF 		bl	move_window
 8745 07ba 0028     		cmp	r0, #0
 8746 07bc 7FF453AD 		bne	.L2553
 8747 07c0 95F8FF21 		ldrb	r2, [r5, #511]	@ zero_extendqisi2
 8748 07c4 95F8FE31 		ldrb	r3, [r5, #510]	@ zero_extendqisi2
 8749 07c8 85F80562 		strb	r6, [r5, #517]
 8750 07cc 43EA0223 		orr	r3, r3, r2, lsl #8
 8751 07d0 4AF65522 		movw	r2, #43605
 8752 07d4 9342     		cmp	r3, r2
 8753 07d6 7FF446AD 		bne	.L2553
 8754 07da 0D4B     		ldr	r3, .L2594+4
 8755 07dc 2A68     		ldr	r2, [r5]
 8756 07de 9A42     		cmp	r2, r3
 8757 07e0 7FF441AD 		bne	.L2553
 8758 07e4 03F1FF53 		add	r3, r3, #534773760
 8759 07e8 03F50053 		add	r3, r3, #8192
 8760 07ec D5F8E421 		ldr	r2, [r5, #484]
 8761 07f0 2033     		adds	r3, r3, #32
 8762 07f2 9A42     		cmp	r2, r3
 8763 07f4 7FF437AD 		bne	.L2553
 8764 07f8 D5F8E821 		ldr	r2, [r5, #488]
 8765 07fc D5F8EC31 		ldr	r3, [r5, #492]
 8766 0800 C5F81022 		str	r2, [r5, #528]
 8767 0804 C5F80C32 		str	r3, [r5, #524]
 8768 0808 2DE5     		b	.L2553
 8769              	.L2595:
 8770 080a 00BF     		.align	2
 8771              	.L2594:
 8772 080c 46415400 		.word	5521734
 8773 0810 52526141 		.word	1096897106
 8775              		.section	.text.f_mkdir,"ax",%progbits
 8776              		.align	1
 8777              		.p2align 2,,3
 8778              		.global	f_mkdir
 8779              		.syntax unified
 8780              		.thumb
 8781              		.thumb_func
 8782              		.fpu fpv4-sp-d16
 8784              	f_mkdir:
ARM GAS  /tmp/ccFKl8QX.s 			page 154


 8785              		@ args = 0, pretend = 0, frame = 600
 8786              		@ frame_needed = 0, uses_anonymous_args = 0
 8787 0000 2DE9F04F 		push	{r4, r5, r6, r7, r8, r9, r10, fp, lr}
 8788 0004 ADF5177D 		sub	sp, sp, #604
 8789 0008 0990     		str	r0, [sp, #36]
 8790 000a FFF7FEFF 		bl	get_fattime
 8791 000e 09A9     		add	r1, sp, #36
 8792 0010 0746     		mov	r7, r0
 8793 0012 0122     		movs	r2, #1
 8794 0014 8EA8     		add	r0, sp, #568
 8795 0016 FFF7FEFF 		bl	find_volume
 8796 001a 0446     		mov	r4, r0
 8797 001c 20B1     		cbz	r0, .L2660
 8798              	.L2638:
 8799 001e 2046     		mov	r0, r4
 8800 0020 0DF5177D 		add	sp, sp, #604
 8801              		@ sp needed
 8802 0024 BDE8F08F 		pop	{r4, r5, r6, r7, r8, r9, r10, fp, pc}
 8803              	.L2660:
 8804 0028 0BAB     		add	r3, sp, #44
 8805 002a 0546     		mov	r5, r0
 8806 002c 0999     		ldr	r1, [sp, #36]
 8807 002e 9493     		str	r3, [sp, #592]
 8808 0030 0EA8     		add	r0, sp, #56
 8809 0032 FFF7FEFF 		bl	follow_path
 8810 0036 0446     		mov	r4, r0
 8811 0038 58B1     		cbz	r0, .L2628
 8812 003a 0428     		cmp	r0, #4
 8813 003c EFD1     		bne	.L2638
 8814 003e 2946     		mov	r1, r5
 8815 0040 8E98     		ldr	r0, [sp, #568]
 8816 0042 FFF7FEFF 		bl	create_chain
 8817 0046 0646     		mov	r6, r0
 8818 0048 48B1     		cbz	r0, .L2629
 8819 004a 0128     		cmp	r0, #1
 8820 004c 09D1     		bne	.L2661
 8821 004e 0224     		movs	r4, #2
 8822 0050 E5E7     		b	.L2638
 8823              	.L2628:
 8824 0052 0824     		movs	r4, #8
 8825 0054 2046     		mov	r0, r4
 8826 0056 0DF5177D 		add	sp, sp, #604
 8827              		@ sp needed
 8828 005a BDE8F08F 		pop	{r4, r5, r6, r7, r8, r9, r10, fp, pc}
 8829              	.L2629:
 8830 005e 0724     		movs	r4, #7
 8831 0060 DDE7     		b	.L2638
 8832              	.L2661:
 8833 0062 431C     		adds	r3, r0, #1
 8834 0064 08BF     		it	eq
 8835 0066 0124     		moveq	r4, #1
 8836 0068 D9D0     		beq	.L2638
 8837 006a 8E9D     		ldr	r5, [sp, #568]
 8838 006c 95F80432 		ldrb	r3, [r5, #516]	@ zero_extendqisi2
 8839 0070 002B     		cmp	r3, #0
 8840 0072 40F05381 		bne	.L2662
 8841              	.L2602:
ARM GAS  /tmp/ccFKl8QX.s 			page 155


 8842 0076 D5F81432 		ldr	r3, [r5, #532]
 8843 007a B41E     		subs	r4, r6, #2
 8844 007c 023B     		subs	r3, r3, #2
 8845 007e 9C42     		cmp	r4, r3
 8846 0080 C0F03281 		bcc	.L2663
 8847 0084 0024     		movs	r4, #0
 8848              	.L2624:
 8849 0086 4FF40072 		mov	r2, #512
 8850 008a 0021     		movs	r1, #0
 8851 008c 2846     		mov	r0, r5
 8852 008e FFF7FEFF 		bl	memset
 8853 0092 330C     		lsrs	r3, r6, #16
 8854 0094 DAB2     		uxtb	r2, r3
 8855 0096 1B0A     		lsrs	r3, r3, #8
 8856 0098 0593     		str	r3, [sp, #20]
 8857 009a C7F30723 		ubfx	r3, r7, #8, #8
 8858 009e F9B2     		uxtb	r1, r7
 8859 00a0 C7F3074E 		ubfx	lr, r7, #16, #8
 8860 00a4 0193     		str	r3, [sp, #4]
 8861 00a6 CDF808E0 		str	lr, [sp, #8]
 8862 00aa 0691     		str	r1, [sp, #24]
 8863 00ac 5FFA86FE 		uxtb	lr, r6
 8864 00b0 A975     		strb	r1, [r5, #22]
 8865 00b2 9DF80410 		ldrb	r1, [sp, #4]	@ zero_extendqisi2
 8866 00b6 CDF80CE0 		str	lr, [sp, #12]
 8867 00ba 1046     		mov	r0, r2
 8868 00bc 0892     		str	r2, [sp, #32]
 8869 00be C6F3072E 		ubfx	lr, r6, #8, #8
 8870 00c2 4FF02032 		mov	r2, #538976288
 8871 00c6 E975     		strb	r1, [r5, #23]
 8872 00c8 9DF80810 		ldrb	r1, [sp, #8]	@ zero_extendqisi2
 8873 00cc 2A60     		str	r2, [r5]	@ unaligned
 8874 00ce 6A60     		str	r2, [r5, #4]	@ unaligned
 8875 00d0 CDF810E0 		str	lr, [sp, #16]
 8876 00d4 05F12003 		add	r3, r5, #32
 8877 00d8 C5F80720 		str	r2, [r5, #7]	@ unaligned
 8878 00dc 2976     		strb	r1, [r5, #24]
 8879 00de 2A1D     		adds	r2, r5, #4
 8880 00e0 9DF80C10 		ldrb	r1, [sp, #12]	@ zero_extendqisi2
 8881 00e4 2875     		strb	r0, [r5, #20]
 8882 00e6 3F0E     		lsrs	r7, r7, #24
 8883 00e8 4FF02E0C 		mov	ip, #46
 8884 00ec 4FF01008 		mov	r8, #16
 8885 00f0 9DF81400 		ldrb	r0, [sp, #20]	@ zero_extendqisi2
 8886 00f4 A976     		strb	r1, [r5, #26]
 8887 00f6 9342     		cmp	r3, r2
 8888 00f8 9DF81010 		ldrb	r1, [sp, #16]	@ zero_extendqisi2
 8889 00fc 0797     		str	r7, [sp, #28]
 8890 00fe 6875     		strb	r0, [r5, #21]
 8891 0100 85F800C0 		strb	ip, [r5]
 8892 0104 85F80B80 		strb	r8, [r5, #11]
 8893 0108 6F76     		strb	r7, [r5, #25]
 8894 010a E976     		strb	r1, [r5, #27]
 8895 010c 04D2     		bcs	.L2637
 8896 010e 05F12402 		add	r2, r5, #36
 8897 0112 9542     		cmp	r5, r2
 8898 0114 C0F02D81 		bcc	.L2606
ARM GAS  /tmp/ccFKl8QX.s 			page 156


 8899              	.L2637:
 8900 0118 6F42     		negs	r7, r5
 8901 011a 17F00307 		ands	r7, r7, #3
 8902 011e 00F0F480 		beq	.L2632
 8903 0122 2A78     		ldrb	r2, [r5]	@ zero_extendqisi2
 8904 0124 85F82020 		strb	r2, [r5, #32]
 8905 0128 012F     		cmp	r7, #1
 8906 012a 05F12100 		add	r0, r5, #33
 8907 012e 05F1010E 		add	lr, r5, #1
 8908 0132 00F02B81 		beq	.L2633
 8909 0136 6A78     		ldrb	r2, [r5, #1]	@ zero_extendqisi2
 8910 0138 85F82120 		strb	r2, [r5, #33]
 8911 013c 032F     		cmp	r7, #3
 8912 013e 05F12200 		add	r0, r5, #34
 8913 0142 05F1020E 		add	lr, r5, #2
 8914 0146 40F01E81 		bne	.L2634
 8915 014a AA78     		ldrb	r2, [r5, #2]	@ zero_extendqisi2
 8916 014c 85F82220 		strb	r2, [r5, #34]
 8917 0150 05F12300 		add	r0, r5, #35
 8918 0154 05F1030E 		add	lr, r5, #3
 8919 0158 4FF01D0C 		mov	ip, #29
 8920              	.L2609:
 8921 015c C7F12008 		rsb	r8, r7, #32
 8922 0160 4FF00709 		mov	r9, #7
 8923 0164 1C22     		movs	r2, #28
 8924              	.L2608:
 8925 0166 E959     		ldr	r1, [r5, r7]
 8926 0168 D951     		str	r1, [r3, r7]	@ unaligned
 8927 016a E919     		adds	r1, r5, r7
 8928 016c 3B44     		add	r3, r3, r7
 8929 016e 4F68     		ldr	r7, [r1, #4]
 8930 0170 5F60     		str	r7, [r3, #4]	@ unaligned
 8931 0172 8F68     		ldr	r7, [r1, #8]
 8932 0174 9F60     		str	r7, [r3, #8]	@ unaligned
 8933 0176 CF68     		ldr	r7, [r1, #12]
 8934 0178 DF60     		str	r7, [r3, #12]	@ unaligned
 8935 017a 0F69     		ldr	r7, [r1, #16]
 8936 017c 1F61     		str	r7, [r3, #16]	@ unaligned
 8937 017e 4F69     		ldr	r7, [r1, #20]
 8938 0180 5F61     		str	r7, [r3, #20]	@ unaligned
 8939 0182 8F69     		ldr	r7, [r1, #24]
 8940 0184 9F61     		str	r7, [r3, #24]	@ unaligned
 8941 0186 B9F1080F 		cmp	r9, #8
 8942 018a 01D1     		bne	.L2610
 8943 018c C969     		ldr	r1, [r1, #28]
 8944 018e D961     		str	r1, [r3, #28]	@ unaligned
 8945              	.L2610:
 8946 0190 4245     		cmp	r2, r8
 8947 0192 ACEB020C 		sub	ip, ip, r2
 8948 0196 00EB0203 		add	r3, r0, r2
 8949 019a 0EEB0201 		add	r1, lr, r2
 8950 019e 0CD0     		beq	.L2614
 8951 01a0 1EF80270 		ldrb	r7, [lr, r2]	@ zero_extendqisi2
 8952 01a4 8754     		strb	r7, [r0, r2]
 8953 01a6 BCF1010F 		cmp	ip, #1
 8954 01aa 06D0     		beq	.L2614
 8955 01ac 4A78     		ldrb	r2, [r1, #1]	@ zero_extendqisi2
ARM GAS  /tmp/ccFKl8QX.s 			page 157


 8956 01ae 5A70     		strb	r2, [r3, #1]
 8957 01b0 BCF1020F 		cmp	ip, #2
 8958 01b4 01D0     		beq	.L2614
 8959 01b6 8A78     		ldrb	r2, [r1, #2]	@ zero_extendqisi2
 8960 01b8 9A70     		strb	r2, [r3, #2]
 8961              	.L2614:
 8962 01ba 2E23     		movs	r3, #46
 8963 01bc 85F82130 		strb	r3, [r5, #33]
 8964 01c0 8E9B     		ldr	r3, [sp, #568]
 8965 01c2 909A     		ldr	r2, [sp, #576]
 8966 01c4 93F80012 		ldrb	r1, [r3, #512]	@ zero_extendqisi2
 8967 01c8 0329     		cmp	r1, #3
 8968 01ca 00F09480 		beq	.L2664
 8969              	.L2655:
 8970 01ce 130C     		lsrs	r3, r2, #16
 8971 01d0 D9B2     		uxtb	r1, r3
 8972 01d2 D0B2     		uxtb	r0, r2
 8973 01d4 1B0A     		lsrs	r3, r3, #8
 8974 01d6 C2F30722 		ubfx	r2, r2, #8, #8
 8975              	.L2616:
 8976 01da 85F83A00 		strb	r0, [r5, #58]
 8977 01de 85F83B20 		strb	r2, [r5, #59]
 8978 01e2 85F83410 		strb	r1, [r5, #52]
 8979 01e6 85F83530 		strb	r3, [r5, #53]
 8980 01ea 8E9F     		ldr	r7, [sp, #568]
 8981 01ec 97F80232 		ldrb	r3, [r7, #514]	@ zero_extendqisi2
 8982 01f0 002B     		cmp	r3, #0
 8983 01f2 4DD0     		beq	.L2617
 8984 01f4 03F1FF3A 		add	r10, r3, #-1
 8985 01f8 5FFA8AFA 		uxtb	r10, r10
 8986 01fc 0AF1010A 		add	r10, r10, #1
 8987 0200 A244     		add	r10, r10, r4
 8988 0202 4FF0010B 		mov	fp, #1
 8989              	.L2623:
 8990 0206 C7F82C42 		str	r4, [r7, #556]
 8991 020a 87F804B2 		strb	fp, [r7, #516]
 8992 020e 0123     		movs	r3, #1
 8993 0210 2246     		mov	r2, r4
 8994 0212 3946     		mov	r1, r7
 8995 0214 97F80102 		ldrb	r0, [r7, #513]	@ zero_extendqisi2
 8996 0218 FFF7FEFF 		bl	disk_write
 8997 021c 04F10109 		add	r9, r4, #1
 8998 0220 40BB     		cbnz	r0, .L2618
 8999 0222 D7F82022 		ldr	r2, [r7, #544]
 9000 0226 D7F81832 		ldr	r3, [r7, #536]
 9001 022a 87F80402 		strb	r0, [r7, #516]
 9002 022e A21A     		subs	r2, r4, r2
 9003 0230 9A42     		cmp	r2, r3
 9004 0232 14D2     		bcs	.L2621
 9005 0234 97F80382 		ldrb	r8, [r7, #515]	@ zero_extendqisi2
 9006 0238 B8F1010F 		cmp	r8, #1
 9007 023c 02D8     		bhi	.L2622
 9008 023e 0EE0     		b	.L2621
 9009              	.L2665:
 9010 0240 D7F81832 		ldr	r3, [r7, #536]
 9011              	.L2622:
 9012 0244 97F80102 		ldrb	r0, [r7, #513]	@ zero_extendqisi2
ARM GAS  /tmp/ccFKl8QX.s 			page 158


 9013 0248 1C44     		add	r4, r4, r3
 9014 024a 08F1FF38 		add	r8, r8, #-1
 9015 024e 2246     		mov	r2, r4
 9016 0250 0123     		movs	r3, #1
 9017 0252 3946     		mov	r1, r7
 9018 0254 FFF7FEFF 		bl	disk_write
 9019 0258 B8F1010F 		cmp	r8, #1
 9020 025c F0D1     		bne	.L2665
 9021              	.L2621:
 9022 025e 4FF40072 		mov	r2, #512
 9023 0262 0021     		movs	r1, #0
 9024 0264 2846     		mov	r0, r5
 9025 0266 FFF7FEFF 		bl	memset
 9026 026a D145     		cmp	r9, r10
 9027 026c 10D0     		beq	.L2617
 9028 026e 4C46     		mov	r4, r9
 9029 0270 8E9F     		ldr	r7, [sp, #568]
 9030 0272 C8E7     		b	.L2623
 9031              	.L2618:
 9032 0274 0124     		movs	r4, #1
 9033              	.L2600:
 9034 0276 012E     		cmp	r6, #1
 9035 0278 7FF6D1AE 		bls	.L2638
 9036 027c 8E98     		ldr	r0, [sp, #568]
 9037 027e D0F81432 		ldr	r3, [r0, #532]
 9038 0282 9E42     		cmp	r6, r3
 9039 0284 BFF4CBAE 		bcs	.L2638
 9040 0288 3146     		mov	r1, r6
 9041 028a FFF7FEFF 		bl	remove_chain.part.10
 9042 028e C6E6     		b	.L2638
 9043              	.L2617:
 9044 0290 0EA8     		add	r0, sp, #56
 9045 0292 FFF7FEFF 		bl	dir_register
 9046 0296 0446     		mov	r4, r0
 9047 0298 0028     		cmp	r0, #0
 9048 029a ECD1     		bne	.L2600
 9049 029c 089A     		ldr	r2, [sp, #32]
 9050 029e 0199     		ldr	r1, [sp, #4]
 9051 02a0 2346     		mov	r3, r4
 9052 02a2 62F30704 		bfi	r4, r2, #0, #8
 9053 02a6 029A     		ldr	r2, [sp, #8]
 9054 02a8 62F30703 		bfi	r3, r2, #0, #8
 9055 02ac 059A     		ldr	r2, [sp, #20]
 9056 02ae 62F30F24 		bfi	r4, r2, #8, #8
 9057 02b2 079A     		ldr	r2, [sp, #28]
 9058 02b4 62F30F23 		bfi	r3, r2, #8, #8
 9059 02b8 069A     		ldr	r2, [sp, #24]
 9060 02ba 62F31744 		bfi	r4, r2, #16, #8
 9061 02be 039A     		ldr	r2, [sp, #12]
 9062 02c0 61F31F64 		bfi	r4, r1, #24, #8
 9063 02c4 0499     		ldr	r1, [sp, #16]
 9064 02c6 62F31743 		bfi	r3, r2, #16, #8
 9065 02ca 939A     		ldr	r2, [sp, #588]
 9066 02cc 61F31F63 		bfi	r3, r1, #24, #8
 9067 02d0 1021     		movs	r1, #16
 9068 02d2 5461     		str	r4, [r2, #20]	@ unaligned
 9069 02d4 9361     		str	r3, [r2, #24]	@ unaligned
ARM GAS  /tmp/ccFKl8QX.s 			page 159


 9070 02d6 D172     		strb	r1, [r2, #11]
 9071 02d8 8E98     		ldr	r0, [sp, #568]
 9072 02da 0123     		movs	r3, #1
 9073 02dc 80F80432 		strb	r3, [r0, #516]
 9074 02e0 FFF7FEFF 		bl	sync_fs
 9075 02e4 0446     		mov	r4, r0
 9076 02e6 9AE6     		b	.L2638
 9077              	.L2663:
 9078 02e8 95F80222 		ldrb	r2, [r5, #514]	@ zero_extendqisi2
 9079 02ec D5F82832 		ldr	r3, [r5, #552]
 9080 02f0 04FB0234 		mla	r4, r4, r2, r3
 9081 02f4 C7E6     		b	.L2624
 9082              	.L2664:
 9083 02f6 D3F82432 		ldr	r3, [r3, #548]
 9084 02fa 9A42     		cmp	r2, r3
 9085 02fc 7FF467AF 		bne	.L2655
 9086 0300 0023     		movs	r3, #0
 9087 0302 1946     		mov	r1, r3
 9088 0304 1A46     		mov	r2, r3
 9089 0306 1846     		mov	r0, r3
 9090 0308 67E7     		b	.L2616
 9091              	.L2632:
 9092 030a 4FF02008 		mov	r8, #32
 9093 030e 4246     		mov	r2, r8
 9094 0310 C446     		mov	ip, r8
 9095 0312 1846     		mov	r0, r3
 9096 0314 AE46     		mov	lr, r5
 9097 0316 4FF00809 		mov	r9, #8
 9098 031a 24E7     		b	.L2608
 9099              	.L2662:
 9100 031c D5F82C42 		ldr	r4, [r5, #556]
 9101 0320 95F80102 		ldrb	r0, [r5, #513]	@ zero_extendqisi2
 9102 0324 2246     		mov	r2, r4
 9103 0326 0123     		movs	r3, #1
 9104 0328 2946     		mov	r1, r5
 9105 032a FFF7FEFF 		bl	disk_write
 9106 032e 0028     		cmp	r0, #0
 9107 0330 A0D1     		bne	.L2618
 9108 0332 D5F82022 		ldr	r2, [r5, #544]
 9109 0336 D5F81832 		ldr	r3, [r5, #536]
 9110 033a 85F80402 		strb	r0, [r5, #516]
 9111 033e A21A     		subs	r2, r4, r2
 9112 0340 9A42     		cmp	r2, r3
 9113 0342 14D2     		bcs	.L2656
 9114 0344 95F80382 		ldrb	r8, [r5, #515]	@ zero_extendqisi2
 9115 0348 B8F1010F 		cmp	r8, #1
 9116 034c 02D8     		bhi	.L2605
 9117 034e 0EE0     		b	.L2656
 9118              	.L2604:
 9119 0350 D5F81832 		ldr	r3, [r5, #536]
 9120              	.L2605:
 9121 0354 95F80102 		ldrb	r0, [r5, #513]	@ zero_extendqisi2
 9122 0358 1C44     		add	r4, r4, r3
 9123 035a 08F1FF38 		add	r8, r8, #-1
 9124 035e 2246     		mov	r2, r4
 9125 0360 0123     		movs	r3, #1
 9126 0362 2946     		mov	r1, r5
ARM GAS  /tmp/ccFKl8QX.s 			page 160


 9127 0364 FFF7FEFF 		bl	disk_write
 9128 0368 B8F1010F 		cmp	r8, #1
 9129 036c F0D1     		bne	.L2604
 9130              	.L2656:
 9131 036e 8E9D     		ldr	r5, [sp, #568]
 9132 0370 81E6     		b	.L2602
 9133              	.L2606:
 9134 0372 05F11F01 		add	r1, r5, #31
 9135 0376 2A46     		mov	r2, r5
 9136              	.L2613:
 9137 0378 12F8010B 		ldrb	r0, [r2], #1	@ zero_extendqisi2
 9138 037c 01F8010F 		strb	r0, [r1, #1]!
 9139 0380 9A42     		cmp	r2, r3
 9140 0382 F9D1     		bne	.L2613
 9141 0384 19E7     		b	.L2614
 9142              	.L2634:
 9143 0386 4FF01E0C 		mov	ip, #30
 9144 038a E7E6     		b	.L2609
 9145              	.L2633:
 9146 038c 4FF01F0C 		mov	ip, #31
 9147 0390 E4E6     		b	.L2609
 9149 0392 00BF     		.section	.text.f_chmod,"ax",%progbits
 9150              		.align	1
 9151              		.p2align 2,,3
 9152              		.global	f_chmod
 9153              		.syntax unified
 9154              		.thumb
 9155              		.thumb_func
 9156              		.fpu fpv4-sp-d16
 9158              	f_chmod:
 9159              		@ args = 0, pretend = 0, frame = 560
 9160              		@ frame_needed = 0, uses_anonymous_args = 0
 9161 0000 2DE9F043 		push	{r4, r5, r6, r7, r8, r9, lr}
 9162 0004 ADF50D7D 		sub	sp, sp, #564
 9163 0008 0023     		movs	r3, #0
 9164 000a 8493     		str	r3, [sp, #528]
 9165 000c 0028     		cmp	r0, #0
 9166 000e 00F07F81 		beq	.L2667
 9167 0012 0446     		mov	r4, r0
 9168 0014 0078     		ldrb	r0, [r0]	@ zero_extendqisi2
 9169 0016 2028     		cmp	r0, #32
 9170 0018 0E46     		mov	r6, r1
 9171 001a 1746     		mov	r7, r2
 9172 001c 0CD9     		bls	.L2668
 9173 001e 3A28     		cmp	r0, #58
 9174 0020 00F07681 		beq	.L2667
 9175 0024 2346     		mov	r3, r4
 9176 0026 02E0     		b	.L2669
 9177              	.L2794:
 9178 0028 3A2A     		cmp	r2, #58
 9179 002a 21D0     		beq	.L2793
 9180 002c 0B46     		mov	r3, r1
 9181              	.L2669:
 9182 002e 5A78     		ldrb	r2, [r3, #1]	@ zero_extendqisi2
 9183 0030 202A     		cmp	r2, #32
 9184 0032 03F10101 		add	r1, r3, #1
 9185 0036 F7D8     		bhi	.L2794
ARM GAS  /tmp/ccFKl8QX.s 			page 161


 9186              	.L2668:
 9187 0038 CA4B     		ldr	r3, .L2805
 9188 003a 1D68     		ldr	r5, [r3]
 9189 003c 25B3     		cbz	r5, .L2730
 9190              	.L2797:
 9191 003e 8495     		str	r5, [sp, #528]
 9192 0040 95F80032 		ldrb	r3, [r5, #512]	@ zero_extendqisi2
 9193 0044 2BB1     		cbz	r3, .L2672
 9194 0046 95F80102 		ldrb	r0, [r5, #513]	@ zero_extendqisi2
 9195 004a FFF7FEFF 		bl	disk_status
 9196 004e C107     		lsls	r1, r0, #31
 9197 0050 1FD5     		bpl	.L2795
 9198              	.L2672:
 9199 0052 0020     		movs	r0, #0
 9200 0054 85F80002 		strb	r0, [r5, #512]
 9201 0058 85F80102 		strb	r0, [r5, #513]
 9202 005c FFF7FEFF 		bl	disk_initialize
 9203 0060 C307     		lsls	r3, r0, #31
 9204 0062 40F14081 		bpl	.L2796
 9205 0066 0320     		movs	r0, #3
 9206              	.L2770:
 9207 0068 0DF50D7D 		add	sp, sp, #564
 9208              		@ sp needed
 9209 006c BDE8F083 		pop	{r4, r5, r6, r7, r8, r9, pc}
 9210              	.L2793:
 9211 0070 0134     		adds	r4, r4, #1
 9212 0072 A142     		cmp	r1, r4
 9213 0074 40F04C81 		bne	.L2667
 9214 0078 3028     		cmp	r0, #48
 9215 007a 40F04981 		bne	.L2667
 9216 007e 9C1C     		adds	r4, r3, #2
 9217 0080 B84B     		ldr	r3, .L2805
 9218 0082 1D68     		ldr	r5, [r3]
 9219 0084 002D     		cmp	r5, #0
 9220 0086 DAD1     		bne	.L2797
 9221              	.L2730:
 9222 0088 0C20     		movs	r0, #12
 9223 008a 0DF50D7D 		add	sp, sp, #564
 9224              		@ sp needed
 9225 008e BDE8F083 		pop	{r4, r5, r6, r7, r8, r9, pc}
 9226              	.L2795:
 9227 0092 4207     		lsls	r2, r0, #29
 9228 0094 40F10581 		bpl	.L2718
 9229              	.L2674:
 9230 0098 0A20     		movs	r0, #10
 9231 009a 0DF50D7D 		add	sp, sp, #564
 9232              		@ sp needed
 9233 009e BDE8F083 		pop	{r4, r5, r6, r7, r8, r9, pc}
 9234              	.L2804:
 9235 00a2 D5F83630 		ldr	r3, [r5, #54]	@ unaligned
 9236 00a6 B04A     		ldr	r2, .L2805+4
 9237 00a8 23F07F43 		bic	r3, r3, #-16777216
 9238 00ac 9342     		cmp	r3, r2
 9239 00ae 00F01082 		beq	.L2733
 9240 00b2 D5F85230 		ldr	r3, [r5, #82]	@ unaligned
 9241 00b6 23F07F43 		bic	r3, r3, #-16777216
 9242 00ba 9342     		cmp	r3, r2
ARM GAS  /tmp/ccFKl8QX.s 			page 162


 9243 00bc 00F00982 		beq	.L2733
 9244 00c0 95F8C231 		ldrb	r3, [r5, #450]	@ zero_extendqisi2
 9245 00c4 002B     		cmp	r3, #0
 9246 00c6 00F07E81 		beq	.L2734
 9247 00ca D5F8C681 		ldr	r8, [r5, #454]	@ unaligned
 9248              	.L2678:
 9249 00ce 95F8D231 		ldrb	r3, [r5, #466]	@ zero_extendqisi2
 9250 00d2 0BB1     		cbz	r3, .L2679
 9251 00d4 D5F8D631 		ldr	r3, [r5, #470]	@ unaligned
 9252              	.L2679:
 9253 00d8 0193     		str	r3, [sp, #4]
 9254 00da 95F8E231 		ldrb	r3, [r5, #482]	@ zero_extendqisi2
 9255 00de 0BB1     		cbz	r3, .L2680
 9256 00e0 D5F8E631 		ldr	r3, [r5, #486]	@ unaligned
 9257              	.L2680:
 9258 00e4 0293     		str	r3, [sp, #8]
 9259 00e6 95F8F231 		ldrb	r3, [r5, #498]	@ zero_extendqisi2
 9260 00ea 0BB1     		cbz	r3, .L2681
 9261 00ec D5F8F631 		ldr	r3, [r5, #502]	@ unaligned
 9262              	.L2681:
 9263 00f0 0393     		str	r3, [sp, #12]
 9264 00f2 B8F1000F 		cmp	r8, #0
 9265 00f6 40F05181 		bne	.L2798
 9266              	.L2683:
 9267 00fa DDF80480 		ldr	r8, [sp, #4]
 9268 00fe B8F1000F 		cmp	r8, #0
 9269 0102 40F03781 		bne	.L2799
 9270              	.L2691:
 9271 0106 DDF80880 		ldr	r8, [sp, #8]
 9272 010a B8F1000F 		cmp	r8, #0
 9273 010e 40F01381 		bne	.L2800
 9274              	.L2697:
 9275 0112 DDF80C80 		ldr	r8, [sp, #12]
 9276 0116 B8F1000F 		cmp	r8, #0
 9277 011a 00F00B81 		beq	.L2707
 9278 011e 4FF0FF39 		mov	r9, #-1
 9279 0122 0023     		movs	r3, #0
 9280 0124 C845     		cmp	r8, r9
 9281 0126 85F80432 		strb	r3, [r5, #516]
 9282 012a C5F82C92 		str	r9, [r5, #556]
 9283 012e 0BD0     		beq	.L2704
 9284 0130 0123     		movs	r3, #1
 9285 0132 4246     		mov	r2, r8
 9286 0134 2946     		mov	r1, r5
 9287 0136 95F80102 		ldrb	r0, [r5, #513]	@ zero_extendqisi2
 9288 013a FFF7FEFF 		bl	disk_read
 9289 013e 0028     		cmp	r0, #0
 9290 0140 40F0E280 		bne	.L2675
 9291 0144 C5F82C82 		str	r8, [r5, #556]
 9292              	.L2704:
 9293 0148 95F8FF21 		ldrb	r2, [r5, #511]	@ zero_extendqisi2
 9294 014c 95F8FE31 		ldrb	r3, [r5, #510]	@ zero_extendqisi2
 9295 0150 43EA0223 		orr	r3, r3, r2, lsl #8
 9296 0154 4AF65522 		movw	r2, #43605
 9297 0158 9342     		cmp	r3, r2
 9298 015a 40F0EB80 		bne	.L2707
 9299 015e D5F83630 		ldr	r3, [r5, #54]	@ unaligned
ARM GAS  /tmp/ccFKl8QX.s 			page 163


 9300 0162 814A     		ldr	r2, .L2805+4
 9301 0164 23F07F43 		bic	r3, r3, #-16777216
 9302 0168 9342     		cmp	r3, r2
 9303 016a 06D0     		beq	.L2677
 9304 016c D5F85230 		ldr	r3, [r5, #82]	@ unaligned
 9305 0170 23F07F43 		bic	r3, r3, #-16777216
 9306 0174 9342     		cmp	r3, r2
 9307 0176 40F0DD80 		bne	.L2707
 9308              	.L2677:
 9309 017a 2A7B     		ldrb	r2, [r5, #12]	@ zero_extendqisi2
 9310 017c EB7A     		ldrb	r3, [r5, #11]	@ zero_extendqisi2
 9311 017e 43EA0223 		orr	r3, r3, r2, lsl #8
 9312 0182 B3F5007F 		cmp	r3, #512
 9313 0186 40F0D580 		bne	.L2707
 9314 018a EB7D     		ldrb	r3, [r5, #23]	@ zero_extendqisi2
 9315 018c 95F810E0 		ldrb	lr, [r5, #16]	@ zero_extendqisi2
 9316 0190 A87D     		ldrb	r0, [r5, #22]	@ zero_extendqisi2
 9317 0192 85F803E2 		strb	lr, [r5, #515]
 9318 0196 50EA0320 		orrs	r0, r0, r3, lsl #8
 9319 019a 0EF1FF33 		add	r3, lr, #-1
 9320 019e 08BF     		it	eq
 9321 01a0 686A     		ldreq	r0, [r5, #36]
 9322 01a2 C5F81802 		str	r0, [r5, #536]
 9323 01a6 012B     		cmp	r3, #1
 9324 01a8 00F2C480 		bhi	.L2707
 9325 01ac 95F80DC0 		ldrb	ip, [r5, #13]	@ zero_extendqisi2
 9326 01b0 85F802C2 		strb	ip, [r5, #514]
 9327 01b4 00FB0EFE 		mul	lr, r0, lr
 9328 01b8 BCF1000F 		cmp	ip, #0
 9329 01bc 00F0BA80 		beq	.L2707
 9330 01c0 0CF1FF33 		add	r3, ip, #-1
 9331 01c4 13EA0C0F 		tst	r3, ip
 9332 01c8 40F0B480 		bne	.L2707
 9333 01cc AB7C     		ldrb	r3, [r5, #18]	@ zero_extendqisi2
 9334 01ce 95F81190 		ldrb	r9, [r5, #17]	@ zero_extendqisi2
 9335 01d2 49EA0329 		orr	r9, r9, r3, lsl #8
 9336 01d6 19F00F0F 		tst	r9, #15
 9337 01da A5F80892 		strh	r9, [r5, #520]	@ movhi
 9338 01de 40F0A980 		bne	.L2707
 9339 01e2 2A7D     		ldrb	r2, [r5, #20]	@ zero_extendqisi2
 9340 01e4 EB7C     		ldrb	r3, [r5, #19]	@ zero_extendqisi2
 9341 01e6 E97B     		ldrb	r1, [r5, #15]	@ zero_extendqisi2
 9342 01e8 53EA0223 		orrs	r3, r3, r2, lsl #8
 9343 01ec AA7B     		ldrb	r2, [r5, #14]	@ zero_extendqisi2
 9344 01ee 08BF     		it	eq
 9345 01f0 2B6A     		ldreq	r3, [r5, #32]
 9346 01f2 52EA0122 		orrs	r2, r2, r1, lsl #8
 9347 01f6 00F09D80 		beq	.L2707
 9348 01fa 02EB1911 		add	r1, r2, r9, lsr #4
 9349 01fe 7144     		add	r1, r1, lr
 9350 0200 9942     		cmp	r1, r3
 9351 0202 00F29780 		bhi	.L2707
 9352 0206 5B1A     		subs	r3, r3, r1
 9353 0208 B3FBFCF3 		udiv	r3, r3, ip
 9354 020c 002B     		cmp	r3, #0
 9355 020e 00F09180 		beq	.L2707
 9356 0212 40F6F57C 		movw	ip, #4085
ARM GAS  /tmp/ccFKl8QX.s 			page 164


 9357 0216 6345     		cmp	r3, ip
 9358 0218 40F28181 		bls	.L2710
 9359 021c 4FF6F57C 		movw	ip, #65525
 9360 0220 6345     		cmp	r3, ip
 9361 0222 40F25881 		bls	.L2801
 9362 0226 0233     		adds	r3, r3, #2
 9363 0228 4244     		add	r2, r2, r8
 9364 022a 4144     		add	r1, r1, r8
 9365 022c C5F81432 		str	r3, [r5, #532]
 9366 0230 C5F82022 		str	r2, [r5, #544]
 9367 0234 C5F82812 		str	r1, [r5, #552]
 9368 0238 C5F81C82 		str	r8, [r5, #540]
 9369 023c B9F1000F 		cmp	r9, #0
 9370 0240 78D1     		bne	.L2707
 9371 0242 9B00     		lsls	r3, r3, #2
 9372 0244 03F2FF13 		addw	r3, r3, #511
 9373 0248 EA6A     		ldr	r2, [r5, #44]
 9374 024a C5F82422 		str	r2, [r5, #548]
 9375 024e B0EB532F 		cmp	r0, r3, lsr #9
 9376 0252 6FD3     		bcc	.L2707
 9377 0254 95F83120 		ldrb	r2, [r5, #49]	@ zero_extendqisi2
 9378 0258 95F83030 		ldrb	r3, [r5, #48]	@ zero_extendqisi2
 9379 025c 43EA0223 		orr	r3, r3, r2, lsl #8
 9380 0260 8021     		movs	r1, #128
 9381 0262 4FF0FF32 		mov	r2, #-1
 9382 0266 012B     		cmp	r3, #1
 9383 0268 C5F81022 		str	r2, [r5, #528]
 9384 026c C5F80C22 		str	r2, [r5, #524]
 9385 0270 85F80512 		strb	r1, [r5, #517]
 9386 0274 00F00081 		beq	.L2802
 9387              	.L2781:
 9388 0278 0322     		movs	r2, #3
 9389              	.L2714:
 9390 027a 3C48     		ldr	r0, .L2805+8
 9391 027c 3C49     		ldr	r1, .L2805+12
 9392 027e 0388     		ldrh	r3, [r0]
 9393 0280 85F80022 		strb	r2, [r5, #512]
 9394 0284 0A68     		ldr	r2, [r1]
 9395 0286 0133     		adds	r3, r3, #1
 9396 0288 9BB2     		uxth	r3, r3
 9397 028a 9542     		cmp	r5, r2
 9398 028c 0380     		strh	r3, [r0]	@ movhi
 9399 028e A5F80632 		strh	r3, [r5, #518]	@ movhi
 9400 0292 04BF     		itt	eq
 9401 0294 0023     		moveq	r3, #0
 9402 0296 0B60     		streq	r3, [r1]
 9403 0298 CB68     		ldr	r3, [r1, #12]
 9404 029a 9D42     		cmp	r5, r3
 9405 029c 01D1     		bne	.L2718
 9406 029e 0023     		movs	r3, #0
 9407 02a0 CB60     		str	r3, [r1, #12]
 9408              	.L2718:
 9409 02a2 2146     		mov	r1, r4
 9410 02a4 04A8     		add	r0, sp, #16
 9411 02a6 CDF828D2 		str	sp, [sp, #552]
 9412 02aa FFF7FEFF 		bl	follow_path
 9413 02ae 0028     		cmp	r0, #0
ARM GAS  /tmp/ccFKl8QX.s 			page 165


 9414 02b0 7FF4DAAE 		bne	.L2770
 9415 02b4 899A     		ldr	r2, [sp, #548]
 9416 02b6 8AB1     		cbz	r2, .L2738
 9417 02b8 D17A     		ldrb	r1, [r2, #11]	@ zero_extendqisi2
 9418 02ba 86EA0103 		eor	r3, r6, r1
 9419 02be 3B40     		ands	r3, r3, r7
 9420 02c0 03F02703 		and	r3, r3, #39
 9421 02c4 4B40     		eors	r3, r3, r1
 9422 02c6 D372     		strb	r3, [r2, #11]
 9423 02c8 8498     		ldr	r0, [sp, #528]
 9424 02ca 0123     		movs	r3, #1
 9425 02cc 80F80432 		strb	r3, [r0, #516]
 9426 02d0 FFF7FEFF 		bl	sync_fs
 9427 02d4 0DF50D7D 		add	sp, sp, #564
 9428              		@ sp needed
 9429 02d8 BDE8F083 		pop	{r4, r5, r6, r7, r8, r9, pc}
 9430              	.L2738:
 9431 02dc 0620     		movs	r0, #6
 9432 02de 0DF50D7D 		add	sp, sp, #564
 9433              		@ sp needed
 9434 02e2 BDE8F083 		pop	{r4, r5, r6, r7, r8, r9, pc}
 9435              	.L2796:
 9436 02e6 10F00402 		ands	r2, r0, #4
 9437 02ea 7FF4D5AE 		bne	.L2674
 9438 02ee 4FF0FF39 		mov	r9, #-1
 9439 02f2 85F80422 		strb	r2, [r5, #516]
 9440 02f6 C5F82C92 		str	r9, [r5, #556]
 9441 02fa 0123     		movs	r3, #1
 9442 02fc 2946     		mov	r1, r5
 9443 02fe 95F80102 		ldrb	r0, [r5, #513]	@ zero_extendqisi2
 9444 0302 FFF7FEFF 		bl	disk_read
 9445 0306 40B1     		cbz	r0, .L2803
 9446              	.L2675:
 9447 0308 C5F82C92 		str	r9, [r5, #556]
 9448 030c 0120     		movs	r0, #1
 9449 030e ABE6     		b	.L2770
 9450              	.L2667:
 9451 0310 0B20     		movs	r0, #11
 9452 0312 0DF50D7D 		add	sp, sp, #564
 9453              		@ sp needed
 9454 0316 BDE8F083 		pop	{r4, r5, r6, r7, r8, r9, pc}
 9455              	.L2803:
 9456 031a 95F8FF21 		ldrb	r2, [r5, #511]	@ zero_extendqisi2
 9457 031e 95F8FE31 		ldrb	r3, [r5, #510]	@ zero_extendqisi2
 9458 0322 C5F82C02 		str	r0, [r5, #556]
 9459 0326 43EA0223 		orr	r3, r3, r2, lsl #8
 9460 032a 4AF65522 		movw	r2, #43605
 9461 032e 9342     		cmp	r3, r2
 9462 0330 3FF4B7AE 		beq	.L2804
 9463              	.L2707:
 9464 0334 0D20     		movs	r0, #13
 9465 0336 97E6     		b	.L2770
 9466              	.L2800:
 9467 0338 4FF0FF39 		mov	r9, #-1
 9468 033c 0023     		movs	r3, #0
 9469 033e C845     		cmp	r8, r9
 9470 0340 85F80432 		strb	r3, [r5, #516]
ARM GAS  /tmp/ccFKl8QX.s 			page 166


 9471 0344 C5F82C92 		str	r9, [r5, #556]
 9472 0348 5ED0     		beq	.L2701
 9473 034a 0123     		movs	r3, #1
 9474 034c 4246     		mov	r2, r8
 9475 034e 2946     		mov	r1, r5
 9476 0350 95F80102 		ldrb	r0, [r5, #513]	@ zero_extendqisi2
 9477 0354 FFF7FEFF 		bl	disk_read
 9478 0358 0028     		cmp	r0, #0
 9479 035a 53D0     		beq	.L2700
 9480 035c C5F82C92 		str	r9, [r5, #556]
 9481 0360 D7E6     		b	.L2697
 9482              	.L2806:
 9483 0362 00BF     		.align	2
 9484              	.L2805:
 9485 0364 00000000 		.word	.LANCHOR0
 9486 0368 46415400 		.word	5521734
 9487 036c 00000000 		.word	.LANCHOR1
 9488 0370 00000000 		.word	.LANCHOR2
 9489              	.L2799:
 9490 0374 4FF0FF39 		mov	r9, #-1
 9491 0378 0023     		movs	r3, #0
 9492 037a C845     		cmp	r8, r9
 9493 037c 85F80432 		strb	r3, [r5, #516]
 9494 0380 C5F82C92 		str	r9, [r5, #556]
 9495 0384 23D0     		beq	.L2695
 9496 0386 0123     		movs	r3, #1
 9497 0388 4246     		mov	r2, r8
 9498 038a 2946     		mov	r1, r5
 9499 038c 95F80102 		ldrb	r0, [r5, #513]	@ zero_extendqisi2
 9500 0390 FFF7FEFF 		bl	disk_read
 9501 0394 C8B1     		cbz	r0, .L2694
 9502 0396 C5F82C92 		str	r9, [r5, #556]
 9503 039a B4E6     		b	.L2691
 9504              	.L2798:
 9505 039c 4FF0FF39 		mov	r9, #-1
 9506 03a0 0023     		movs	r3, #0
 9507 03a2 C845     		cmp	r8, r9
 9508 03a4 85F80432 		strb	r3, [r5, #516]
 9509 03a8 C5F82C92 		str	r9, [r5, #556]
 9510 03ac 54D0     		beq	.L2689
 9511 03ae 0123     		movs	r3, #1
 9512 03b0 4246     		mov	r2, r8
 9513 03b2 2946     		mov	r1, r5
 9514 03b4 95F80102 		ldrb	r0, [r5, #513]	@ zero_extendqisi2
 9515 03b8 FFF7FEFF 		bl	disk_read
 9516 03bc 0028     		cmp	r0, #0
 9517 03be 3ED0     		beq	.L2687
 9518 03c0 C5F82C92 		str	r9, [r5, #556]
 9519 03c4 99E6     		b	.L2683
 9520              	.L2734:
 9521 03c6 9846     		mov	r8, r3
 9522 03c8 81E6     		b	.L2678
 9523              	.L2694:
 9524 03ca C5F82C82 		str	r8, [r5, #556]
 9525              	.L2695:
 9526 03ce 95F8FF21 		ldrb	r2, [r5, #511]	@ zero_extendqisi2
 9527 03d2 95F8FE31 		ldrb	r3, [r5, #510]	@ zero_extendqisi2
ARM GAS  /tmp/ccFKl8QX.s 			page 167


 9528 03d6 43EA0223 		orr	r3, r3, r2, lsl #8
 9529 03da 4AF65522 		movw	r2, #43605
 9530 03de 9342     		cmp	r3, r2
 9531 03e0 7FF491AE 		bne	.L2691
 9532 03e4 D5F83630 		ldr	r3, [r5, #54]	@ unaligned
 9533 03e8 614A     		ldr	r2, .L2807
 9534 03ea 23F07F43 		bic	r3, r3, #-16777216
 9535 03ee 9342     		cmp	r3, r2
 9536 03f0 3FF4C3AE 		beq	.L2677
 9537 03f4 D5F85230 		ldr	r3, [r5, #82]	@ unaligned
 9538 03f8 23F07F43 		bic	r3, r3, #-16777216
 9539 03fc 9342     		cmp	r3, r2
 9540 03fe 7FF482AE 		bne	.L2691
 9541 0402 BAE6     		b	.L2677
 9542              	.L2700:
 9543 0404 C5F82C82 		str	r8, [r5, #556]
 9544              	.L2701:
 9545 0408 95F8FF21 		ldrb	r2, [r5, #511]	@ zero_extendqisi2
 9546 040c 95F8FE31 		ldrb	r3, [r5, #510]	@ zero_extendqisi2
 9547 0410 43EA0223 		orr	r3, r3, r2, lsl #8
 9548 0414 4AF65522 		movw	r2, #43605
 9549 0418 9342     		cmp	r3, r2
 9550 041a 7FF47AAE 		bne	.L2697
 9551 041e D5F83630 		ldr	r3, [r5, #54]	@ unaligned
 9552 0422 534A     		ldr	r2, .L2807
 9553 0424 23F07F43 		bic	r3, r3, #-16777216
 9554 0428 9342     		cmp	r3, r2
 9555 042a 3FF4A6AE 		beq	.L2677
 9556 042e D5F85230 		ldr	r3, [r5, #82]	@ unaligned
 9557 0432 23F07F43 		bic	r3, r3, #-16777216
 9558 0436 9342     		cmp	r3, r2
 9559 0438 7FF46BAE 		bne	.L2697
 9560 043c 9DE6     		b	.L2677
 9561              	.L2687:
 9562 043e 95F8FF21 		ldrb	r2, [r5, #511]	@ zero_extendqisi2
 9563 0442 95F8FE31 		ldrb	r3, [r5, #510]	@ zero_extendqisi2
 9564 0446 C5F82C82 		str	r8, [r5, #556]
 9565 044a 43EA0223 		orr	r3, r3, r2, lsl #8
 9566 044e 4AF65522 		movw	r2, #43605
 9567 0452 9342     		cmp	r3, r2
 9568 0454 7FF451AE 		bne	.L2683
 9569              	.L2689:
 9570 0458 D5F83630 		ldr	r3, [r5, #54]	@ unaligned
 9571 045c 444A     		ldr	r2, .L2807
 9572 045e 23F07F43 		bic	r3, r3, #-16777216
 9573 0462 9342     		cmp	r3, r2
 9574 0464 3FF489AE 		beq	.L2677
 9575 0468 D5F85230 		ldr	r3, [r5, #82]	@ unaligned
 9576 046c 23F07F43 		bic	r3, r3, #-16777216
 9577 0470 9342     		cmp	r3, r2
 9578 0472 7FF442AE 		bne	.L2683
 9579 0476 80E6     		b	.L2677
 9580              	.L2802:
 9581 0478 08F10101 		add	r1, r8, #1
 9582 047c 2846     		mov	r0, r5
 9583 047e FFF7FEFF 		bl	move_window
 9584 0482 0028     		cmp	r0, #0
ARM GAS  /tmp/ccFKl8QX.s 			page 168


 9585 0484 7FF4F8AE 		bne	.L2781
 9586 0488 95F8FF21 		ldrb	r2, [r5, #511]	@ zero_extendqisi2
 9587 048c 95F8FE31 		ldrb	r3, [r5, #510]	@ zero_extendqisi2
 9588 0490 85F80592 		strb	r9, [r5, #517]
 9589 0494 43EA0223 		orr	r3, r3, r2, lsl #8
 9590 0498 4AF65522 		movw	r2, #43605
 9591 049c 9342     		cmp	r3, r2
 9592 049e 7FF4EBAE 		bne	.L2781
 9593 04a2 344B     		ldr	r3, .L2807+4
 9594 04a4 2A68     		ldr	r2, [r5]
 9595 04a6 9A42     		cmp	r2, r3
 9596 04a8 7FF4E6AE 		bne	.L2781
 9597 04ac 03F1FF53 		add	r3, r3, #534773760
 9598 04b0 03F50053 		add	r3, r3, #8192
 9599 04b4 D5F8E421 		ldr	r2, [r5, #484]
 9600 04b8 2033     		adds	r3, r3, #32
 9601 04ba 9A42     		cmp	r2, r3
 9602 04bc 7FF4DCAE 		bne	.L2781
 9603 04c0 D5F8E821 		ldr	r2, [r5, #488]
 9604 04c4 D5F8EC31 		ldr	r3, [r5, #492]
 9605 04c8 C5F81022 		str	r2, [r5, #528]
 9606 04cc C5F80C32 		str	r3, [r5, #524]
 9607 04d0 D2E6     		b	.L2781
 9608              	.L2733:
 9609 04d2 8046     		mov	r8, r0
 9610 04d4 51E6     		b	.L2677
 9611              	.L2801:
 9612 04d6 0233     		adds	r3, r3, #2
 9613 04d8 4244     		add	r2, r2, r8
 9614 04da 4144     		add	r1, r1, r8
 9615 04dc C5F81432 		str	r3, [r5, #532]
 9616 04e0 C5F82022 		str	r2, [r5, #544]
 9617 04e4 C5F82812 		str	r1, [r5, #552]
 9618 04e8 C5F81C82 		str	r8, [r5, #540]
 9619 04ec B9F1000F 		cmp	r9, #0
 9620 04f0 3FF420AF 		beq	.L2707
 9621 04f4 5B00     		lsls	r3, r3, #1
 9622 04f6 03F2FF13 		addw	r3, r3, #511
 9623 04fa 7244     		add	r2, r2, lr
 9624 04fc B0EB532F 		cmp	r0, r3, lsr #9
 9625 0500 C5F82422 		str	r2, [r5, #548]
 9626 0504 FFF416AF 		bcc	.L2707
 9627 0508 4FF0FF33 		mov	r3, #-1
 9628 050c 8022     		movs	r2, #128
 9629 050e 85F80522 		strb	r2, [r5, #517]
 9630 0512 C5F81032 		str	r3, [r5, #528]
 9631 0516 C5F80C32 		str	r3, [r5, #524]
 9632 051a 0222     		movs	r2, #2
 9633 051c ADE6     		b	.L2714
 9634              	.L2710:
 9635 051e 0233     		adds	r3, r3, #2
 9636 0520 4244     		add	r2, r2, r8
 9637 0522 4144     		add	r1, r1, r8
 9638 0524 C5F81432 		str	r3, [r5, #532]
 9639 0528 C5F82022 		str	r2, [r5, #544]
 9640 052c C5F82812 		str	r1, [r5, #552]
 9641 0530 C5F81C82 		str	r8, [r5, #540]
ARM GAS  /tmp/ccFKl8QX.s 			page 169


 9642 0534 B9F1000F 		cmp	r9, #0
 9643 0538 3FF4FCAE 		beq	.L2707
 9644 053c 03F00101 		and	r1, r3, #1
 9645 0540 01F2FF11 		addw	r1, r1, #511
 9646 0544 03EB4303 		add	r3, r3, r3, lsl #1
 9647 0548 01EB5303 		add	r3, r1, r3, lsr #1
 9648 054c 7244     		add	r2, r2, lr
 9649 054e B0EB532F 		cmp	r0, r3, lsr #9
 9650 0552 C5F82422 		str	r2, [r5, #548]
 9651 0556 FFF4EDAE 		bcc	.L2707
 9652 055a 4FF0FF33 		mov	r3, #-1
 9653 055e 8022     		movs	r2, #128
 9654 0560 85F80522 		strb	r2, [r5, #517]
 9655 0564 C5F81032 		str	r3, [r5, #528]
 9656 0568 C5F80C32 		str	r3, [r5, #524]
 9657 056c 0122     		movs	r2, #1
 9658 056e 84E6     		b	.L2714
 9659              	.L2808:
 9660              		.align	2
 9661              	.L2807:
 9662 0570 46415400 		.word	5521734
 9663 0574 52526141 		.word	1096897106
 9665              		.section	.text.f_rename,"ax",%progbits
 9666              		.align	1
 9667              		.p2align 2,,3
 9668              		.global	f_rename
 9669              		.syntax unified
 9670              		.thumb
 9671              		.thumb_func
 9672              		.fpu fpv4-sp-d16
 9674              	f_rename:
 9675              		@ args = 0, pretend = 0, frame = 1136
 9676              		@ frame_needed = 0, uses_anonymous_args = 0
 9677 0000 F0B5     		push	{r4, r5, r6, r7, lr}
 9678 0002 ADF2744D 		subw	sp, sp, #1140
 9679 0006 0D46     		mov	r5, r1
 9680 0008 0190     		str	r0, [sp, #4]
 9681 000a 01A9     		add	r1, sp, #4
 9682 000c 0122     		movs	r2, #1
 9683 000e 8CA8     		add	r0, sp, #560
 9684 0010 FFF7FEFF 		bl	find_volume
 9685 0014 10B1     		cbz	r0, .L2857
 9686              	.L2837:
 9687 0016 0DF2744D 		addw	sp, sp, #1140
 9688              		@ sp needed
 9689 001a F0BD     		pop	{r4, r5, r6, r7, pc}
 9690              	.L2857:
 9691 001c 8C9B     		ldr	r3, [sp, #560]
 9692 001e CDF85034 		str	r3, [sp, #1104]
 9693 0022 0199     		ldr	r1, [sp, #4]
 9694 0024 03AB     		add	r3, sp, #12
 9695 0026 0CA8     		add	r0, sp, #48
 9696 0028 9293     		str	r3, [sp, #584]
 9697 002a FFF7FEFF 		bl	follow_path
 9698 002e 0028     		cmp	r0, #0
 9699 0030 F1D1     		bne	.L2837
 9700 0032 8E4B     		ldr	r3, .L2867
ARM GAS  /tmp/ccFKl8QX.s 			page 170


 9701 0034 8C99     		ldr	r1, [sp, #560]
 9702 0036 1A68     		ldr	r2, [r3]
 9703 0038 8E9C     		ldr	r4, [sp, #568]
 9704 003a BDF83602 		ldrh	r0, [sp, #566]
 9705 003e 12B1     		cbz	r2, .L2811
 9706 0040 8A42     		cmp	r2, r1
 9707 0042 00F0B880 		beq	.L2858
 9708              	.L2811:
 9709 0046 DA68     		ldr	r2, [r3, #12]
 9710 0048 12B1     		cbz	r2, .L2812
 9711 004a 8A42     		cmp	r2, r1
 9712 004c 00F0A980 		beq	.L2859
 9713              	.L2812:
 9714 0050 919C     		ldr	r4, [sp, #580]
 9715 0052 8CB3     		cbz	r4, .L2828
 9716 0054 54F80B0F 		ldr	r0, [r4, #11]!	@ unaligned
 9717 0058 6168     		ldr	r1, [r4, #4]	@ unaligned
 9718 005a A268     		ldr	r2, [r4, #8]	@ unaligned
 9719 005c E368     		ldr	r3, [r4, #12]	@ unaligned
 9720 005e 06AE     		add	r6, sp, #24
 9721 0060 0FC6     		stmia	r6!, {r0, r1, r2, r3}
 9722 0062 2069     		ldr	r0, [r4, #16]	@ unaligned
 9723 0064 3060     		str	r0, [r6]
 9724 0066 237D     		ldrb	r3, [r4, #20]	@ zero_extendqisi2
 9725 0068 3371     		strb	r3, [r6, #4]
 9726 006a 4FF40872 		mov	r2, #544
 9727 006e 0CA9     		add	r1, sp, #48
 9728 0070 94A8     		add	r0, sp, #592
 9729 0072 FFF7FEFF 		bl	memcpy
 9730 0076 002D     		cmp	r5, #0
 9731 0078 00F09180 		beq	.L2853
 9732 007c 2878     		ldrb	r0, [r5]	@ zero_extendqisi2
 9733 007e 2028     		cmp	r0, #32
 9734 0080 0CD9     		bls	.L2813
 9735 0082 3A28     		cmp	r0, #58
 9736 0084 00F08B80 		beq	.L2853
 9737 0088 2B46     		mov	r3, r5
 9738 008a 02E0     		b	.L2814
 9739              	.L2861:
 9740 008c 3A2A     		cmp	r2, #58
 9741 008e 0CD0     		beq	.L2860
 9742 0090 0B46     		mov	r3, r1
 9743              	.L2814:
 9744 0092 5A78     		ldrb	r2, [r3, #1]	@ zero_extendqisi2
 9745 0094 202A     		cmp	r2, #32
 9746 0096 03F10101 		add	r1, r3, #1
 9747 009a F7D8     		bhi	.L2861
 9748              	.L2813:
 9749 009c 2946     		mov	r1, r5
 9750 009e 94A8     		add	r0, sp, #592
 9751 00a0 FFF7FEFF 		bl	follow_path
 9752 00a4 50B9     		cbnz	r0, .L2862
 9753 00a6 0820     		movs	r0, #8
 9754 00a8 B5E7     		b	.L2837
 9755              	.L2860:
 9756 00aa 0135     		adds	r5, r5, #1
 9757 00ac A942     		cmp	r1, r5
ARM GAS  /tmp/ccFKl8QX.s 			page 171


 9758 00ae 76D1     		bne	.L2853
 9759 00b0 3028     		cmp	r0, #48
 9760 00b2 74D1     		bne	.L2853
 9761 00b4 9D1C     		adds	r5, r3, #2
 9762 00b6 F1E7     		b	.L2813
 9763              	.L2828:
 9764 00b8 0420     		movs	r0, #4
 9765 00ba ACE7     		b	.L2837
 9766              	.L2862:
 9767 00bc 0428     		cmp	r0, #4
 9768 00be AAD1     		bne	.L2837
 9769 00c0 94A8     		add	r0, sp, #592
 9770 00c2 FFF7FEFF 		bl	dir_register
 9771 00c6 0028     		cmp	r0, #0
 9772 00c8 A5D1     		bne	.L2837
 9773 00ca DDF86424 		ldr	r2, [sp, #1124]
 9774 00ce DDF82200 		ldr	r0, [sp, #34]	@ unaligned
 9775 00d2 DDF82610 		ldr	r1, [sp, #38]	@ unaligned
 9776 00d6 DDF81A50 		ldr	r5, [sp, #26]	@ unaligned
 9777 00da DDF81E40 		ldr	r4, [sp, #30]	@ unaligned
 9778 00de C2F81140 		str	r4, [r2, #17]	@ unaligned
 9779 00e2 C2F80D50 		str	r5, [r2, #13]	@ unaligned
 9780 00e6 C2F81500 		str	r0, [r2, #21]	@ unaligned
 9781 00ea C2F81910 		str	r1, [r2, #25]	@ unaligned
 9782 00ee 9DF82C00 		ldrb	r0, [sp, #44]	@ zero_extendqisi2
 9783 00f2 BDF82A10 		ldrh	r1, [sp, #42]	@ unaligned
 9784 00f6 A2F81D10 		strh	r1, [r2, #29]	@ unaligned
 9785 00fa D077     		strb	r0, [r2, #31]
 9786 00fc 9DF81830 		ldrb	r3, [sp, #24]	@ zero_extendqisi2
 9787 0100 43F02003 		orr	r3, r3, #32
 9788 0104 D372     		strb	r3, [r2, #11]
 9789 0106 8C98     		ldr	r0, [sp, #560]
 9790 0108 0123     		movs	r3, #1
 9791 010a 80F80432 		strb	r3, [r0, #516]
 9792 010e D37A     		ldrb	r3, [r2, #11]	@ zero_extendqisi2
 9793 0110 DB06     		lsls	r3, r3, #27
 9794 0112 24D5     		bpl	.L2818
 9795 0114 8E99     		ldr	r1, [sp, #568]
 9796 0116 DDF85834 		ldr	r3, [sp, #1112]
 9797 011a 9942     		cmp	r1, r3
 9798 011c 1FD0     		beq	.L2818
 9799 011e 90F80012 		ldrb	r1, [r0, #512]	@ zero_extendqisi2
 9800 0122 D47E     		ldrb	r4, [r2, #27]	@ zero_extendqisi2
 9801 0124 937E     		ldrb	r3, [r2, #26]	@ zero_extendqisi2
 9802 0126 0329     		cmp	r1, #3
 9803 0128 43EA0423 		orr	r3, r3, r4, lsl #8
 9804 012c 5FD0     		beq	.L2863
 9805              	.L2817:
 9806 012e D0F81422 		ldr	r2, [r0, #532]
 9807 0132 023B     		subs	r3, r3, #2
 9808 0134 023A     		subs	r2, r2, #2
 9809 0136 9342     		cmp	r3, r2
 9810 0138 46D2     		bcs	.L2835
 9811 013a 90F80222 		ldrb	r2, [r0, #514]	@ zero_extendqisi2
 9812 013e D0F82812 		ldr	r1, [r0, #552]
 9813 0142 03FB0211 		mla	r1, r3, r2, r1
 9814 0146 0029     		cmp	r1, #0
ARM GAS  /tmp/ccFKl8QX.s 			page 172


 9815 0148 3ED0     		beq	.L2835
 9816 014a FFF7FEFF 		bl	move_window
 9817 014e 8C9B     		ldr	r3, [sp, #560]
 9818 0150 0028     		cmp	r0, #0
 9819 0152 7FF460AF 		bne	.L2837
 9820 0156 93F82120 		ldrb	r2, [r3, #33]	@ zero_extendqisi2
 9821 015a 2E2A     		cmp	r2, #46
 9822 015c 73D0     		beq	.L2864
 9823              	.L2818:
 9824 015e BDF83612 		ldrh	r1, [sp, #566]
 9825 0162 0CA8     		add	r0, sp, #48
 9826 0164 FFF7FEFF 		bl	dir_sdi
 9827 0168 0028     		cmp	r0, #0
 9828 016a 7FF454AF 		bne	.L2837
 9829 016e 8C9C     		ldr	r4, [sp, #560]
 9830 0170 909F     		ldr	r7, [sp, #576]
 9831 0172 D4F82C52 		ldr	r5, [r4, #556]
 9832 0176 AF42     		cmp	r7, r5
 9833 0178 2AD0     		beq	.L2819
 9834 017a 94F80432 		ldrb	r3, [r4, #516]	@ zero_extendqisi2
 9835 017e 002B     		cmp	r3, #0
 9836 0180 3CD1     		bne	.L2865
 9837              	.L2821:
 9838 0182 0123     		movs	r3, #1
 9839 0184 3A46     		mov	r2, r7
 9840 0186 2146     		mov	r1, r4
 9841 0188 94F80102 		ldrb	r0, [r4, #513]	@ zero_extendqisi2
 9842 018c FFF7FEFF 		bl	disk_read
 9843 0190 E0B1     		cbz	r0, .L2825
 9844 0192 4FF0FF33 		mov	r3, #-1
 9845 0196 C4F82C32 		str	r3, [r4, #556]
 9846              	.L2854:
 9847 019a 0120     		movs	r0, #1
 9848 019c 3BE7     		b	.L2837
 9849              	.L2853:
 9850 019e 0B20     		movs	r0, #11
 9851 01a0 39E7     		b	.L2837
 9852              	.L2859:
 9853 01a2 1A69     		ldr	r2, [r3, #16]
 9854 01a4 A242     		cmp	r2, r4
 9855 01a6 7FF453AF 		bne	.L2812
 9856 01aa 9B8A     		ldrh	r3, [r3, #20]
 9857 01ac 8342     		cmp	r3, r0
 9858 01ae 7FF44FAF 		bne	.L2812
 9859              	.L2827:
 9860 01b2 1020     		movs	r0, #16
 9861 01b4 2FE7     		b	.L2837
 9862              	.L2858:
 9863 01b6 5A68     		ldr	r2, [r3, #4]
 9864 01b8 9442     		cmp	r4, r2
 9865 01ba 7FF444AF 		bne	.L2811
 9866 01be 1A89     		ldrh	r2, [r3, #8]
 9867 01c0 8242     		cmp	r2, r0
 9868 01c2 7FF440AF 		bne	.L2811
 9869 01c6 F4E7     		b	.L2827
 9870              	.L2835:
 9871 01c8 0220     		movs	r0, #2
ARM GAS  /tmp/ccFKl8QX.s 			page 173


 9872 01ca 24E7     		b	.L2837
 9873              	.L2825:
 9874 01cc C4F82C72 		str	r7, [r4, #556]
 9875              	.L2819:
 9876 01d0 2022     		movs	r2, #32
 9877 01d2 0021     		movs	r1, #0
 9878 01d4 9198     		ldr	r0, [sp, #580]
 9879 01d6 FFF7FEFF 		bl	memset
 9880 01da 919B     		ldr	r3, [sp, #580]
 9881 01dc E522     		movs	r2, #229
 9882 01de 1A70     		strb	r2, [r3]
 9883 01e0 8C98     		ldr	r0, [sp, #560]
 9884 01e2 0123     		movs	r3, #1
 9885 01e4 80F80432 		strb	r3, [r0, #516]
 9886 01e8 FFF7FEFF 		bl	sync_fs
 9887 01ec 13E7     		b	.L2837
 9888              	.L2863:
 9889 01ee 517D     		ldrb	r1, [r2, #21]	@ zero_extendqisi2
 9890 01f0 127D     		ldrb	r2, [r2, #20]	@ zero_extendqisi2
 9891 01f2 42EA0122 		orr	r2, r2, r1, lsl #8
 9892 01f6 43EA0243 		orr	r3, r3, r2, lsl #16
 9893 01fa 98E7     		b	.L2817
 9894              	.L2865:
 9895 01fc 0123     		movs	r3, #1
 9896 01fe 2A46     		mov	r2, r5
 9897 0200 2146     		mov	r1, r4
 9898 0202 94F80102 		ldrb	r0, [r4, #513]	@ zero_extendqisi2
 9899 0206 FFF7FEFF 		bl	disk_write
 9900 020a 0028     		cmp	r0, #0
 9901 020c C5D1     		bne	.L2854
 9902 020e D4F82022 		ldr	r2, [r4, #544]
 9903 0212 D4F81832 		ldr	r3, [r4, #536]
 9904 0216 84F80402 		strb	r0, [r4, #516]
 9905 021a AA1A     		subs	r2, r5, r2
 9906 021c 9A42     		cmp	r2, r3
 9907 021e B0D2     		bcs	.L2821
 9908 0220 94F80362 		ldrb	r6, [r4, #515]	@ zero_extendqisi2
 9909 0224 012E     		cmp	r6, #1
 9910 0226 02D8     		bhi	.L2822
 9911 0228 ABE7     		b	.L2821
 9912              	.L2866:
 9913 022a D4F81832 		ldr	r3, [r4, #536]
 9914              	.L2822:
 9915 022e 94F80102 		ldrb	r0, [r4, #513]	@ zero_extendqisi2
 9916 0232 1D44     		add	r5, r5, r3
 9917 0234 013E     		subs	r6, r6, #1
 9918 0236 2A46     		mov	r2, r5
 9919 0238 0123     		movs	r3, #1
 9920 023a 2146     		mov	r1, r4
 9921 023c FFF7FEFF 		bl	disk_write
 9922 0240 012E     		cmp	r6, #1
 9923 0242 F2D1     		bne	.L2866
 9924 0244 9DE7     		b	.L2821
 9925              	.L2864:
 9926 0246 DDF85824 		ldr	r2, [sp, #1112]
 9927 024a 83F83A20 		strb	r2, [r3, #58]
 9928 024e 110C     		lsrs	r1, r2, #16
ARM GAS  /tmp/ccFKl8QX.s 			page 174


 9929 0250 080A     		lsrs	r0, r1, #8
 9930 0252 C2F30722 		ubfx	r2, r2, #8, #8
 9931 0256 83F83B20 		strb	r2, [r3, #59]
 9932 025a 83F83410 		strb	r1, [r3, #52]
 9933 025e 83F83500 		strb	r0, [r3, #53]
 9934 0262 8C9B     		ldr	r3, [sp, #560]
 9935 0264 0122     		movs	r2, #1
 9936 0266 83F80422 		strb	r2, [r3, #516]
 9937 026a 78E7     		b	.L2818
 9938              	.L2868:
 9939              		.align	2
 9940              	.L2867:
 9941 026c 00000000 		.word	.LANCHOR2
 9943              		.section	.text.f_utime,"ax",%progbits
 9944              		.align	1
 9945              		.p2align 2,,3
 9946              		.global	f_utime
 9947              		.syntax unified
 9948              		.thumb
 9949              		.thumb_func
 9950              		.fpu fpv4-sp-d16
 9952              	f_utime:
 9953              		@ args = 0, pretend = 0, frame = 560
 9954              		@ frame_needed = 0, uses_anonymous_args = 0
 9955 0000 2DE9F041 		push	{r4, r5, r6, r7, r8, lr}
 9956 0004 ADF50C7D 		sub	sp, sp, #560
 9957 0008 0023     		movs	r3, #0
 9958 000a 8493     		str	r3, [sp, #528]
 9959 000c 0028     		cmp	r0, #0
 9960 000e 00F07981 		beq	.L2870
 9961 0012 0446     		mov	r4, r0
 9962 0014 0078     		ldrb	r0, [r0]	@ zero_extendqisi2
 9963 0016 2028     		cmp	r0, #32
 9964 0018 0E46     		mov	r6, r1
 9965 001a 0CD9     		bls	.L2871
 9966 001c 3A28     		cmp	r0, #58
 9967 001e 00F07181 		beq	.L2870
 9968 0022 2346     		mov	r3, r4
 9969 0024 02E0     		b	.L2872
 9970              	.L2997:
 9971 0026 3A2A     		cmp	r2, #58
 9972 0028 21D0     		beq	.L2996
 9973 002a 0B46     		mov	r3, r1
 9974              	.L2872:
 9975 002c 5A78     		ldrb	r2, [r3, #1]	@ zero_extendqisi2
 9976 002e 202A     		cmp	r2, #32
 9977 0030 03F10101 		add	r1, r3, #1
 9978 0034 F7D8     		bhi	.L2997
 9979              	.L2871:
 9980 0036 C84B     		ldr	r3, .L3008
 9981 0038 1D68     		ldr	r5, [r3]
 9982 003a 25B3     		cbz	r5, .L2933
 9983              	.L3000:
 9984 003c 8495     		str	r5, [sp, #528]
 9985 003e 95F80032 		ldrb	r3, [r5, #512]	@ zero_extendqisi2
 9986 0042 2BB1     		cbz	r3, .L2875
 9987 0044 95F80102 		ldrb	r0, [r5, #513]	@ zero_extendqisi2
ARM GAS  /tmp/ccFKl8QX.s 			page 175


 9988 0048 FFF7FEFF 		bl	disk_status
 9989 004c C107     		lsls	r1, r0, #31
 9990 004e 1FD5     		bpl	.L2998
 9991              	.L2875:
 9992 0050 0020     		movs	r0, #0
 9993 0052 85F80002 		strb	r0, [r5, #512]
 9994 0056 85F80102 		strb	r0, [r5, #513]
 9995 005a FFF7FEFF 		bl	disk_initialize
 9996 005e C307     		lsls	r3, r0, #31
 9997 0060 40F13B81 		bpl	.L2999
 9998 0064 0320     		movs	r0, #3
 9999              	.L2973:
 10000 0066 0DF50C7D 		add	sp, sp, #560
 10001              		@ sp needed
 10002 006a BDE8F081 		pop	{r4, r5, r6, r7, r8, pc}
 10003              	.L2996:
 10004 006e 0134     		adds	r4, r4, #1
 10005 0070 A142     		cmp	r1, r4
 10006 0072 40F04781 		bne	.L2870
 10007 0076 3028     		cmp	r0, #48
 10008 0078 40F04481 		bne	.L2870
 10009 007c 9C1C     		adds	r4, r3, #2
 10010 007e B64B     		ldr	r3, .L3008
 10011 0080 1D68     		ldr	r5, [r3]
 10012 0082 002D     		cmp	r5, #0
 10013 0084 DAD1     		bne	.L3000
 10014              	.L2933:
 10015 0086 0C20     		movs	r0, #12
 10016 0088 0DF50C7D 		add	sp, sp, #560
 10017              		@ sp needed
 10018 008c BDE8F081 		pop	{r4, r5, r6, r7, r8, pc}
 10019              	.L2998:
 10020 0090 4207     		lsls	r2, r0, #29
 10021 0092 40F1FE80 		bpl	.L2921
 10022              	.L2877:
 10023 0096 0A20     		movs	r0, #10
 10024 0098 0DF50C7D 		add	sp, sp, #560
 10025              		@ sp needed
 10026 009c BDE8F081 		pop	{r4, r5, r6, r7, r8, pc}
 10027              	.L3007:
 10028 00a0 D5F83630 		ldr	r3, [r5, #54]	@ unaligned
 10029 00a4 AD4A     		ldr	r2, .L3008+4
 10030 00a6 23F07F43 		bic	r3, r3, #-16777216
 10031 00aa 9342     		cmp	r3, r2
 10032 00ac 00F00C82 		beq	.L2936
 10033 00b0 D5F85230 		ldr	r3, [r5, #82]	@ unaligned
 10034 00b4 23F07F43 		bic	r3, r3, #-16777216
 10035 00b8 9342     		cmp	r3, r2
 10036 00ba 00F00582 		beq	.L2936
 10037 00be 95F8C271 		ldrb	r7, [r5, #450]	@ zero_extendqisi2
 10038 00c2 0FB1     		cbz	r7, .L2881
 10039 00c4 D5F8C671 		ldr	r7, [r5, #454]	@ unaligned
 10040              	.L2881:
 10041 00c8 95F8D231 		ldrb	r3, [r5, #466]	@ zero_extendqisi2
 10042 00cc 0BB1     		cbz	r3, .L2882
 10043 00ce D5F8D631 		ldr	r3, [r5, #470]	@ unaligned
 10044              	.L2882:
ARM GAS  /tmp/ccFKl8QX.s 			page 176


 10045 00d2 0193     		str	r3, [sp, #4]
 10046 00d4 95F8E231 		ldrb	r3, [r5, #482]	@ zero_extendqisi2
 10047 00d8 0BB1     		cbz	r3, .L2883
 10048 00da D5F8E631 		ldr	r3, [r5, #486]	@ unaligned
 10049              	.L2883:
 10050 00de 0293     		str	r3, [sp, #8]
 10051 00e0 95F8F231 		ldrb	r3, [r5, #498]	@ zero_extendqisi2
 10052 00e4 0BB1     		cbz	r3, .L2884
 10053 00e6 D5F8F631 		ldr	r3, [r5, #502]	@ unaligned
 10054              	.L2884:
 10055 00ea 0393     		str	r3, [sp, #12]
 10056 00ec 002F     		cmp	r7, #0
 10057 00ee 40F04F81 		bne	.L3001
 10058              	.L2886:
 10059 00f2 019F     		ldr	r7, [sp, #4]
 10060 00f4 002F     		cmp	r7, #0
 10061 00f6 40F03781 		bne	.L3002
 10062              	.L2894:
 10063 00fa 029F     		ldr	r7, [sp, #8]
 10064 00fc 002F     		cmp	r7, #0
 10065 00fe 40F01581 		bne	.L3003
 10066              	.L2900:
 10067 0102 039F     		ldr	r7, [sp, #12]
 10068 0104 002F     		cmp	r7, #0
 10069 0106 00F00F81 		beq	.L2910
 10070 010a 4FF0FF38 		mov	r8, #-1
 10071 010e 0023     		movs	r3, #0
 10072 0110 4745     		cmp	r7, r8
 10073 0112 85F80432 		strb	r3, [r5, #516]
 10074 0116 C5F82C82 		str	r8, [r5, #556]
 10075 011a 0BD0     		beq	.L2907
 10076 011c 0123     		movs	r3, #1
 10077 011e 3A46     		mov	r2, r7
 10078 0120 2946     		mov	r1, r5
 10079 0122 95F80102 		ldrb	r0, [r5, #513]	@ zero_extendqisi2
 10080 0126 FFF7FEFF 		bl	disk_read
 10081 012a 0028     		cmp	r0, #0
 10082 012c 40F04581 		bne	.L2908
 10083 0130 C5F82C72 		str	r7, [r5, #556]
 10084              	.L2907:
 10085 0134 95F8FF21 		ldrb	r2, [r5, #511]	@ zero_extendqisi2
 10086 0138 95F8FE31 		ldrb	r3, [r5, #510]	@ zero_extendqisi2
 10087 013c 43EA0223 		orr	r3, r3, r2, lsl #8
 10088 0140 4AF65522 		movw	r2, #43605
 10089 0144 9342     		cmp	r3, r2
 10090 0146 40F0EF80 		bne	.L2910
 10091 014a D5F83630 		ldr	r3, [r5, #54]	@ unaligned
 10092 014e 834A     		ldr	r2, .L3008+4
 10093 0150 23F07F43 		bic	r3, r3, #-16777216
 10094 0154 9342     		cmp	r3, r2
 10095 0156 06D0     		beq	.L2880
 10096 0158 D5F85230 		ldr	r3, [r5, #82]	@ unaligned
 10097 015c 23F07F43 		bic	r3, r3, #-16777216
 10098 0160 9342     		cmp	r3, r2
 10099 0162 40F0E180 		bne	.L2910
 10100              	.L2880:
 10101 0166 2A7B     		ldrb	r2, [r5, #12]	@ zero_extendqisi2
ARM GAS  /tmp/ccFKl8QX.s 			page 177


 10102 0168 EB7A     		ldrb	r3, [r5, #11]	@ zero_extendqisi2
 10103 016a 43EA0223 		orr	r3, r3, r2, lsl #8
 10104 016e B3F5007F 		cmp	r3, #512
 10105 0172 40F0D980 		bne	.L2910
 10106 0176 EB7D     		ldrb	r3, [r5, #23]	@ zero_extendqisi2
 10107 0178 297C     		ldrb	r1, [r5, #16]	@ zero_extendqisi2
 10108 017a AA7D     		ldrb	r2, [r5, #22]	@ zero_extendqisi2
 10109 017c 85F80312 		strb	r1, [r5, #515]
 10110 0180 52EA0322 		orrs	r2, r2, r3, lsl #8
 10111 0184 01F1FF33 		add	r3, r1, #-1
 10112 0188 08BF     		it	eq
 10113 018a 6A6A     		ldreq	r2, [r5, #36]
 10114 018c C5F81822 		str	r2, [r5, #536]
 10115 0190 012B     		cmp	r3, #1
 10116 0192 00F2C980 		bhi	.L2910
 10117 0196 95F80DC0 		ldrb	ip, [r5, #13]	@ zero_extendqisi2
 10118 019a 85F802C2 		strb	ip, [r5, #514]
 10119 019e 02FB01F1 		mul	r1, r2, r1
 10120 01a2 BCF1000F 		cmp	ip, #0
 10121 01a6 00F0BF80 		beq	.L2910
 10122 01aa 0CF1FF33 		add	r3, ip, #-1
 10123 01ae 13EA0C0F 		tst	r3, ip
 10124 01b2 40F0B980 		bne	.L2910
 10125 01b6 AB7C     		ldrb	r3, [r5, #18]	@ zero_extendqisi2
 10126 01b8 95F81180 		ldrb	r8, [r5, #17]	@ zero_extendqisi2
 10127 01bc 48EA0328 		orr	r8, r8, r3, lsl #8
 10128 01c0 18F00F0F 		tst	r8, #15
 10129 01c4 A5F80882 		strh	r8, [r5, #520]	@ movhi
 10130 01c8 40F0AE80 		bne	.L2910
 10131 01cc 287D     		ldrb	r0, [r5, #20]	@ zero_extendqisi2
 10132 01ce EB7C     		ldrb	r3, [r5, #19]	@ zero_extendqisi2
 10133 01d0 95F80FE0 		ldrb	lr, [r5, #15]	@ zero_extendqisi2
 10134 01d4 53EA0023 		orrs	r3, r3, r0, lsl #8
 10135 01d8 A87B     		ldrb	r0, [r5, #14]	@ zero_extendqisi2
 10136 01da 08BF     		it	eq
 10137 01dc 2B6A     		ldreq	r3, [r5, #32]
 10138 01de 50EA0E20 		orrs	r0, r0, lr, lsl #8
 10139 01e2 00F0A180 		beq	.L2910
 10140 01e6 00EB181E 		add	lr, r0, r8, lsr #4
 10141 01ea 8E44     		add	lr, lr, r1
 10142 01ec 9E45     		cmp	lr, r3
 10143 01ee 00F29B80 		bhi	.L2910
 10144 01f2 A3EB0E03 		sub	r3, r3, lr
 10145 01f6 B3FBFCF3 		udiv	r3, r3, ip
 10146 01fa 002B     		cmp	r3, #0
 10147 01fc 00F09480 		beq	.L2910
 10148 0200 40F6F57C 		movw	ip, #4085
 10149 0204 6345     		cmp	r3, ip
 10150 0206 40F28581 		bls	.L2913
 10151 020a 4FF6F57C 		movw	ip, #65525
 10152 020e 6345     		cmp	r3, ip
 10153 0210 40F25C81 		bls	.L3004
 10154 0214 0233     		adds	r3, r3, #2
 10155 0216 3844     		add	r0, r0, r7
 10156 0218 0EEB0701 		add	r1, lr, r7
 10157 021c C5F81432 		str	r3, [r5, #532]
 10158 0220 C5F82002 		str	r0, [r5, #544]
ARM GAS  /tmp/ccFKl8QX.s 			page 178


 10159 0224 C5F82812 		str	r1, [r5, #552]
 10160 0228 C5F81C72 		str	r7, [r5, #540]
 10161 022c B8F1000F 		cmp	r8, #0
 10162 0230 7AD1     		bne	.L2910
 10163 0232 9B00     		lsls	r3, r3, #2
 10164 0234 03F2FF13 		addw	r3, r3, #511
 10165 0238 E96A     		ldr	r1, [r5, #44]
 10166 023a C5F82412 		str	r1, [r5, #548]
 10167 023e B2EB532F 		cmp	r2, r3, lsr #9
 10168 0242 71D3     		bcc	.L2910
 10169 0244 95F83120 		ldrb	r2, [r5, #49]	@ zero_extendqisi2
 10170 0248 95F83030 		ldrb	r3, [r5, #48]	@ zero_extendqisi2
 10171 024c 43EA0223 		orr	r3, r3, r2, lsl #8
 10172 0250 8021     		movs	r1, #128
 10173 0252 4FF0FF32 		mov	r2, #-1
 10174 0256 012B     		cmp	r3, #1
 10175 0258 C5F81022 		str	r2, [r5, #528]
 10176 025c C5F80C22 		str	r2, [r5, #524]
 10177 0260 85F80512 		strb	r1, [r5, #517]
 10178 0264 00F00481 		beq	.L3005
 10179              	.L2984:
 10180 0268 0322     		movs	r2, #3
 10181              	.L2917:
 10182 026a 3D48     		ldr	r0, .L3008+8
 10183 026c 3D49     		ldr	r1, .L3008+12
 10184 026e 0388     		ldrh	r3, [r0]
 10185 0270 85F80022 		strb	r2, [r5, #512]
 10186 0274 0A68     		ldr	r2, [r1]
 10187 0276 0133     		adds	r3, r3, #1
 10188 0278 9BB2     		uxth	r3, r3
 10189 027a 9542     		cmp	r5, r2
 10190 027c 0380     		strh	r3, [r0]	@ movhi
 10191 027e A5F80632 		strh	r3, [r5, #518]	@ movhi
 10192 0282 04BF     		itt	eq
 10193 0284 0023     		moveq	r3, #0
 10194 0286 0B60     		streq	r3, [r1]
 10195 0288 CB68     		ldr	r3, [r1, #12]
 10196 028a 9D42     		cmp	r5, r3
 10197 028c 01D1     		bne	.L2921
 10198 028e 0023     		movs	r3, #0
 10199 0290 CB60     		str	r3, [r1, #12]
 10200              	.L2921:
 10201 0292 2146     		mov	r1, r4
 10202 0294 04A8     		add	r0, sp, #16
 10203 0296 CDF828D2 		str	sp, [sp, #552]
 10204 029a FFF7FEFF 		bl	follow_path
 10205 029e 0028     		cmp	r0, #0
 10206 02a0 7FF4E1AE 		bne	.L2973
 10207 02a4 899B     		ldr	r3, [sp, #548]
 10208 02a6 9BB1     		cbz	r3, .L2941
 10209 02a8 F288     		ldrh	r2, [r6, #6]
 10210 02aa 9A75     		strb	r2, [r3, #22]
 10211 02ac F288     		ldrh	r2, [r6, #6]
 10212 02ae 120A     		lsrs	r2, r2, #8
 10213 02b0 DA75     		strb	r2, [r3, #23]
 10214 02b2 B288     		ldrh	r2, [r6, #4]
 10215 02b4 1A76     		strb	r2, [r3, #24]
ARM GAS  /tmp/ccFKl8QX.s 			page 179


 10216 02b6 B288     		ldrh	r2, [r6, #4]
 10217 02b8 120A     		lsrs	r2, r2, #8
 10218 02ba 5A76     		strb	r2, [r3, #25]
 10219 02bc 8498     		ldr	r0, [sp, #528]
 10220 02be 0123     		movs	r3, #1
 10221 02c0 80F80432 		strb	r3, [r0, #516]
 10222 02c4 FFF7FEFF 		bl	sync_fs
 10223 02c8 0DF50C7D 		add	sp, sp, #560
 10224              		@ sp needed
 10225 02cc BDE8F081 		pop	{r4, r5, r6, r7, r8, pc}
 10226              	.L2941:
 10227 02d0 0620     		movs	r0, #6
 10228 02d2 0DF50C7D 		add	sp, sp, #560
 10229              		@ sp needed
 10230 02d6 BDE8F081 		pop	{r4, r5, r6, r7, r8, pc}
 10231              	.L2999:
 10232 02da 10F00402 		ands	r2, r0, #4
 10233 02de 7FF4DAAE 		bne	.L2877
 10234 02e2 4FF0FF37 		mov	r7, #-1
 10235 02e6 85F80422 		strb	r2, [r5, #516]
 10236 02ea C5F82C72 		str	r7, [r5, #556]
 10237 02ee 0123     		movs	r3, #1
 10238 02f0 2946     		mov	r1, r5
 10239 02f2 95F80102 		ldrb	r0, [r5, #513]	@ zero_extendqisi2
 10240 02f6 FFF7FEFF 		bl	disk_read
 10241 02fa 40B1     		cbz	r0, .L3006
 10242 02fc C5F82C72 		str	r7, [r5, #556]
 10243 0300 0120     		movs	r0, #1
 10244 0302 B0E6     		b	.L2973
 10245              	.L2870:
 10246 0304 0B20     		movs	r0, #11
 10247 0306 0DF50C7D 		add	sp, sp, #560
 10248              		@ sp needed
 10249 030a BDE8F081 		pop	{r4, r5, r6, r7, r8, pc}
 10250              	.L3006:
 10251 030e 95F8FF21 		ldrb	r2, [r5, #511]	@ zero_extendqisi2
 10252 0312 95F8FE31 		ldrb	r3, [r5, #510]	@ zero_extendqisi2
 10253 0316 C5F82C02 		str	r0, [r5, #556]
 10254 031a 43EA0223 		orr	r3, r3, r2, lsl #8
 10255 031e 4AF65522 		movw	r2, #43605
 10256 0322 9342     		cmp	r3, r2
 10257 0324 3FF4BCAE 		beq	.L3007
 10258              	.L2910:
 10259 0328 0D20     		movs	r0, #13
 10260 032a 9CE6     		b	.L2973
 10261              	.L3003:
 10262 032c 4FF0FF38 		mov	r8, #-1
 10263 0330 0023     		movs	r3, #0
 10264 0332 4745     		cmp	r7, r8
 10265 0334 85F80432 		strb	r3, [r5, #516]
 10266 0338 C5F82C82 		str	r8, [r5, #556]
 10267 033c 60D0     		beq	.L2904
 10268 033e 0123     		movs	r3, #1
 10269 0340 3A46     		mov	r2, r7
 10270 0342 2946     		mov	r1, r5
 10271 0344 95F80102 		ldrb	r0, [r5, #513]	@ zero_extendqisi2
 10272 0348 FFF7FEFF 		bl	disk_read
ARM GAS  /tmp/ccFKl8QX.s 			page 180


 10273 034c 0028     		cmp	r0, #0
 10274 034e 55D0     		beq	.L2903
 10275 0350 C5F82C82 		str	r8, [r5, #556]
 10276 0354 D5E6     		b	.L2900
 10277              	.L3009:
 10278 0356 00BF     		.align	2
 10279              	.L3008:
 10280 0358 00000000 		.word	.LANCHOR0
 10281 035c 46415400 		.word	5521734
 10282 0360 00000000 		.word	.LANCHOR1
 10283 0364 00000000 		.word	.LANCHOR2
 10284              	.L3002:
 10285 0368 4FF0FF38 		mov	r8, #-1
 10286 036c 0023     		movs	r3, #0
 10287 036e 4745     		cmp	r7, r8
 10288 0370 85F80432 		strb	r3, [r5, #516]
 10289 0374 C5F82C82 		str	r8, [r5, #556]
 10290 0378 25D0     		beq	.L2898
 10291 037a 0123     		movs	r3, #1
 10292 037c 3A46     		mov	r2, r7
 10293 037e 2946     		mov	r1, r5
 10294 0380 95F80102 		ldrb	r0, [r5, #513]	@ zero_extendqisi2
 10295 0384 FFF7FEFF 		bl	disk_read
 10296 0388 D8B1     		cbz	r0, .L2897
 10297 038a C5F82C82 		str	r8, [r5, #556]
 10298 038e B4E6     		b	.L2894
 10299              	.L3001:
 10300 0390 4FF0FF38 		mov	r8, #-1
 10301 0394 0023     		movs	r3, #0
 10302 0396 4745     		cmp	r7, r8
 10303 0398 85F80432 		strb	r3, [r5, #516]
 10304 039c C5F82C82 		str	r8, [r5, #556]
 10305 03a0 56D0     		beq	.L2892
 10306 03a2 0123     		movs	r3, #1
 10307 03a4 3A46     		mov	r2, r7
 10308 03a6 2946     		mov	r1, r5
 10309 03a8 95F80102 		ldrb	r0, [r5, #513]	@ zero_extendqisi2
 10310 03ac FFF7FEFF 		bl	disk_read
 10311 03b0 0028     		cmp	r0, #0
 10312 03b2 40D0     		beq	.L2890
 10313 03b4 C5F82C82 		str	r8, [r5, #556]
 10314 03b8 9BE6     		b	.L2886
 10315              	.L2908:
 10316 03ba C5F82C82 		str	r8, [r5, #556]
 10317 03be 0120     		movs	r0, #1
 10318 03c0 51E6     		b	.L2973
 10319              	.L2897:
 10320 03c2 C5F82C72 		str	r7, [r5, #556]
 10321              	.L2898:
 10322 03c6 95F8FF21 		ldrb	r2, [r5, #511]	@ zero_extendqisi2
 10323 03ca 95F8FE31 		ldrb	r3, [r5, #510]	@ zero_extendqisi2
 10324 03ce 43EA0223 		orr	r3, r3, r2, lsl #8
 10325 03d2 4AF65522 		movw	r2, #43605
 10326 03d6 9342     		cmp	r3, r2
 10327 03d8 7FF48FAE 		bne	.L2894
 10328 03dc D5F83630 		ldr	r3, [r5, #54]	@ unaligned
 10329 03e0 614A     		ldr	r2, .L3010
ARM GAS  /tmp/ccFKl8QX.s 			page 181


 10330 03e2 23F07F43 		bic	r3, r3, #-16777216
 10331 03e6 9342     		cmp	r3, r2
 10332 03e8 3FF4BDAE 		beq	.L2880
 10333 03ec D5F85230 		ldr	r3, [r5, #82]	@ unaligned
 10334 03f0 23F07F43 		bic	r3, r3, #-16777216
 10335 03f4 9342     		cmp	r3, r2
 10336 03f6 7FF480AE 		bne	.L2894
 10337 03fa B4E6     		b	.L2880
 10338              	.L2903:
 10339 03fc C5F82C72 		str	r7, [r5, #556]
 10340              	.L2904:
 10341 0400 95F8FF21 		ldrb	r2, [r5, #511]	@ zero_extendqisi2
 10342 0404 95F8FE31 		ldrb	r3, [r5, #510]	@ zero_extendqisi2
 10343 0408 43EA0223 		orr	r3, r3, r2, lsl #8
 10344 040c 4AF65522 		movw	r2, #43605
 10345 0410 9342     		cmp	r3, r2
 10346 0412 7FF476AE 		bne	.L2900
 10347 0416 D5F83630 		ldr	r3, [r5, #54]	@ unaligned
 10348 041a 534A     		ldr	r2, .L3010
 10349 041c 23F07F43 		bic	r3, r3, #-16777216
 10350 0420 9342     		cmp	r3, r2
 10351 0422 3FF4A0AE 		beq	.L2880
 10352 0426 D5F85230 		ldr	r3, [r5, #82]	@ unaligned
 10353 042a 23F07F43 		bic	r3, r3, #-16777216
 10354 042e 9342     		cmp	r3, r2
 10355 0430 7FF467AE 		bne	.L2900
 10356 0434 97E6     		b	.L2880
 10357              	.L2890:
 10358 0436 95F8FF21 		ldrb	r2, [r5, #511]	@ zero_extendqisi2
 10359 043a 95F8FE31 		ldrb	r3, [r5, #510]	@ zero_extendqisi2
 10360 043e C5F82C72 		str	r7, [r5, #556]
 10361 0442 43EA0223 		orr	r3, r3, r2, lsl #8
 10362 0446 4AF65522 		movw	r2, #43605
 10363 044a 9342     		cmp	r3, r2
 10364 044c 7FF451AE 		bne	.L2886
 10365              	.L2892:
 10366 0450 D5F83630 		ldr	r3, [r5, #54]	@ unaligned
 10367 0454 444A     		ldr	r2, .L3010
 10368 0456 23F07F43 		bic	r3, r3, #-16777216
 10369 045a 9342     		cmp	r3, r2
 10370 045c 3FF483AE 		beq	.L2880
 10371 0460 D5F85230 		ldr	r3, [r5, #82]	@ unaligned
 10372 0464 23F07F43 		bic	r3, r3, #-16777216
 10373 0468 9342     		cmp	r3, r2
 10374 046a 7FF442AE 		bne	.L2886
 10375 046e 7AE6     		b	.L2880
 10376              	.L3005:
 10377 0470 791C     		adds	r1, r7, #1
 10378 0472 2846     		mov	r0, r5
 10379 0474 FFF7FEFF 		bl	move_window
 10380 0478 0028     		cmp	r0, #0
 10381 047a 7FF4F5AE 		bne	.L2984
 10382 047e 95F8FF21 		ldrb	r2, [r5, #511]	@ zero_extendqisi2
 10383 0482 95F8FE31 		ldrb	r3, [r5, #510]	@ zero_extendqisi2
 10384 0486 85F80582 		strb	r8, [r5, #517]
 10385 048a 43EA0223 		orr	r3, r3, r2, lsl #8
 10386 048e 4AF65522 		movw	r2, #43605
ARM GAS  /tmp/ccFKl8QX.s 			page 182


 10387 0492 9342     		cmp	r3, r2
 10388 0494 7FF4E8AE 		bne	.L2984
 10389 0498 344B     		ldr	r3, .L3010+4
 10390 049a 2A68     		ldr	r2, [r5]
 10391 049c 9A42     		cmp	r2, r3
 10392 049e 7FF4E3AE 		bne	.L2984
 10393 04a2 03F1FF53 		add	r3, r3, #534773760
 10394 04a6 03F50053 		add	r3, r3, #8192
 10395 04aa D5F8E421 		ldr	r2, [r5, #484]
 10396 04ae 2033     		adds	r3, r3, #32
 10397 04b0 9A42     		cmp	r2, r3
 10398 04b2 7FF4D9AE 		bne	.L2984
 10399 04b6 D5F8E821 		ldr	r2, [r5, #488]
 10400 04ba D5F8EC31 		ldr	r3, [r5, #492]
 10401 04be C5F81022 		str	r2, [r5, #528]
 10402 04c2 C5F80C32 		str	r3, [r5, #524]
 10403 04c6 CFE6     		b	.L2984
 10404              	.L2936:
 10405 04c8 0746     		mov	r7, r0
 10406 04ca 4CE6     		b	.L2880
 10407              	.L3004:
 10408 04cc 0233     		adds	r3, r3, #2
 10409 04ce 3844     		add	r0, r0, r7
 10410 04d0 BE44     		add	lr, lr, r7
 10411 04d2 C5F81432 		str	r3, [r5, #532]
 10412 04d6 C5F82002 		str	r0, [r5, #544]
 10413 04da C5F828E2 		str	lr, [r5, #552]
 10414 04de C5F81C72 		str	r7, [r5, #540]
 10415 04e2 B8F1000F 		cmp	r8, #0
 10416 04e6 3FF41FAF 		beq	.L2910
 10417 04ea 5B00     		lsls	r3, r3, #1
 10418 04ec 03F2FF13 		addw	r3, r3, #511
 10419 04f0 0844     		add	r0, r0, r1
 10420 04f2 B2EB532F 		cmp	r2, r3, lsr #9
 10421 04f6 C5F82402 		str	r0, [r5, #548]
 10422 04fa FFF415AF 		bcc	.L2910
 10423 04fe 4FF0FF33 		mov	r3, #-1
 10424 0502 8022     		movs	r2, #128
 10425 0504 85F80522 		strb	r2, [r5, #517]
 10426 0508 C5F81032 		str	r3, [r5, #528]
 10427 050c C5F80C32 		str	r3, [r5, #524]
 10428 0510 0222     		movs	r2, #2
 10429 0512 AAE6     		b	.L2917
 10430              	.L2913:
 10431 0514 0233     		adds	r3, r3, #2
 10432 0516 3844     		add	r0, r0, r7
 10433 0518 BE44     		add	lr, lr, r7
 10434 051a C5F81432 		str	r3, [r5, #532]
 10435 051e C5F82002 		str	r0, [r5, #544]
 10436 0522 C5F828E2 		str	lr, [r5, #552]
 10437 0526 C5F81C72 		str	r7, [r5, #540]
 10438 052a B8F1000F 		cmp	r8, #0
 10439 052e 3FF4FBAE 		beq	.L2910
 10440 0532 03F00107 		and	r7, r3, #1
 10441 0536 07F2FF17 		addw	r7, r7, #511
 10442 053a 03EB4303 		add	r3, r3, r3, lsl #1
 10443 053e 07EB5303 		add	r3, r7, r3, lsr #1
ARM GAS  /tmp/ccFKl8QX.s 			page 183


 10444 0542 0844     		add	r0, r0, r1
 10445 0544 B2EB532F 		cmp	r2, r3, lsr #9
 10446 0548 C5F82402 		str	r0, [r5, #548]
 10447 054c FFF4ECAE 		bcc	.L2910
 10448 0550 4FF0FF33 		mov	r3, #-1
 10449 0554 8022     		movs	r2, #128
 10450 0556 85F80522 		strb	r2, [r5, #517]
 10451 055a C5F81032 		str	r3, [r5, #528]
 10452 055e C5F80C32 		str	r3, [r5, #524]
 10453 0562 0122     		movs	r2, #1
 10454 0564 81E6     		b	.L2917
 10455              	.L3011:
 10456 0566 00BF     		.align	2
 10457              	.L3010:
 10458 0568 46415400 		.word	5521734
 10459 056c 52526141 		.word	1096897106
 10461              		.section	.text.f_mkfs,"ax",%progbits
 10462              		.align	1
 10463              		.p2align 2,,3
 10464              		.global	f_mkfs
 10465              		.syntax unified
 10466              		.thumb
 10467              		.thumb_func
 10468              		.fpu fpv4-sp-d16
 10470              	f_mkfs:
 10471              		@ args = 0, pretend = 0, frame = 24
 10472              		@ frame_needed = 0, uses_anonymous_args = 0
 10473 0000 0129     		cmp	r1, #1
 10474 0002 01D9     		bls	.L3108
 10475 0004 1320     		movs	r0, #19
 10476 0006 7047     		bx	lr
 10477              	.L3108:
 10478 0008 0028     		cmp	r0, #0
 10479 000a 6BD0     		beq	.L3061
 10480 000c 2DE9F04F 		push	{r4, r5, r6, r7, r8, r9, r10, fp, lr}
 10481 0010 0C46     		mov	r4, r1
 10482 0012 0178     		ldrb	r1, [r0]	@ zero_extendqisi2
 10483 0014 2029     		cmp	r1, #32
 10484 0016 87B0     		sub	sp, sp, #28
 10485 0018 1546     		mov	r5, r2
 10486 001a 09D9     		bls	.L3014
 10487 001c 3A29     		cmp	r1, #58
 10488 001e 1AD0     		beq	.L3102
 10489 0020 0246     		mov	r2, r0
 10490 0022 01E0     		b	.L3015
 10491              	.L3110:
 10492 0024 3A2B     		cmp	r3, #58
 10493 0026 11D0     		beq	.L3109
 10494              	.L3015:
 10495 0028 12F8013F 		ldrb	r3, [r2, #1]!	@ zero_extendqisi2
 10496 002c 202B     		cmp	r3, #32
 10497 002e F9D8     		bhi	.L3110
 10498              	.L3014:
 10499 0030 4C4B     		ldr	r3, .L3118
 10500 0032 1E68     		ldr	r6, [r3]
 10501 0034 8EB1     		cbz	r6, .L3064
 10502 0036 0020     		movs	r0, #0
ARM GAS  /tmp/ccFKl8QX.s 			page 184


 10503 0038 86F80002 		strb	r0, [r6, #512]
 10504 003c FFF7FEFF 		bl	disk_initialize
 10505 0040 C307     		lsls	r3, r0, #31
 10506 0042 0CD5     		bpl	.L3111
 10507 0044 0320     		movs	r0, #3
 10508              	.L3089:
 10509 0046 07B0     		add	sp, sp, #28
 10510              		@ sp needed
 10511 0048 BDE8F08F 		pop	{r4, r5, r6, r7, r8, r9, r10, fp, pc}
 10512              	.L3109:
 10513 004c 0130     		adds	r0, r0, #1
 10514 004e 8242     		cmp	r2, r0
 10515 0050 01D1     		bne	.L3102
 10516 0052 3029     		cmp	r1, #48
 10517 0054 ECD0     		beq	.L3014
 10518              	.L3102:
 10519 0056 0B20     		movs	r0, #11
 10520 0058 F5E7     		b	.L3089
 10521              	.L3064:
 10522 005a 0C20     		movs	r0, #12
 10523 005c F3E7     		b	.L3089
 10524              	.L3111:
 10525 005e 10F00400 		ands	r0, r0, #4
 10526 0062 01D0     		beq	.L3112
 10527 0064 0A20     		movs	r0, #10
 10528 0066 EEE7     		b	.L3089
 10529              	.L3112:
 10530 0068 05AA     		add	r2, sp, #20
 10531 006a 0121     		movs	r1, #1
 10532 006c FFF7FEFF 		bl	disk_ioctl
 10533 0070 B0BB     		cbnz	r0, .L3018
 10534 0072 059A     		ldr	r2, [sp, #20]
 10535 0074 7F2A     		cmp	r2, #127
 10536 0076 33D9     		bls	.L3018
 10537 0078 002C     		cmp	r4, #0
 10538 007a 14BF     		ite	ne
 10539 007c 4FF00009 		movne	r9, #0
 10540 0080 4FF03F09 		moveq	r9, #63
 10541 0084 6B1E     		subs	r3, r5, #1
 10542 0086 A2EB0902 		sub	r2, r2, r9
 10543 008a 2B42     		tst	r3, r5
 10544 008c 0592     		str	r2, [sp, #20]
 10545 008e 2BD1     		bne	.L3020
 10546 0090 55B3     		cbz	r5, .L3020
 10547 0092 B5F5007F 		cmp	r5, #512
 10548 0096 00D3     		bcc	.L3054
 10549              	.L3053:
 10550 0098 6D0A     		lsrs	r5, r5, #9
 10551              	.L3054:
 10552 009a 802D     		cmp	r5, #128
 10553 009c 40F6F571 		movw	r1, #4085
 10554 00a0 28BF     		it	cs
 10555 00a2 8025     		movcs	r5, #128
 10556 00a4 B2FBF5F3 		udiv	r3, r2, r5
 10557 00a8 8B42     		cmp	r3, r1
 10558 00aa 52D9     		bls	.L3024
 10559 00ac 4FF6F571 		movw	r1, #65525
ARM GAS  /tmp/ccFKl8QX.s 			page 185


 10560 00b0 8B42     		cmp	r3, r1
 10561 00b2 42D9     		bls	.L3113
 10562 00b4 9F00     		lsls	r7, r3, #2
 10563 00b6 07F20727 		addw	r7, r7, #519
 10564 00ba 0023     		movs	r3, #0
 10565 00bc 7F0A     		lsrs	r7, r7, #9
 10566 00be 4FF0030B 		mov	fp, #3
 10567 00c2 0193     		str	r3, [sp, #4]
 10568 00c4 4FF0200A 		mov	r10, #32
 10569              	.L3052:
 10570 00c8 019B     		ldr	r3, [sp, #4]
 10571 00ca 0AEB0908 		add	r8, r10, r9
 10572 00ce FB18     		adds	r3, r7, r3
 10573 00d0 4344     		add	r3, r3, r8
 10574 00d2 A5EB0901 		sub	r1, r5, r9
 10575 00d6 1944     		add	r1, r1, r3
 10576 00d8 8A42     		cmp	r2, r1
 10577 00da 47D2     		bcs	.L3027
 10578              	.L3031:
 10579 00dc 0E20     		movs	r0, #14
 10580 00de B2E7     		b	.L3089
 10581              	.L3018:
 10582 00e0 0120     		movs	r0, #1
 10583 00e2 B0E7     		b	.L3089
 10584              	.L3061:
 10585 00e4 0B20     		movs	r0, #11
 10586 00e6 7047     		bx	lr
 10587              	.L3020:
 10588 00e8 4FF4FA63 		mov	r3, #2000
 10589 00ec B2FBF3F3 		udiv	r3, r2, r3
 10590 00f0 B3F5806F 		cmp	r3, #1024
 10591 00f4 80F04B82 		bcs	.L3022
 10592 00f8 B3F5007F 		cmp	r3, #512
 10593 00fc 80F04582 		bcs	.L3068
 10594 0100 FF2B     		cmp	r3, #255
 10595 0102 00F24082 		bhi	.L3069
 10596 0106 7F2B     		cmp	r3, #127
 10597 0108 00F23B82 		bhi	.L3070
 10598 010c 3F2B     		cmp	r3, #63
 10599 010e 00F23682 		bhi	.L3071
 10600 0112 1F2B     		cmp	r3, #31
 10601 0114 00F23182 		bhi	.L3072
 10602 0118 0F2B     		cmp	r3, #15
 10603 011a 00F22C82 		bhi	.L3073
 10604 011e 072B     		cmp	r3, #7
 10605 0120 00F22782 		bhi	.L3074
 10606 0124 032B     		cmp	r3, #3
 10607 0126 00F24F81 		bhi	.L3075
 10608 012a 022B     		cmp	r3, #2
 10609 012c 34BF     		ite	cc
 10610 012e 0A23     		movcc	r3, #10
 10611 0130 0923     		movcs	r3, #9
 10612              	.L3023:
 10613 0132 0D49     		ldr	r1, .L3118+4
 10614 0134 31F81350 		ldrh	r5, [r1, r3, lsl #1]
 10615 0138 AEE7     		b	.L3053
 10616              	.L3113:
ARM GAS  /tmp/ccFKl8QX.s 			page 186


 10617 013a 0233     		adds	r3, r3, #2
 10618 013c 5B00     		lsls	r3, r3, #1
 10619 013e 4FF0020B 		mov	fp, #2
 10620              	.L3057:
 10621 0142 03F2FF13 		addw	r3, r3, #511
 10622 0146 5F0A     		lsrs	r7, r3, #9
 10623 0148 2023     		movs	r3, #32
 10624 014a 0193     		str	r3, [sp, #4]
 10625 014c 4FF0010A 		mov	r10, #1
 10626 0150 BAE7     		b	.L3052
 10627              	.L3024:
 10628 0152 03EB4303 		add	r3, r3, r3, lsl #1
 10629 0156 0133     		adds	r3, r3, #1
 10630 0158 5B08     		lsrs	r3, r3, #1
 10631 015a 0333     		adds	r3, r3, #3
 10632 015c 4FF0010B 		mov	fp, #1
 10633 0160 EFE7     		b	.L3057
 10634              	.L3119:
 10635 0162 00BF     		.align	2
 10636              	.L3118:
 10637 0164 00000000 		.word	.LANCHOR0
 10638 0168 00000000 		.word	.LANCHOR4
 10639              	.L3027:
 10640 016c 04AA     		add	r2, sp, #16
 10641 016e 0321     		movs	r1, #3
 10642 0170 0020     		movs	r0, #0
 10643 0172 0293     		str	r3, [sp, #8]
 10644 0174 FFF7FEFF 		bl	disk_ioctl
 10645 0178 029B     		ldr	r3, [sp, #8]
 10646 017a 30B9     		cbnz	r0, .L3028
 10647 017c DDF810E0 		ldr	lr, [sp, #16]
 10648 0180 0EF1FF32 		add	r2, lr, #-1
 10649 0184 B2F5004F 		cmp	r2, #32768
 10650 0188 01D3     		bcc	.L3029
 10651              	.L3028:
 10652 018a 4FF0010E 		mov	lr, #1
 10653              	.L3029:
 10654 018e 0EF1FF32 		add	r2, lr, #-1
 10655 0192 1A44     		add	r2, r2, r3
 10656 0194 CEF1000E 		rsb	lr, lr, #0
 10657 0198 02EA0E02 		and	r2, r2, lr
 10658 019c D31A     		subs	r3, r2, r3
 10659 019e BBF1030F 		cmp	fp, #3
 10660 01a2 0493     		str	r3, [sp, #16]
 10661 01a4 059A     		ldr	r2, [sp, #20]
 10662 01a6 00F0D381 		beq	.L3114
 10663 01aa 1F44     		add	r7, r7, r3
 10664 01ac 0199     		ldr	r1, [sp, #4]
 10665 01ae A2EB0A03 		sub	r3, r2, r10
 10666 01b2 DB1B     		subs	r3, r3, r7
 10667 01b4 BBF1020F 		cmp	fp, #2
 10668 01b8 A3EB0103 		sub	r3, r3, r1
 10669 01bc B3FBF5F3 		udiv	r3, r3, r5
 10670 01c0 0293     		str	r3, [sp, #8]
 10671 01c2 00F06481 		beq	.L3115
 10672 01c6 B2F5803F 		cmp	r2, #65536
 10673 01ca 34BF     		ite	cc
ARM GAS  /tmp/ccFKl8QX.s 			page 187


 10674 01cc 0123     		movcc	r3, #1
 10675 01ce 0623     		movcs	r3, #6
 10676              	.L3032:
 10677 01d0 0393     		str	r3, [sp, #12]
 10678 01d2 002C     		cmp	r4, #0
 10679 01d4 40F0FA80 		bne	.L3079
 10680 01d8 4FF40072 		mov	r2, #512
 10681 01dc 2146     		mov	r1, r4
 10682 01de 3046     		mov	r0, r6
 10683 01e0 FFF7FEFF 		bl	memset
 10684 01e4 059A     		ldr	r2, [sp, #20]
 10685 01e6 039B     		ldr	r3, [sp, #12]
 10686 01e8 86F8CA21 		strb	r2, [r6, #458]
 10687 01ec 09EB020E 		add	lr, r9, r2
 10688 01f0 43F6C161 		movw	r1, #16065
 10689 01f4 BEFBF1FE 		udiv	lr, lr, r1
 10690 01f8 4FEA9E01 		lsr	r1, lr, #2
 10691 01fc 41F03F01 		orr	r1, r1, #63
 10692 0200 C2F30720 		ubfx	r0, r2, #8, #8
 10693 0204 4FEA124C 		lsr	ip, r2, #16
 10694 0208 86F8C411 		strb	r1, [r6, #452]
 10695 020c 120E     		lsrs	r2, r2, #24
 10696 020e FE21     		movs	r1, #254
 10697 0210 86F8C231 		strb	r3, [r6, #450]
 10698 0214 86F8CB01 		strb	r0, [r6, #459]
 10699 0218 0123     		movs	r3, #1
 10700 021a 3F20     		movs	r0, #63
 10701 021c 86F8CD21 		strb	r2, [r6, #461]
 10702 0220 86F8C311 		strb	r1, [r6, #451]
 10703 0224 5522     		movs	r2, #85
 10704 0226 AA21     		movs	r1, #170
 10705 0228 86F8C601 		strb	r0, [r6, #454]
 10706 022c 86F8FE21 		strb	r2, [r6, #510]
 10707 0230 86F8FF11 		strb	r1, [r6, #511]
 10708 0234 86F8C141 		strb	r4, [r6, #449]
 10709 0238 86F8C741 		strb	r4, [r6, #455]
 10710 023c 86F8C841 		strb	r4, [r6, #456]
 10711 0240 86F8C941 		strb	r4, [r6, #457]
 10712 0244 86F8C5E1 		strb	lr, [r6, #453]
 10713 0248 86F8CCC1 		strb	ip, [r6, #460]
 10714 024c 86F8BF31 		strb	r3, [r6, #447]
 10715 0250 86F8C031 		strb	r3, [r6, #448]
 10716 0254 2246     		mov	r2, r4
 10717 0256 2046     		mov	r0, r4
 10718 0258 3146     		mov	r1, r6
 10719 025a CDF810E0 		str	lr, [sp, #16]
 10720 025e FFF7FEFF 		bl	disk_write
 10721 0262 0028     		cmp	r0, #0
 10722 0264 7FF43CAF 		bne	.L3018
 10723 0268 F824     		movs	r4, #248
 10724              	.L3035:
 10725 026a 4FF40072 		mov	r2, #512
 10726 026e 0021     		movs	r1, #0
 10727 0270 3046     		mov	r0, r6
 10728 0272 FFF7FEFF 		bl	memset
 10729 0276 C74A     		ldr	r2, .L3120
 10730 0278 0023     		movs	r3, #0
ARM GAS  /tmp/ccFKl8QX.s 			page 188


 10731              	.L3036:
 10732 027a D15C     		ldrb	r1, [r2, r3]	@ zero_extendqisi2
 10733 027c F154     		strb	r1, [r6, r3]
 10734 027e 0133     		adds	r3, r3, #1
 10735 0280 0B2B     		cmp	r3, #11
 10736 0282 FAD1     		bne	.L3036
 10737 0284 BBF1030F 		cmp	fp, #3
 10738 0288 14BF     		ite	ne
 10739 028a 0222     		movne	r2, #2
 10740 028c 0022     		moveq	r2, #0
 10741 028e 059B     		ldr	r3, [sp, #20]
 10742 0290 B274     		strb	r2, [r6, #18]
 10743 0292 0022     		movs	r2, #0
 10744 0294 F272     		strb	r2, [r6, #11]
 10745 0296 7274     		strb	r2, [r6, #17]
 10746 0298 0222     		movs	r2, #2
 10747 029a 86F80EA0 		strb	r10, [r6, #14]
 10748 029e 3273     		strb	r2, [r6, #12]
 10749 02a0 CAF3072A 		ubfx	r10, r10, #8, #8
 10750 02a4 0122     		movs	r2, #1
 10751 02a6 B3F5803F 		cmp	r3, #65536
 10752 02aa 7573     		strb	r5, [r6, #13]
 10753 02ac 86F80FA0 		strb	r10, [r6, #15]
 10754 02b0 3274     		strb	r2, [r6, #16]
 10755 02b2 80F0F880 		bcs	.L3038
 10756 02b6 C3F30722 		ubfx	r2, r3, #8, #8
 10757 02ba F374     		strb	r3, [r6, #19]
 10758 02bc 3275     		strb	r2, [r6, #20]
 10759              	.L3039:
 10760 02be 4FF0000A 		mov	r10, #0
 10761 02c2 B54B     		ldr	r3, .L3120+4
 10762 02c4 7475     		strb	r4, [r6, #21]
 10763 02c6 86F81C90 		strb	r9, [r6, #28]
 10764 02ca B361     		str	r3, [r6, #24]	@ unaligned
 10765 02cc 86F81DA0 		strb	r10, [r6, #29]
 10766 02d0 86F81EA0 		strb	r10, [r6, #30]
 10767 02d4 86F81FA0 		strb	r10, [r6, #31]
 10768 02d8 FFF7FEFF 		bl	get_fattime
 10769 02dc BBF1030F 		cmp	fp, #3
 10770 02e0 0490     		str	r0, [sp, #16]
 10771 02e2 75D0     		beq	.L3116
 10772 02e4 C0F30723 		ubfx	r3, r0, #8, #8
 10773 02e8 020C     		lsrs	r2, r0, #16
 10774 02ea 86F82700 		strb	r0, [r6, #39]
 10775 02ee 000E     		lsrs	r0, r0, #24
 10776 02f0 86F82830 		strb	r3, [r6, #40]
 10777 02f4 86F82920 		strb	r2, [r6, #41]
 10778 02f8 C7F30723 		ubfx	r3, r7, #8, #8
 10779 02fc 8021     		movs	r1, #128
 10780 02fe 86F82A00 		strb	r0, [r6, #42]
 10781 0302 2922     		movs	r2, #41
 10782 0304 A548     		ldr	r0, .L3120+8
 10783 0306 F375     		strb	r3, [r6, #23]
 10784 0308 B775     		strb	r7, [r6, #22]
 10785 030a 86F82410 		strb	r1, [r6, #36]
 10786 030e 86F82620 		strb	r2, [r6, #38]
 10787 0312 06F12B03 		add	r3, r6, #43
ARM GAS  /tmp/ccFKl8QX.s 			page 189


 10788              	.L3043:
 10789 0316 10F80A20 		ldrb	r2, [r0, r10]	@ zero_extendqisi2
 10790 031a 03F80A20 		strb	r2, [r3, r10]
 10791 031e 0AF1010A 		add	r10, r10, #1
 10792 0322 BAF1130F 		cmp	r10, #19
 10793 0326 F6D1     		bne	.L3043
 10794 0328 5522     		movs	r2, #85
 10795 032a AA23     		movs	r3, #170
 10796 032c 86F8FE21 		strb	r2, [r6, #510]
 10797 0330 86F8FF31 		strb	r3, [r6, #511]
 10798 0334 3146     		mov	r1, r6
 10799 0336 0123     		movs	r3, #1
 10800 0338 4A46     		mov	r2, r9
 10801 033a 0020     		movs	r0, #0
 10802 033c FFF7FEFF 		bl	disk_write
 10803 0340 0146     		mov	r1, r0
 10804 0342 0028     		cmp	r0, #0
 10805 0344 7FF4CCAE 		bne	.L3018
 10806 0348 4FF40072 		mov	r2, #512
 10807 034c 3046     		mov	r0, r6
 10808 034e FFF7FEFF 		bl	memset
 10809 0352 934B     		ldr	r3, .L3120+12
 10810 0354 BBF1010F 		cmp	fp, #1
 10811 0358 18BF     		it	ne
 10812 035a 6FF0FF03 		mvnne	r3, #255
 10813 035e 1C43     		orrs	r4, r4, r3
 10814 0360 0494     		str	r4, [sp, #16]
 10815 0362 3470     		strb	r4, [r6]
 10816 0364 BDF81030 		ldrh	r3, [sp, #16]
 10817 0368 1B0A     		lsrs	r3, r3, #8
 10818 036a 7370     		strb	r3, [r6, #1]
 10819 036c BDF81230 		ldrh	r3, [sp, #18]
 10820 0370 B370     		strb	r3, [r6, #2]
 10821 0372 9DF81330 		ldrb	r3, [sp, #19]	@ zero_extendqisi2
 10822 0376 F370     		strb	r3, [r6, #3]
 10823              	.L3045:
 10824 0378 4246     		mov	r2, r8
 10825 037a 3146     		mov	r1, r6
 10826 037c 0123     		movs	r3, #1
 10827 037e 0020     		movs	r0, #0
 10828 0380 FFF7FEFF 		bl	disk_write
 10829 0384 08F10108 		add	r8, r8, #1
 10830 0388 0146     		mov	r1, r0
 10831 038a 0028     		cmp	r0, #0
 10832 038c 7FF4A8AE 		bne	.L3018
 10833 0390 4FF40072 		mov	r2, #512
 10834 0394 3046     		mov	r0, r6
 10835 0396 FFF7FEFF 		bl	memset
 10836 039a 0123     		movs	r3, #1
 10837 039c 0493     		str	r3, [sp, #16]
 10838 039e 1C46     		mov	r4, r3
 10839              	.L3046:
 10840 03a0 0123     		movs	r3, #1
 10841 03a2 BC42     		cmp	r4, r7
 10842 03a4 4246     		mov	r2, r8
 10843 03a6 3146     		mov	r1, r6
 10844 03a8 4FF00000 		mov	r0, #0
ARM GAS  /tmp/ccFKl8QX.s 			page 190


 10845 03ac 08EB030A 		add	r10, r8, r3
 10846 03b0 80F08680 		bcs	.L3117
 10847 03b4 FFF7FEFF 		bl	disk_write
 10848 03b8 0028     		cmp	r0, #0
 10849 03ba 7FF491AE 		bne	.L3018
 10850 03be 049C     		ldr	r4, [sp, #16]
 10851 03c0 0134     		adds	r4, r4, #1
 10852 03c2 D046     		mov	r8, r10
 10853 03c4 0494     		str	r4, [sp, #16]
 10854 03c6 EBE7     		b	.L3046
 10855              	.L3075:
 10856 03c8 0823     		movs	r3, #8
 10857 03ca B2E6     		b	.L3023
 10858              	.L3079:
 10859 03cc F024     		movs	r4, #240
 10860 03ce 4CE7     		b	.L3035
 10861              	.L3116:
 10862 03d0 C0F30722 		ubfx	r2, r0, #8, #8
 10863 03d4 030C     		lsrs	r3, r0, #16
 10864 03d6 86F84420 		strb	r2, [r6, #68]
 10865 03da 3A0C     		lsrs	r2, r7, #16
 10866 03dc C7F30721 		ubfx	r1, r7, #8, #8
 10867 03e0 86F84300 		strb	r0, [r6, #67]
 10868 03e4 86F84530 		strb	r3, [r6, #69]
 10869 03e8 000E     		lsrs	r0, r0, #24
 10870 03ea 3B0E     		lsrs	r3, r7, #24
 10871 03ec 86F82620 		strb	r2, [r6, #38]
 10872 03f0 6C4A     		ldr	r2, .L3120+16
 10873 03f2 86F84600 		strb	r0, [r6, #70]
 10874 03f6 86F82510 		strb	r1, [r6, #37]
 10875 03fa 86F82730 		strb	r3, [r6, #39]
 10876 03fe 0221     		movs	r1, #2
 10877 0400 2923     		movs	r3, #41
 10878 0402 8020     		movs	r0, #128
 10879 0404 3263     		str	r2, [r6, #48]	@ unaligned
 10880 0406 684A     		ldr	r2, .L3120+20
 10881 0408 86F84230 		strb	r3, [r6, #66]
 10882 040c 86F82470 		strb	r7, [r6, #36]
 10883 0410 F162     		str	r1, [r6, #44]	@ unaligned
 10884 0412 86F84000 		strb	r0, [r6, #64]
 10885 0416 06F14703 		add	r3, r6, #71
 10886              	.L3041:
 10887 041a 12F80A10 		ldrb	r1, [r2, r10]	@ zero_extendqisi2
 10888 041e 03F80A10 		strb	r1, [r3, r10]
 10889 0422 0AF1010A 		add	r10, r10, #1
 10890 0426 BAF1130F 		cmp	r10, #19
 10891 042a F6D1     		bne	.L3041
 10892 042c 5522     		movs	r2, #85
 10893 042e AA23     		movs	r3, #170
 10894 0430 86F8FE21 		strb	r2, [r6, #510]
 10895 0434 86F8FF31 		strb	r3, [r6, #511]
 10896 0438 4A46     		mov	r2, r9
 10897 043a 0123     		movs	r3, #1
 10898 043c 3146     		mov	r1, r6
 10899 043e 0020     		movs	r0, #0
 10900 0440 FFF7FEFF 		bl	disk_write
 10901 0444 8246     		mov	r10, r0
ARM GAS  /tmp/ccFKl8QX.s 			page 191


 10902 0446 0028     		cmp	r0, #0
 10903 0448 7FF44AAE 		bne	.L3018
 10904 044c 0123     		movs	r3, #1
 10905 044e 09F10602 		add	r2, r9, #6
 10906 0452 3146     		mov	r1, r6
 10907 0454 FFF7FEFF 		bl	disk_write
 10908 0458 64F0FF04 		orn	r4, r4, #255
 10909 045c 4FF40072 		mov	r2, #512
 10910 0460 5146     		mov	r1, r10
 10911 0462 3046     		mov	r0, r6
 10912 0464 FFF7FEFF 		bl	memset
 10913 0468 0494     		str	r4, [sp, #16]
 10914 046a 3470     		strb	r4, [r6]
 10915 046c BDF81030 		ldrh	r3, [sp, #16]
 10916 0470 1B0A     		lsrs	r3, r3, #8
 10917 0472 7370     		strb	r3, [r6, #1]
 10918 0474 BDF81230 		ldrh	r3, [sp, #18]
 10919 0478 B370     		strb	r3, [r6, #2]
 10920 047a 9DF81330 		ldrb	r3, [sp, #19]	@ zero_extendqisi2
 10921 047e F370     		strb	r3, [r6, #3]
 10922 0480 4FF0FF32 		mov	r2, #-1
 10923 0484 6FF07043 		mvn	r3, #-268435456
 10924 0488 7260     		str	r2, [r6, #4]	@ unaligned
 10925 048a B360     		str	r3, [r6, #8]	@ unaligned
 10926 048c 74E7     		b	.L3045
 10927              	.L3115:
 10928 048e 0299     		ldr	r1, [sp, #8]
 10929 0490 40F6F573 		movw	r3, #4085
 10930 0494 9942     		cmp	r1, r3
 10931 0496 7FF621AE 		bls	.L3031
 10932 049a B2F5803F 		cmp	r2, #65536
 10933 049e 34BF     		ite	cc
 10934 04a0 0423     		movcc	r3, #4
 10935 04a2 0623     		movcs	r3, #6
 10936 04a4 94E6     		b	.L3032
 10937              	.L3038:
 10938 04a6 C3F30721 		ubfx	r1, r3, #8, #8
 10939 04aa 1A0C     		lsrs	r2, r3, #16
 10940 04ac 86F82030 		strb	r3, [r6, #32]
 10941 04b0 1B0E     		lsrs	r3, r3, #24
 10942 04b2 86F82110 		strb	r1, [r6, #33]
 10943 04b6 86F82220 		strb	r2, [r6, #34]
 10944 04ba 86F82330 		strb	r3, [r6, #35]
 10945 04be FEE6     		b	.L3039
 10946              	.L3117:
 10947 04c0 019B     		ldr	r3, [sp, #4]
 10948 04c2 BBF1030F 		cmp	fp, #3
 10949 04c6 18BF     		it	ne
 10950 04c8 1D46     		movne	r5, r3
 10951 04ca 4544     		add	r5, r5, r8
 10952              	.L3049:
 10953 04cc 0123     		movs	r3, #1
 10954 04ce 4246     		mov	r2, r8
 10955 04d0 3146     		mov	r1, r6
 10956 04d2 0020     		movs	r0, #0
 10957 04d4 9844     		add	r8, r8, r3
 10958 04d6 FFF7FEFF 		bl	disk_write
ARM GAS  /tmp/ccFKl8QX.s 			page 192


 10959 04da 0446     		mov	r4, r0
 10960 04dc 0028     		cmp	r0, #0
 10961 04de 7FF4FFAD 		bne	.L3018
 10962 04e2 A845     		cmp	r8, r5
 10963 04e4 F2D1     		bne	.L3049
 10964 04e6 BBF1030F 		cmp	fp, #3
 10965 04ea 28D1     		bne	.L3050
 10966 04ec 029B     		ldr	r3, [sp, #8]
 10967 04ee 013B     		subs	r3, r3, #1
 10968 04f0 C3F30725 		ubfx	r5, r3, #8, #8
 10969 04f4 190C     		lsrs	r1, r3, #16
 10970 04f6 1A0E     		lsrs	r2, r3, #24
 10971 04f8 86F8E831 		strb	r3, [r6, #488]
 10972 04fc 2B4B     		ldr	r3, .L3120+24
 10973 04fe 3360     		str	r3, [r6]	@ unaligned
 10974 0500 AA23     		movs	r3, #170
 10975 0502 86F8E951 		strb	r5, [r6, #489]
 10976 0506 86F8EA11 		strb	r1, [r6, #490]
 10977 050a 86F8EB21 		strb	r2, [r6, #491]
 10978 050e 0221     		movs	r1, #2
 10979 0510 5522     		movs	r2, #85
 10980 0512 86F8FF31 		strb	r3, [r6, #511]
 10981 0516 264D     		ldr	r5, .L3120+28
 10982 0518 C6F8EC11 		str	r1, [r6, #492]	@ unaligned
 10983 051c 0123     		movs	r3, #1
 10984 051e 86F8FE21 		strb	r2, [r6, #510]
 10985 0522 3146     		mov	r1, r6
 10986 0524 09EB0302 		add	r2, r9, r3
 10987 0528 C6F8E451 		str	r5, [r6, #484]	@ unaligned
 10988 052c FFF7FEFF 		bl	disk_write
 10989 0530 09F10702 		add	r2, r9, #7
 10990 0534 3146     		mov	r1, r6
 10991 0536 2046     		mov	r0, r4
 10992 0538 0123     		movs	r3, #1
 10993 053a FFF7FEFF 		bl	disk_write
 10994              	.L3050:
 10995 053e 0022     		movs	r2, #0
 10996 0540 1146     		mov	r1, r2
 10997 0542 1046     		mov	r0, r2
 10998 0544 FFF7FEFF 		bl	disk_ioctl
 10999 0548 0030     		adds	r0, r0, #0
 11000 054a 18BF     		it	ne
 11001 054c 0120     		movne	r0, #1
 11002 054e 7AE5     		b	.L3089
 11003              	.L3114:
 11004 0550 9A44     		add	r10, r10, r3
 11005 0552 A2EB0A02 		sub	r2, r2, r10
 11006 0556 9844     		add	r8, r8, r3
 11007 0558 019B     		ldr	r3, [sp, #4]
 11008 055a D21B     		subs	r2, r2, r7
 11009 055c 4FF6F571 		movw	r1, #65525
 11010 0560 D31A     		subs	r3, r2, r3
 11011 0562 B3FBF5F3 		udiv	r3, r3, r5
 11012 0566 8B42     		cmp	r3, r1
 11013 0568 0293     		str	r3, [sp, #8]
 11014 056a 7FF6B7AD 		bls	.L3031
 11015 056e 0C23     		movs	r3, #12
ARM GAS  /tmp/ccFKl8QX.s 			page 193


 11016 0570 2EE6     		b	.L3032
 11017              	.L3074:
 11018 0572 0723     		movs	r3, #7
 11019 0574 DDE5     		b	.L3023
 11020              	.L3073:
 11021 0576 0623     		movs	r3, #6
 11022 0578 DBE5     		b	.L3023
 11023              	.L3072:
 11024 057a 0523     		movs	r3, #5
 11025 057c D9E5     		b	.L3023
 11026              	.L3071:
 11027 057e 0423     		movs	r3, #4
 11028 0580 D7E5     		b	.L3023
 11029              	.L3070:
 11030 0582 0323     		movs	r3, #3
 11031 0584 D5E5     		b	.L3023
 11032              	.L3069:
 11033 0586 0223     		movs	r3, #2
 11034 0588 D3E5     		b	.L3023
 11035              	.L3068:
 11036 058a 0123     		movs	r3, #1
 11037 058c D1E5     		b	.L3023
 11038              	.L3022:
 11039 058e 4FF40045 		mov	r5, #32768
 11040 0592 81E5     		b	.L3053
 11041              	.L3121:
 11042              		.align	2
 11043              	.L3120:
 11044 0594 00000000 		.word	.LC1
 11045 0598 3F00FF00 		.word	16711743
 11046 059c 20000000 		.word	.LC3
 11047 05a0 00FFFF00 		.word	16776960
 11048 05a4 01000600 		.word	393217
 11049 05a8 0C000000 		.word	.LC2
 11050 05ac 52526141 		.word	1096897106
 11051 05b0 72724161 		.word	1631679090
 11053              		.section	.text.f_gets,"ax",%progbits
 11054              		.align	1
 11055              		.p2align 2,,3
 11056              		.global	f_gets
 11057              		.syntax unified
 11058              		.thumb
 11059              		.thumb_func
 11060              		.fpu fpv4-sp-d16
 11062              	f_gets:
 11063              		@ args = 0, pretend = 0, frame = 8
 11064              		@ frame_needed = 0, uses_anonymous_args = 0
 11065 0000 2DE9F043 		push	{r4, r5, r6, r7, r8, r9, lr}
 11066 0004 0025     		movs	r5, #0
 11067 0006 83B0     		sub	sp, sp, #12
 11068 0008 8146     		mov	r9, r0
 11069 000a 1446     		mov	r4, r2
 11070 000c 4F1E     		subs	r7, r1, #1
 11071 000e 0646     		mov	r6, r0
 11072 0010 A846     		mov	r8, r5
 11073              	.L3123:
 11074 0012 AF42     		cmp	r7, r5
ARM GAS  /tmp/ccFKl8QX.s 			page 194


 11075 0014 08DD     		ble	.L3124
 11076 0016 3CB1     		cbz	r4, .L3124
 11077              	.L3141:
 11078 0018 D4F80032 		ldr	r3, [r4, #512]
 11079 001c CDF80480 		str	r8, [sp, #4]
 11080 0020 13B1     		cbz	r3, .L3124
 11081 0022 93F80022 		ldrb	r2, [r3, #512]	@ zero_extendqisi2
 11082 0026 4AB9     		cbnz	r2, .L3150
 11083              	.L3124:
 11084 0028 002D     		cmp	r5, #0
 11085 002a 4FF00003 		mov	r3, #0
 11086 002e 14BF     		ite	ne
 11087 0030 4846     		movne	r0, r9
 11088 0032 1846     		moveq	r0, r3
 11089 0034 3370     		strb	r3, [r6]
 11090 0036 03B0     		add	sp, sp, #12
 11091              		@ sp needed
 11092 0038 BDE8F083 		pop	{r4, r5, r6, r7, r8, r9, pc}
 11093              	.L3150:
 11094 003c B3F80612 		ldrh	r1, [r3, #518]
 11095 0040 B4F80422 		ldrh	r2, [r4, #516]
 11096 0044 9142     		cmp	r1, r2
 11097 0046 EFD1     		bne	.L3124
 11098 0048 93F80102 		ldrb	r0, [r3, #513]	@ zero_extendqisi2
 11099 004c FFF7FEFF 		bl	disk_status
 11100 0050 C207     		lsls	r2, r0, #31
 11101 0052 0DD5     		bpl	.L3151
 11102              	.L3125:
 11103 0054 019B     		ldr	r3, [sp, #4]
 11104 0056 012B     		cmp	r3, #1
 11105 0058 E6D1     		bne	.L3124
 11106 005a 9DF80030 		ldrb	r3, [sp]	@ zero_extendqisi2
 11107 005e 0D2B     		cmp	r3, #13
 11108 0060 DAD0     		beq	.L3141
 11109 0062 0A2B     		cmp	r3, #10
 11110 0064 06F8013B 		strb	r3, [r6], #1
 11111 0068 05F10105 		add	r5, r5, #1
 11112 006c D1D1     		bne	.L3123
 11113 006e DBE7     		b	.L3124
 11114              	.L3151:
 11115 0070 94F80732 		ldrb	r3, [r4, #519]	@ zero_extendqisi2
 11116 0074 002B     		cmp	r3, #0
 11117 0076 EDD1     		bne	.L3125
 11118 0078 94F80632 		ldrb	r3, [r4, #518]	@ zero_extendqisi2
 11119 007c DB07     		lsls	r3, r3, #31
 11120 007e E9D5     		bpl	.L3125
 11121 0080 01AB     		add	r3, sp, #4
 11122 0082 0122     		movs	r2, #1
 11123 0084 6946     		mov	r1, sp
 11124 0086 2046     		mov	r0, r4
 11125 0088 FFF7FEFF 		bl	f_read.part.11
 11126 008c E2E7     		b	.L3125
 11128 008e 00BF     		.section	.text.f_putc,"ax",%progbits
 11129              		.align	1
 11130              		.p2align 2,,3
 11131              		.global	f_putc
 11132              		.syntax unified
ARM GAS  /tmp/ccFKl8QX.s 			page 195


 11133              		.thumb
 11134              		.thumb_func
 11135              		.fpu fpv4-sp-d16
 11137              	f_putc:
 11138              		@ args = 0, pretend = 0, frame = 80
 11139              		@ frame_needed = 0, uses_anonymous_args = 0
 11140 0000 70B5     		push	{r4, r5, r6, lr}
 11141 0002 94B0     		sub	sp, sp, #80
 11142 0004 0024     		movs	r4, #0
 11143 0006 0A28     		cmp	r0, #10
 11144 0008 0646     		mov	r6, r0
 11145 000a 0191     		str	r1, [sp, #4]
 11146 000c 0294     		str	r4, [sp, #8]
 11147 000e 0394     		str	r4, [sp, #12]
 11148 0010 37D0     		beq	.L3190
 11149 0012 8DF81000 		strb	r0, [sp, #16]
 11150 0016 0125     		movs	r5, #1
 11151              	.L3155:
 11152 0018 039B     		ldr	r3, [sp, #12]
 11153 001a 0295     		str	r5, [sp, #8]
 11154 001c 0133     		adds	r3, r3, #1
 11155 001e 0393     		str	r3, [sp, #12]
 11156              	.L3159:
 11157 0020 019C     		ldr	r4, [sp, #4]
 11158 0022 0023     		movs	r3, #0
 11159 0024 0093     		str	r3, [sp]
 11160 0026 2CB1     		cbz	r4, .L3154
 11161 0028 D4F80032 		ldr	r3, [r4, #512]
 11162 002c 13B1     		cbz	r3, .L3154
 11163 002e 93F80022 		ldrb	r2, [r3, #512]	@ zero_extendqisi2
 11164 0032 1AB9     		cbnz	r2, .L3191
 11165              	.L3154:
 11166 0034 4FF0FF30 		mov	r0, #-1
 11167 0038 14B0     		add	sp, sp, #80
 11168              		@ sp needed
 11169 003a 70BD     		pop	{r4, r5, r6, pc}
 11170              	.L3191:
 11171 003c B3F80612 		ldrh	r1, [r3, #518]
 11172 0040 B4F80422 		ldrh	r2, [r4, #516]
 11173 0044 9142     		cmp	r1, r2
 11174 0046 F5D1     		bne	.L3154
 11175 0048 93F80102 		ldrb	r0, [r3, #513]	@ zero_extendqisi2
 11176 004c FFF7FEFF 		bl	disk_status
 11177 0050 C207     		lsls	r2, r0, #31
 11178 0052 EFD4     		bmi	.L3154
 11179 0054 94F80732 		ldrb	r3, [r4, #519]	@ zero_extendqisi2
 11180 0058 002B     		cmp	r3, #0
 11181 005a EBD1     		bne	.L3154
 11182 005c 94F80632 		ldrb	r3, [r4, #518]	@ zero_extendqisi2
 11183 0060 9B07     		lsls	r3, r3, #30
 11184 0062 E7D5     		bpl	.L3154
 11185 0064 2A46     		mov	r2, r5
 11186 0066 2046     		mov	r0, r4
 11187 0068 6B46     		mov	r3, sp
 11188 006a 04A9     		add	r1, sp, #16
 11189 006c FFF7FEFF 		bl	f_write.part.12
 11190 0070 0028     		cmp	r0, #0
ARM GAS  /tmp/ccFKl8QX.s 			page 196


 11191 0072 DFD1     		bne	.L3154
 11192 0074 029A     		ldr	r2, [sp, #8]
 11193 0076 009B     		ldr	r3, [sp]
 11194 0078 9A42     		cmp	r2, r3
 11195 007a DBD1     		bne	.L3154
 11196 007c 0398     		ldr	r0, [sp, #12]
 11197 007e 14B0     		add	sp, sp, #80
 11198              		@ sp needed
 11199 0080 70BD     		pop	{r4, r5, r6, pc}
 11200              	.L3190:
 11201 0082 0D21     		movs	r1, #13
 11202 0084 01A8     		add	r0, sp, #4
 11203 0086 FFF7FEFF 		bl	putc_bfd
 11204 008a 029D     		ldr	r5, [sp, #8]
 11205 008c A542     		cmp	r5, r4
 11206 008e D1DB     		blt	.L3154
 11207 0090 14AB     		add	r3, sp, #80
 11208 0092 2B44     		add	r3, r3, r5
 11209 0094 0135     		adds	r5, r5, #1
 11210 0096 3C2D     		cmp	r5, #60
 11211 0098 03F8406C 		strb	r6, [r3, #-64]
 11212 009c BCDD     		ble	.L3155
 11213 009e 019E     		ldr	r6, [sp, #4]
 11214 00a0 0094     		str	r4, [sp]
 11215 00a2 36B1     		cbz	r6, .L3156
 11216 00a4 D6F80022 		ldr	r2, [r6, #512]
 11217 00a8 7AB1     		cbz	r2, .L3166
 11218 00aa 92F80032 		ldrb	r3, [r2, #512]	@ zero_extendqisi2
 11219 00ae 73B9     		cbnz	r3, .L3192
 11220 00b0 1E46     		mov	r6, r3
 11221              	.L3156:
 11222 00b2 039B     		ldr	r3, [sp, #12]
 11223 00b4 AE42     		cmp	r6, r5
 11224 00b6 14BF     		ite	ne
 11225 00b8 4FF0FF35 		movne	r5, #-1
 11226 00bc 0025     		moveq	r5, #0
 11227 00be 03F10103 		add	r3, r3, #1
 11228 00c2 0295     		str	r5, [sp, #8]
 11229 00c4 0393     		str	r3, [sp, #12]
 11230 00c6 ABD0     		beq	.L3159
 11231 00c8 B4E7     		b	.L3154
 11232              	.L3166:
 11233 00ca 1646     		mov	r6, r2
 11234 00cc F1E7     		b	.L3156
 11235              	.L3192:
 11236 00ce B6F80432 		ldrh	r3, [r6, #516]
 11237 00d2 B2F80612 		ldrh	r1, [r2, #518]
 11238 00d6 9942     		cmp	r1, r3
 11239 00d8 18BF     		it	ne
 11240 00da 2646     		movne	r6, r4
 11241 00dc E9D1     		bne	.L3156
 11242 00de 92F80102 		ldrb	r0, [r2, #513]	@ zero_extendqisi2
 11243 00e2 FFF7FEFF 		bl	disk_status
 11244 00e6 C007     		lsls	r0, r0, #31
 11245 00e8 01D5     		bpl	.L3193
 11246              	.L3188:
 11247 00ea 009E     		ldr	r6, [sp]
ARM GAS  /tmp/ccFKl8QX.s 			page 197


 11248 00ec E1E7     		b	.L3156
 11249              	.L3193:
 11250 00ee 96F80732 		ldrb	r3, [r6, #519]	@ zero_extendqisi2
 11251 00f2 002B     		cmp	r3, #0
 11252 00f4 F9D1     		bne	.L3188
 11253 00f6 96F80632 		ldrb	r3, [r6, #518]	@ zero_extendqisi2
 11254 00fa 9907     		lsls	r1, r3, #30
 11255 00fc F5D5     		bpl	.L3188
 11256 00fe 3046     		mov	r0, r6
 11257 0100 6B46     		mov	r3, sp
 11258 0102 2A46     		mov	r2, r5
 11259 0104 04A9     		add	r1, sp, #16
 11260 0106 FFF7FEFF 		bl	f_write.part.12
 11261 010a EEE7     		b	.L3188
 11263              		.section	.text.f_puts,"ax",%progbits
 11264              		.align	1
 11265              		.p2align 2,,3
 11266              		.global	f_puts
 11267              		.syntax unified
 11268              		.thumb
 11269              		.thumb_func
 11270              		.fpu fpv4-sp-d16
 11272              	f_puts:
 11273              		@ args = 0, pretend = 0, frame = 88
 11274              		@ frame_needed = 0, uses_anonymous_args = 0
 11275 0000 F0B5     		push	{r4, r5, r6, r7, lr}
 11276 0002 97B0     		sub	sp, sp, #92
 11277 0004 0023     		movs	r3, #0
 11278 0006 1A46     		mov	r2, r3
 11279 0008 0391     		str	r1, [sp, #12]
 11280 000a 451E     		subs	r5, r0, #1
 11281 000c 0493     		str	r3, [sp, #16]
 11282 000e 0593     		str	r3, [sp, #20]
 11283 0010 1F46     		mov	r7, r3
 11284              	.L3195:
 11285 0012 15F8016F 		ldrb	r6, [r5, #1]!	@ zero_extendqisi2
 11286 0016 9EB1     		cbz	r6, .L3250
 11287              	.L3208:
 11288 0018 0A2E     		cmp	r6, #10
 11289 001a 37D0     		beq	.L3251
 11290              	.L3196:
 11291 001c 002A     		cmp	r2, #0
 11292 001e F8DB     		blt	.L3195
 11293 0020 16AB     		add	r3, sp, #88
 11294 0022 1344     		add	r3, r3, r2
 11295 0024 541C     		adds	r4, r2, #1
 11296 0026 3C2C     		cmp	r4, #60
 11297 0028 03F8406C 		strb	r6, [r3, #-64]
 11298 002c 18DC     		bgt	.L3252
 11299              	.L3203:
 11300 002e 059B     		ldr	r3, [sp, #20]
 11301 0030 15F8016F 		ldrb	r6, [r5, #1]!	@ zero_extendqisi2
 11302 0034 0494     		str	r4, [sp, #16]
 11303 0036 0133     		adds	r3, r3, #1
 11304 0038 2246     		mov	r2, r4
 11305 003a 0593     		str	r3, [sp, #20]
 11306 003c 002E     		cmp	r6, #0
ARM GAS  /tmp/ccFKl8QX.s 			page 198


 11307 003e EBD1     		bne	.L3208
 11308              	.L3250:
 11309 0040 002A     		cmp	r2, #0
 11310 0042 09DB     		blt	.L3211
 11311 0044 039C     		ldr	r4, [sp, #12]
 11312 0046 0296     		str	r6, [sp, #8]
 11313 0048 34B1     		cbz	r4, .L3211
 11314 004a D4F80032 		ldr	r3, [r4, #512]
 11315 004e 1BB1     		cbz	r3, .L3211
 11316 0050 93F80012 		ldrb	r1, [r3, #512]	@ zero_extendqisi2
 11317 0054 0029     		cmp	r1, #0
 11318 0056 44D1     		bne	.L3253
 11319              	.L3211:
 11320 0058 4FF0FF30 		mov	r0, #-1
 11321 005c 17B0     		add	sp, sp, #92
 11322              		@ sp needed
 11323 005e F0BD     		pop	{r4, r5, r6, r7, pc}
 11324              	.L3252:
 11325 0060 039E     		ldr	r6, [sp, #12]
 11326 0062 0297     		str	r7, [sp, #8]
 11327 0064 86B1     		cbz	r6, .L3223
 11328 0066 D6F80022 		ldr	r2, [r6, #512]
 11329 006a 6AB1     		cbz	r2, .L3223
 11330 006c 92F80032 		ldrb	r3, [r2, #512]	@ zero_extendqisi2
 11331 0070 23B9     		cbnz	r3, .L3254
 11332              	.L3204:
 11333 0072 E41A     		subs	r4, r4, r3
 11334 0074 18BF     		it	ne
 11335 0076 4FF0FF34 		movne	r4, #-1
 11336 007a D8E7     		b	.L3203
 11337              	.L3254:
 11338 007c B2F80612 		ldrh	r1, [r2, #518]
 11339 0080 B6F80432 		ldrh	r3, [r6, #516]
 11340 0084 9942     		cmp	r1, r3
 11341 0086 51D0     		beq	.L3255
 11342              	.L3223:
 11343 0088 0023     		movs	r3, #0
 11344 008a F2E7     		b	.L3204
 11345              	.L3251:
 11346 008c 002A     		cmp	r2, #0
 11347 008e C0DB     		blt	.L3195
 11348 0090 16AB     		add	r3, sp, #88
 11349 0092 1344     		add	r3, r3, r2
 11350 0094 541C     		adds	r4, r2, #1
 11351 0096 3C2C     		cmp	r4, #60
 11352 0098 4FF00D02 		mov	r2, #13
 11353 009c 03F8402C 		strb	r2, [r3, #-64]
 11354 00a0 05DC     		bgt	.L3256
 11355              	.L3198:
 11356 00a2 059B     		ldr	r3, [sp, #20]
 11357 00a4 0494     		str	r4, [sp, #16]
 11358 00a6 0133     		adds	r3, r3, #1
 11359 00a8 2246     		mov	r2, r4
 11360 00aa 0593     		str	r3, [sp, #20]
 11361 00ac B6E7     		b	.L3196
 11362              	.L3256:
 11363 00ae 039B     		ldr	r3, [sp, #12]
ARM GAS  /tmp/ccFKl8QX.s 			page 199


 11364 00b0 0297     		str	r7, [sp, #8]
 11365 00b2 83B1     		cbz	r3, .L3219
 11366 00b4 D3F80012 		ldr	r1, [r3, #512]
 11367 00b8 69B1     		cbz	r1, .L3219
 11368 00ba 91F80022 		ldrb	r2, [r1, #512]	@ zero_extendqisi2
 11369 00be 22B9     		cbnz	r2, .L3257
 11370 00c0 A41A     		subs	r4, r4, r2
 11371 00c2 18BF     		it	ne
 11372 00c4 4FF0FF34 		movne	r4, #-1
 11373 00c8 EBE7     		b	.L3198
 11374              	.L3257:
 11375 00ca B1F80602 		ldrh	r0, [r1, #518]
 11376 00ce B3F80422 		ldrh	r2, [r3, #516]
 11377 00d2 9042     		cmp	r0, r2
 11378 00d4 32D0     		beq	.L3258
 11379              	.L3219:
 11380 00d6 0022     		movs	r2, #0
 11381 00d8 A41A     		subs	r4, r4, r2
 11382 00da 18BF     		it	ne
 11383 00dc 4FF0FF34 		movne	r4, #-1
 11384 00e0 DFE7     		b	.L3198
 11385              	.L3253:
 11386 00e2 B3F80602 		ldrh	r0, [r3, #518]
 11387 00e6 B4F80412 		ldrh	r1, [r4, #516]
 11388 00ea 8842     		cmp	r0, r1
 11389 00ec B4D1     		bne	.L3211
 11390 00ee 93F80102 		ldrb	r0, [r3, #513]	@ zero_extendqisi2
 11391 00f2 0192     		str	r2, [sp, #4]
 11392 00f4 FFF7FEFF 		bl	disk_status
 11393 00f8 10F0010F 		tst	r0, #1
 11394 00fc 019A     		ldr	r2, [sp, #4]
 11395 00fe ABD1     		bne	.L3211
 11396 0100 94F80732 		ldrb	r3, [r4, #519]	@ zero_extendqisi2
 11397 0104 002B     		cmp	r3, #0
 11398 0106 A7D1     		bne	.L3211
 11399 0108 94F80632 		ldrb	r3, [r4, #518]	@ zero_extendqisi2
 11400 010c 9B07     		lsls	r3, r3, #30
 11401 010e A3D5     		bpl	.L3211
 11402 0110 2046     		mov	r0, r4
 11403 0112 02AB     		add	r3, sp, #8
 11404 0114 06A9     		add	r1, sp, #24
 11405 0116 FFF7FEFF 		bl	f_write.part.12
 11406 011a 0028     		cmp	r0, #0
 11407 011c 9CD1     		bne	.L3211
 11408 011e 049A     		ldr	r2, [sp, #16]
 11409 0120 029B     		ldr	r3, [sp, #8]
 11410 0122 9A42     		cmp	r2, r3
 11411 0124 98D1     		bne	.L3211
 11412 0126 0598     		ldr	r0, [sp, #20]
 11413 0128 17B0     		add	sp, sp, #92
 11414              		@ sp needed
 11415 012a F0BD     		pop	{r4, r5, r6, r7, pc}
 11416              	.L3255:
 11417 012c 92F80102 		ldrb	r0, [r2, #513]	@ zero_extendqisi2
 11418 0130 FFF7FEFF 		bl	disk_status
 11419 0134 C107     		lsls	r1, r0, #31
 11420 0136 10D5     		bpl	.L3259
ARM GAS  /tmp/ccFKl8QX.s 			page 200


 11421              	.L3248:
 11422 0138 029B     		ldr	r3, [sp, #8]
 11423 013a 9AE7     		b	.L3204
 11424              	.L3258:
 11425 013c 91F80102 		ldrb	r0, [r1, #513]	@ zero_extendqisi2
 11426 0140 0193     		str	r3, [sp, #4]
 11427 0142 FFF7FEFF 		bl	disk_status
 11428 0146 10F0010F 		tst	r0, #1
 11429 014a 019B     		ldr	r3, [sp, #4]
 11430 014c 14D0     		beq	.L3260
 11431              	.L3247:
 11432 014e 029A     		ldr	r2, [sp, #8]
 11433 0150 A41A     		subs	r4, r4, r2
 11434 0152 18BF     		it	ne
 11435 0154 4FF0FF34 		movne	r4, #-1
 11436 0158 A3E7     		b	.L3198
 11437              	.L3259:
 11438 015a 96F80732 		ldrb	r3, [r6, #519]	@ zero_extendqisi2
 11439 015e 002B     		cmp	r3, #0
 11440 0160 EAD1     		bne	.L3248
 11441 0162 96F80632 		ldrb	r3, [r6, #518]	@ zero_extendqisi2
 11442 0166 9A07     		lsls	r2, r3, #30
 11443 0168 E6D5     		bpl	.L3248
 11444 016a 3046     		mov	r0, r6
 11445 016c 02AB     		add	r3, sp, #8
 11446 016e 2246     		mov	r2, r4
 11447 0170 06A9     		add	r1, sp, #24
 11448 0172 FFF7FEFF 		bl	f_write.part.12
 11449 0176 DFE7     		b	.L3248
 11450              	.L3260:
 11451 0178 93F80722 		ldrb	r2, [r3, #519]	@ zero_extendqisi2
 11452 017c 002A     		cmp	r2, #0
 11453 017e E6D1     		bne	.L3247
 11454 0180 93F80622 		ldrb	r2, [r3, #518]	@ zero_extendqisi2
 11455 0184 9007     		lsls	r0, r2, #30
 11456 0186 E2D5     		bpl	.L3247
 11457 0188 1846     		mov	r0, r3
 11458 018a 2246     		mov	r2, r4
 11459 018c 02AB     		add	r3, sp, #8
 11460 018e 06A9     		add	r1, sp, #24
 11461 0190 FFF7FEFF 		bl	f_write.part.12
 11462 0194 DBE7     		b	.L3247
 11464              		.section	.text.f_printf,"ax",%progbits
 11465              		.align	1
 11466              		.p2align 2,,3
 11467              		.global	f_printf
 11468              		.syntax unified
 11469              		.thumb
 11470              		.thumb_func
 11471              		.fpu fpv4-sp-d16
 11473              	f_printf:
 11474              		@ args = 4, pretend = 12, frame = 112
 11475              		@ frame_needed = 0, uses_anonymous_args = 1
 11476 0000 0EB4     		push	{r1, r2, r3}
 11477 0002 2DE9F04F 		push	{r4, r5, r6, r7, r8, r9, r10, fp, lr}
 11478 0006 9CB0     		sub	sp, sp, #112
 11479 0008 25AA     		add	r2, sp, #148
ARM GAS  /tmp/ccFKl8QX.s 			page 201


 11480 000a 0023     		movs	r3, #0
 11481 000c 52F8048B 		ldr	r8, [r2], #4
 11482 0010 0990     		str	r0, [sp, #36]
 11483 0012 0392     		str	r2, [sp, #12]
 11484 0014 0A93     		str	r3, [sp, #40]
 11485 0016 0B93     		str	r3, [sp, #44]
 11486 0018 0093     		str	r3, [sp]
 11487              	.L3262:
 11488 001a 98F80040 		ldrb	r4, [r8]	@ zero_extendqisi2
 11489 001e 08F10106 		add	r6, r8, #1
 11490 0022 DCB1     		cbz	r4, .L3263
 11491              	.L3515:
 11492 0024 252C     		cmp	r4, #37
 11493 0026 2FD0     		beq	.L3264
 11494 0028 0A2C     		cmp	r4, #10
 11495 002a 00F03083 		beq	.L3513
 11496              	.L3265:
 11497 002e 0A9D     		ldr	r5, [sp, #40]
 11498 0030 002D     		cmp	r5, #0
 11499 0032 C0F2F182 		blt	.L3266
 11500 0036 1CAB     		add	r3, sp, #112
 11501 0038 5A19     		adds	r2, r3, r5
 11502 003a 0135     		adds	r5, r5, #1
 11503 003c 3C2D     		cmp	r5, #60
 11504 003e 02F8404C 		strb	r4, [r2, #-64]
 11505 0042 00F3D882 		bgt	.L3514
 11506              	.L3267:
 11507 0046 B046     		mov	r8, r6
 11508 0048 0B9B     		ldr	r3, [sp, #44]
 11509 004a 98F80040 		ldrb	r4, [r8]	@ zero_extendqisi2
 11510 004e 0A95     		str	r5, [sp, #40]
 11511 0050 0133     		adds	r3, r3, #1
 11512 0052 0B93     		str	r3, [sp, #44]
 11513 0054 08F10106 		add	r6, r8, #1
 11514 0058 002C     		cmp	r4, #0
 11515 005a E3D1     		bne	.L3515
 11516              	.L3263:
 11517 005c 0A9D     		ldr	r5, [sp, #40]
 11518 005e 002D     		cmp	r5, #0
 11519 0060 0BDB     		blt	.L3372
 11520 0062 099C     		ldr	r4, [sp, #36]
 11521 0064 0023     		movs	r3, #0
 11522 0066 0493     		str	r3, [sp, #16]
 11523 0068 3CB1     		cbz	r4, .L3372
 11524 006a D4F80032 		ldr	r3, [r4, #512]
 11525 006e 23B1     		cbz	r3, .L3372
 11526 0070 93F80022 		ldrb	r2, [r3, #512]	@ zero_extendqisi2
 11527 0074 002A     		cmp	r2, #0
 11528 0076 40F05783 		bne	.L3516
 11529              	.L3372:
 11530 007a 4FF0FF30 		mov	r0, #-1
 11531 007e 1CB0     		add	sp, sp, #112
 11532              		@ sp needed
 11533 0080 BDE8F04F 		pop	{r4, r5, r6, r7, r8, r9, r10, fp, lr}
 11534 0084 03B0     		add	sp, sp, #12
 11535 0086 7047     		bx	lr
 11536              	.L3264:
ARM GAS  /tmp/ccFKl8QX.s 			page 202


 11537 0088 98F80110 		ldrb	r1, [r8, #1]	@ zero_extendqisi2
 11538 008c 3029     		cmp	r1, #48
 11539 008e 00F0C582 		beq	.L3517
 11540 0092 2D29     		cmp	r1, #45
 11541 0094 00F0E582 		beq	.L3274
 11542 0098 0025     		movs	r5, #0
 11543 009a 08F10208 		add	r8, r8, #2
 11544 009e 2846     		mov	r0, r5
 11545 00a0 0422     		movs	r2, #4
 11546              	.L3273:
 11547 00a2 A1F13003 		sub	r3, r1, #48
 11548 00a6 092B     		cmp	r3, #9
 11549 00a8 4FF00004 		mov	r4, #0
 11550 00ac 0BD8     		bhi	.L3275
 11551              	.L3276:
 11552 00ae 04EB8404 		add	r4, r4, r4, lsl #2
 11553 00b2 01EB4404 		add	r4, r1, r4, lsl #1
 11554 00b6 18F8011B 		ldrb	r1, [r8], #1	@ zero_extendqisi2
 11555 00ba A1F13003 		sub	r3, r1, #48
 11556 00be 092B     		cmp	r3, #9
 11557 00c0 A4F13004 		sub	r4, r4, #48
 11558 00c4 F3D9     		bls	.L3276
 11559              	.L3275:
 11560 00c6 01F0DF03 		and	r3, r1, #223
 11561 00ca 4C2B     		cmp	r3, #76
 11562 00cc 00F06982 		beq	.L3518
 11563 00d0 0026     		movs	r6, #0
 11564              	.L3277:
 11565 00d2 0029     		cmp	r1, #0
 11566 00d4 C2D0     		beq	.L3263
 11567 00d6 A1F16103 		sub	r3, r1, #97
 11568 00da 192B     		cmp	r3, #25
 11569 00dc 9ABF     		itte	ls
 11570 00de A1F12002 		subls	r2, r1, #32
 11571 00e2 D2B2     		uxtbls	r2, r2
 11572 00e4 0A46     		movhi	r2, r1
 11573 00e6 A2F14203 		sub	r3, r2, #66
 11574 00ea 162B     		cmp	r3, #22
 11575 00ec 00F2F781 		bhi	.L3279
 11576 00f0 DFE813F0 		tbh	[pc, r3, lsl #1]
 11577              	.L3281:
 11578 00f4 9801     		.2byte	(.L3280-.L3281)/2
 11579 00f6 9001     		.2byte	(.L3282-.L3281)/2
 11580 00f8 7A01     		.2byte	(.L3283-.L3281)/2
 11581 00fa F501     		.2byte	(.L3279-.L3281)/2
 11582 00fc F501     		.2byte	(.L3279-.L3281)/2
 11583 00fe F501     		.2byte	(.L3279-.L3281)/2
 11584 0100 F501     		.2byte	(.L3279-.L3281)/2
 11585 0102 F501     		.2byte	(.L3279-.L3281)/2
 11586 0104 F501     		.2byte	(.L3279-.L3281)/2
 11587 0106 F501     		.2byte	(.L3279-.L3281)/2
 11588 0108 F501     		.2byte	(.L3279-.L3281)/2
 11589 010a F501     		.2byte	(.L3279-.L3281)/2
 11590 010c F501     		.2byte	(.L3279-.L3281)/2
 11591 010e 1700     		.2byte	(.L3391-.L3281)/2
 11592 0110 F501     		.2byte	(.L3279-.L3281)/2
 11593 0112 F501     		.2byte	(.L3279-.L3281)/2
ARM GAS  /tmp/ccFKl8QX.s 			page 203


 11594 0114 F501     		.2byte	(.L3279-.L3281)/2
 11595 0116 A001     		.2byte	(.L3285-.L3281)/2
 11596 0118 F501     		.2byte	(.L3279-.L3281)/2
 11597 011a 7A01     		.2byte	(.L3283-.L3281)/2
 11598 011c F501     		.2byte	(.L3279-.L3281)/2
 11599 011e F501     		.2byte	(.L3279-.L3281)/2
 11600 0120 9E01     		.2byte	(.L3286-.L3281)/2
 11601              		.p2align 1
 11602              	.L3391:
 11603 0122 0823     		movs	r3, #8
 11604 0124 002E     		cmp	r6, #0
 11605 0126 40F06381 		bne	.L3519
 11606              	.L3315:
 11607 012a 442A     		cmp	r2, #68
 11608 012c 40F07B81 		bne	.L3383
 11609 0130 039A     		ldr	r2, [sp, #12]
 11610 0132 161D     		adds	r6, r2, #4
 11611 0134 0396     		str	r6, [sp, #12]
 11612 0136 1668     		ldr	r6, [r2]
 11613 0138 002E     		cmp	r6, #0
 11614 013a C0F26481 		blt	.L3520
 11615              	.L3317:
 11616 013e B6FBF3F2 		udiv	r2, r6, r3
 11617 0142 7829     		cmp	r1, #120
 11618 0144 03FB1261 		mls	r1, r3, r2, r6
 11619 0148 CFB2     		uxtb	r7, r1
 11620 014a 0CBF     		ite	eq
 11621 014c 2726     		moveq	r6, #39
 11622 014e 0726     		movne	r6, #7
 11623 0150 0929     		cmp	r1, #9
 11624 0152 84BF     		itt	hi
 11625 0154 BF19     		addhi	r7, r7, r6
 11626 0156 FFB2     		uxtbhi	r7, r7
 11627 0158 3037     		adds	r7, r7, #48
 11628 015a 8DF81470 		strb	r7, [sp, #20]
 11629 015e 002A     		cmp	r2, #0
 11630 0160 00F03F83 		beq	.L3405
 11631 0164 B2FBF3F1 		udiv	r1, r2, r3
 11632 0168 03FB1122 		mls	r2, r3, r1, r2
 11633 016c D7B2     		uxtb	r7, r2
 11634 016e 092A     		cmp	r2, #9
 11635 0170 84BF     		itt	hi
 11636 0172 BF19     		addhi	r7, r7, r6
 11637 0174 FFB2     		uxtbhi	r7, r7
 11638 0176 3037     		adds	r7, r7, #48
 11639 0178 8DF81570 		strb	r7, [sp, #21]
 11640 017c 0029     		cmp	r1, #0
 11641 017e 00F03383 		beq	.L3406
 11642 0182 B1FBF3F2 		udiv	r2, r1, r3
 11643 0186 03FB1211 		mls	r1, r3, r2, r1
 11644 018a CFB2     		uxtb	r7, r1
 11645 018c 0929     		cmp	r1, #9
 11646 018e 84BF     		itt	hi
 11647 0190 BF19     		addhi	r7, r7, r6
 11648 0192 FFB2     		uxtbhi	r7, r7
 11649 0194 3037     		adds	r7, r7, #48
 11650 0196 8DF81670 		strb	r7, [sp, #22]
ARM GAS  /tmp/ccFKl8QX.s 			page 204


 11651 019a 002A     		cmp	r2, #0
 11652 019c 00F02883 		beq	.L3407
 11653 01a0 B2FBF3F1 		udiv	r1, r2, r3
 11654 01a4 03FB1122 		mls	r2, r3, r1, r2
 11655 01a8 D7B2     		uxtb	r7, r2
 11656 01aa 092A     		cmp	r2, #9
 11657 01ac 84BF     		itt	hi
 11658 01ae BF19     		addhi	r7, r7, r6
 11659 01b0 FFB2     		uxtbhi	r7, r7
 11660 01b2 3037     		adds	r7, r7, #48
 11661 01b4 8DF81770 		strb	r7, [sp, #23]
 11662 01b8 0029     		cmp	r1, #0
 11663 01ba 00F01D83 		beq	.L3408
 11664 01be B1FBF3F2 		udiv	r2, r1, r3
 11665 01c2 03FB1211 		mls	r1, r3, r2, r1
 11666 01c6 CFB2     		uxtb	r7, r1
 11667 01c8 0929     		cmp	r1, #9
 11668 01ca 84BF     		itt	hi
 11669 01cc BF19     		addhi	r7, r7, r6
 11670 01ce FFB2     		uxtbhi	r7, r7
 11671 01d0 3037     		adds	r7, r7, #48
 11672 01d2 8DF81870 		strb	r7, [sp, #24]
 11673 01d6 002A     		cmp	r2, #0
 11674 01d8 00F01283 		beq	.L3409
 11675 01dc B2FBF3F1 		udiv	r1, r2, r3
 11676 01e0 03FB1122 		mls	r2, r3, r1, r2
 11677 01e4 D7B2     		uxtb	r7, r2
 11678 01e6 092A     		cmp	r2, #9
 11679 01e8 84BF     		itt	hi
 11680 01ea BF19     		addhi	r7, r7, r6
 11681 01ec FFB2     		uxtbhi	r7, r7
 11682 01ee 3037     		adds	r7, r7, #48
 11683 01f0 8DF81970 		strb	r7, [sp, #25]
 11684 01f4 0029     		cmp	r1, #0
 11685 01f6 00F00783 		beq	.L3410
 11686 01fa B1FBF3F2 		udiv	r2, r1, r3
 11687 01fe 03FB1211 		mls	r1, r3, r2, r1
 11688 0202 CFB2     		uxtb	r7, r1
 11689 0204 0929     		cmp	r1, #9
 11690 0206 84BF     		itt	hi
 11691 0208 BF19     		addhi	r7, r7, r6
 11692 020a FFB2     		uxtbhi	r7, r7
 11693 020c 3037     		adds	r7, r7, #48
 11694 020e 8DF81A70 		strb	r7, [sp, #26]
 11695 0212 002A     		cmp	r2, #0
 11696 0214 00F0FC82 		beq	.L3411
 11697 0218 B2FBF3F1 		udiv	r1, r2, r3
 11698 021c 03FB1122 		mls	r2, r3, r1, r2
 11699 0220 D7B2     		uxtb	r7, r2
 11700 0222 092A     		cmp	r2, #9
 11701 0224 84BF     		itt	hi
 11702 0226 BF19     		addhi	r7, r7, r6
 11703 0228 FFB2     		uxtbhi	r7, r7
 11704 022a 3037     		adds	r7, r7, #48
 11705 022c 8DF81B70 		strb	r7, [sp, #27]
 11706 0230 0029     		cmp	r1, #0
 11707 0232 00F0F182 		beq	.L3412
ARM GAS  /tmp/ccFKl8QX.s 			page 205


 11708 0236 B1FBF3F2 		udiv	r2, r1, r3
 11709 023a 03FB1211 		mls	r1, r3, r2, r1
 11710 023e CFB2     		uxtb	r7, r1
 11711 0240 0929     		cmp	r1, #9
 11712 0242 84BF     		itt	hi
 11713 0244 BF19     		addhi	r7, r7, r6
 11714 0246 FFB2     		uxtbhi	r7, r7
 11715 0248 3037     		adds	r7, r7, #48
 11716 024a 8DF81C70 		strb	r7, [sp, #28]
 11717 024e 002A     		cmp	r2, #0
 11718 0250 00F0E682 		beq	.L3413
 11719 0254 B2FBF3F1 		udiv	r1, r2, r3
 11720 0258 03FB1122 		mls	r2, r3, r1, r2
 11721 025c D7B2     		uxtb	r7, r2
 11722 025e 092A     		cmp	r2, #9
 11723 0260 84BF     		itt	hi
 11724 0262 BF19     		addhi	r7, r7, r6
 11725 0264 FFB2     		uxtbhi	r7, r7
 11726 0266 3037     		adds	r7, r7, #48
 11727 0268 8DF81D70 		strb	r7, [sp, #29]
 11728 026c 0029     		cmp	r1, #0
 11729 026e 00F0DB82 		beq	.L3414
 11730 0272 B1FBF3F2 		udiv	r2, r1, r3
 11731 0276 03FB1211 		mls	r1, r3, r2, r1
 11732 027a CFB2     		uxtb	r7, r1
 11733 027c 0929     		cmp	r1, #9
 11734 027e 84BF     		itt	hi
 11735 0280 BF19     		addhi	r7, r7, r6
 11736 0282 FFB2     		uxtbhi	r7, r7
 11737 0284 3037     		adds	r7, r7, #48
 11738 0286 8DF81E70 		strb	r7, [sp, #30]
 11739 028a 002A     		cmp	r2, #0
 11740 028c 00F0D082 		beq	.L3415
 11741 0290 B2FBF3F1 		udiv	r1, r2, r3
 11742 0294 03FB1122 		mls	r2, r3, r1, r2
 11743 0298 D7B2     		uxtb	r7, r2
 11744 029a 092A     		cmp	r2, #9
 11745 029c 84BF     		itt	hi
 11746 029e BF19     		addhi	r7, r7, r6
 11747 02a0 FFB2     		uxtbhi	r7, r7
 11748 02a2 3037     		adds	r7, r7, #48
 11749 02a4 8DF81F70 		strb	r7, [sp, #31]
 11750 02a8 0029     		cmp	r1, #0
 11751 02aa 00F0C582 		beq	.L3416
 11752 02ae B1FBF3F2 		udiv	r2, r1, r3
 11753 02b2 03FB1211 		mls	r1, r3, r2, r1
 11754 02b6 CFB2     		uxtb	r7, r1
 11755 02b8 0929     		cmp	r1, #9
 11756 02ba 84BF     		itt	hi
 11757 02bc BF19     		addhi	r7, r7, r6
 11758 02be FFB2     		uxtbhi	r7, r7
 11759 02c0 3037     		adds	r7, r7, #48
 11760 02c2 8DF82070 		strb	r7, [sp, #32]
 11761 02c6 002A     		cmp	r2, #0
 11762 02c8 00F0BA82 		beq	.L3417
 11763 02cc B2FBF3F1 		udiv	r1, r2, r3
 11764 02d0 03FB1122 		mls	r2, r3, r1, r2
ARM GAS  /tmp/ccFKl8QX.s 			page 206


 11765 02d4 D7B2     		uxtb	r7, r2
 11766 02d6 092A     		cmp	r2, #9
 11767 02d8 84BF     		itt	hi
 11768 02da BF19     		addhi	r7, r7, r6
 11769 02dc FFB2     		uxtbhi	r7, r7
 11770 02de 3037     		adds	r7, r7, #48
 11771 02e0 8DF82170 		strb	r7, [sp, #33]
 11772 02e4 0029     		cmp	r1, #0
 11773 02e6 00F0AF82 		beq	.L3418
 11774 02ea B1FBF3F7 		udiv	r7, r1, r3
 11775 02ee 03FB1711 		mls	r1, r3, r7, r1
 11776 02f2 CAB2     		uxtb	r2, r1
 11777 02f4 0929     		cmp	r1, #9
 11778 02f6 84BF     		itt	hi
 11779 02f8 9219     		addhi	r2, r2, r6
 11780 02fa D2B2     		uxtbhi	r2, r2
 11781 02fc 3032     		adds	r2, r2, #48
 11782 02fe 8DF82220 		strb	r2, [sp, #34]
 11783 0302 002F     		cmp	r7, #0
 11784 0304 00F0A482 		beq	.L3419
 11785 0308 B7FBF3F2 		udiv	r2, r7, r3
 11786 030c 03FB1273 		mls	r3, r3, r2, r7
 11787 0310 DAB2     		uxtb	r2, r3
 11788 0312 092B     		cmp	r3, #9
 11789 0314 84BF     		itt	hi
 11790 0316 9219     		addhi	r2, r2, r6
 11791 0318 D2B2     		uxtbhi	r2, r2
 11792 031a 3032     		adds	r2, r2, #48
 11793 031c 8DF82320 		strb	r2, [sp, #35]
 11794 0320 4FF01009 		mov	r9, #16
 11795 0324 0F22     		movs	r2, #15
 11796              	.L3336:
 11797 0326 0607     		lsls	r6, r0, #28
 11798 0328 06D5     		bpl	.L3337
 11799 032a 1CAB     		add	r3, sp, #112
 11800 032c 4B44     		add	r3, r3, r9
 11801 032e 2D21     		movs	r1, #45
 11802 0330 02F10209 		add	r9, r2, #2
 11803 0334 03F85C1C 		strb	r1, [r3, #-92]
 11804              	.L3337:
 11805 0338 10F0010F 		tst	r0, #1
 11806 033c 14BF     		ite	ne
 11807 033e 4FF0300A 		movne	r10, #48
 11808 0342 4FF0200A 		moveq	r10, #32
 11809 0346 0A9A     		ldr	r2, [sp, #40]
 11810 0348 4E46     		mov	r6, r9
 11811 034a D5B9     		cbnz	r5, .L3346
 11812 034c 4B46     		mov	r3, r9
 11813 034e A342     		cmp	r3, r4
 11814 0350 1646     		mov	r6, r2
 11815 0352 03F10107 		add	r7, r3, #1
 11816 0356 12D2     		bcs	.L3521
 11817              	.L3347:
 11818 0358 002E     		cmp	r6, #0
 11819 035a 0BDB     		blt	.L3345
 11820 035c 1CAB     		add	r3, sp, #112
 11821 035e 3344     		add	r3, r3, r6
ARM GAS  /tmp/ccFKl8QX.s 			page 207


 11822 0360 0136     		adds	r6, r6, #1
 11823 0362 3C2E     		cmp	r6, #60
 11824 0364 03F840AC 		strb	r10, [r3, #-64]
 11825 0368 00F3BD80 		bgt	.L3522
 11826              	.L3341:
 11827 036c 0B9B     		ldr	r3, [sp, #44]
 11828 036e 0A96     		str	r6, [sp, #40]
 11829 0370 0133     		adds	r3, r3, #1
 11830 0372 0B93     		str	r3, [sp, #44]
 11831              	.L3345:
 11832 0374 3B46     		mov	r3, r7
 11833 0376 A342     		cmp	r3, r4
 11834 0378 03F10107 		add	r7, r3, #1
 11835 037c ECD3     		bcc	.L3347
 11836              	.L3521:
 11837 037e 3246     		mov	r2, r6
 11838 0380 3E46     		mov	r6, r7
 11839              	.L3346:
 11840 0382 05AB     		add	r3, sp, #20
 11841 0384 03EB0905 		add	r5, r3, r9
 11842 0388 A346     		mov	fp, r4
 11843 038a 0DF11509 		add	r9, sp, #21
 11844 038e 08E0     		b	.L3362
 11845              	.L3355:
 11846 0390 0B9B     		ldr	r3, [sp, #44]
 11847 0392 0A94     		str	r4, [sp, #40]
 11848 0394 0133     		adds	r3, r3, #1
 11849 0396 0B93     		str	r3, [sp, #44]
 11850              	.L3359:
 11851 0398 A945     		cmp	r9, r5
 11852 039a 00F0D680 		beq	.L3523
 11853 039e 0A9A     		ldr	r2, [sp, #40]
 11854 03a0 013D     		subs	r5, r5, #1
 11855              	.L3362:
 11856 03a2 15F8017C 		ldrb	r7, [r5, #-1]	@ zero_extendqisi2
 11857 03a6 0A2F     		cmp	r7, #10
 11858 03a8 00F0BD80 		beq	.L3524
 11859              	.L3348:
 11860 03ac 002A     		cmp	r2, #0
 11861 03ae F3DB     		blt	.L3359
 11862 03b0 1CAB     		add	r3, sp, #112
 11863 03b2 1344     		add	r3, r3, r2
 11864 03b4 541C     		adds	r4, r2, #1
 11865 03b6 3C2C     		cmp	r4, #60
 11866 03b8 03F8407C 		strb	r7, [r3, #-64]
 11867 03bc E8DD     		ble	.L3355
 11868 03be 099F     		ldr	r7, [sp, #36]
 11869 03c0 009B     		ldr	r3, [sp]
 11870 03c2 0493     		str	r3, [sp, #16]
 11871 03c4 002F     		cmp	r7, #0
 11872 03c6 00F0AC80 		beq	.L3433
 11873 03ca D7F80022 		ldr	r2, [r7, #512]
 11874 03ce 002A     		cmp	r2, #0
 11875 03d0 00F0A780 		beq	.L3433
 11876 03d4 92F80032 		ldrb	r3, [r2, #512]	@ zero_extendqisi2
 11877 03d8 002B     		cmp	r3, #0
 11878 03da 40F09B80 		bne	.L3525
ARM GAS  /tmp/ccFKl8QX.s 			page 208


 11879              	.L3356:
 11880 03de E41A     		subs	r4, r4, r3
 11881 03e0 18BF     		it	ne
 11882 03e2 4FF0FF34 		movne	r4, #-1
 11883 03e6 D3E7     		b	.L3355
 11884              	.L3283:
 11885 03e8 0A23     		movs	r3, #10
 11886 03ea 002E     		cmp	r6, #0
 11887 03ec 3FF49DAE 		beq	.L3315
 11888              	.L3519:
 11889 03f0 039E     		ldr	r6, [sp, #12]
 11890 03f2 442A     		cmp	r2, #68
 11891 03f4 06F10407 		add	r7, r6, #4
 11892 03f8 0397     		str	r7, [sp, #12]
 11893 03fa 3668     		ldr	r6, [r6]
 11894 03fc 7FF49FAE 		bne	.L3317
 11895 0400 002E     		cmp	r6, #0
 11896 0402 BFF69CAE 		bge	.L3317
 11897              	.L3520:
 11898 0406 40F00802 		orr	r2, r0, #8
 11899 040a 00F00205 		and	r5, r0, #2
 11900 040e 7642     		negs	r6, r6
 11901 0410 D0B2     		uxtb	r0, r2
 11902 0412 94E6     		b	.L3317
 11903              	.L3282:
 11904 0414 039B     		ldr	r3, [sp, #12]
 11905 0416 09A8     		add	r0, sp, #36
 11906 0418 1A1D     		adds	r2, r3, #4
 11907 041a 1978     		ldrb	r1, [r3]	@ zero_extendqisi2
 11908 041c 0392     		str	r2, [sp, #12]
 11909 041e FFF7FEFF 		bl	putc_bfd
 11910 0422 FAE5     		b	.L3262
 11911              	.L3280:
 11912 0424 0223     		movs	r3, #2
 11913              	.L3383:
 11914 0426 039A     		ldr	r2, [sp, #12]
 11915 0428 161D     		adds	r6, r2, #4
 11916 042a 0396     		str	r6, [sp, #12]
 11917 042c 1668     		ldr	r6, [r2]
 11918 042e 86E6     		b	.L3317
 11919              	.L3286:
 11920 0430 1023     		movs	r3, #16
 11921 0432 F8E7     		b	.L3383
 11922              	.L3285:
 11923 0434 039B     		ldr	r3, [sp, #12]
 11924 0436 1F68     		ldr	r7, [r3]
 11925 0438 3E78     		ldrb	r6, [r7]	@ zero_extendqisi2
 11926 043a 0433     		adds	r3, r3, #4
 11927 043c 0393     		str	r3, [sp, #12]
 11928 043e 36B1     		cbz	r6, .L3287
 11929 0440 3B46     		mov	r3, r7
 11930 0442 0026     		movs	r6, #0
 11931              	.L3288:
 11932 0444 13F8012F 		ldrb	r2, [r3, #1]!	@ zero_extendqisi2
 11933 0448 0136     		adds	r6, r6, #1
 11934 044a 002A     		cmp	r2, #0
 11935 044c FAD1     		bne	.L3288
ARM GAS  /tmp/ccFKl8QX.s 			page 209


 11936              	.L3287:
 11937 044e 002D     		cmp	r5, #0
 11938 0450 00F02281 		beq	.L3526
 11939              	.L3289:
 11940 0454 07F1FF39 		add	r9, r7, #-1
 11941              	.L3298:
 11942 0458 19F8015F 		ldrb	r5, [r9, #1]!	@ zero_extendqisi2
 11943 045c ADB1     		cbz	r5, .L3527
 11944              	.L3306:
 11945 045e 0A2D     		cmp	r5, #10
 11946 0460 00F00781 		beq	.L3528
 11947              	.L3299:
 11948 0464 0A9F     		ldr	r7, [sp, #40]
 11949 0466 002F     		cmp	r7, #0
 11950 0468 F6DB     		blt	.L3298
 11951 046a 1CAB     		add	r3, sp, #112
 11952 046c DA19     		adds	r2, r3, r7
 11953 046e 0137     		adds	r7, r7, #1
 11954 0470 3C2F     		cmp	r7, #60
 11955 0472 02F8405C 		strb	r5, [r2, #-64]
 11956 0476 00F39B80 		bgt	.L3529
 11957              	.L3301:
 11958 047a 0B9B     		ldr	r3, [sp, #44]
 11959 047c 0A97     		str	r7, [sp, #40]
 11960 047e 0133     		adds	r3, r3, #1
 11961 0480 0B93     		str	r3, [sp, #44]
 11962 0482 19F8015F 		ldrb	r5, [r9, #1]!	@ zero_extendqisi2
 11963 0486 002D     		cmp	r5, #0
 11964 0488 E9D1     		bne	.L3306
 11965              	.L3527:
 11966 048a 4FF02009 		mov	r9, #32
 11967 048e 04E0     		b	.L3307
 11968              	.L3309:
 11969 0490 0B9B     		ldr	r3, [sp, #44]
 11970 0492 0A95     		str	r5, [sp, #40]
 11971 0494 0133     		adds	r3, r3, #1
 11972 0496 0B93     		str	r3, [sp, #44]
 11973              	.L3313:
 11974 0498 0136     		adds	r6, r6, #1
 11975              	.L3307:
 11976 049a A642     		cmp	r6, r4
 11977 049c BFF4BDAD 		bcs	.L3262
 11978 04a0 0A9D     		ldr	r5, [sp, #40]
 11979 04a2 002D     		cmp	r5, #0
 11980 04a4 F8DB     		blt	.L3313
 11981 04a6 1CAB     		add	r3, sp, #112
 11982 04a8 5A19     		adds	r2, r3, r5
 11983 04aa 0135     		adds	r5, r5, #1
 11984 04ac 3C2D     		cmp	r5, #60
 11985 04ae 02F8409C 		strb	r9, [r2, #-64]
 11986 04b2 EDDD     		ble	.L3309
 11987 04b4 099F     		ldr	r7, [sp, #36]
 11988 04b6 009B     		ldr	r3, [sp]
 11989 04b8 0493     		str	r3, [sp, #16]
 11990 04ba 002F     		cmp	r7, #0
 11991 04bc 00F0BD80 		beq	.L3404
 11992 04c0 D7F80022 		ldr	r2, [r7, #512]
ARM GAS  /tmp/ccFKl8QX.s 			page 210


 11993 04c4 002A     		cmp	r2, #0
 11994 04c6 00F0B880 		beq	.L3404
 11995 04ca 92F80032 		ldrb	r3, [r2, #512]	@ zero_extendqisi2
 11996 04ce 002B     		cmp	r3, #0
 11997 04d0 40F0AC80 		bne	.L3530
 11998              	.L3310:
 11999 04d4 ED1A     		subs	r5, r5, r3
 12000 04d6 18BF     		it	ne
 12001 04d8 4FF0FF35 		movne	r5, #-1
 12002 04dc D8E7     		b	.L3309
 12003              	.L3279:
 12004 04de 09A8     		add	r0, sp, #36
 12005 04e0 FFF7FEFF 		bl	putc_bfd
 12006 04e4 99E5     		b	.L3262
 12007              	.L3522:
 12008 04e6 099B     		ldr	r3, [sp, #36]
 12009 04e8 0495     		str	r5, [sp, #16]
 12010 04ea 8BB1     		cbz	r3, .L3425
 12011 04ec D3F80012 		ldr	r1, [r3, #512]
 12012 04f0 71B1     		cbz	r1, .L3425
 12013 04f2 91F80022 		ldrb	r2, [r1, #512]	@ zero_extendqisi2
 12014 04f6 22B9     		cbnz	r2, .L3531
 12015              	.L3342:
 12016 04f8 B61A     		subs	r6, r6, r2
 12017 04fa 18BF     		it	ne
 12018 04fc 4FF0FF36 		movne	r6, #-1
 12019 0500 34E7     		b	.L3341
 12020              	.L3531:
 12021 0502 B1F80602 		ldrh	r0, [r1, #518]
 12022 0506 B3F80422 		ldrh	r2, [r3, #516]
 12023 050a 9042     		cmp	r0, r2
 12024 050c 00F03881 		beq	.L3532
 12025              	.L3425:
 12026 0510 0022     		movs	r2, #0
 12027 0512 F1E7     		b	.L3342
 12028              	.L3525:
 12029 0514 B2F80612 		ldrh	r1, [r2, #518]
 12030 0518 B7F80432 		ldrh	r3, [r7, #516]
 12031 051c 9942     		cmp	r1, r3
 12032 051e 00F0D380 		beq	.L3533
 12033              	.L3433:
 12034 0522 0023     		movs	r3, #0
 12035 0524 5BE7     		b	.L3356
 12036              	.L3524:
 12037 0526 002A     		cmp	r2, #0
 12038 0528 FFF636AF 		blt	.L3359
 12039 052c 1CAB     		add	r3, sp, #112
 12040 052e 1344     		add	r3, r3, r2
 12041 0530 541C     		adds	r4, r2, #1
 12042 0532 3C2C     		cmp	r4, #60
 12043 0534 4FF00D02 		mov	r2, #13
 12044 0538 03F8402C 		strb	r2, [r3, #-64]
 12045 053c 4ADC     		bgt	.L3534
 12046              	.L3350:
 12047 053e 0B9B     		ldr	r3, [sp, #44]
 12048 0540 0A94     		str	r4, [sp, #40]
 12049 0542 0133     		adds	r3, r3, #1
ARM GAS  /tmp/ccFKl8QX.s 			page 211


 12050 0544 2246     		mov	r2, r4
 12051 0546 0B93     		str	r3, [sp, #44]
 12052 0548 30E7     		b	.L3348
 12053              	.L3523:
 12054 054a 5C46     		mov	r4, fp
 12055 054c 04E0     		b	.L3361
 12056              	.L3364:
 12057 054e 0B9B     		ldr	r3, [sp, #44]
 12058 0550 0A95     		str	r5, [sp, #40]
 12059 0552 0133     		adds	r3, r3, #1
 12060 0554 0B93     		str	r3, [sp, #44]
 12061              	.L3368:
 12062 0556 0136     		adds	r6, r6, #1
 12063              	.L3361:
 12064 0558 A642     		cmp	r6, r4
 12065 055a BFF45EAD 		bcs	.L3262
 12066 055e 0A9D     		ldr	r5, [sp, #40]
 12067 0560 002D     		cmp	r5, #0
 12068 0562 F8DB     		blt	.L3368
 12069 0564 1CAB     		add	r3, sp, #112
 12070 0566 5A19     		adds	r2, r3, r5
 12071 0568 0135     		adds	r5, r5, #1
 12072 056a 3C2D     		cmp	r5, #60
 12073 056c 02F840AC 		strb	r10, [r2, #-64]
 12074 0570 EDDD     		ble	.L3364
 12075 0572 099F     		ldr	r7, [sp, #36]
 12076 0574 009B     		ldr	r3, [sp]
 12077 0576 0493     		str	r3, [sp, #16]
 12078 0578 8FB1     		cbz	r7, .L3437
 12079 057a D7F80022 		ldr	r2, [r7, #512]
 12080 057e 72B1     		cbz	r2, .L3437
 12081 0580 92F80032 		ldrb	r3, [r2, #512]	@ zero_extendqisi2
 12082 0584 23B9     		cbnz	r3, .L3535
 12083              	.L3365:
 12084 0586 ED1A     		subs	r5, r5, r3
 12085 0588 18BF     		it	ne
 12086 058a 4FF0FF35 		movne	r5, #-1
 12087 058e DEE7     		b	.L3364
 12088              	.L3535:
 12089 0590 B2F80612 		ldrh	r1, [r2, #518]
 12090 0594 B7F80432 		ldrh	r3, [r7, #516]
 12091 0598 9942     		cmp	r1, r3
 12092 059a 00F0FC80 		beq	.L3536
 12093              	.L3437:
 12094 059e 0023     		movs	r3, #0
 12095 05a0 F1E7     		b	.L3365
 12096              	.L3518:
 12097 05a2 98F80010 		ldrb	r1, [r8]	@ zero_extendqisi2
 12098 05a6 1046     		mov	r0, r2
 12099 05a8 0426     		movs	r6, #4
 12100 05aa 08F10108 		add	r8, r8, #1
 12101 05ae 90E5     		b	.L3277
 12102              	.L3529:
 12103 05b0 099D     		ldr	r5, [sp, #36]
 12104 05b2 009B     		ldr	r3, [sp]
 12105 05b4 0493     		str	r3, [sp, #16]
 12106 05b6 002D     		cmp	r5, #0
ARM GAS  /tmp/ccFKl8QX.s 			page 212


 12107 05b8 48D0     		beq	.L3400
 12108 05ba D5F80022 		ldr	r2, [r5, #512]
 12109 05be 002A     		cmp	r2, #0
 12110 05c0 44D0     		beq	.L3400
 12111 05c2 92F80032 		ldrb	r3, [r2, #512]	@ zero_extendqisi2
 12112 05c6 002B     		cmp	r3, #0
 12113 05c8 39D1     		bne	.L3537
 12114              	.L3302:
 12115 05ca FF1A     		subs	r7, r7, r3
 12116 05cc 18BF     		it	ne
 12117 05ce 4FF0FF37 		movne	r7, #-1
 12118 05d2 52E7     		b	.L3301
 12119              	.L3534:
 12120 05d4 099B     		ldr	r3, [sp, #36]
 12121 05d6 009A     		ldr	r2, [sp]
 12122 05d8 0492     		str	r2, [sp, #16]
 12123 05da 002B     		cmp	r3, #0
 12124 05dc 3FD0     		beq	.L3429
 12125 05de D3F80012 		ldr	r1, [r3, #512]
 12126 05e2 0029     		cmp	r1, #0
 12127 05e4 3BD0     		beq	.L3429
 12128 05e6 91F80022 		ldrb	r2, [r1, #512]	@ zero_extendqisi2
 12129 05ea 8ABB     		cbnz	r2, .L3538
 12130              	.L3351:
 12131 05ec A41A     		subs	r4, r4, r2
 12132 05ee 18BF     		it	ne
 12133 05f0 4FF0FF34 		movne	r4, #-1
 12134 05f4 A3E7     		b	.L3350
 12135              	.L3514:
 12136 05f6 099C     		ldr	r4, [sp, #36]
 12137 05f8 009B     		ldr	r3, [sp]
 12138 05fa 0493     		str	r3, [sp, #16]
 12139 05fc 002C     		cmp	r4, #0
 12140 05fe 44D0     		beq	.L3387
 12141 0600 D4F80022 		ldr	r2, [r4, #512]
 12142 0604 002A     		cmp	r2, #0
 12143 0606 40D0     		beq	.L3387
 12144 0608 92F80032 		ldrb	r3, [r2, #512]	@ zero_extendqisi2
 12145 060c B3BB     		cbnz	r3, .L3539
 12146              	.L3268:
 12147 060e ED1A     		subs	r5, r5, r3
 12148 0610 18BF     		it	ne
 12149 0612 4FF0FF35 		movne	r5, #-1
 12150 0616 16E5     		b	.L3267
 12151              	.L3266:
 12152 0618 B046     		mov	r8, r6
 12153 061a FEE4     		b	.L3262
 12154              	.L3517:
 12155 061c 98F80210 		ldrb	r1, [r8, #2]	@ zero_extendqisi2
 12156 0620 0025     		movs	r5, #0
 12157 0622 08F10308 		add	r8, r8, #3
 12158 0626 0522     		movs	r2, #5
 12159 0628 0120     		movs	r0, #1
 12160 062a 3AE5     		b	.L3273
 12161              	.L3530:
 12162 062c B2F80612 		ldrh	r1, [r2, #518]
 12163 0630 B7F80432 		ldrh	r3, [r7, #516]
ARM GAS  /tmp/ccFKl8QX.s 			page 213


 12164 0634 9942     		cmp	r1, r3
 12165 0636 00F01781 		beq	.L3540
 12166              	.L3404:
 12167 063a 0023     		movs	r3, #0
 12168 063c 4AE7     		b	.L3310
 12169              	.L3537:
 12170 063e B2F80612 		ldrh	r1, [r2, #518]
 12171 0642 B5F80432 		ldrh	r3, [r5, #516]
 12172 0646 9942     		cmp	r1, r3
 12173 0648 00F00681 		beq	.L3541
 12174              	.L3400:
 12175 064c 0023     		movs	r3, #0
 12176 064e BCE7     		b	.L3302
 12177              	.L3538:
 12178 0650 B1F80602 		ldrh	r0, [r1, #518]
 12179 0654 B3F80422 		ldrh	r2, [r3, #516]
 12180 0658 9042     		cmp	r0, r2
 12181 065a 00F00D81 		beq	.L3542
 12182              	.L3429:
 12183 065e 0022     		movs	r2, #0
 12184 0660 C4E7     		b	.L3351
 12185              	.L3274:
 12186 0662 0225     		movs	r5, #2
 12187 0664 98F80210 		ldrb	r1, [r8, #2]	@ zero_extendqisi2
 12188 0668 2846     		mov	r0, r5
 12189 066a 0622     		movs	r2, #6
 12190 066c 08F10308 		add	r8, r8, #3
 12191 0670 17E5     		b	.L3273
 12192              	.L3528:
 12193 0672 0D21     		movs	r1, #13
 12194 0674 09A8     		add	r0, sp, #36
 12195 0676 FFF7FEFF 		bl	putc_bfd
 12196 067a F3E6     		b	.L3299
 12197              	.L3539:
 12198 067c B2F80612 		ldrh	r1, [r2, #518]
 12199 0680 B4F80432 		ldrh	r3, [r4, #516]
 12200 0684 9942     		cmp	r1, r3
 12201 0686 00F00281 		beq	.L3543
 12202              	.L3387:
 12203 068a 0023     		movs	r3, #0
 12204 068c BFE7     		b	.L3268
 12205              	.L3513:
 12206 068e 0D21     		movs	r1, #13
 12207 0690 09A8     		add	r0, sp, #36
 12208 0692 FFF7FEFF 		bl	putc_bfd
 12209 0696 CAE4     		b	.L3265
 12210              	.L3526:
 12211 0698 3346     		mov	r3, r6
 12212 069a 4FF02009 		mov	r9, #32
 12213              	.L3290:
 12214 069e A342     		cmp	r3, r4
 12215 06a0 06F10106 		add	r6, r6, #1
 12216 06a4 BFF4D6AE 		bcs	.L3289
 12217 06a8 0A9D     		ldr	r5, [sp, #40]
 12218 06aa 002D     		cmp	r5, #0
 12219 06ac 0ADB     		blt	.L3296
 12220 06ae 1CAB     		add	r3, sp, #112
ARM GAS  /tmp/ccFKl8QX.s 			page 214


 12221 06b0 5A19     		adds	r2, r3, r5
 12222 06b2 0135     		adds	r5, r5, #1
 12223 06b4 3C2D     		cmp	r5, #60
 12224 06b6 02F8409C 		strb	r9, [r2, #-64]
 12225 06ba 1DDC     		bgt	.L3544
 12226              	.L3292:
 12227 06bc 0B9B     		ldr	r3, [sp, #44]
 12228 06be 0A95     		str	r5, [sp, #40]
 12229 06c0 0133     		adds	r3, r3, #1
 12230 06c2 0B93     		str	r3, [sp, #44]
 12231              	.L3296:
 12232 06c4 3346     		mov	r3, r6
 12233 06c6 EAE7     		b	.L3290
 12234              	.L3533:
 12235 06c8 92F80102 		ldrb	r0, [r2, #513]	@ zero_extendqisi2
 12236 06cc FFF7FEFF 		bl	disk_status
 12237 06d0 C207     		lsls	r2, r0, #31
 12238 06d2 01D5     		bpl	.L3545
 12239              	.L3509:
 12240 06d4 049B     		ldr	r3, [sp, #16]
 12241 06d6 82E6     		b	.L3356
 12242              	.L3545:
 12243 06d8 97F80732 		ldrb	r3, [r7, #519]	@ zero_extendqisi2
 12244 06dc 002B     		cmp	r3, #0
 12245 06de F9D1     		bne	.L3509
 12246 06e0 97F80632 		ldrb	r3, [r7, #518]	@ zero_extendqisi2
 12247 06e4 9B07     		lsls	r3, r3, #30
 12248 06e6 F5D5     		bpl	.L3509
 12249 06e8 04AB     		add	r3, sp, #16
 12250 06ea 3846     		mov	r0, r7
 12251 06ec 2246     		mov	r2, r4
 12252 06ee 0CA9     		add	r1, sp, #48
 12253 06f0 FFF7FEFF 		bl	f_write.part.12
 12254 06f4 049B     		ldr	r3, [sp, #16]
 12255 06f6 72E6     		b	.L3356
 12256              	.L3544:
 12257 06f8 099B     		ldr	r3, [sp, #36]
 12258 06fa 009A     		ldr	r2, [sp]
 12259 06fc 0492     		str	r2, [sp, #16]
 12260 06fe 8BB1     		cbz	r3, .L3396
 12261 0700 D3F80012 		ldr	r1, [r3, #512]
 12262 0704 71B1     		cbz	r1, .L3396
 12263 0706 91F80022 		ldrb	r2, [r1, #512]	@ zero_extendqisi2
 12264 070a 22B9     		cbnz	r2, .L3546
 12265              	.L3293:
 12266 070c AD1A     		subs	r5, r5, r2
 12267 070e 18BF     		it	ne
 12268 0710 4FF0FF35 		movne	r5, #-1
 12269 0714 D2E7     		b	.L3292
 12270              	.L3546:
 12271 0716 B1F80602 		ldrh	r0, [r1, #518]
 12272 071a B3F80422 		ldrh	r2, [r3, #516]
 12273 071e 9042     		cmp	r0, r2
 12274 0720 00F0BD80 		beq	.L3547
 12275              	.L3396:
 12276 0724 0022     		movs	r2, #0
 12277 0726 F1E7     		b	.L3293
ARM GAS  /tmp/ccFKl8QX.s 			page 215


 12278              	.L3516:
 12279 0728 B3F80612 		ldrh	r1, [r3, #518]
 12280 072c B4F80422 		ldrh	r2, [r4, #516]
 12281 0730 9142     		cmp	r1, r2
 12282 0732 7FF4A2AC 		bne	.L3372
 12283 0736 93F80102 		ldrb	r0, [r3, #513]	@ zero_extendqisi2
 12284 073a FFF7FEFF 		bl	disk_status
 12285 073e C207     		lsls	r2, r0, #31
 12286 0740 3FF59BAC 		bmi	.L3372
 12287 0744 94F80732 		ldrb	r3, [r4, #519]	@ zero_extendqisi2
 12288 0748 002B     		cmp	r3, #0
 12289 074a 7FF496AC 		bne	.L3372
 12290 074e 94F80632 		ldrb	r3, [r4, #518]	@ zero_extendqisi2
 12291 0752 9B07     		lsls	r3, r3, #30
 12292 0754 7FF591AC 		bpl	.L3372
 12293 0758 2A46     		mov	r2, r5
 12294 075a 2046     		mov	r0, r4
 12295 075c 04AB     		add	r3, sp, #16
 12296 075e 0CA9     		add	r1, sp, #48
 12297 0760 FFF7FEFF 		bl	f_write.part.12
 12298 0764 0028     		cmp	r0, #0
 12299 0766 7FF488AC 		bne	.L3372
 12300 076a 0A9A     		ldr	r2, [sp, #40]
 12301 076c 049B     		ldr	r3, [sp, #16]
 12302 076e 9A42     		cmp	r2, r3
 12303 0770 7FF483AC 		bne	.L3372
 12304 0774 0B98     		ldr	r0, [sp, #44]
 12305 0776 1CB0     		add	sp, sp, #112
 12306              		@ sp needed
 12307 0778 BDE8F04F 		pop	{r4, r5, r6, r7, r8, r9, r10, fp, lr}
 12308 077c 03B0     		add	sp, sp, #12
 12309 077e 7047     		bx	lr
 12310              	.L3532:
 12311 0780 91F80102 		ldrb	r0, [r1, #513]	@ zero_extendqisi2
 12312 0784 0193     		str	r3, [sp, #4]
 12313 0786 FFF7FEFF 		bl	disk_status
 12314 078a 10F0010F 		tst	r0, #1
 12315 078e 019B     		ldr	r3, [sp, #4]
 12316 0790 09D0     		beq	.L3548
 12317              	.L3507:
 12318 0792 049A     		ldr	r2, [sp, #16]
 12319 0794 B0E6     		b	.L3342
 12320              	.L3536:
 12321 0796 92F80102 		ldrb	r0, [r2, #513]	@ zero_extendqisi2
 12322 079a FFF7FEFF 		bl	disk_status
 12323 079e C007     		lsls	r0, r0, #31
 12324 07a0 10D5     		bpl	.L3549
 12325              	.L3510:
 12326 07a2 049B     		ldr	r3, [sp, #16]
 12327 07a4 EFE6     		b	.L3365
 12328              	.L3548:
 12329 07a6 93F80722 		ldrb	r2, [r3, #519]	@ zero_extendqisi2
 12330 07aa 002A     		cmp	r2, #0
 12331 07ac F1D1     		bne	.L3507
 12332 07ae 93F80622 		ldrb	r2, [r3, #518]	@ zero_extendqisi2
 12333 07b2 9007     		lsls	r0, r2, #30
 12334 07b4 EDD5     		bpl	.L3507
ARM GAS  /tmp/ccFKl8QX.s 			page 216


 12335 07b6 1846     		mov	r0, r3
 12336 07b8 3246     		mov	r2, r6
 12337 07ba 04AB     		add	r3, sp, #16
 12338 07bc 0CA9     		add	r1, sp, #48
 12339 07be FFF7FEFF 		bl	f_write.part.12
 12340 07c2 E6E7     		b	.L3507
 12341              	.L3549:
 12342 07c4 97F80732 		ldrb	r3, [r7, #519]	@ zero_extendqisi2
 12343 07c8 002B     		cmp	r3, #0
 12344 07ca EAD1     		bne	.L3510
 12345 07cc 97F80632 		ldrb	r3, [r7, #518]	@ zero_extendqisi2
 12346 07d0 9907     		lsls	r1, r3, #30
 12347 07d2 E6D5     		bpl	.L3510
 12348 07d4 3846     		mov	r0, r7
 12349 07d6 04AB     		add	r3, sp, #16
 12350 07d8 2A46     		mov	r2, r5
 12351 07da 0CA9     		add	r1, sp, #48
 12352 07dc FFF7FEFF 		bl	f_write.part.12
 12353 07e0 DFE7     		b	.L3510
 12354              	.L3405:
 12355 07e2 4FF00109 		mov	r9, #1
 12356 07e6 9EE5     		b	.L3336
 12357              	.L3406:
 12358 07e8 4FF00209 		mov	r9, #2
 12359 07ec 0122     		movs	r2, #1
 12360 07ee 9AE5     		b	.L3336
 12361              	.L3407:
 12362 07f0 4FF00309 		mov	r9, #3
 12363 07f4 0222     		movs	r2, #2
 12364 07f6 96E5     		b	.L3336
 12365              	.L3408:
 12366 07f8 4FF00409 		mov	r9, #4
 12367 07fc 0322     		movs	r2, #3
 12368 07fe 92E5     		b	.L3336
 12369              	.L3409:
 12370 0800 4FF00509 		mov	r9, #5
 12371 0804 0422     		movs	r2, #4
 12372 0806 8EE5     		b	.L3336
 12373              	.L3410:
 12374 0808 4FF00609 		mov	r9, #6
 12375 080c 0522     		movs	r2, #5
 12376 080e 8AE5     		b	.L3336
 12377              	.L3411:
 12378 0810 4FF00709 		mov	r9, #7
 12379 0814 0622     		movs	r2, #6
 12380 0816 86E5     		b	.L3336
 12381              	.L3412:
 12382 0818 4FF00809 		mov	r9, #8
 12383 081c 0722     		movs	r2, #7
 12384 081e 82E5     		b	.L3336
 12385              	.L3413:
 12386 0820 4FF00909 		mov	r9, #9
 12387 0824 0822     		movs	r2, #8
 12388 0826 7EE5     		b	.L3336
 12389              	.L3414:
 12390 0828 4FF00A09 		mov	r9, #10
 12391 082c 0922     		movs	r2, #9
ARM GAS  /tmp/ccFKl8QX.s 			page 217


 12392 082e 7AE5     		b	.L3336
 12393              	.L3415:
 12394 0830 4FF00B09 		mov	r9, #11
 12395 0834 0A22     		movs	r2, #10
 12396 0836 76E5     		b	.L3336
 12397              	.L3416:
 12398 0838 4FF00C09 		mov	r9, #12
 12399 083c 0B22     		movs	r2, #11
 12400 083e 72E5     		b	.L3336
 12401              	.L3417:
 12402 0840 4FF00D09 		mov	r9, #13
 12403 0844 0C22     		movs	r2, #12
 12404 0846 6EE5     		b	.L3336
 12405              	.L3418:
 12406 0848 4FF00E09 		mov	r9, #14
 12407 084c 0D22     		movs	r2, #13
 12408 084e 6AE5     		b	.L3336
 12409              	.L3419:
 12410 0850 4FF00F09 		mov	r9, #15
 12411 0854 0E22     		movs	r2, #14
 12412 0856 66E5     		b	.L3336
 12413              	.L3541:
 12414 0858 92F80102 		ldrb	r0, [r2, #513]	@ zero_extendqisi2
 12415 085c FFF7FEFF 		bl	disk_status
 12416 0860 C007     		lsls	r0, r0, #31
 12417 0862 27D5     		bpl	.L3550
 12418              	.L3505:
 12419 0864 049B     		ldr	r3, [sp, #16]
 12420 0866 B0E6     		b	.L3302
 12421              	.L3540:
 12422 0868 92F80102 		ldrb	r0, [r2, #513]	@ zero_extendqisi2
 12423 086c FFF7FEFF 		bl	disk_status
 12424 0870 C207     		lsls	r2, r0, #31
 12425 0872 2ED5     		bpl	.L3551
 12426              	.L3506:
 12427 0874 049B     		ldr	r3, [sp, #16]
 12428 0876 2DE6     		b	.L3310
 12429              	.L3542:
 12430 0878 91F80102 		ldrb	r0, [r1, #513]	@ zero_extendqisi2
 12431 087c 0193     		str	r3, [sp, #4]
 12432 087e FFF7FEFF 		bl	disk_status
 12433 0882 10F0010F 		tst	r0, #1
 12434 0886 019B     		ldr	r3, [sp, #4]
 12435 0888 32D0     		beq	.L3552
 12436              	.L3508:
 12437 088a 049A     		ldr	r2, [sp, #16]
 12438 088c AEE6     		b	.L3351
 12439              	.L3543:
 12440 088e 92F80102 		ldrb	r0, [r2, #513]	@ zero_extendqisi2
 12441 0892 FFF7FEFF 		bl	disk_status
 12442 0896 C007     		lsls	r0, r0, #31
 12443 0898 39D5     		bpl	.L3553
 12444              	.L3503:
 12445 089a 049B     		ldr	r3, [sp, #16]
 12446 089c B7E6     		b	.L3268
 12447              	.L3547:
 12448 089e 91F80102 		ldrb	r0, [r1, #513]	@ zero_extendqisi2
ARM GAS  /tmp/ccFKl8QX.s 			page 218


 12449 08a2 0193     		str	r3, [sp, #4]
 12450 08a4 FFF7FEFF 		bl	disk_status
 12451 08a8 10F0010F 		tst	r0, #1
 12452 08ac 019B     		ldr	r3, [sp, #4]
 12453 08ae 3DD0     		beq	.L3554
 12454              	.L3504:
 12455 08b0 049A     		ldr	r2, [sp, #16]
 12456 08b2 2BE7     		b	.L3293
 12457              	.L3550:
 12458 08b4 95F80732 		ldrb	r3, [r5, #519]	@ zero_extendqisi2
 12459 08b8 002B     		cmp	r3, #0
 12460 08ba D3D1     		bne	.L3505
 12461 08bc 95F80632 		ldrb	r3, [r5, #518]	@ zero_extendqisi2
 12462 08c0 9907     		lsls	r1, r3, #30
 12463 08c2 CFD5     		bpl	.L3505
 12464 08c4 2846     		mov	r0, r5
 12465 08c6 04AB     		add	r3, sp, #16
 12466 08c8 3A46     		mov	r2, r7
 12467 08ca 0CA9     		add	r1, sp, #48
 12468 08cc FFF7FEFF 		bl	f_write.part.12
 12469 08d0 C8E7     		b	.L3505
 12470              	.L3551:
 12471 08d2 97F80732 		ldrb	r3, [r7, #519]	@ zero_extendqisi2
 12472 08d6 002B     		cmp	r3, #0
 12473 08d8 CCD1     		bne	.L3506
 12474 08da 97F80632 		ldrb	r3, [r7, #518]	@ zero_extendqisi2
 12475 08de 9B07     		lsls	r3, r3, #30
 12476 08e0 C8D5     		bpl	.L3506
 12477 08e2 3846     		mov	r0, r7
 12478 08e4 04AB     		add	r3, sp, #16
 12479 08e6 2A46     		mov	r2, r5
 12480 08e8 0CA9     		add	r1, sp, #48
 12481 08ea FFF7FEFF 		bl	f_write.part.12
 12482 08ee C1E7     		b	.L3506
 12483              	.L3552:
 12484 08f0 93F80722 		ldrb	r2, [r3, #519]	@ zero_extendqisi2
 12485 08f4 002A     		cmp	r2, #0
 12486 08f6 C8D1     		bne	.L3508
 12487 08f8 93F80622 		ldrb	r2, [r3, #518]	@ zero_extendqisi2
 12488 08fc 9107     		lsls	r1, r2, #30
 12489 08fe C4D5     		bpl	.L3508
 12490 0900 1846     		mov	r0, r3
 12491 0902 2246     		mov	r2, r4
 12492 0904 04AB     		add	r3, sp, #16
 12493 0906 0CA9     		add	r1, sp, #48
 12494 0908 FFF7FEFF 		bl	f_write.part.12
 12495 090c BDE7     		b	.L3508
 12496              	.L3553:
 12497 090e 94F80732 		ldrb	r3, [r4, #519]	@ zero_extendqisi2
 12498 0912 002B     		cmp	r3, #0
 12499 0914 C1D1     		bne	.L3503
 12500 0916 94F80632 		ldrb	r3, [r4, #518]	@ zero_extendqisi2
 12501 091a 9907     		lsls	r1, r3, #30
 12502 091c BDD5     		bpl	.L3503
 12503 091e 2046     		mov	r0, r4
 12504 0920 04AB     		add	r3, sp, #16
 12505 0922 2A46     		mov	r2, r5
ARM GAS  /tmp/ccFKl8QX.s 			page 219


 12506 0924 0CA9     		add	r1, sp, #48
 12507 0926 FFF7FEFF 		bl	f_write.part.12
 12508 092a B6E7     		b	.L3503
 12509              	.L3554:
 12510 092c 93F80722 		ldrb	r2, [r3, #519]	@ zero_extendqisi2
 12511 0930 002A     		cmp	r2, #0
 12512 0932 BDD1     		bne	.L3504
 12513 0934 93F80622 		ldrb	r2, [r3, #518]	@ zero_extendqisi2
 12514 0938 9207     		lsls	r2, r2, #30
 12515 093a B9D5     		bpl	.L3504
 12516 093c 1846     		mov	r0, r3
 12517 093e 2A46     		mov	r2, r5
 12518 0940 04AB     		add	r3, sp, #16
 12519 0942 0CA9     		add	r1, sp, #48
 12520 0944 FFF7FEFF 		bl	f_write.part.12
 12521 0948 B2E7     		b	.L3504
 12523 094a 00BF     		.section	.bss.FatFs,"aw",%nobits
 12524              		.align	2
 12525              		.set	.LANCHOR0,. + 0
 12528              	FatFs:
 12529 0000 00000000 		.space	4
 12530              		.section	.bss.Files,"aw",%nobits
 12531              		.align	2
 12532              		.set	.LANCHOR2,. + 0
 12535              	Files:
 12536 0000 00000000 		.space	24
 12536      00000000 
 12536      00000000 
 12536      00000000 
 12536      00000000 
 12537              		.section	.bss.Fsid,"aw",%nobits
 12538              		.align	1
 12539              		.set	.LANCHOR1,. + 0
 12542              	Fsid:
 12543 0000 0000     		.space	2
 12544              		.section	.rodata.ExCvt,"a",%progbits
 12545              		.align	2
 12546              		.set	.LANCHOR3,. + 0
 12549              	ExCvt:
 12550 0000 80       		.byte	-128
 12551 0001 81       		.byte	-127
 12552 0002 82       		.byte	-126
 12553 0003 83       		.byte	-125
 12554 0004 84       		.byte	-124
 12555 0005 85       		.byte	-123
 12556 0006 86       		.byte	-122
 12557 0007 87       		.byte	-121
 12558 0008 88       		.byte	-120
 12559 0009 89       		.byte	-119
 12560 000a 8A       		.byte	-118
 12561 000b 8B       		.byte	-117
 12562 000c 8C       		.byte	-116
 12563 000d 8D       		.byte	-115
 12564 000e 8E       		.byte	-114
 12565 000f 8F       		.byte	-113
 12566 0010 90       		.byte	-112
 12567 0011 91       		.byte	-111
ARM GAS  /tmp/ccFKl8QX.s 			page 220


 12568 0012 92       		.byte	-110
 12569 0013 93       		.byte	-109
 12570 0014 94       		.byte	-108
 12571 0015 95       		.byte	-107
 12572 0016 96       		.byte	-106
 12573 0017 97       		.byte	-105
 12574 0018 98       		.byte	-104
 12575 0019 99       		.byte	-103
 12576 001a AD       		.byte	-83
 12577 001b 9B       		.byte	-101
 12578 001c 8C       		.byte	-116
 12579 001d 9D       		.byte	-99
 12580 001e AE       		.byte	-82
 12581 001f 9F       		.byte	-97
 12582 0020 A0       		.byte	-96
 12583 0021 21       		.byte	33
 12584 0022 A2       		.byte	-94
 12585 0023 A3       		.byte	-93
 12586 0024 A4       		.byte	-92
 12587 0025 A5       		.byte	-91
 12588 0026 A6       		.byte	-90
 12589 0027 A7       		.byte	-89
 12590 0028 A8       		.byte	-88
 12591 0029 A9       		.byte	-87
 12592 002a AA       		.byte	-86
 12593 002b AB       		.byte	-85
 12594 002c AC       		.byte	-84
 12595 002d AD       		.byte	-83
 12596 002e AE       		.byte	-82
 12597 002f AF       		.byte	-81
 12598 0030 B0       		.byte	-80
 12599 0031 B1       		.byte	-79
 12600 0032 B2       		.byte	-78
 12601 0033 B3       		.byte	-77
 12602 0034 B4       		.byte	-76
 12603 0035 B5       		.byte	-75
 12604 0036 B6       		.byte	-74
 12605 0037 B7       		.byte	-73
 12606 0038 B8       		.byte	-72
 12607 0039 B9       		.byte	-71
 12608 003a BA       		.byte	-70
 12609 003b BB       		.byte	-69
 12610 003c BC       		.byte	-68
 12611 003d BD       		.byte	-67
 12612 003e BE       		.byte	-66
 12613 003f BF       		.byte	-65
 12614 0040 C0       		.byte	-64
 12615 0041 C1       		.byte	-63
 12616 0042 C2       		.byte	-62
 12617 0043 C3       		.byte	-61
 12618 0044 C4       		.byte	-60
 12619 0045 C5       		.byte	-59
 12620 0046 C6       		.byte	-58
 12621 0047 C7       		.byte	-57
 12622 0048 C8       		.byte	-56
 12623 0049 C9       		.byte	-55
 12624 004a CA       		.byte	-54
ARM GAS  /tmp/ccFKl8QX.s 			page 221


 12625 004b CB       		.byte	-53
 12626 004c CC       		.byte	-52
 12627 004d CD       		.byte	-51
 12628 004e CE       		.byte	-50
 12629 004f CF       		.byte	-49
 12630 0050 D0       		.byte	-48
 12631 0051 D1       		.byte	-47
 12632 0052 D2       		.byte	-46
 12633 0053 D3       		.byte	-45
 12634 0054 D4       		.byte	-44
 12635 0055 D5       		.byte	-43
 12636 0056 D6       		.byte	-42
 12637 0057 D7       		.byte	-41
 12638 0058 D8       		.byte	-40
 12639 0059 D9       		.byte	-39
 12640 005a DA       		.byte	-38
 12641 005b DB       		.byte	-37
 12642 005c DC       		.byte	-36
 12643 005d DD       		.byte	-35
 12644 005e DE       		.byte	-34
 12645 005f DF       		.byte	-33
 12646 0060 C0       		.byte	-64
 12647 0061 C1       		.byte	-63
 12648 0062 C2       		.byte	-62
 12649 0063 C3       		.byte	-61
 12650 0064 C4       		.byte	-60
 12651 0065 C5       		.byte	-59
 12652 0066 C6       		.byte	-58
 12653 0067 C7       		.byte	-57
 12654 0068 C8       		.byte	-56
 12655 0069 C9       		.byte	-55
 12656 006a CA       		.byte	-54
 12657 006b CB       		.byte	-53
 12658 006c CC       		.byte	-52
 12659 006d CD       		.byte	-51
 12660 006e CE       		.byte	-50
 12661 006f CF       		.byte	-49
 12662 0070 D0       		.byte	-48
 12663 0071 D1       		.byte	-47
 12664 0072 D2       		.byte	-46
 12665 0073 D3       		.byte	-45
 12666 0074 D4       		.byte	-44
 12667 0075 D5       		.byte	-43
 12668 0076 D6       		.byte	-42
 12669 0077 F7       		.byte	-9
 12670 0078 D8       		.byte	-40
 12671 0079 D9       		.byte	-39
 12672 007a DA       		.byte	-38
 12673 007b DB       		.byte	-37
 12674 007c DC       		.byte	-36
 12675 007d DD       		.byte	-35
 12676 007e DE       		.byte	-34
 12677 007f 9F       		.byte	-97
 12678              		.section	.rodata.cst.9515,"a",%progbits
 12679              		.align	2
 12680              		.set	.LANCHOR4,. + 0
 12683              	cst.9515:
ARM GAS  /tmp/ccFKl8QX.s 			page 222


 12684 0000 0080     		.short	-32768
 12685 0002 0040     		.short	16384
 12686 0004 0020     		.short	8192
 12687 0006 0010     		.short	4096
 12688 0008 0008     		.short	2048
 12689 000a 0040     		.short	16384
 12690 000c 0020     		.short	8192
 12691 000e 0010     		.short	4096
 12692 0010 0008     		.short	2048
 12693 0012 0004     		.short	1024
 12694 0014 0002     		.short	512
 12695              		.section	.rodata.f_mkfs.str1.4,"aMS",%progbits,1
 12696              		.align	2
 12697              	.LC1:
 12698 0000 EBFE904D 		.ascii	"\353\376\220MSDOS5.0\000"
 12698      53444F53 
 12698      352E3000 
 12699              	.LC2:
 12700 000c 4E4F204E 		.ascii	"NO NAME    FAT32   \000"
 12700      414D4520 
 12700      20202046 
 12700      41543332 
 12700      20202000 
 12701              	.LC3:
 12702 0020 4E4F204E 		.ascii	"NO NAME    FAT     \000"
 12702      414D4520 
 12702      20202046 
 12702      41542020 
 12702      20202000 
 12703              		.section	.rodata.follow_path.str1.4,"aMS",%progbits,1
 12704              		.align	2
 12705              	.LC0:
 12706 0000 222A2B2C 		.ascii	"\"*+,:;<=>?[]|\177\000"
 12706      3A3B3C3D 
 12706      3E3F5B5D 
 12706      7C7F00
 12707              		.ident	"GCC: (Arch Repository) 6.3.0"
ARM GAS  /tmp/ccFKl8QX.s 			page 223


DEFINED SYMBOLS
                            *ABS*:0000000000000000 ff.c
     /tmp/ccFKl8QX.s:13     .text.sync_window.part.4:0000000000000000 $t
     /tmp/ccFKl8QX.s:20     .text.sync_window.part.4:0000000000000000 sync_window.part.4
     /tmp/ccFKl8QX.s:62     .text.move_window:0000000000000000 $t
     /tmp/ccFKl8QX.s:69     .text.move_window:0000000000000000 move_window
     /tmp/ccFKl8QX.s:132    .text.find_volume:0000000000000000 $t
     /tmp/ccFKl8QX.s:139    .text.find_volume:0000000000000000 find_volume
     /tmp/ccFKl8QX.s:443    .text.find_volume:00000000000002e8 $d
     /tmp/ccFKl8QX.s:448    .text.find_volume:00000000000002f8 $t
     /tmp/ccFKl8QX.s:620    .text.find_volume:00000000000004f0 $d
     /tmp/ccFKl8QX.s:624    .text.sync_fs:0000000000000000 $t
     /tmp/ccFKl8QX.s:631    .text.sync_fs:0000000000000000 sync_fs
     /tmp/ccFKl8QX.s:730    .text.sync_fs:00000000000000f8 $d
     /tmp/ccFKl8QX.s:734    .text.put_fat.part.8:0000000000000000 $t
     /tmp/ccFKl8QX.s:741    .text.put_fat.part.8:0000000000000000 put_fat.part.8
     /tmp/ccFKl8QX.s:1023   .text.remove_chain.part.10:0000000000000000 $t
     /tmp/ccFKl8QX.s:1030   .text.remove_chain.part.10:0000000000000000 remove_chain.part.10
     /tmp/ccFKl8QX.s:1318   .text.get_fat.part.6:0000000000000000 $t
     /tmp/ccFKl8QX.s:1325   .text.get_fat.part.6:0000000000000000 get_fat.part.6
     /tmp/ccFKl8QX.s:1577   .text.dir_sdi:0000000000000000 $t
     /tmp/ccFKl8QX.s:1584   .text.dir_sdi:0000000000000000 dir_sdi
     /tmp/ccFKl8QX.s:1673   .text.create_chain:0000000000000000 $t
     /tmp/ccFKl8QX.s:1680   .text.create_chain:0000000000000000 create_chain
     /tmp/ccFKl8QX.s:2037   .text.f_write.part.12:0000000000000000 $t
     /tmp/ccFKl8QX.s:2044   .text.f_write.part.12:0000000000000000 f_write.part.12
     /tmp/ccFKl8QX.s:2439   .text.f_read.part.11:0000000000000000 $t
     /tmp/ccFKl8QX.s:2446   .text.f_read.part.11:0000000000000000 f_read.part.11
     /tmp/ccFKl8QX.s:2803   .text.follow_path:0000000000000000 $t
     /tmp/ccFKl8QX.s:2810   .text.follow_path:0000000000000000 follow_path
     /tmp/ccFKl8QX.s:3189   .text.follow_path:0000000000000368 $d
     /tmp/ccFKl8QX.s:3193   .text.dir_register:0000000000000000 $t
     /tmp/ccFKl8QX.s:3200   .text.dir_register:0000000000000000 dir_register
     /tmp/ccFKl8QX.s:3508   .text.putc_bfd:0000000000000000 $t
     /tmp/ccFKl8QX.s:3515   .text.putc_bfd:0000000000000000 putc_bfd
     /tmp/ccFKl8QX.s:3653   .text.clust2sect:0000000000000000 $t
     /tmp/ccFKl8QX.s:3661   .text.clust2sect:0000000000000000 clust2sect
     /tmp/ccFKl8QX.s:3677   .text.get_fat:0000000000000000 $t
     /tmp/ccFKl8QX.s:3685   .text.get_fat:0000000000000000 get_fat
     /tmp/ccFKl8QX.s:3945   .text.put_fat:0000000000000000 $t
     /tmp/ccFKl8QX.s:3953   .text.put_fat:0000000000000000 put_fat
     /tmp/ccFKl8QX.s:4243   .text.f_mount:0000000000000000 $t
     /tmp/ccFKl8QX.s:4251   .text.f_mount:0000000000000000 f_mount
     /tmp/ccFKl8QX.s:4328   .text.f_mount:0000000000000080 $d
     /tmp/ccFKl8QX.s:4332   .text.f_open:0000000000000000 $t
     /tmp/ccFKl8QX.s:4340   .text.f_open:0000000000000000 f_open
     /tmp/ccFKl8QX.s:4712   .text.f_open:0000000000000354 $d
     /tmp/ccFKl8QX.s:4715   .text.f_open:000000000000035c $t
     /tmp/ccFKl8QX.s:5071   .text.f_open:000000000000075c $d
     /tmp/ccFKl8QX.s:5075   .text.f_open:0000000000000768 $t
     /tmp/ccFKl8QX.s:5175   .text.f_open:000000000000089c $d
     /tmp/ccFKl8QX.s:5179   .text.f_read:0000000000000000 $t
     /tmp/ccFKl8QX.s:5187   .text.f_read:0000000000000000 f_read
     /tmp/ccFKl8QX.s:5239   .text.f_write:0000000000000000 $t
     /tmp/ccFKl8QX.s:5247   .text.f_write:0000000000000000 f_write
     /tmp/ccFKl8QX.s:5299   .text.f_sync:0000000000000000 $t
     /tmp/ccFKl8QX.s:5307   .text.f_sync:0000000000000000 f_sync
ARM GAS  /tmp/ccFKl8QX.s 			page 224


     /tmp/ccFKl8QX.s:5447   .text.f_close:0000000000000000 $t
     /tmp/ccFKl8QX.s:5455   .text.f_close:0000000000000000 f_close
     /tmp/ccFKl8QX.s:5643   .text.f_close:00000000000001d0 $d
     /tmp/ccFKl8QX.s:5646   .text.f_lseek:0000000000000000 $t
     /tmp/ccFKl8QX.s:5654   .text.f_lseek:0000000000000000 f_lseek
     /tmp/ccFKl8QX.s:5996   .text.f_opendir:0000000000000000 $t
     /tmp/ccFKl8QX.s:6004   .text.f_opendir:0000000000000000 f_opendir
     /tmp/ccFKl8QX.s:6191   .text.f_opendir:0000000000000190 $d
     /tmp/ccFKl8QX.s:6194   .text.f_opendir:0000000000000198 $t
     /tmp/ccFKl8QX.s:6496   .text.f_opendir:00000000000004e8 $d
     /tmp/ccFKl8QX.s:6500   .text.f_opendir:00000000000004f4 $t
     /tmp/ccFKl8QX.s:6588   .text.f_opendir:0000000000000600 $d
     /tmp/ccFKl8QX.s:6591   .text.f_closedir:0000000000000000 $t
     /tmp/ccFKl8QX.s:6599   .text.f_closedir:0000000000000000 f_closedir
     /tmp/ccFKl8QX.s:6659   .text.f_closedir:0000000000000074 $d
     /tmp/ccFKl8QX.s:6662   .text.f_readdir:0000000000000000 $t
     /tmp/ccFKl8QX.s:6670   .text.f_readdir:0000000000000000 f_readdir
     /tmp/ccFKl8QX.s:7057   .text.f_stat:0000000000000000 $t
     /tmp/ccFKl8QX.s:7065   .text.f_stat:0000000000000000 f_stat
     /tmp/ccFKl8QX.s:7120   .text.f_stat:0000000000000078 $d
     /tmp/ccFKl8QX.s:7122   .text.f_stat:000000000000007c $t
     /tmp/ccFKl8QX.s:7457   .text.f_stat:00000000000003bc $d
     /tmp/ccFKl8QX.s:7462   .text.f_stat:00000000000003cc $t
     /tmp/ccFKl8QX.s:7681   .text.f_stat:0000000000000634 $d
     /tmp/ccFKl8QX.s:7685   .text.f_getfree:0000000000000000 $t
     /tmp/ccFKl8QX.s:7693   .text.f_getfree:0000000000000000 f_getfree
     /tmp/ccFKl8QX.s:7855   .text.f_truncate:0000000000000000 $t
     /tmp/ccFKl8QX.s:7863   .text.f_truncate:0000000000000000 f_truncate
     /tmp/ccFKl8QX.s:7989   .text.f_unlink:0000000000000000 $t
     /tmp/ccFKl8QX.s:7997   .text.f_unlink:0000000000000000 f_unlink
     /tmp/ccFKl8QX.s:8281   .text.f_unlink:00000000000002d8 $d
     /tmp/ccFKl8QX.s:8286   .text.f_unlink:00000000000002e8 $t
     /tmp/ccFKl8QX.s:8772   .text.f_unlink:000000000000080c $d
     /tmp/ccFKl8QX.s:8776   .text.f_mkdir:0000000000000000 $t
     /tmp/ccFKl8QX.s:8784   .text.f_mkdir:0000000000000000 f_mkdir
     /tmp/ccFKl8QX.s:9150   .text.f_chmod:0000000000000000 $t
     /tmp/ccFKl8QX.s:9158   .text.f_chmod:0000000000000000 f_chmod
     /tmp/ccFKl8QX.s:9485   .text.f_chmod:0000000000000364 $d
     /tmp/ccFKl8QX.s:9490   .text.f_chmod:0000000000000374 $t
     /tmp/ccFKl8QX.s:9662   .text.f_chmod:0000000000000570 $d
     /tmp/ccFKl8QX.s:9666   .text.f_rename:0000000000000000 $t
     /tmp/ccFKl8QX.s:9674   .text.f_rename:0000000000000000 f_rename
     /tmp/ccFKl8QX.s:9941   .text.f_rename:000000000000026c $d
     /tmp/ccFKl8QX.s:9944   .text.f_utime:0000000000000000 $t
     /tmp/ccFKl8QX.s:9952   .text.f_utime:0000000000000000 f_utime
     /tmp/ccFKl8QX.s:10280  .text.f_utime:0000000000000358 $d
     /tmp/ccFKl8QX.s:10285  .text.f_utime:0000000000000368 $t
     /tmp/ccFKl8QX.s:10458  .text.f_utime:0000000000000568 $d
     /tmp/ccFKl8QX.s:10462  .text.f_mkfs:0000000000000000 $t
     /tmp/ccFKl8QX.s:10470  .text.f_mkfs:0000000000000000 f_mkfs
     /tmp/ccFKl8QX.s:10637  .text.f_mkfs:0000000000000164 $d
     /tmp/ccFKl8QX.s:10640  .text.f_mkfs:000000000000016c $t
     /tmp/ccFKl8QX.s:11044  .text.f_mkfs:0000000000000594 $d
     /tmp/ccFKl8QX.s:11054  .text.f_gets:0000000000000000 $t
     /tmp/ccFKl8QX.s:11062  .text.f_gets:0000000000000000 f_gets
     /tmp/ccFKl8QX.s:11129  .text.f_putc:0000000000000000 $t
     /tmp/ccFKl8QX.s:11137  .text.f_putc:0000000000000000 f_putc
ARM GAS  /tmp/ccFKl8QX.s 			page 225


     /tmp/ccFKl8QX.s:11264  .text.f_puts:0000000000000000 $t
     /tmp/ccFKl8QX.s:11272  .text.f_puts:0000000000000000 f_puts
     /tmp/ccFKl8QX.s:11465  .text.f_printf:0000000000000000 $t
     /tmp/ccFKl8QX.s:11473  .text.f_printf:0000000000000000 f_printf
     /tmp/ccFKl8QX.s:11578  .text.f_printf:00000000000000f4 $d
     /tmp/ccFKl8QX.s:11601  .text.f_printf:0000000000000122 $t
     /tmp/ccFKl8QX.s:12524  .bss.FatFs:0000000000000000 $d
     /tmp/ccFKl8QX.s:12528  .bss.FatFs:0000000000000000 FatFs
     /tmp/ccFKl8QX.s:12531  .bss.Files:0000000000000000 $d
     /tmp/ccFKl8QX.s:12535  .bss.Files:0000000000000000 Files
     /tmp/ccFKl8QX.s:12538  .bss.Fsid:0000000000000000 $d
     /tmp/ccFKl8QX.s:12542  .bss.Fsid:0000000000000000 Fsid
     /tmp/ccFKl8QX.s:12545  .rodata.ExCvt:0000000000000000 $d
     /tmp/ccFKl8QX.s:12549  .rodata.ExCvt:0000000000000000 ExCvt
     /tmp/ccFKl8QX.s:12679  .rodata.cst.9515:0000000000000000 $d
     /tmp/ccFKl8QX.s:12683  .rodata.cst.9515:0000000000000000 cst.9515
     /tmp/ccFKl8QX.s:12696  .rodata.f_mkfs.str1.4:0000000000000000 $d
     /tmp/ccFKl8QX.s:12704  .rodata.follow_path.str1.4:0000000000000000 $d
     /tmp/ccFKl8QX.s:12705  .rodata.follow_path.str1.4:0000000000000000 .LC0

UNDEFINED SYMBOLS
disk_write
disk_read
disk_status
disk_initialize
disk_ioctl
memset
get_fattime
memcpy
