ARM GAS  /tmp/ccCE9E5W.s 			page 1


   1              		.cpu cortex-m4
   2              		.eabi_attribute 27, 1
   3              		.eabi_attribute 28, 1
   4              		.eabi_attribute 23, 1
   5              		.eabi_attribute 24, 1
   6              		.eabi_attribute 25, 1
   7              		.eabi_attribute 26, 1
   8              		.eabi_attribute 30, 2
   9              		.eabi_attribute 34, 1
  10              		.eabi_attribute 18, 4
  11              		.file	"gui_compass.c"
  12              		.text
  13              	.Ltext0:
  14              		.cfi_sections	.debug_frame
  15              		.global	__aeabi_ui2d
  16              		.global	__aeabi_f2d
  17              		.global	__aeabi_dmul
  18              		.global	__aeabi_d2iz
  19              		.section	.text._m_compass_draw,"ax",%progbits
  20              		.align	1
  21              		.p2align 2,,3
  22              		.global	_m_compass_draw
  23              		.syntax unified
  24              		.thumb
  25              		.thumb_func
  26              		.fpu fpv4-sp-d16
  28              	_m_compass_draw:
  29              	.LFB127:
  30              		.file 1 "gui/gui_compass.c"
   1:gui/gui_compass.c **** #include "gui_custom.h"
   2:gui/gui_compass.c **** 
   3:gui/gui_compass.c **** uint8_t _m_compass_draw   (MElement* b);
   4:gui/gui_compass.c **** MInputResultEnum _m_compass_input  (MElement* b, MInputData data);
   5:gui/gui_compass.c **** MFocusEnum _m_compass_focus  (MElement* b, MFocusEnum act);
   6:gui/gui_compass.c **** 
   7:gui/gui_compass.c **** 
   8:gui/gui_compass.c **** void gui_create_compass(MCompass *b, MContainer *c,
   9:gui/gui_compass.c **** 			int32_t x, int32_t y, //position of center
  10:gui/gui_compass.c **** 			uint32_t r, //radius
  11:gui/gui_compass.c **** 			float *angle)
  12:gui/gui_compass.c **** {
  13:gui/gui_compass.c ****     MElement *e = &b->el;
  14:gui/gui_compass.c ****     e->gui = c->gui;
  15:gui/gui_compass.c **** 
  16:gui/gui_compass.c ****     e->data = b;
  17:gui/gui_compass.c **** 
  18:gui/gui_compass.c ****     e->draw = &_m_compass_draw;
  19:gui/gui_compass.c ****     e->predraw = 0;
  20:gui/gui_compass.c ****     e->update = 0;
  21:gui/gui_compass.c ****     e->input = 0;
  22:gui/gui_compass.c ****     e->focus = 0;
  23:gui/gui_compass.c ****     e->free = 0;
  24:gui/gui_compass.c ****     
  25:gui/gui_compass.c ****     e->position.x  = x - r;
  26:gui/gui_compass.c ****     e->position.y  = y - r;
  27:gui/gui_compass.c ****     e->position.width  = r * 2;
  28:gui/gui_compass.c ****     e->position.height = r * 2;
ARM GAS  /tmp/ccCE9E5W.s 			page 2


  29:gui/gui_compass.c **** 
  30:gui/gui_compass.c ****     e->enabled = 1;
  31:gui/gui_compass.c ****     e->id = makise_g_newid();
  32:gui/gui_compass.c ****     
  33:gui/gui_compass.c ****     e->focus_prior = 0;
  34:gui/gui_compass.c ****     
  35:gui/gui_compass.c ****     b->x = x;
  36:gui/gui_compass.c ****     b->y = y;
  37:gui/gui_compass.c ****     b->r = r;
  38:gui/gui_compass.c ****     b->angle = angle;
  39:gui/gui_compass.c ****     
  40:gui/gui_compass.c ****     makise_g_cont_add(c, e);
  41:gui/gui_compass.c ****     
  42:gui/gui_compass.c ****     printf("Compass %d created\n", e->id);
  43:gui/gui_compass.c **** }
  44:gui/gui_compass.c **** 
  45:gui/gui_compass.c **** uint8_t _m_compass_draw   (MElement* b)
  46:gui/gui_compass.c **** {
  31              		.loc 1 46 0
  32              		.cfi_startproc
  33              		@ args = 0, pretend = 0, frame = 16
  34              		@ frame_needed = 0, uses_anonymous_args = 0
  35              	.LVL0:
  36 0000 2DE9F043 		push	{r4, r5, r6, r7, r8, r9, lr}
  37              	.LCFI0:
  38              		.cfi_def_cfa_offset 28
  39              		.cfi_offset 4, -28
  40              		.cfi_offset 5, -24
  41              		.cfi_offset 6, -20
  42              		.cfi_offset 7, -16
  43              		.cfi_offset 8, -12
  44              		.cfi_offset 9, -8
  45              		.cfi_offset 14, -4
  46 0004 2DED028B 		vpush.64	{d8}
  47              	.LCFI1:
  48              		.cfi_def_cfa_offset 36
  49              		.cfi_offset 80, -36
  50              		.cfi_offset 81, -32
  47:gui/gui_compass.c ****     MCompass *c = (MCompass*)b->data;
  51              		.loc 1 47 0
  52 0008 446B     		ldr	r4, [r0, #52]
  53              	.LVL1:
  48:gui/gui_compass.c ****     
  49:gui/gui_compass.c ****     makise_d_circle(b->gui->buffer,
  50:gui/gui_compass.c **** 		    c->x, c->y, c->r,
  51:gui/gui_compass.c **** 		    MC_White);
  52:gui/gui_compass.c **** 		    
  53:gui/gui_compass.c ****     makise_d_char(b->gui->buffer, 'S', c->x, c->y + c->r, &F_Arial15, MC_Red);
  54              		.loc 1 53 0
  55 000a 3B4E     		ldr	r6, .L3
  49:gui/gui_compass.c **** 		    c->x, c->y, c->r,
  56              		.loc 1 49 0
  57 000c B4F86030 		ldrh	r3, [r4, #96]
  58 0010 B4F85C20 		ldrh	r2, [r4, #92]
  59 0014 B4F85810 		ldrh	r1, [r4, #88]
  46:gui/gui_compass.c ****     MCompass *c = (MCompass*)b->data;
  60              		.loc 1 46 0
ARM GAS  /tmp/ccCE9E5W.s 			page 3


  61 0018 87B0     		sub	sp, sp, #28
  62              	.LCFI2:
  63              		.cfi_def_cfa_offset 64
  46:gui/gui_compass.c ****     MCompass *c = (MCompass*)b->data;
  64              		.loc 1 46 0
  65 001a 0546     		mov	r5, r0
  49:gui/gui_compass.c **** 		    c->x, c->y, c->r,
  66              		.loc 1 49 0
  67 001c 0068     		ldr	r0, [r0]
  68              	.LVL2:
  69 001e 4FF00109 		mov	r9, #1
  70 0022 0068     		ldr	r0, [r0]
  71 0024 CDF80090 		str	r9, [sp]
  72 0028 FFF7FEFF 		bl	makise_d_circle
  73              	.LVL3:
  74              		.loc 1 53 0
  75 002c 216E     		ldr	r1, [r4, #96]
  76 002e E36D     		ldr	r3, [r4, #92]
  77 0030 2868     		ldr	r0, [r5]
  78 0032 B4F85820 		ldrh	r2, [r4, #88]
  79 0036 0068     		ldr	r0, [r0]
  80 0038 0096     		str	r6, [sp]
  81 003a 0227     		movs	r7, #2
  82 003c 0B44     		add	r3, r3, r1
  83 003e 0197     		str	r7, [sp, #4]
  84 0040 9BB2     		uxth	r3, r3
  85 0042 5321     		movs	r1, #83
  86 0044 FFF7FEFF 		bl	makise_d_char
  87              	.LVL4:
  54:gui/gui_compass.c ****     makise_d_char(b->gui->buffer, 'N', c->x, c->y - c->r, &F_Arial15, MC_Red);
  88              		.loc 1 54 0
  89 0048 216E     		ldr	r1, [r4, #96]
  90 004a E36D     		ldr	r3, [r4, #92]
  91 004c 2868     		ldr	r0, [r5]
  92 004e B4F85820 		ldrh	r2, [r4, #88]
  93 0052 0068     		ldr	r0, [r0]
  94 0054 0197     		str	r7, [sp, #4]
  95 0056 5B1A     		subs	r3, r3, r1
  96 0058 9BB2     		uxth	r3, r3
  97 005a 0096     		str	r6, [sp]
  98 005c 4E21     		movs	r1, #78
  99 005e FFF7FEFF 		bl	makise_d_char
 100              	.LVL5:
  55:gui/gui_compass.c **** 
  56:gui/gui_compass.c ****     int32_t x = (int32_t)(c->r * cos(*c->angle));
 101              		.loc 1 56 0
 102 0062 206E     		ldr	r0, [r4, #96]
 103 0064 FFF7FEFF 		bl	__aeabi_ui2d
 104              	.LVL6:
 105 0068 636D     		ldr	r3, [r4, #84]
 106 006a 0646     		mov	r6, r0
 107 006c 1868     		ldr	r0, [r3]	@ float
 108 006e 0F46     		mov	r7, r1
 109 0070 FFF7FEFF 		bl	__aeabi_f2d
 110              	.LVL7:
 111 0074 41EC100B 		vmov	d0, r0, r1
 112 0078 41EC180B 		vmov	d8, r0, r1
ARM GAS  /tmp/ccCE9E5W.s 			page 4


 113 007c FFF7FEFF 		bl	cos
 114              	.LVL8:
 115 0080 53EC102B 		vmov	r2, r3, d0
  57:gui/gui_compass.c ****     int32_t y = (int32_t)(c->r * sin(*c->angle));
 116              		.loc 1 57 0
 117 0084 B0EE480A 		vmov.f32	s0, s16
 118 0088 F0EE680A 		vmov.f32	s1, s17
  56:gui/gui_compass.c ****     int32_t y = (int32_t)(c->r * sin(*c->angle));
 119              		.loc 1 56 0
 120 008c CDE90423 		strd	r2, [sp, #16]
 121              	.LVL9:
 122              		.loc 1 57 0
 123 0090 FFF7FEFF 		bl	sin
 124              	.LVL10:
  56:gui/gui_compass.c ****     int32_t y = (int32_t)(c->r * sin(*c->angle));
 125              		.loc 1 56 0
 126 0094 DDE90423 		ldrd	r2, [sp, #16]
 127 0098 3046     		mov	r0, r6
 128 009a 3946     		mov	r1, r7
 129              		.loc 1 57 0
 130 009c 8DED020B 		vstr.64	d0, [sp, #8]
 131              	.LVL11:
  56:gui/gui_compass.c ****     int32_t y = (int32_t)(c->r * sin(*c->angle));
 132              		.loc 1 56 0
 133 00a0 FFF7FEFF 		bl	__aeabi_dmul
 134              	.LVL12:
 135 00a4 FFF7FEFF 		bl	__aeabi_d2iz
 136              	.LVL13:
 137              		.loc 1 57 0
 138 00a8 9DED020B 		vldr.64	d0, [sp, #8]
  58:gui/gui_compass.c ****     makise_d_line(b->gui->buffer, c->x, c->y, c->x + x, c->y + y, MC_Blue);
 139              		.loc 1 58 0
 140 00ac D4F85880 		ldr	r8, [r4, #88]
 141 00b0 2B68     		ldr	r3, [r5]
 142 00b2 E46D     		ldr	r4, [r4, #92]
 143              	.LVL14:
 144 00b4 1D68     		ldr	r5, [r3]
 145              	.LVL15:
 146 00b6 00EB080C 		add	ip, r0, r8
  57:gui/gui_compass.c ****     int32_t y = (int32_t)(c->r * sin(*c->angle));
 147              		.loc 1 57 0
 148 00ba 53EC102B 		vmov	r2, r3, d0
 149              		.loc 1 58 0
 150 00be 4FF0040E 		mov	lr, #4
  57:gui/gui_compass.c ****     int32_t y = (int32_t)(c->r * sin(*c->angle));
 151              		.loc 1 57 0
 152 00c2 3046     		mov	r0, r6
 153 00c4 3946     		mov	r1, r7
 154              		.loc 1 58 0
 155 00c6 0FFA8CF6 		sxth	r6, ip
 156              	.LVL16:
 157 00ca CDF804E0 		str	lr, [sp, #4]
  57:gui/gui_compass.c ****     int32_t y = (int32_t)(c->r * sin(*c->angle));
 158              		.loc 1 57 0
 159 00ce FFF7FEFF 		bl	__aeabi_dmul
 160              	.LVL17:
 161 00d2 FFF7FEFF 		bl	__aeabi_d2iz
ARM GAS  /tmp/ccCE9E5W.s 			page 5


 162              	.LVL18:
 163              		.loc 1 58 0
 164 00d6 2044     		add	r0, r0, r4
 165 00d8 00B2     		sxth	r0, r0
 166 00da 0090     		str	r0, [sp]
 167 00dc 0FFA88F1 		sxth	r1, r8
 168 00e0 2846     		mov	r0, r5
 169 00e2 22B2     		sxth	r2, r4
 170 00e4 3346     		mov	r3, r6
 171 00e6 FFF7FEFF 		bl	makise_d_line
 172              	.LVL19:
  59:gui/gui_compass.c ****     
  60:gui/gui_compass.c ****     //printf("Compass %d dr\n", b->id);
  61:gui/gui_compass.c ****     return M_OK;
  62:gui/gui_compass.c **** }
 173              		.loc 1 62 0
 174 00ea 4846     		mov	r0, r9
 175 00ec 07B0     		add	sp, sp, #28
 176              	.LCFI3:
 177              		.cfi_def_cfa_offset 36
 178              		@ sp needed
 179 00ee BDEC028B 		vldm	sp!, {d8}
 180              	.LCFI4:
 181              		.cfi_restore 80
 182              		.cfi_restore 81
 183              		.cfi_def_cfa_offset 28
 184 00f2 BDE8F083 		pop	{r4, r5, r6, r7, r8, r9, pc}
 185              	.L4:
 186 00f6 00BF     		.align	2
 187              	.L3:
 188 00f8 00000000 		.word	F_Arial15
 189              		.cfi_endproc
 190              	.LFE127:
 192              		.section	.text.gui_create_compass,"ax",%progbits
 193              		.align	1
 194              		.p2align 2,,3
 195              		.global	gui_create_compass
 196              		.syntax unified
 197              		.thumb
 198              		.thumb_func
 199              		.fpu fpv4-sp-d16
 201              	gui_create_compass:
 202              	.LFB126:
  12:gui/gui_compass.c ****     MElement *e = &b->el;
 203              		.loc 1 12 0
 204              		.cfi_startproc
 205              		@ args = 8, pretend = 0, frame = 0
 206              		@ frame_needed = 0, uses_anonymous_args = 0
 207              	.LVL20:
 208 0000 2DE9F047 		push	{r4, r5, r6, r7, r8, r9, r10, lr}
 209              	.LCFI5:
 210              		.cfi_def_cfa_offset 32
 211              		.cfi_offset 4, -32
 212              		.cfi_offset 5, -28
 213              		.cfi_offset 6, -24
 214              		.cfi_offset 7, -20
 215              		.cfi_offset 8, -16
ARM GAS  /tmp/ccCE9E5W.s 			page 6


 216              		.cfi_offset 9, -12
 217              		.cfi_offset 10, -8
 218              		.cfi_offset 14, -4
  12:gui/gui_compass.c ****     MElement *e = &b->el;
 219              		.loc 1 12 0
 220 0004 089E     		ldr	r6, [sp, #32]
  18:gui/gui_compass.c ****     e->predraw = 0;
 221              		.loc 1 18 0
 222 0006 184D     		ldr	r5, .L7
  12:gui/gui_compass.c ****     MElement *e = &b->el;
 223              		.loc 1 12 0
 224 0008 DDF824A0 		ldr	r10, [sp, #36]
 225 000c 0446     		mov	r4, r0
 226              	.LVL21:
 227 000e 9146     		mov	r9, r2
  25:gui/gui_compass.c ****     e->position.y  = y - r;
 228              		.loc 1 25 0
 229 0010 901B     		subs	r0, r2, r6
 230              	.LVL22:
  12:gui/gui_compass.c ****     MElement *e = &b->el;
 231              		.loc 1 12 0
 232 0012 9846     		mov	r8, r3
  30:gui/gui_compass.c ****     e->id = makise_g_newid();
 233              		.loc 1 30 0
 234 0014 0122     		movs	r2, #1
 235              	.LVL23:
  26:gui/gui_compass.c ****     e->position.width  = r * 2;
 236              		.loc 1 26 0
 237 0016 9B1B     		subs	r3, r3, r6
 238              	.LVL24:
  12:gui/gui_compass.c ****     MElement *e = &b->el;
 239              		.loc 1 12 0
 240 0018 0F46     		mov	r7, r1
  14:gui/gui_compass.c **** 
 241              		.loc 1 14 0
 242 001a 0968     		ldr	r1, [r1]
 243              	.LVL25:
  18:gui/gui_compass.c ****     e->predraw = 0;
 244              		.loc 1 18 0
 245 001c E563     		str	r5, [r4, #60]
  26:gui/gui_compass.c ****     e->position.width  = r * 2;
 246              		.loc 1 26 0
 247 001e 2362     		str	r3, [r4, #32]
  19:gui/gui_compass.c ****     e->update = 0;
 248              		.loc 1 19 0
 249 0020 0025     		movs	r5, #0
  27:gui/gui_compass.c ****     e->position.height = r * 2;
 250              		.loc 1 27 0
 251 0022 06FA02F3 		lsl	r3, r6, r2
  14:gui/gui_compass.c **** 
 252              		.loc 1 14 0
 253 0026 6160     		str	r1, [r4, #4]
  30:gui/gui_compass.c ****     e->id = makise_g_newid();
 254              		.loc 1 30 0
 255 0028 2276     		strb	r2, [r4, #24]
  27:gui/gui_compass.c ****     e->position.height = r * 2;
 256              		.loc 1 27 0
ARM GAS  /tmp/ccCE9E5W.s 			page 7


 257 002a 6362     		str	r3, [r4, #36]
  28:gui/gui_compass.c **** 
 258              		.loc 1 28 0
 259 002c A362     		str	r3, [r4, #40]
  16:gui/gui_compass.c **** 
 260              		.loc 1 16 0
 261 002e A463     		str	r4, [r4, #56]
  25:gui/gui_compass.c ****     e->position.y  = y - r;
 262              		.loc 1 25 0
 263 0030 E061     		str	r0, [r4, #28]
  19:gui/gui_compass.c ****     e->update = 0;
 264              		.loc 1 19 0
 265 0032 2564     		str	r5, [r4, #64]
  20:gui/gui_compass.c ****     e->input = 0;
 266              		.loc 1 20 0
 267 0034 6564     		str	r5, [r4, #68]
  21:gui/gui_compass.c ****     e->focus = 0;
 268              		.loc 1 21 0
 269 0036 A564     		str	r5, [r4, #72]
  22:gui/gui_compass.c ****     e->free = 0;
 270              		.loc 1 22 0
 271 0038 E564     		str	r5, [r4, #76]
  23:gui/gui_compass.c ****     
 272              		.loc 1 23 0
 273 003a 2565     		str	r5, [r4, #80]
  31:gui/gui_compass.c ****     
 274              		.loc 1 31 0
 275 003c FFF7FEFF 		bl	makise_g_newid
 276              	.LVL26:
  40:gui/gui_compass.c ****     
 277              		.loc 1 40 0
 278 0040 211D     		adds	r1, r4, #4
 279              	.LVL27:
  31:gui/gui_compass.c ****     
 280              		.loc 1 31 0
 281 0042 A060     		str	r0, [r4, #8]
  33:gui/gui_compass.c ****     
 282              		.loc 1 33 0
 283 0044 84F83450 		strb	r5, [r4, #52]
  40:gui/gui_compass.c ****     
 284              		.loc 1 40 0
 285 0048 3846     		mov	r0, r7
  35:gui/gui_compass.c ****     b->y = y;
 286              		.loc 1 35 0
 287 004a C4F85890 		str	r9, [r4, #88]
  36:gui/gui_compass.c ****     b->r = r;
 288              		.loc 1 36 0
 289 004e C4F85C80 		str	r8, [r4, #92]
  37:gui/gui_compass.c ****     b->angle = angle;
 290              		.loc 1 37 0
 291 0052 2666     		str	r6, [r4, #96]
  38:gui/gui_compass.c ****     
 292              		.loc 1 38 0
 293 0054 C4F854A0 		str	r10, [r4, #84]
  40:gui/gui_compass.c ****     
 294              		.loc 1 40 0
 295 0058 FFF7FEFF 		bl	makise_g_cont_add
ARM GAS  /tmp/ccCE9E5W.s 			page 8


 296              	.LVL28:
  42:gui/gui_compass.c **** }
 297              		.loc 1 42 0
 298 005c A168     		ldr	r1, [r4, #8]
 299 005e 0348     		ldr	r0, .L7+4
  43:gui/gui_compass.c **** 
 300              		.loc 1 43 0
 301 0060 BDE8F047 		pop	{r4, r5, r6, r7, r8, r9, r10, lr}
 302              	.LCFI6:
 303              		.cfi_restore 14
 304              		.cfi_restore 10
 305              		.cfi_restore 9
 306              		.cfi_restore 8
 307              		.cfi_restore 7
 308              		.cfi_restore 6
 309              		.cfi_restore 5
 310              		.cfi_restore 4
 311              		.cfi_def_cfa_offset 0
 312              	.LVL29:
  42:gui/gui_compass.c **** }
 313              		.loc 1 42 0
 314 0064 FFF7FEBF 		b	printf
 315              	.LVL30:
 316              	.L8:
 317              		.align	2
 318              	.L7:
 319 0068 00000000 		.word	_m_compass_draw
 320 006c 00000000 		.word	.LC0
 321              		.cfi_endproc
 322              	.LFE126:
 324              		.comm	makise_color_palette,4,4
 325              		.section	.rodata.gui_create_compass.str1.4,"aMS",%progbits,1
 326              		.align	2
 327              	.LC0:
 328 0000 436F6D70 		.ascii	"Compass %d created\012\000"
 328      61737320 
 328      25642063 
 328      72656174 
 328      65640A00 
 329              		.text
 330              	.Letext0:
 331              		.file 2 "MakiseGUI/MakiseGUI/makise.h"
 332              		.file 3 "/usr/arm-none-eabi/include/machine/_default_types.h"
 333              		.file 4 "/usr/arm-none-eabi/include/sys/lock.h"
 334              		.file 5 "/usr/arm-none-eabi/include/sys/_types.h"
 335              		.file 6 "/usr/lib/gcc/arm-none-eabi/6.3.0/include/stddef.h"
 336              		.file 7 "/usr/arm-none-eabi/include/sys/reent.h"
 337              		.file 8 "/usr/arm-none-eabi/include/sys/_stdint.h"
 338              		.file 9 "Drivers/CMSIS/Include/core_cm4.h"
 339              		.file 10 "Drivers/CMSIS/Device/ST/STM32F4xx/Include/system_stm32f4xx.h"
 340              		.file 11 "Drivers/CMSIS/Device/ST/STM32F4xx/Include/stm32f401xe.h"
 341              		.file 12 "Drivers/STM32F4xx_HAL_Driver/Inc/stm32f4xx_hal_def.h"
 342              		.file 13 "Drivers/STM32F4xx_HAL_Driver/Inc/stm32f4xx_hal_dma.h"
 343              		.file 14 "Drivers/STM32F4xx_HAL_Driver/Inc/stm32f4xx_hal_spi.h"
 344              		.file 15 "Drivers/STM32F4xx_HAL_Driver/Inc/stm32f4xx_hal_tim.h"
 345              		.file 16 "Inc/spi.h"
 346              		.file 17 "Inc/tim.h"
ARM GAS  /tmp/ccCE9E5W.s 			page 9


 347              		.file 18 "MakiseGUI/MakiseGUI/ILI9340C/ili9340.h"
 348              		.file 19 "MakiseGUI/MakiseGUI/makise_colors.h"
 349              		.file 20 "MakiseGUI/MakiseGUI/makise_text.h"
 350              		.file 21 "MakiseGUI/MakiseGUI/fonts/fonts.h"
 351              		.file 22 "MakiseGUI/MakiseGUI/gui/makise_gui.h"
 352              		.file 23 "MakiseGUI/MakiseGUI/gui/makise_gui_input.h"
 353              		.file 24 "MakiseGUI/MakiseGUI/gui/makise_gui_container.h"
 354              		.file 25 "MakiseGUI/MakiseGUI/gui/makise_gui_elements.h"
 355              		.file 26 "gui/gui.h"
 356              		.file 27 "gui/gui_custom.h"
 357              		.file 28 "MakiseGUI/MakiseGUI/makise_primitives.h"
 358              		.file 29 "/usr/arm-none-eabi/include/math.h"
 359              		.file 30 "/usr/arm-none-eabi/include/stdio.h"
ARM GAS  /tmp/ccCE9E5W.s 			page 10


DEFINED SYMBOLS
                            *ABS*:0000000000000000 gui_compass.c
     /tmp/ccCE9E5W.s:20     .text._m_compass_draw:0000000000000000 $t
     /tmp/ccCE9E5W.s:28     .text._m_compass_draw:0000000000000000 _m_compass_draw
     /tmp/ccCE9E5W.s:188    .text._m_compass_draw:00000000000000f8 $d
     /tmp/ccCE9E5W.s:193    .text.gui_create_compass:0000000000000000 $t
     /tmp/ccCE9E5W.s:201    .text.gui_create_compass:0000000000000000 gui_create_compass
     /tmp/ccCE9E5W.s:319    .text.gui_create_compass:0000000000000068 $d
                            *COM*:0000000000000004 makise_color_palette
     /tmp/ccCE9E5W.s:326    .rodata.gui_create_compass.str1.4:0000000000000000 $d
                     .debug_frame:0000000000000010 $d

UNDEFINED SYMBOLS
__aeabi_ui2d
__aeabi_f2d
__aeabi_dmul
__aeabi_d2iz
makise_d_circle
makise_d_char
cos
sin
makise_d_line
F_Arial15
makise_g_newid
makise_g_cont_add
printf
