ARM GAS  /tmp/ccczwsg0.s 			page 1


   1              		.cpu cortex-m4
   2              		.eabi_attribute 27, 1
   3              		.eabi_attribute 28, 1
   4              		.eabi_attribute 23, 1
   5              		.eabi_attribute 24, 1
   6              		.eabi_attribute 25, 1
   7              		.eabi_attribute 26, 1
   8              		.eabi_attribute 30, 2
   9              		.eabi_attribute 34, 1
  10              		.eabi_attribute 18, 4
  11              		.file	"ili9340.c"
  12              		.text
  13              	.Ltext0:
  14              		.cfi_sections	.debug_frame
  15              		.section	.text.ili9340_awake,"ax",%progbits
  16              		.align	1
  17              		.p2align 2,,3
  18              		.global	ili9340_awake
  19              		.syntax unified
  20              		.thumb
  21              		.thumb_func
  22              		.fpu fpv4-sp-d16
  24              	ili9340_awake:
  25              	.LFB136:
  26              		.file 1 "MakiseGUI/MakiseGUI/ILI9340C/ili9340.c"
   1:MakiseGUI/MakiseGUI/ILI9340C/ili9340.c **** //#ifdef MAKISE_ILI9340_USE
   2:MakiseGUI/MakiseGUI/ILI9340C/ili9340.c **** #include "ili9340.h"
   3:MakiseGUI/MakiseGUI/ILI9340C/ili9340.c **** #include "stm32f4xx_hal_tim.h"
   4:MakiseGUI/MakiseGUI/ILI9340C/ili9340.c **** #include "dma.h"
   5:MakiseGUI/MakiseGUI/ILI9340C/ili9340.c **** 
   6:MakiseGUI/MakiseGUI/ILI9340C/ili9340.c **** extern inline void _ili9340_delay(uint32_t x) { HAL_Delay(x); }
   7:MakiseGUI/MakiseGUI/ILI9340C/ili9340.c **** extern inline void _ili9340_rst(uint8_t st){HAL_GPIO_WritePin(ILI9340_RST, st ? GPIO_PIN_SET : GPIO
   8:MakiseGUI/MakiseGUI/ILI9340C/ili9340.c **** extern inline void _ili9340_cs(uint8_t st){HAL_GPIO_WritePin(ILI9340_CS, st ? GPIO_PIN_SET : GPIO_P
   9:MakiseGUI/MakiseGUI/ILI9340C/ili9340.c **** extern inline void _ili9340_dc(uint8_t st){HAL_GPIO_WritePin(ILI9340_DC, st ? GPIO_PIN_SET : GPIO_P
  10:MakiseGUI/MakiseGUI/ILI9340C/ili9340.c **** 
  11:MakiseGUI/MakiseGUI/ILI9340C/ili9340.c **** uint8_t ili9340_backlight = 0;
  12:MakiseGUI/MakiseGUI/ILI9340C/ili9340.c **** 
  13:MakiseGUI/MakiseGUI/ILI9340C/ili9340.c **** void ili9340_driver(MakiseDriver * d)
  14:MakiseGUI/MakiseGUI/ILI9340C/ili9340.c **** {
  15:MakiseGUI/MakiseGUI/ILI9340C/ili9340.c ****     d->lcd_height    = 240;
  16:MakiseGUI/MakiseGUI/ILI9340C/ili9340.c ****     d->lcd_width     = 320;
  17:MakiseGUI/MakiseGUI/ILI9340C/ili9340.c ****     d->buffer_height = MAKISE_BUF_H;
  18:MakiseGUI/MakiseGUI/ILI9340C/ili9340.c ****     d->buffer_width  = MAKISE_BUF_W;
  19:MakiseGUI/MakiseGUI/ILI9340C/ili9340.c ****     d->pixeldepth    = 16;
  20:MakiseGUI/MakiseGUI/ILI9340C/ili9340.c ****     d->buffer        = 0;
  21:MakiseGUI/MakiseGUI/ILI9340C/ili9340.c ****     d->size          = MAKISE_BUF_H * MAKISE_BUF_W * 2;
  22:MakiseGUI/MakiseGUI/ILI9340C/ili9340.c ****     d->posx          = 0;
  23:MakiseGUI/MakiseGUI/ILI9340C/ili9340.c ****     d->posy          = 321;
  24:MakiseGUI/MakiseGUI/ILI9340C/ili9340.c ****     d->init          = &ili9340_init;
  25:MakiseGUI/MakiseGUI/ILI9340C/ili9340.c ****     d->start         = &ili9340_start;
  26:MakiseGUI/MakiseGUI/ILI9340C/ili9340.c ****     d->sleep         = &ili9340_sleep;
  27:MakiseGUI/MakiseGUI/ILI9340C/ili9340.c ****     d->awake         = &ili9340_awake;
  28:MakiseGUI/MakiseGUI/ILI9340C/ili9340.c ****     d->set_backlight = &ili9340_set_backlight;
  29:MakiseGUI/MakiseGUI/ILI9340C/ili9340.c **** }
  30:MakiseGUI/MakiseGUI/ILI9340C/ili9340.c **** 
  31:MakiseGUI/MakiseGUI/ILI9340C/ili9340.c **** uint8_t ili9340_init(MakiseGUI* gui)
  32:MakiseGUI/MakiseGUI/ILI9340C/ili9340.c **** {
ARM GAS  /tmp/ccczwsg0.s 			page 2


  33:MakiseGUI/MakiseGUI/ILI9340C/ili9340.c ****     _ili9340_rst(1);
  34:MakiseGUI/MakiseGUI/ILI9340C/ili9340.c ****     _ili9340_delay(5);
  35:MakiseGUI/MakiseGUI/ILI9340C/ili9340.c ****     _ili9340_rst(0);
  36:MakiseGUI/MakiseGUI/ILI9340C/ili9340.c ****     _ili9340_delay(20);
  37:MakiseGUI/MakiseGUI/ILI9340C/ili9340.c ****     _ili9340_rst(1);
  38:MakiseGUI/MakiseGUI/ILI9340C/ili9340.c ****     _ili9340_delay(150);
  39:MakiseGUI/MakiseGUI/ILI9340C/ili9340.c **** 
  40:MakiseGUI/MakiseGUI/ILI9340C/ili9340.c ****     ili9340_write_command(0x01); //software reset
  41:MakiseGUI/MakiseGUI/ILI9340C/ili9340.c ****     _ili9340_delay(5);
  42:MakiseGUI/MakiseGUI/ILI9340C/ili9340.c ****     ili9340_write_command(0x28);
  43:MakiseGUI/MakiseGUI/ILI9340C/ili9340.c ****     // display off
  44:MakiseGUI/MakiseGUI/ILI9340C/ili9340.c ****     //---------------------------------------------------------
  45:MakiseGUI/MakiseGUI/ILI9340C/ili9340.c ****     // magic?
  46:MakiseGUI/MakiseGUI/ILI9340C/ili9340.c ****     ili9340_write_command(0xcf);
  47:MakiseGUI/MakiseGUI/ILI9340C/ili9340.c ****     ili9340_write_data(0x00);
  48:MakiseGUI/MakiseGUI/ILI9340C/ili9340.c ****     ili9340_write_data(0x83);
  49:MakiseGUI/MakiseGUI/ILI9340C/ili9340.c ****     ili9340_write_data(0x30);
  50:MakiseGUI/MakiseGUI/ILI9340C/ili9340.c **** 
  51:MakiseGUI/MakiseGUI/ILI9340C/ili9340.c ****     ili9340_write_command(0xed);
  52:MakiseGUI/MakiseGUI/ILI9340C/ili9340.c ****     ili9340_write_data(0x64);
  53:MakiseGUI/MakiseGUI/ILI9340C/ili9340.c ****     ili9340_write_data(0x03);
  54:MakiseGUI/MakiseGUI/ILI9340C/ili9340.c ****     ili9340_write_data(0x12);
  55:MakiseGUI/MakiseGUI/ILI9340C/ili9340.c ****     ili9340_write_data(0x81);
  56:MakiseGUI/MakiseGUI/ILI9340C/ili9340.c ****     ili9340_write_command(0xe8);
  57:MakiseGUI/MakiseGUI/ILI9340C/ili9340.c ****     ili9340_write_data(0x85);
  58:MakiseGUI/MakiseGUI/ILI9340C/ili9340.c ****     ili9340_write_data(0x01);
  59:MakiseGUI/MakiseGUI/ILI9340C/ili9340.c ****     ili9340_write_data(0x79);
  60:MakiseGUI/MakiseGUI/ILI9340C/ili9340.c ****     ili9340_write_command(0xcb);
  61:MakiseGUI/MakiseGUI/ILI9340C/ili9340.c ****     ili9340_write_data(0x39);
  62:MakiseGUI/MakiseGUI/ILI9340C/ili9340.c ****     ili9340_write_data(0x2c);
  63:MakiseGUI/MakiseGUI/ILI9340C/ili9340.c ****     ili9340_write_data(0x00);
  64:MakiseGUI/MakiseGUI/ILI9340C/ili9340.c ****     ili9340_write_data(0x34);
  65:MakiseGUI/MakiseGUI/ILI9340C/ili9340.c ****     ili9340_write_data(0x02);
  66:MakiseGUI/MakiseGUI/ILI9340C/ili9340.c ****     ili9340_write_command(0xf7);
  67:MakiseGUI/MakiseGUI/ILI9340C/ili9340.c ****     ili9340_write_data(0x20);
  68:MakiseGUI/MakiseGUI/ILI9340C/ili9340.c ****     ili9340_write_command(0xea);
  69:MakiseGUI/MakiseGUI/ILI9340C/ili9340.c ****     ili9340_write_data(0x00);
  70:MakiseGUI/MakiseGUI/ILI9340C/ili9340.c ****     ili9340_write_data(0x00);
  71:MakiseGUI/MakiseGUI/ILI9340C/ili9340.c ****     //------------power control------------------------------
  72:MakiseGUI/MakiseGUI/ILI9340C/ili9340.c ****     ili9340_write_command(0xc0); //power control
  73:MakiseGUI/MakiseGUI/ILI9340C/ili9340.c ****     ili9340_write_data(0x26);
  74:MakiseGUI/MakiseGUI/ILI9340C/ili9340.c ****     ili9340_write_command(0xc1); //power control
  75:MakiseGUI/MakiseGUI/ILI9340C/ili9340.c ****     ili9340_write_data(0x11);
  76:MakiseGUI/MakiseGUI/ILI9340C/ili9340.c ****     //--------------VCOM
  77:MakiseGUI/MakiseGUI/ILI9340C/ili9340.c ****     ili9340_write_command(0xc5); //vcom control
  78:MakiseGUI/MakiseGUI/ILI9340C/ili9340.c ****     ili9340_write_data(0x35);//35
  79:MakiseGUI/MakiseGUI/ILI9340C/ili9340.c ****     ili9340_write_data(0x3e);//3E
  80:MakiseGUI/MakiseGUI/ILI9340C/ili9340.c ****     ili9340_write_command(0xc7); //vcom control
  81:MakiseGUI/MakiseGUI/ILI9340C/ili9340.c ****     ili9340_write_data(0xbe); // 0x94
  82:MakiseGUI/MakiseGUI/ILI9340C/ili9340.c ****     //------------memory access control------------------------
  83:MakiseGUI/MakiseGUI/ILI9340C/ili9340.c ****     ili9340_write_command(0x36);
  84:MakiseGUI/MakiseGUI/ILI9340C/ili9340.c ****     // memory access control
  85:MakiseGUI/MakiseGUI/ILI9340C/ili9340.c ****     ili9340_write_data(0b11101000); //0048 my,mx,mv,ml,BGR,mh,0.0
  86:MakiseGUI/MakiseGUI/ILI9340C/ili9340.c ****     ili9340_write_command(0x3a); // pixel format set
  87:MakiseGUI/MakiseGUI/ILI9340C/ili9340.c ****     ili9340_write_data(0x55);//16bit /pixel
  88:MakiseGUI/MakiseGUI/ILI9340C/ili9340.c ****     //----------------- frame rate------------------------------
  89:MakiseGUI/MakiseGUI/ILI9340C/ili9340.c ****     ili9340_write_command(0xb1);
ARM GAS  /tmp/ccczwsg0.s 			page 3


  90:MakiseGUI/MakiseGUI/ILI9340C/ili9340.c ****     // frame rate
  91:MakiseGUI/MakiseGUI/ILI9340C/ili9340.c ****     ili9340_write_data(0x00);
  92:MakiseGUI/MakiseGUI/ILI9340C/ili9340.c ****     ili9340_write_data(0x1B); //70
  93:MakiseGUI/MakiseGUI/ILI9340C/ili9340.c ****     //----------------Gamma---------------------------------
  94:MakiseGUI/MakiseGUI/ILI9340C/ili9340.c ****     ili9340_write_command(0xf2); // 3Gamma Function Disable
  95:MakiseGUI/MakiseGUI/ILI9340C/ili9340.c ****     ili9340_write_data(0x08);
  96:MakiseGUI/MakiseGUI/ILI9340C/ili9340.c ****     ili9340_write_command(0x26);
  97:MakiseGUI/MakiseGUI/ILI9340C/ili9340.c ****     ili9340_write_data(0x02); // gamma set 4 gamma curve 01/02/04/08
  98:MakiseGUI/MakiseGUI/ILI9340C/ili9340.c **** 
  99:MakiseGUI/MakiseGUI/ILI9340C/ili9340.c ****     ili9340_write_command(0xE0); //positive gamma correction
 100:MakiseGUI/MakiseGUI/ILI9340C/ili9340.c ****     ili9340_write_data(0x0F); 
 101:MakiseGUI/MakiseGUI/ILI9340C/ili9340.c ****     ili9340_write_data(0x31); 
 102:MakiseGUI/MakiseGUI/ILI9340C/ili9340.c ****     ili9340_write_data(0x2B); 
 103:MakiseGUI/MakiseGUI/ILI9340C/ili9340.c ****     ili9340_write_data(0x0C); 
 104:MakiseGUI/MakiseGUI/ILI9340C/ili9340.c ****     ili9340_write_data(0x0E); 
 105:MakiseGUI/MakiseGUI/ILI9340C/ili9340.c ****     ili9340_write_data(0x08); 
 106:MakiseGUI/MakiseGUI/ILI9340C/ili9340.c ****     ili9340_write_data(0x4E); 
 107:MakiseGUI/MakiseGUI/ILI9340C/ili9340.c ****     ili9340_write_data(0xF1); 
 108:MakiseGUI/MakiseGUI/ILI9340C/ili9340.c ****     ili9340_write_data(0x37); 
 109:MakiseGUI/MakiseGUI/ILI9340C/ili9340.c ****     ili9340_write_data(0x07); 
 110:MakiseGUI/MakiseGUI/ILI9340C/ili9340.c ****     ili9340_write_data(0x10); 
 111:MakiseGUI/MakiseGUI/ILI9340C/ili9340.c ****     ili9340_write_data(0x03); 
 112:MakiseGUI/MakiseGUI/ILI9340C/ili9340.c ****     ili9340_write_data(0x0E); 
 113:MakiseGUI/MakiseGUI/ILI9340C/ili9340.c ****     ili9340_write_data(0x09); 
 114:MakiseGUI/MakiseGUI/ILI9340C/ili9340.c ****     ili9340_write_data(0x00); 
 115:MakiseGUI/MakiseGUI/ILI9340C/ili9340.c ****     ili9340_write_command(0xE1); //negamma correction
 116:MakiseGUI/MakiseGUI/ILI9340C/ili9340.c ****     ili9340_write_data(0x00); 
 117:MakiseGUI/MakiseGUI/ILI9340C/ili9340.c ****     ili9340_write_data(0x0E); 
 118:MakiseGUI/MakiseGUI/ILI9340C/ili9340.c ****     ili9340_write_data(0x14); 
 119:MakiseGUI/MakiseGUI/ILI9340C/ili9340.c ****     ili9340_write_data(0x03); 
 120:MakiseGUI/MakiseGUI/ILI9340C/ili9340.c ****     ili9340_write_data(0x11); 
 121:MakiseGUI/MakiseGUI/ILI9340C/ili9340.c ****     ili9340_write_data(0x07); 
 122:MakiseGUI/MakiseGUI/ILI9340C/ili9340.c ****     ili9340_write_data(0x31); 
 123:MakiseGUI/MakiseGUI/ILI9340C/ili9340.c ****     ili9340_write_data(0xC1); 
 124:MakiseGUI/MakiseGUI/ILI9340C/ili9340.c ****     ili9340_write_data(0x48); 
 125:MakiseGUI/MakiseGUI/ILI9340C/ili9340.c ****     ili9340_write_data(0x08); 
 126:MakiseGUI/MakiseGUI/ILI9340C/ili9340.c ****     ili9340_write_data(0x0F); 
 127:MakiseGUI/MakiseGUI/ILI9340C/ili9340.c ****     ili9340_write_data(0x0C); 
 128:MakiseGUI/MakiseGUI/ILI9340C/ili9340.c ****     ili9340_write_data(0x31); 
 129:MakiseGUI/MakiseGUI/ILI9340C/ili9340.c ****     ili9340_write_data(0x36); 
 130:MakiseGUI/MakiseGUI/ILI9340C/ili9340.c ****     ili9340_write_data(0x0F); 
 131:MakiseGUI/MakiseGUI/ILI9340C/ili9340.c ****     //--------------ddram ---------------------
 132:MakiseGUI/MakiseGUI/ILI9340C/ili9340.c ****     ili9340_write_command(0x2a);
 133:MakiseGUI/MakiseGUI/ILI9340C/ili9340.c ****     // column set
 134:MakiseGUI/MakiseGUI/ILI9340C/ili9340.c ****     // size = 239
 135:MakiseGUI/MakiseGUI/ILI9340C/ili9340.c ****     ili9340_write_data(0x00);
 136:MakiseGUI/MakiseGUI/ILI9340C/ili9340.c ****     ili9340_write_data(0x00);
 137:MakiseGUI/MakiseGUI/ILI9340C/ili9340.c ****     ili9340_write_data(0x01);
 138:MakiseGUI/MakiseGUI/ILI9340C/ili9340.c ****     ili9340_write_data(0x3F);
 139:MakiseGUI/MakiseGUI/ILI9340C/ili9340.c ****     ili9340_write_command(0x2b);
 140:MakiseGUI/MakiseGUI/ILI9340C/ili9340.c ****     // page address set
 141:MakiseGUI/MakiseGUI/ILI9340C/ili9340.c ****     // size = 319
 142:MakiseGUI/MakiseGUI/ILI9340C/ili9340.c ****     ili9340_write_data(0x00);
 143:MakiseGUI/MakiseGUI/ILI9340C/ili9340.c ****     ili9340_write_data(0x00);
 144:MakiseGUI/MakiseGUI/ILI9340C/ili9340.c ****     ili9340_write_data(0x00);
 145:MakiseGUI/MakiseGUI/ILI9340C/ili9340.c ****     ili9340_write_data(0xEF);
 146:MakiseGUI/MakiseGUI/ILI9340C/ili9340.c ****     ili9340_write_command(0x34);
ARM GAS  /tmp/ccczwsg0.s 			page 4


 147:MakiseGUI/MakiseGUI/ILI9340C/ili9340.c ****     ili9340_write_command(0x35);
 148:MakiseGUI/MakiseGUI/ILI9340C/ili9340.c ****     ili9340_write_data(0x01);
 149:MakiseGUI/MakiseGUI/ILI9340C/ili9340.c ****     // tearing effect off
 150:MakiseGUI/MakiseGUI/ILI9340C/ili9340.c ****     // tearing effect on
 151:MakiseGUI/MakiseGUI/ILI9340C/ili9340.c ****     // ili9340_write_command(0xb4); // display inversion
 152:MakiseGUI/MakiseGUI/ILI9340C/ili9340.c ****     ili9340_write_command(0xb7); //entry mode set
 153:MakiseGUI/MakiseGUI/ILI9340C/ili9340.c ****     ili9340_write_data(0x07);
 154:MakiseGUI/MakiseGUI/ILI9340C/ili9340.c ****     //-----------------display---------------------
 155:MakiseGUI/MakiseGUI/ILI9340C/ili9340.c ****     ili9340_write_command(0xb6);
 156:MakiseGUI/MakiseGUI/ILI9340C/ili9340.c ****     // display function control
 157:MakiseGUI/MakiseGUI/ILI9340C/ili9340.c ****     ili9340_write_data(0x0a);
 158:MakiseGUI/MakiseGUI/ILI9340C/ili9340.c ****     ili9340_write_data(0x82);
 159:MakiseGUI/MakiseGUI/ILI9340C/ili9340.c ****     ili9340_write_data(0x27);
 160:MakiseGUI/MakiseGUI/ILI9340C/ili9340.c ****     ili9340_write_data(0x00);
 161:MakiseGUI/MakiseGUI/ILI9340C/ili9340.c ****     ili9340_write_command(0x11); //sleep out
 162:MakiseGUI/MakiseGUI/ILI9340C/ili9340.c ****     _ili9340_delay(100);
 163:MakiseGUI/MakiseGUI/ILI9340C/ili9340.c ****     ili9340_write_command(0x29); // display on
 164:MakiseGUI/MakiseGUI/ILI9340C/ili9340.c ****     _ili9340_delay(100);
 165:MakiseGUI/MakiseGUI/ILI9340C/ili9340.c **** 
 166:MakiseGUI/MakiseGUI/ILI9340C/ili9340.c ****     
 167:MakiseGUI/MakiseGUI/ILI9340C/ili9340.c ****     return HAL_OK;
 168:MakiseGUI/MakiseGUI/ILI9340C/ili9340.c **** }
 169:MakiseGUI/MakiseGUI/ILI9340C/ili9340.c **** void _ili9340_setAddrWindow(uint16_t x0, uint16_t y0, uint16_t x1,
 170:MakiseGUI/MakiseGUI/ILI9340C/ili9340.c **** 		   uint16_t y1)
 171:MakiseGUI/MakiseGUI/ILI9340C/ili9340.c **** {
 172:MakiseGUI/MakiseGUI/ILI9340C/ili9340.c ****     uint8_t _ili9340_addr_kek[2];
 173:MakiseGUI/MakiseGUI/ILI9340C/ili9340.c **** 
 174:MakiseGUI/MakiseGUI/ILI9340C/ili9340.c ****     _ili9340_cs(0);
 175:MakiseGUI/MakiseGUI/ILI9340C/ili9340.c ****     ili9340_write_command(ILI9340_CASET); // Column addr set
 176:MakiseGUI/MakiseGUI/ILI9340C/ili9340.c ****     
 177:MakiseGUI/MakiseGUI/ILI9340C/ili9340.c ****     _ili9340_dc(1);
 178:MakiseGUI/MakiseGUI/ILI9340C/ili9340.c ****     _ili9340_addr_kek[0] = x0 >> 8;
 179:MakiseGUI/MakiseGUI/ILI9340C/ili9340.c ****     _ili9340_addr_kek[1] = x0;
 180:MakiseGUI/MakiseGUI/ILI9340C/ili9340.c ****     _ili9340_addr_kek[2] = x1 >> 8;
 181:MakiseGUI/MakiseGUI/ILI9340C/ili9340.c ****     _ili9340_addr_kek[3] = x1;
 182:MakiseGUI/MakiseGUI/ILI9340C/ili9340.c ****     HAL_SPI_Transmit(&ILI9340_SPI, (uint8_t*)_ili9340_addr_kek, 4, 10);
 183:MakiseGUI/MakiseGUI/ILI9340C/ili9340.c **** 
 184:MakiseGUI/MakiseGUI/ILI9340C/ili9340.c ****     ili9340_write_command(ILI9340_PASET); // Row addr set
 185:MakiseGUI/MakiseGUI/ILI9340C/ili9340.c **** 
 186:MakiseGUI/MakiseGUI/ILI9340C/ili9340.c ****     _ili9340_dc(1);
 187:MakiseGUI/MakiseGUI/ILI9340C/ili9340.c ****     _ili9340_addr_kek[0] = y0 >> 8;
 188:MakiseGUI/MakiseGUI/ILI9340C/ili9340.c ****     _ili9340_addr_kek[1] = y0;
 189:MakiseGUI/MakiseGUI/ILI9340C/ili9340.c ****     _ili9340_addr_kek[2] = y1 >>8;
 190:MakiseGUI/MakiseGUI/ILI9340C/ili9340.c ****     _ili9340_addr_kek[3] = y1;
 191:MakiseGUI/MakiseGUI/ILI9340C/ili9340.c ****     HAL_SPI_Transmit(&ILI9340_SPI, (uint8_t*)_ili9340_addr_kek, 4, 10);
 192:MakiseGUI/MakiseGUI/ILI9340C/ili9340.c **** 
 193:MakiseGUI/MakiseGUI/ILI9340C/ili9340.c ****     ili9340_write_command(ILI9340_RAMWR); // write to RAM
 194:MakiseGUI/MakiseGUI/ILI9340C/ili9340.c **** }
 195:MakiseGUI/MakiseGUI/ILI9340C/ili9340.c **** 
 196:MakiseGUI/MakiseGUI/ILI9340C/ili9340.c **** void ili9340_tx(MakiseDriver* d)
 197:MakiseGUI/MakiseGUI/ILI9340C/ili9340.c **** {    
 198:MakiseGUI/MakiseGUI/ILI9340C/ili9340.c ****     d->posy = 0;   
 199:MakiseGUI/MakiseGUI/ILI9340C/ili9340.c ****     
 200:MakiseGUI/MakiseGUI/ILI9340C/ili9340.c ****     if(d->gui->draw != 0)
 201:MakiseGUI/MakiseGUI/ILI9340C/ili9340.c ****     {
 202:MakiseGUI/MakiseGUI/ILI9340C/ili9340.c **** 	d->gui->draw(d->gui);
 203:MakiseGUI/MakiseGUI/ILI9340C/ili9340.c ****     }
ARM GAS  /tmp/ccczwsg0.s 			page 5


 204:MakiseGUI/MakiseGUI/ILI9340C/ili9340.c ****     
 205:MakiseGUI/MakiseGUI/ILI9340C/ili9340.c ****     _ili9340_setAddrWindow(0, d->posy, d->lcd_width, d->buffer_height - 1 + d->posy);
 206:MakiseGUI/MakiseGUI/ILI9340C/ili9340.c ****     makise_render(d->gui, 0);
 207:MakiseGUI/MakiseGUI/ILI9340C/ili9340.c **** 
 208:MakiseGUI/MakiseGUI/ILI9340C/ili9340.c ****     _ili9340_dc(1);
 209:MakiseGUI/MakiseGUI/ILI9340C/ili9340.c ****     _ili9340_cs(0);
 210:MakiseGUI/MakiseGUI/ILI9340C/ili9340.c **** 
 211:MakiseGUI/MakiseGUI/ILI9340C/ili9340.c ****     HAL_SPI_Transmit_DMA(&ILI9340_SPI, d->buffer, d->size);
 212:MakiseGUI/MakiseGUI/ILI9340C/ili9340.c **** }
 213:MakiseGUI/MakiseGUI/ILI9340C/ili9340.c **** 
 214:MakiseGUI/MakiseGUI/ILI9340C/ili9340.c **** uint8_t ili9340_start(MakiseGUI* gui)
 215:MakiseGUI/MakiseGUI/ILI9340C/ili9340.c **** {
 216:MakiseGUI/MakiseGUI/ILI9340C/ili9340.c ****     if(ILI9340_LED_USE_PWM)
 217:MakiseGUI/MakiseGUI/ILI9340C/ili9340.c ****     {
 218:MakiseGUI/MakiseGUI/ILI9340C/ili9340.c **** 	HAL_TIM_Base_Start(ILI9340_LED_PWM);
 219:MakiseGUI/MakiseGUI/ILI9340C/ili9340.c **** 	HAL_TIM_PWM_Start(ILI9340_LED_PWM, ILI9340_LED_PWM_CHANNEL);
 220:MakiseGUI/MakiseGUI/ILI9340C/ili9340.c ****     }
 221:MakiseGUI/MakiseGUI/ILI9340C/ili9340.c **** //    ili9340_set_backlight(1);
 222:MakiseGUI/MakiseGUI/ILI9340C/ili9340.c ****     ili9340_set_backlight(gui, 31);
 223:MakiseGUI/MakiseGUI/ILI9340C/ili9340.c ****     ili9340_tx(gui->driver);
 224:MakiseGUI/MakiseGUI/ILI9340C/ili9340.c **** 
 225:MakiseGUI/MakiseGUI/ILI9340C/ili9340.c ****     return M_OK;
 226:MakiseGUI/MakiseGUI/ILI9340C/ili9340.c **** }
 227:MakiseGUI/MakiseGUI/ILI9340C/ili9340.c **** uint8_t ili9340_sleep(MakiseGUI* gui)
 228:MakiseGUI/MakiseGUI/ILI9340C/ili9340.c **** {
 229:MakiseGUI/MakiseGUI/ILI9340C/ili9340.c ****     return M_OK;
 230:MakiseGUI/MakiseGUI/ILI9340C/ili9340.c **** }
 231:MakiseGUI/MakiseGUI/ILI9340C/ili9340.c **** uint8_t ili9340_awake(MakiseGUI* gui)
 232:MakiseGUI/MakiseGUI/ILI9340C/ili9340.c **** {
  27              		.loc 1 232 0
  28              		.cfi_startproc
  29              		@ args = 0, pretend = 0, frame = 0
  30              		@ frame_needed = 0, uses_anonymous_args = 0
  31              		@ link register save eliminated.
  32              	.LVL0:
 233:MakiseGUI/MakiseGUI/ILI9340C/ili9340.c ****     return M_OK;
 234:MakiseGUI/MakiseGUI/ILI9340C/ili9340.c **** }
  33              		.loc 1 234 0
  34 0000 0120     		movs	r0, #1
  35              	.LVL1:
  36 0002 7047     		bx	lr
  37              		.cfi_endproc
  38              	.LFE136:
  40              		.section	.text.ili9340_set_backlight,"ax",%progbits
  41              		.align	1
  42              		.p2align 2,,3
  43              		.global	ili9340_set_backlight
  44              		.syntax unified
  45              		.thumb
  46              		.thumb_func
  47              		.fpu fpv4-sp-d16
  49              	ili9340_set_backlight:
  50              	.LFB137:
 235:MakiseGUI/MakiseGUI/ILI9340C/ili9340.c **** uint8_t ili9340_set_backlight(MakiseGUI* gui, uint8_t val)
 236:MakiseGUI/MakiseGUI/ILI9340C/ili9340.c **** {
  51              		.loc 1 236 0
  52              		.cfi_startproc
ARM GAS  /tmp/ccczwsg0.s 			page 6


  53              		@ args = 0, pretend = 0, frame = 0
  54              		@ frame_needed = 0, uses_anonymous_args = 0
  55              		@ link register save eliminated.
  56              	.LVL2:
 237:MakiseGUI/MakiseGUI/ILI9340C/ili9340.c ****     if(ILI9340_LED_USE_PWM)
 238:MakiseGUI/MakiseGUI/ILI9340C/ili9340.c **** 	__HAL_TIM_SET_COMPARE(ILI9340_LED_PWM, ILI9340_LED_PWM_CHANNEL, val);
  57              		.loc 1 238 0
  58 0000 024B     		ldr	r3, .L3
  59 0002 1B68     		ldr	r3, [r3]
 239:MakiseGUI/MakiseGUI/ILI9340C/ili9340.c ****     else
 240:MakiseGUI/MakiseGUI/ILI9340C/ili9340.c **** 	HAL_GPIO_WritePin(ILI9340_LED, val ? GPIO_PIN_SET : GPIO_PIN_RESET);
 241:MakiseGUI/MakiseGUI/ILI9340C/ili9340.c ****     return M_OK;
 242:MakiseGUI/MakiseGUI/ILI9340C/ili9340.c **** }
  60              		.loc 1 242 0
  61 0004 0120     		movs	r0, #1
  62              	.LVL3:
 238:MakiseGUI/MakiseGUI/ILI9340C/ili9340.c ****     else
  63              		.loc 1 238 0
  64 0006 1964     		str	r1, [r3, #64]
  65              		.loc 1 242 0
  66 0008 7047     		bx	lr
  67              	.L4:
  68 000a 00BF     		.align	2
  69              	.L3:
  70 000c 00000000 		.word	htim3
  71              		.cfi_endproc
  72              	.LFE137:
  74              		.section	.text.ili9340_sleep,"ax",%progbits
  75              		.align	1
  76              		.p2align 2,,3
  77              		.global	ili9340_sleep
  78              		.syntax unified
  79              		.thumb
  80              		.thumb_func
  81              		.fpu fpv4-sp-d16
  83              	ili9340_sleep:
  84              	.LFB143:
  85              		.cfi_startproc
  86              		@ args = 0, pretend = 0, frame = 0
  87              		@ frame_needed = 0, uses_anonymous_args = 0
  88              		@ link register save eliminated.
  89 0000 0120     		movs	r0, #1
  90 0002 7047     		bx	lr
  91              		.cfi_endproc
  92              	.LFE143:
  94              		.section	.text.ili9340_start,"ax",%progbits
  95              		.align	1
  96              		.p2align 2,,3
  97              		.global	ili9340_start
  98              		.syntax unified
  99              		.thumb
 100              		.thumb_func
 101              		.fpu fpv4-sp-d16
 103              	ili9340_start:
 104              	.LFB134:
 215:MakiseGUI/MakiseGUI/ILI9340C/ili9340.c ****     if(ILI9340_LED_USE_PWM)
 105              		.loc 1 215 0
ARM GAS  /tmp/ccczwsg0.s 			page 7


 106              		.cfi_startproc
 107              		@ args = 0, pretend = 0, frame = 8
 108              		@ frame_needed = 0, uses_anonymous_args = 0
 109              	.LVL4:
 215:MakiseGUI/MakiseGUI/ILI9340C/ili9340.c ****     if(ILI9340_LED_USE_PWM)
 110              		.loc 1 215 0
 111 0000 2DE9F043 		push	{r4, r5, r6, r7, r8, r9, lr}
 112              	.LCFI0:
 113              		.cfi_def_cfa_offset 28
 114              		.cfi_offset 4, -28
 115              		.cfi_offset 5, -24
 116              		.cfi_offset 6, -20
 117              		.cfi_offset 7, -16
 118              		.cfi_offset 8, -12
 119              		.cfi_offset 9, -8
 120              		.cfi_offset 14, -4
 218:MakiseGUI/MakiseGUI/ILI9340C/ili9340.c **** 	HAL_TIM_PWM_Start(ILI9340_LED_PWM, ILI9340_LED_PWM_CHANNEL);
 121              		.loc 1 218 0
 122 0004 4C4D     		ldr	r5, .L11
 215:MakiseGUI/MakiseGUI/ILI9340C/ili9340.c ****     if(ILI9340_LED_USE_PWM)
 123              		.loc 1 215 0
 124 0006 83B0     		sub	sp, sp, #12
 125              	.LCFI1:
 126              		.cfi_def_cfa_offset 40
 215:MakiseGUI/MakiseGUI/ILI9340C/ili9340.c ****     if(ILI9340_LED_USE_PWM)
 127              		.loc 1 215 0
 128 0008 0446     		mov	r4, r0
 218:MakiseGUI/MakiseGUI/ILI9340C/ili9340.c **** 	HAL_TIM_PWM_Start(ILI9340_LED_PWM, ILI9340_LED_PWM_CHANNEL);
 129              		.loc 1 218 0
 130 000a 2846     		mov	r0, r5
 131              	.LVL5:
 132 000c FFF7FEFF 		bl	HAL_TIM_Base_Start
 133              	.LVL6:
 219:MakiseGUI/MakiseGUI/ILI9340C/ili9340.c ****     }
 134              		.loc 1 219 0
 135 0010 0C21     		movs	r1, #12
 136 0012 2846     		mov	r0, r5
 137 0014 FFF7FEFF 		bl	HAL_TIM_PWM_Start
 138              	.LVL7:
 223:MakiseGUI/MakiseGUI/ILI9340C/ili9340.c **** 
 139              		.loc 1 223 0
 140 0018 6468     		ldr	r4, [r4, #4]
 141              	.LVL8:
 142              	.LBB68:
 143              	.LBB69:
 238:MakiseGUI/MakiseGUI/ILI9340C/ili9340.c ****     else
 144              		.loc 1 238 0
 145 001a 2A68     		ldr	r2, [r5]
 146              	.LBE69:
 147              	.LBE68:
 148              	.LBB72:
 149              	.LBB73:
 200:MakiseGUI/MakiseGUI/ILI9340C/ili9340.c ****     {
 150              		.loc 1 200 0
 151 001c 2068     		ldr	r0, [r4]
 152 001e 8768     		ldr	r7, [r0, #8]
 153              	.LBE73:
ARM GAS  /tmp/ccczwsg0.s 			page 8


 154              	.LBE72:
 155              	.LBB109:
 156              	.LBB70:
 238:MakiseGUI/MakiseGUI/ILI9340C/ili9340.c ****     else
 157              		.loc 1 238 0
 158 0020 1F21     		movs	r1, #31
 159              	.LBE70:
 160              	.LBE109:
 161              	.LBB110:
 162              	.LBB106:
 198:MakiseGUI/MakiseGUI/ILI9340C/ili9340.c ****     
 163              		.loc 1 198 0
 164 0022 0023     		movs	r3, #0
 165              	.LBE106:
 166              	.LBE110:
 167              	.LBB111:
 168              	.LBB71:
 238:MakiseGUI/MakiseGUI/ILI9340C/ili9340.c ****     else
 169              		.loc 1 238 0
 170 0024 1164     		str	r1, [r2, #64]
 171              	.LVL9:
 172              	.LBE71:
 173              	.LBE111:
 174              	.LBB112:
 175              	.LBB107:
 198:MakiseGUI/MakiseGUI/ILI9340C/ili9340.c ****     
 176              		.loc 1 198 0
 177 0026 6383     		strh	r3, [r4, #26]	@ movhi
 200:MakiseGUI/MakiseGUI/ILI9340C/ili9340.c ****     {
 178              		.loc 1 200 0
 179 0028 002F     		cmp	r7, #0
 180 002a 00F08180 		beq	.L8
 202:MakiseGUI/MakiseGUI/ILI9340C/ili9340.c ****     }
 181              		.loc 1 202 0
 182 002e B847     		blx	r7
 183              	.LVL10:
 184 0030 638B     		ldrh	r3, [r4, #26]
 185 0032 4FEA1329 		lsr	r9, r3, #8
 186 0036 DFB2     		uxtb	r7, r3
 187              	.L7:
 205:MakiseGUI/MakiseGUI/ILI9340C/ili9340.c ****     makise_render(d->gui, 0);
 188              		.loc 1 205 0
 189 0038 2689     		ldrh	r6, [r4, #8]
 190              	.LBB74:
 191              	.LBB75:
 192              	.LBB76:
 193              	.LBB77:
   8:MakiseGUI/MakiseGUI/ILI9340C/ili9340.c **** extern inline void _ili9340_dc(uint8_t st){HAL_GPIO_WritePin(ILI9340_DC, st ? GPIO_PIN_SET : GPIO_P
 194              		.loc 1 8 0
 195 003a 4048     		ldr	r0, .L11+4
 196              	.LBE77:
 197              	.LBE76:
 198              	.LBE75:
 199              	.LBE74:
 205:MakiseGUI/MakiseGUI/ILI9340C/ili9340.c ****     makise_render(d->gui, 0);
 200              		.loc 1 205 0
 201 003c B4F80680 		ldrh	r8, [r4, #6]
ARM GAS  /tmp/ccczwsg0.s 			page 9


 202 0040 013E     		subs	r6, r6, #1
 203 0042 02AD     		add	r5, sp, #8
 204 0044 3344     		add	r3, r3, r6
 205              	.LBB100:
 206              	.LBB98:
 207              	.LBB80:
 208              	.LBB78:
   8:MakiseGUI/MakiseGUI/ILI9340C/ili9340.c **** extern inline void _ili9340_dc(uint8_t st){HAL_GPIO_WritePin(ILI9340_DC, st ? GPIO_PIN_SET : GPIO_P
 209              		.loc 1 8 0
 210 0046 0022     		movs	r2, #0
 211 0048 0121     		movs	r1, #1
 212              	.LBE78:
 213              	.LBE80:
 214              	.LBE98:
 215              	.LBE100:
 205:MakiseGUI/MakiseGUI/ILI9340C/ili9340.c ****     makise_render(d->gui, 0);
 216              		.loc 1 205 0
 217 004a 9EB2     		uxth	r6, r3
 218              	.LVL11:
 219              	.LBB101:
 220              	.LBB99:
 221              	.LBB81:
 222              	.LBB79:
   8:MakiseGUI/MakiseGUI/ILI9340C/ili9340.c **** extern inline void _ili9340_dc(uint8_t st){HAL_GPIO_WritePin(ILI9340_DC, st ? GPIO_PIN_SET : GPIO_P
 223              		.loc 1 8 0
 224 004c FFF7FEFF 		bl	HAL_GPIO_WritePin
 225              	.LVL12:
 226 0050 2A23     		movs	r3, #42
 227 0052 05F8053D 		strb	r3, [r5, #-5]!
 228              	.LVL13:
 229              	.LBE79:
 230              	.LBE81:
 231              	.LBB82:
 232              	.LBB83:
 233              	.LBB84:
 234              	.LBB85:
   9:MakiseGUI/MakiseGUI/ILI9340C/ili9340.c **** 
 235              		.loc 1 9 0
 236 0056 0022     		movs	r2, #0
 237 0058 1021     		movs	r1, #16
 238 005a 3948     		ldr	r0, .L11+8
 239 005c FFF7FEFF 		bl	HAL_GPIO_WritePin
 240              	.LVL14:
 241              	.LBE85:
 242              	.LBE84:
 243:MakiseGUI/MakiseGUI/ILI9340C/ili9340.c **** uint8_t ili9340_spi_txhalfcplt(MakiseDriver* d)
 244:MakiseGUI/MakiseGUI/ILI9340C/ili9340.c **** {
 245:MakiseGUI/MakiseGUI/ILI9340C/ili9340.c ****     if(d->posy < d->lcd_height)
 246:MakiseGUI/MakiseGUI/ILI9340C/ili9340.c **** 	makise_render(d->gui, 1);
 247:MakiseGUI/MakiseGUI/ILI9340C/ili9340.c ****     return M_OK;
 248:MakiseGUI/MakiseGUI/ILI9340C/ili9340.c **** }
 249:MakiseGUI/MakiseGUI/ILI9340C/ili9340.c **** uint8_t ili9340_spi_txcplt(MakiseDriver* d)
 250:MakiseGUI/MakiseGUI/ILI9340C/ili9340.c **** {
 251:MakiseGUI/MakiseGUI/ILI9340C/ili9340.c **** //    _ili9340_cs(1);
 252:MakiseGUI/MakiseGUI/ILI9340C/ili9340.c **** 
 253:MakiseGUI/MakiseGUI/ILI9340C/ili9340.c ****     uint8_t dr = 0;
 254:MakiseGUI/MakiseGUI/ILI9340C/ili9340.c ****     MakiseBuffer *bu = d->gui->buffer;
ARM GAS  /tmp/ccczwsg0.s 			page 10


 255:MakiseGUI/MakiseGUI/ILI9340C/ili9340.c **** 
 256:MakiseGUI/MakiseGUI/ILI9340C/ili9340.c ****     if(d->posy >= d->lcd_height)
 257:MakiseGUI/MakiseGUI/ILI9340C/ili9340.c ****     {
 258:MakiseGUI/MakiseGUI/ILI9340C/ili9340.c **** 	dr = 1;
 259:MakiseGUI/MakiseGUI/ILI9340C/ili9340.c **** 	d->posy = 0;
 260:MakiseGUI/MakiseGUI/ILI9340C/ili9340.c **** 	
 261:MakiseGUI/MakiseGUI/ILI9340C/ili9340.c **** 	memset(bu->buffer + 
 262:MakiseGUI/MakiseGUI/ILI9340C/ili9340.c **** 	       d->lcd_width * (d->lcd_height - d->buffer_height) * bu->pixeldepth / 32,
 263:MakiseGUI/MakiseGUI/ILI9340C/ili9340.c **** 	       0,
 264:MakiseGUI/MakiseGUI/ILI9340C/ili9340.c **** 	       d->lcd_width * d->buffer_height * bu->pixeldepth / 8);
 265:MakiseGUI/MakiseGUI/ILI9340C/ili9340.c **** 
 266:MakiseGUI/MakiseGUI/ILI9340C/ili9340.c **** 	if(d->gui->draw != 0)
 267:MakiseGUI/MakiseGUI/ILI9340C/ili9340.c **** 	{
 268:MakiseGUI/MakiseGUI/ILI9340C/ili9340.c **** 	    d->gui->draw(d->gui);
 269:MakiseGUI/MakiseGUI/ILI9340C/ili9340.c **** 	}
 270:MakiseGUI/MakiseGUI/ILI9340C/ili9340.c **** 	
 271:MakiseGUI/MakiseGUI/ILI9340C/ili9340.c ****     }
 272:MakiseGUI/MakiseGUI/ILI9340C/ili9340.c **** 
 273:MakiseGUI/MakiseGUI/ILI9340C/ili9340.c ****     _ili9340_setAddrWindow(0, d->posy, d->lcd_width, d->buffer_height - 1 + d->posy);
 274:MakiseGUI/MakiseGUI/ILI9340C/ili9340.c ****     makise_render(d->gui, dr ? 0 : 2);
 275:MakiseGUI/MakiseGUI/ILI9340C/ili9340.c ****     
 276:MakiseGUI/MakiseGUI/ILI9340C/ili9340.c ****     _ili9340_dc(1);
 277:MakiseGUI/MakiseGUI/ILI9340C/ili9340.c ****     _ili9340_cs(0);
 278:MakiseGUI/MakiseGUI/ILI9340C/ili9340.c **** 
 279:MakiseGUI/MakiseGUI/ILI9340C/ili9340.c **** 
 280:MakiseGUI/MakiseGUI/ILI9340C/ili9340.c ****     HAL_DMA_Start_IT(ILI9340_SPI.hdmatx, (uint32_t)d->buffer, (uint32_t)&ILI9340_SPI.Instance->DR, 
 281:MakiseGUI/MakiseGUI/ILI9340C/ili9340.c ****     /* Enable the SPI Error Interrupt Bit */
 282:MakiseGUI/MakiseGUI/ILI9340C/ili9340.c ****     SET_BIT(ILI9340_SPI.Instance->CR2, SPI_CR2_ERRIE);
 283:MakiseGUI/MakiseGUI/ILI9340C/ili9340.c **** 
 284:MakiseGUI/MakiseGUI/ILI9340C/ili9340.c ****     /* Enable Tx DMA Request */
 285:MakiseGUI/MakiseGUI/ILI9340C/ili9340.c ****     SET_BIT(ILI9340_SPI.Instance->CR2, SPI_CR2_TXDMAEN);
 286:MakiseGUI/MakiseGUI/ILI9340C/ili9340.c ****     
 287:MakiseGUI/MakiseGUI/ILI9340C/ili9340.c ****     if(dr)
 288:MakiseGUI/MakiseGUI/ILI9340C/ili9340.c ****     {
 289:MakiseGUI/MakiseGUI/ILI9340C/ili9340.c **** 	if(d->gui->predraw != 0)
 290:MakiseGUI/MakiseGUI/ILI9340C/ili9340.c **** 	{
 291:MakiseGUI/MakiseGUI/ILI9340C/ili9340.c **** 	    d->gui->predraw(d->gui);
 292:MakiseGUI/MakiseGUI/ILI9340C/ili9340.c **** 	}
 293:MakiseGUI/MakiseGUI/ILI9340C/ili9340.c **** 	if(d->gui->update != 0)
 294:MakiseGUI/MakiseGUI/ILI9340C/ili9340.c **** 	{
 295:MakiseGUI/MakiseGUI/ILI9340C/ili9340.c **** 	    d->gui->update(d->gui);
 296:MakiseGUI/MakiseGUI/ILI9340C/ili9340.c **** 	}
 297:MakiseGUI/MakiseGUI/ILI9340C/ili9340.c ****     }
 298:MakiseGUI/MakiseGUI/ILI9340C/ili9340.c ****     else
 299:MakiseGUI/MakiseGUI/ILI9340C/ili9340.c ****     {
 300:MakiseGUI/MakiseGUI/ILI9340C/ili9340.c **** 	memset(bu->buffer + (d->posy - d->buffer_height * 2) *
 301:MakiseGUI/MakiseGUI/ILI9340C/ili9340.c **** 	       d->lcd_width * bu->pixeldepth / 32,
 302:MakiseGUI/MakiseGUI/ILI9340C/ili9340.c **** 	       0,
 303:MakiseGUI/MakiseGUI/ILI9340C/ili9340.c **** 	       d->lcd_width * d->buffer_height * bu->pixeldepth / 8);
 304:MakiseGUI/MakiseGUI/ILI9340C/ili9340.c ****     }
 305:MakiseGUI/MakiseGUI/ILI9340C/ili9340.c ****     
 306:MakiseGUI/MakiseGUI/ILI9340C/ili9340.c ****     return M_OK;
 307:MakiseGUI/MakiseGUI/ILI9340C/ili9340.c **** }
 308:MakiseGUI/MakiseGUI/ILI9340C/ili9340.c **** 
 309:MakiseGUI/MakiseGUI/ILI9340C/ili9340.c **** uint8_t ili9340_write_data(uint8_t d)
 310:MakiseGUI/MakiseGUI/ILI9340C/ili9340.c **** {
 311:MakiseGUI/MakiseGUI/ILI9340C/ili9340.c ****     _ili9340_dc(1);
ARM GAS  /tmp/ccczwsg0.s 			page 11


 312:MakiseGUI/MakiseGUI/ILI9340C/ili9340.c ****     HAL_SPI_Transmit(&ILI9340_SPI, &d, 1, 10);
 313:MakiseGUI/MakiseGUI/ILI9340C/ili9340.c ****     return d;
 314:MakiseGUI/MakiseGUI/ILI9340C/ili9340.c **** }
 315:MakiseGUI/MakiseGUI/ILI9340C/ili9340.c **** 
 316:MakiseGUI/MakiseGUI/ILI9340C/ili9340.c **** uint8_t ili9340_write_command(uint8_t c)
 317:MakiseGUI/MakiseGUI/ILI9340C/ili9340.c **** {
 318:MakiseGUI/MakiseGUI/ILI9340C/ili9340.c ****     _ili9340_dc(0);
 319:MakiseGUI/MakiseGUI/ILI9340C/ili9340.c ****     HAL_SPI_Transmit(&ILI9340_SPI, &c, 1, 10);
 243              		.loc 1 319 0
 244 0060 2946     		mov	r1, r5
 245 0062 0A23     		movs	r3, #10
 246 0064 0122     		movs	r2, #1
 247 0066 3748     		ldr	r0, .L11+12
 248 0068 FFF7FEFF 		bl	HAL_SPI_Transmit
 249              	.LVL15:
 250              	.LBE83:
 251              	.LBE82:
 252              	.LBB86:
 253              	.LBB87:
   9:MakiseGUI/MakiseGUI/ILI9340C/ili9340.c **** 
 254              		.loc 1 9 0
 255 006c 0122     		movs	r2, #1
 256 006e 1021     		movs	r1, #16
 257 0070 3348     		ldr	r0, .L11+8
 258 0072 FFF7FEFF 		bl	HAL_GPIO_WritePin
 259              	.LVL16:
 260              	.LBE87:
 261              	.LBE86:
 178:MakiseGUI/MakiseGUI/ILI9340C/ili9340.c ****     _ili9340_addr_kek[1] = x0;
 262              		.loc 1 178 0
 263 0076 0025     		movs	r5, #0
 180:MakiseGUI/MakiseGUI/ILI9340C/ili9340.c ****     _ili9340_addr_kek[3] = x1;
 264              		.loc 1 180 0
 265 0078 4FEA182E 		lsr	lr, r8, #8
 182:MakiseGUI/MakiseGUI/ILI9340C/ili9340.c **** 
 266              		.loc 1 182 0
 267 007c 01A9     		add	r1, sp, #4
 181:MakiseGUI/MakiseGUI/ILI9340C/ili9340.c ****     HAL_SPI_Transmit(&ILI9340_SPI, (uint8_t*)_ili9340_addr_kek, 4, 10);
 268              		.loc 1 181 0
 269 007e 8DF80780 		strb	r8, [sp, #7]
 182:MakiseGUI/MakiseGUI/ILI9340C/ili9340.c **** 
 270              		.loc 1 182 0
 271 0082 0A23     		movs	r3, #10
 272 0084 0DF10808 		add	r8, sp, #8
 273              	.LVL17:
 274 0088 0422     		movs	r2, #4
 275 008a 2E48     		ldr	r0, .L11+12
 180:MakiseGUI/MakiseGUI/ILI9340C/ili9340.c ****     _ili9340_addr_kek[3] = x1;
 276              		.loc 1 180 0
 277 008c 8DF806E0 		strb	lr, [sp, #6]
 178:MakiseGUI/MakiseGUI/ILI9340C/ili9340.c ****     _ili9340_addr_kek[1] = x0;
 278              		.loc 1 178 0
 279 0090 8DF80450 		strb	r5, [sp, #4]
 179:MakiseGUI/MakiseGUI/ILI9340C/ili9340.c ****     _ili9340_addr_kek[2] = x1 >> 8;
 280              		.loc 1 179 0
 281 0094 8DF80550 		strb	r5, [sp, #5]
 182:MakiseGUI/MakiseGUI/ILI9340C/ili9340.c **** 
ARM GAS  /tmp/ccczwsg0.s 			page 12


 282              		.loc 1 182 0
 283 0098 FFF7FEFF 		bl	HAL_SPI_Transmit
 284              	.LVL18:
 285 009c 2B23     		movs	r3, #43
 286 009e 08F8063D 		strb	r3, [r8, #-6]!
 287              	.LVL19:
 288              	.LBB88:
 289              	.LBB89:
 290              	.LBB90:
 291              	.LBB91:
   9:MakiseGUI/MakiseGUI/ILI9340C/ili9340.c **** 
 292              		.loc 1 9 0
 293 00a2 2A46     		mov	r2, r5
 294 00a4 1021     		movs	r1, #16
 295 00a6 2648     		ldr	r0, .L11+8
 296 00a8 FFF7FEFF 		bl	HAL_GPIO_WritePin
 297              	.LVL20:
 298              	.LBE91:
 299              	.LBE90:
 300              		.loc 1 319 0
 301 00ac 4146     		mov	r1, r8
 302 00ae 0A23     		movs	r3, #10
 303 00b0 0122     		movs	r2, #1
 304 00b2 2448     		ldr	r0, .L11+12
 305 00b4 FFF7FEFF 		bl	HAL_SPI_Transmit
 306              	.LVL21:
 307              	.LBE89:
 308              	.LBE88:
 309              	.LBB92:
 310              	.LBB93:
   9:MakiseGUI/MakiseGUI/ILI9340C/ili9340.c **** 
 311              		.loc 1 9 0
 312 00b8 0122     		movs	r2, #1
 313 00ba 1021     		movs	r1, #16
 314 00bc 2048     		ldr	r0, .L11+8
 315 00be FFF7FEFF 		bl	HAL_GPIO_WritePin
 316              	.LVL22:
 317 00c2 0DF10808 		add	r8, sp, #8
 318              	.LBE93:
 319              	.LBE92:
 189:MakiseGUI/MakiseGUI/ILI9340C/ili9340.c ****     _ili9340_addr_kek[3] = y1;
 320              		.loc 1 189 0
 321 00c6 4FEA162E 		lsr	lr, r6, #8
 191:MakiseGUI/MakiseGUI/ILI9340C/ili9340.c **** 
 322              		.loc 1 191 0
 323 00ca 01A9     		add	r1, sp, #4
 324 00cc 0A23     		movs	r3, #10
 325 00ce 0422     		movs	r2, #4
 326 00d0 1C48     		ldr	r0, .L11+12
 189:MakiseGUI/MakiseGUI/ILI9340C/ili9340.c ****     _ili9340_addr_kek[3] = y1;
 327              		.loc 1 189 0
 328 00d2 8DF806E0 		strb	lr, [sp, #6]
 190:MakiseGUI/MakiseGUI/ILI9340C/ili9340.c ****     HAL_SPI_Transmit(&ILI9340_SPI, (uint8_t*)_ili9340_addr_kek, 4, 10);
 329              		.loc 1 190 0
 330 00d6 8DF80760 		strb	r6, [sp, #7]
 187:MakiseGUI/MakiseGUI/ILI9340C/ili9340.c ****     _ili9340_addr_kek[1] = y0;
 331              		.loc 1 187 0
ARM GAS  /tmp/ccczwsg0.s 			page 13


 332 00da 8DF80490 		strb	r9, [sp, #4]
 188:MakiseGUI/MakiseGUI/ILI9340C/ili9340.c ****     _ili9340_addr_kek[2] = y1 >>8;
 333              		.loc 1 188 0
 334 00de 8DF80570 		strb	r7, [sp, #5]
 191:MakiseGUI/MakiseGUI/ILI9340C/ili9340.c **** 
 335              		.loc 1 191 0
 336 00e2 FFF7FEFF 		bl	HAL_SPI_Transmit
 337              	.LVL23:
 338 00e6 2C23     		movs	r3, #44
 339 00e8 08F8073D 		strb	r3, [r8, #-7]!
 340              	.LVL24:
 341              	.LBB94:
 342              	.LBB95:
 343              	.LBB96:
 344              	.LBB97:
   9:MakiseGUI/MakiseGUI/ILI9340C/ili9340.c **** 
 345              		.loc 1 9 0
 346 00ec 2A46     		mov	r2, r5
 347 00ee 1021     		movs	r1, #16
 348 00f0 1348     		ldr	r0, .L11+8
 349 00f2 FFF7FEFF 		bl	HAL_GPIO_WritePin
 350              	.LVL25:
 351              	.LBE97:
 352              	.LBE96:
 353              		.loc 1 319 0
 354 00f6 0A23     		movs	r3, #10
 355 00f8 4146     		mov	r1, r8
 356 00fa 0122     		movs	r2, #1
 357 00fc 1148     		ldr	r0, .L11+12
 358 00fe FFF7FEFF 		bl	HAL_SPI_Transmit
 359              	.LVL26:
 360              	.LBE95:
 361              	.LBE94:
 362              	.LBE99:
 363              	.LBE101:
 206:MakiseGUI/MakiseGUI/ILI9340C/ili9340.c **** 
 364              		.loc 1 206 0
 365 0102 2946     		mov	r1, r5
 366 0104 2068     		ldr	r0, [r4]
 367 0106 FFF7FEFF 		bl	makise_render
 368              	.LVL27:
 369              	.LBB102:
 370              	.LBB103:
   9:MakiseGUI/MakiseGUI/ILI9340C/ili9340.c **** 
 371              		.loc 1 9 0
 372 010a 0122     		movs	r2, #1
 373 010c 1021     		movs	r1, #16
 374 010e 0C48     		ldr	r0, .L11+8
 375 0110 FFF7FEFF 		bl	HAL_GPIO_WritePin
 376              	.LVL28:
 377              	.LBE103:
 378              	.LBE102:
 379              	.LBB104:
 380              	.LBB105:
   8:MakiseGUI/MakiseGUI/ILI9340C/ili9340.c **** extern inline void _ili9340_dc(uint8_t st){HAL_GPIO_WritePin(ILI9340_DC, st ? GPIO_PIN_SET : GPIO_P
 381              		.loc 1 8 0
 382 0114 2A46     		mov	r2, r5
ARM GAS  /tmp/ccczwsg0.s 			page 14


 383 0116 0121     		movs	r1, #1
 384 0118 0848     		ldr	r0, .L11+4
 385 011a FFF7FEFF 		bl	HAL_GPIO_WritePin
 386              	.LVL29:
 387              	.LBE105:
 388              	.LBE104:
 211:MakiseGUI/MakiseGUI/ILI9340C/ili9340.c **** }
 389              		.loc 1 211 0
 390 011e A28A     		ldrh	r2, [r4, #20]
 391 0120 2169     		ldr	r1, [r4, #16]
 392 0122 0848     		ldr	r0, .L11+12
 393 0124 FFF7FEFF 		bl	HAL_SPI_Transmit_DMA
 394              	.LVL30:
 395              	.LBE107:
 396              	.LBE112:
 226:MakiseGUI/MakiseGUI/ILI9340C/ili9340.c **** uint8_t ili9340_sleep(MakiseGUI* gui)
 397              		.loc 1 226 0
 398 0128 0120     		movs	r0, #1
 399 012a 03B0     		add	sp, sp, #12
 400              	.LCFI2:
 401              		.cfi_remember_state
 402              		.cfi_def_cfa_offset 28
 403              		@ sp needed
 404 012c BDE8F083 		pop	{r4, r5, r6, r7, r8, r9, pc}
 405              	.LVL31:
 406              	.L8:
 407              	.LCFI3:
 408              		.cfi_restore_state
 409              	.LBB113:
 410              	.LBB108:
 200:MakiseGUI/MakiseGUI/ILI9340C/ili9340.c ****     {
 411              		.loc 1 200 0
 412 0130 B946     		mov	r9, r7
 413 0132 3B46     		mov	r3, r7
 414 0134 80E7     		b	.L7
 415              	.L12:
 416 0136 00BF     		.align	2
 417              	.L11:
 418 0138 00000000 		.word	htim3
 419 013c 00040240 		.word	1073873920
 420 0140 00080240 		.word	1073874944
 421 0144 00000000 		.word	hspi1
 422              	.LBE108:
 423              	.LBE113:
 424              		.cfi_endproc
 425              	.LFE134:
 427              		.section	.text.ili9340_init,"ax",%progbits
 428              		.align	1
 429              		.p2align 2,,3
 430              		.global	ili9340_init
 431              		.syntax unified
 432              		.thumb
 433              		.thumb_func
 434              		.fpu fpv4-sp-d16
 436              	ili9340_init:
 437              	.LFB131:
  32:MakiseGUI/MakiseGUI/ILI9340C/ili9340.c ****     _ili9340_rst(1);
ARM GAS  /tmp/ccczwsg0.s 			page 15


 438              		.loc 1 32 0
 439              		.cfi_startproc
 440              		@ args = 0, pretend = 0, frame = 112
 441              		@ frame_needed = 0, uses_anonymous_args = 0
 442              	.LVL32:
 443 0000 2DE9F04F 		push	{r4, r5, r6, r7, r8, r9, r10, fp, lr}
 444              	.LCFI4:
 445              		.cfi_def_cfa_offset 36
 446              		.cfi_offset 4, -36
 447              		.cfi_offset 5, -32
 448              		.cfi_offset 6, -28
 449              		.cfi_offset 7, -24
 450              		.cfi_offset 8, -20
 451              		.cfi_offset 9, -16
 452              		.cfi_offset 10, -12
 453              		.cfi_offset 11, -8
 454              		.cfi_offset 14, -4
 455              	.LBB532:
 456              	.LBB533:
   7:MakiseGUI/MakiseGUI/ILI9340C/ili9340.c **** extern inline void _ili9340_cs(uint8_t st){HAL_GPIO_WritePin(ILI9340_CS, st ? GPIO_PIN_SET : GPIO_P
 457              		.loc 1 7 0
 458 0004 F44D     		ldr	r5, .L15
 459              	.LBE533:
 460              	.LBE532:
 461              	.LBB535:
 462              	.LBB536:
 463              		.loc 1 319 0
 464 0006 F54E     		ldr	r6, .L15+4
 465              	.LBE536:
 466              	.LBE535:
  32:MakiseGUI/MakiseGUI/ILI9340C/ili9340.c ****     _ili9340_rst(1);
 467              		.loc 1 32 0
 468 0008 9DB0     		sub	sp, sp, #116
 469              	.LCFI5:
 470              		.cfi_def_cfa_offset 152
 471              	.LBB540:
 472              	.LBB534:
   7:MakiseGUI/MakiseGUI/ILI9340C/ili9340.c **** extern inline void _ili9340_cs(uint8_t st){HAL_GPIO_WritePin(ILI9340_CS, st ? GPIO_PIN_SET : GPIO_P
 473              		.loc 1 7 0
 474 000a 2846     		mov	r0, r5
 475              	.LVL33:
 476 000c 0122     		movs	r2, #1
 477 000e 2021     		movs	r1, #32
 478 0010 FFF7FEFF 		bl	HAL_GPIO_WritePin
 479              	.LVL34:
 480              	.LBE534:
 481              	.LBE540:
 482              	.LBB541:
 483              	.LBB542:
   6:MakiseGUI/MakiseGUI/ILI9340C/ili9340.c **** extern inline void _ili9340_rst(uint8_t st){HAL_GPIO_WritePin(ILI9340_RST, st ? GPIO_PIN_SET : GPIO
 484              		.loc 1 6 0
 485 0014 0520     		movs	r0, #5
 486 0016 FFF7FEFF 		bl	HAL_Delay
 487              	.LVL35:
 488              	.LBE542:
 489              	.LBE541:
 490              	.LBB543:
ARM GAS  /tmp/ccczwsg0.s 			page 16


 491              	.LBB544:
   7:MakiseGUI/MakiseGUI/ILI9340C/ili9340.c **** extern inline void _ili9340_cs(uint8_t st){HAL_GPIO_WritePin(ILI9340_CS, st ? GPIO_PIN_SET : GPIO_P
 492              		.loc 1 7 0
 493 001a 2846     		mov	r0, r5
 494 001c 0022     		movs	r2, #0
 495 001e 2021     		movs	r1, #32
 496 0020 FFF7FEFF 		bl	HAL_GPIO_WritePin
 497              	.LVL36:
 498              	.LBE544:
 499              	.LBE543:
 500              	.LBB545:
 501              	.LBB546:
   6:MakiseGUI/MakiseGUI/ILI9340C/ili9340.c **** extern inline void _ili9340_rst(uint8_t st){HAL_GPIO_WritePin(ILI9340_RST, st ? GPIO_PIN_SET : GPIO
 502              		.loc 1 6 0
 503 0024 1420     		movs	r0, #20
 504 0026 FFF7FEFF 		bl	HAL_Delay
 505              	.LVL37:
 506 002a 1CAF     		add	r7, sp, #112
 507              	.LBE546:
 508              	.LBE545:
 509              	.LBB547:
 510              	.LBB548:
   7:MakiseGUI/MakiseGUI/ILI9340C/ili9340.c **** extern inline void _ili9340_cs(uint8_t st){HAL_GPIO_WritePin(ILI9340_CS, st ? GPIO_PIN_SET : GPIO_P
 511              		.loc 1 7 0
 512 002c 2846     		mov	r0, r5
 513 002e 0122     		movs	r2, #1
 514 0030 2021     		movs	r1, #32
 515 0032 0124     		movs	r4, #1
 516 0034 FFF7FEFF 		bl	HAL_GPIO_WritePin
 517              	.LVL38:
 518              	.LBE548:
 519              	.LBE547:
 520              	.LBB549:
 521              	.LBB550:
   6:MakiseGUI/MakiseGUI/ILI9340C/ili9340.c **** extern inline void _ili9340_rst(uint8_t st){HAL_GPIO_WritePin(ILI9340_RST, st ? GPIO_PIN_SET : GPIO
 522              		.loc 1 6 0
 523 0038 9620     		movs	r0, #150
 524 003a FFF7FEFF 		bl	HAL_Delay
 525              	.LVL39:
 526 003e 07F8014D 		strb	r4, [r7, #-1]!
 527              	.LVL40:
 528              	.LBE550:
 529              	.LBE549:
 530              	.LBB551:
 531              	.LBB539:
 532              	.LBB537:
 533              	.LBB538:
   9:MakiseGUI/MakiseGUI/ILI9340C/ili9340.c **** 
 534              		.loc 1 9 0
 535 0042 2846     		mov	r0, r5
 536 0044 0022     		movs	r2, #0
 537 0046 1021     		movs	r1, #16
 538 0048 FFF7FEFF 		bl	HAL_GPIO_WritePin
 539              	.LVL41:
 540              	.LBE538:
 541              	.LBE537:
 542              		.loc 1 319 0
ARM GAS  /tmp/ccczwsg0.s 			page 17


 543 004c 3946     		mov	r1, r7
 544 004e 2246     		mov	r2, r4
 545 0050 0A23     		movs	r3, #10
 546 0052 3046     		mov	r0, r6
 547 0054 FFF7FEFF 		bl	HAL_SPI_Transmit
 548              	.LVL42:
 549 0058 0DF17008 		add	r8, sp, #112
 550              	.LBE539:
 551              	.LBE551:
 552              	.LBB552:
 553              	.LBB553:
   6:MakiseGUI/MakiseGUI/ILI9340C/ili9340.c **** extern inline void _ili9340_rst(uint8_t st){HAL_GPIO_WritePin(ILI9340_RST, st ? GPIO_PIN_SET : GPIO
 554              		.loc 1 6 0
 555 005c 0520     		movs	r0, #5
 556 005e FFF7FEFF 		bl	HAL_Delay
 557              	.LVL43:
 558 0062 2823     		movs	r3, #40
 559 0064 08F8023D 		strb	r3, [r8, #-2]!
 560              	.LVL44:
 561              	.LBE553:
 562              	.LBE552:
 563              	.LBB554:
 564              	.LBB555:
 565              	.LBB556:
 566              	.LBB557:
   9:MakiseGUI/MakiseGUI/ILI9340C/ili9340.c **** 
 567              		.loc 1 9 0
 568 0068 2846     		mov	r0, r5
 569 006a 0022     		movs	r2, #0
 570 006c 1021     		movs	r1, #16
 571 006e FFF7FEFF 		bl	HAL_GPIO_WritePin
 572              	.LVL45:
 573 0072 1CAF     		add	r7, sp, #112
 574              	.LBE557:
 575              	.LBE556:
 576              		.loc 1 319 0
 577 0074 4146     		mov	r1, r8
 578 0076 2246     		mov	r2, r4
 579 0078 3046     		mov	r0, r6
 580 007a 0A23     		movs	r3, #10
 581 007c FFF7FEFF 		bl	HAL_SPI_Transmit
 582              	.LVL46:
 583 0080 CF23     		movs	r3, #207
 584 0082 07F8033D 		strb	r3, [r7, #-3]!
 585              	.LVL47:
 586 0086 0DF17008 		add	r8, sp, #112
 587              	.LBE555:
 588              	.LBE554:
 589              	.LBB558:
 590              	.LBB559:
 591              	.LBB560:
 592              	.LBB561:
   9:MakiseGUI/MakiseGUI/ILI9340C/ili9340.c **** 
 593              		.loc 1 9 0
 594 008a 2846     		mov	r0, r5
 595 008c 0022     		movs	r2, #0
 596 008e 1021     		movs	r1, #16
ARM GAS  /tmp/ccczwsg0.s 			page 18


 597 0090 4FF0000B 		mov	fp, #0
 598 0094 FFF7FEFF 		bl	HAL_GPIO_WritePin
 599              	.LVL48:
 600              	.LBE561:
 601              	.LBE560:
 602              		.loc 1 319 0
 603 0098 3946     		mov	r1, r7
 604 009a 2246     		mov	r2, r4
 605 009c 0A23     		movs	r3, #10
 606 009e 3046     		mov	r0, r6
 607 00a0 FFF7FEFF 		bl	HAL_SPI_Transmit
 608              	.LVL49:
 609 00a4 08F804BD 		strb	fp, [r8, #-4]!
 610              	.LVL50:
 611              	.LBE559:
 612              	.LBE558:
 613              	.LBB562:
 614              	.LBB563:
 615              	.LBB564:
 616              	.LBB565:
   9:MakiseGUI/MakiseGUI/ILI9340C/ili9340.c **** 
 617              		.loc 1 9 0
 618 00a8 2246     		mov	r2, r4
 619 00aa 2846     		mov	r0, r5
 620 00ac 1021     		movs	r1, #16
 621 00ae FFF7FEFF 		bl	HAL_GPIO_WritePin
 622              	.LVL51:
 623 00b2 1CAF     		add	r7, sp, #112
 624              	.LBE565:
 625              	.LBE564:
 312:MakiseGUI/MakiseGUI/ILI9340C/ili9340.c ****     return d;
 626              		.loc 1 312 0
 627 00b4 4146     		mov	r1, r8
 628 00b6 2246     		mov	r2, r4
 629 00b8 3046     		mov	r0, r6
 630 00ba 0A23     		movs	r3, #10
 631 00bc FFF7FEFF 		bl	HAL_SPI_Transmit
 632              	.LVL52:
 633 00c0 8323     		movs	r3, #131
 634 00c2 07F8053D 		strb	r3, [r7, #-5]!
 635              	.LVL53:
 636              	.LBE563:
 637              	.LBE562:
 638              	.LBB566:
 639              	.LBB567:
 640              	.LBB568:
 641              	.LBB569:
   9:MakiseGUI/MakiseGUI/ILI9340C/ili9340.c **** 
 642              		.loc 1 9 0
 643 00c6 2246     		mov	r2, r4
 644 00c8 2846     		mov	r0, r5
 645 00ca 1021     		movs	r1, #16
 646 00cc FFF7FEFF 		bl	HAL_GPIO_WritePin
 647              	.LVL54:
 648 00d0 0DF17008 		add	r8, sp, #112
 649              	.LBE569:
 650              	.LBE568:
ARM GAS  /tmp/ccczwsg0.s 			page 19


 312:MakiseGUI/MakiseGUI/ILI9340C/ili9340.c ****     return d;
 651              		.loc 1 312 0
 652 00d4 3946     		mov	r1, r7
 653 00d6 2246     		mov	r2, r4
 654 00d8 3046     		mov	r0, r6
 655 00da 0A23     		movs	r3, #10
 656 00dc FFF7FEFF 		bl	HAL_SPI_Transmit
 657              	.LVL55:
 658 00e0 3023     		movs	r3, #48
 659 00e2 08F8063D 		strb	r3, [r8, #-6]!
 660              	.LVL56:
 661              	.LBE567:
 662              	.LBE566:
 663              	.LBB570:
 664              	.LBB571:
 665              	.LBB572:
 666              	.LBB573:
   9:MakiseGUI/MakiseGUI/ILI9340C/ili9340.c **** 
 667              		.loc 1 9 0
 668 00e6 2246     		mov	r2, r4
 669 00e8 2846     		mov	r0, r5
 670 00ea 1021     		movs	r1, #16
 671 00ec FFF7FEFF 		bl	HAL_GPIO_WritePin
 672              	.LVL57:
 673 00f0 1CAF     		add	r7, sp, #112
 674              	.LBE573:
 675              	.LBE572:
 312:MakiseGUI/MakiseGUI/ILI9340C/ili9340.c ****     return d;
 676              		.loc 1 312 0
 677 00f2 4146     		mov	r1, r8
 678 00f4 2246     		mov	r2, r4
 679 00f6 3046     		mov	r0, r6
 680 00f8 0A23     		movs	r3, #10
 681 00fa FFF7FEFF 		bl	HAL_SPI_Transmit
 682              	.LVL58:
 683 00fe ED23     		movs	r3, #237
 684 0100 07F8073D 		strb	r3, [r7, #-7]!
 685              	.LVL59:
 686              	.LBE571:
 687              	.LBE570:
 688              	.LBB574:
 689              	.LBB575:
 690              	.LBB576:
 691              	.LBB577:
   9:MakiseGUI/MakiseGUI/ILI9340C/ili9340.c **** 
 692              		.loc 1 9 0
 693 0104 5A46     		mov	r2, fp
 694 0106 2846     		mov	r0, r5
 695 0108 1021     		movs	r1, #16
 696 010a FFF7FEFF 		bl	HAL_GPIO_WritePin
 697              	.LVL60:
 698 010e 0DF17008 		add	r8, sp, #112
 699              	.LBE577:
 700              	.LBE576:
 701              		.loc 1 319 0
 702 0112 3946     		mov	r1, r7
 703 0114 2246     		mov	r2, r4
ARM GAS  /tmp/ccczwsg0.s 			page 20


 704 0116 3046     		mov	r0, r6
 705 0118 0A23     		movs	r3, #10
 706 011a FFF7FEFF 		bl	HAL_SPI_Transmit
 707              	.LVL61:
 708 011e 6423     		movs	r3, #100
 709 0120 08F8083D 		strb	r3, [r8, #-8]!
 710              	.LVL62:
 711              	.LBE575:
 712              	.LBE574:
 713              	.LBB578:
 714              	.LBB579:
 715              	.LBB580:
 716              	.LBB581:
   9:MakiseGUI/MakiseGUI/ILI9340C/ili9340.c **** 
 717              		.loc 1 9 0
 718 0124 2246     		mov	r2, r4
 719 0126 2846     		mov	r0, r5
 720 0128 1021     		movs	r1, #16
 721 012a FFF7FEFF 		bl	HAL_GPIO_WritePin
 722              	.LVL63:
 723 012e 1CAF     		add	r7, sp, #112
 724              	.LBE581:
 725              	.LBE580:
 312:MakiseGUI/MakiseGUI/ILI9340C/ili9340.c ****     return d;
 726              		.loc 1 312 0
 727 0130 4146     		mov	r1, r8
 728 0132 2246     		mov	r2, r4
 729 0134 3046     		mov	r0, r6
 730 0136 0A23     		movs	r3, #10
 731 0138 FFF7FEFF 		bl	HAL_SPI_Transmit
 732              	.LVL64:
 733 013c 4FF00303 		mov	r3, #3
 734 0140 07F8093D 		strb	r3, [r7, #-9]!
 735              	.LVL65:
 736              	.LBE579:
 737              	.LBE578:
 738              	.LBB582:
 739              	.LBB583:
 740              	.LBB584:
 741              	.LBB585:
   9:MakiseGUI/MakiseGUI/ILI9340C/ili9340.c **** 
 742              		.loc 1 9 0
 743 0144 2246     		mov	r2, r4
 744 0146 2846     		mov	r0, r5
 745 0148 1021     		movs	r1, #16
 746 014a FFF7FEFF 		bl	HAL_GPIO_WritePin
 747              	.LVL66:
 748 014e 0DF17008 		add	r8, sp, #112
 749              	.LBE585:
 750              	.LBE584:
 312:MakiseGUI/MakiseGUI/ILI9340C/ili9340.c ****     return d;
 751              		.loc 1 312 0
 752 0152 3946     		mov	r1, r7
 753 0154 2246     		mov	r2, r4
 754 0156 3046     		mov	r0, r6
 755 0158 0A23     		movs	r3, #10
 756 015a FFF7FEFF 		bl	HAL_SPI_Transmit
ARM GAS  /tmp/ccczwsg0.s 			page 21


 757              	.LVL67:
 758 015e 1223     		movs	r3, #18
 759 0160 08F80A3D 		strb	r3, [r8, #-10]!
 760              	.LVL68:
 761              	.LBE583:
 762              	.LBE582:
 763              	.LBB586:
 764              	.LBB587:
 765              	.LBB588:
 766              	.LBB589:
   9:MakiseGUI/MakiseGUI/ILI9340C/ili9340.c **** 
 767              		.loc 1 9 0
 768 0164 2246     		mov	r2, r4
 769 0166 2846     		mov	r0, r5
 770 0168 1021     		movs	r1, #16
 771 016a FFF7FEFF 		bl	HAL_GPIO_WritePin
 772              	.LVL69:
 773 016e 1CAF     		add	r7, sp, #112
 774              	.LBE589:
 775              	.LBE588:
 312:MakiseGUI/MakiseGUI/ILI9340C/ili9340.c ****     return d;
 776              		.loc 1 312 0
 777 0170 4146     		mov	r1, r8
 778 0172 2246     		mov	r2, r4
 779 0174 3046     		mov	r0, r6
 780 0176 0A23     		movs	r3, #10
 781 0178 FFF7FEFF 		bl	HAL_SPI_Transmit
 782              	.LVL70:
 783 017c 8123     		movs	r3, #129
 784 017e 07F80B3D 		strb	r3, [r7, #-11]!
 785              	.LVL71:
 786 0182 0DF17008 		add	r8, sp, #112
 787              	.LBE587:
 788              	.LBE586:
 789              	.LBB590:
 790              	.LBB591:
 791              	.LBB592:
 792              	.LBB593:
   9:MakiseGUI/MakiseGUI/ILI9340C/ili9340.c **** 
 793              		.loc 1 9 0
 794 0186 2246     		mov	r2, r4
 795 0188 2846     		mov	r0, r5
 796 018a 1021     		movs	r1, #16
 797 018c FFF7FEFF 		bl	HAL_GPIO_WritePin
 798              	.LVL72:
 799 0190 4FF0E80A 		mov	r10, #232
 800              	.LBE593:
 801              	.LBE592:
 312:MakiseGUI/MakiseGUI/ILI9340C/ili9340.c ****     return d;
 802              		.loc 1 312 0
 803 0194 3946     		mov	r1, r7
 804 0196 2246     		mov	r2, r4
 805 0198 0A23     		movs	r3, #10
 806 019a 3046     		mov	r0, r6
 807 019c FFF7FEFF 		bl	HAL_SPI_Transmit
 808              	.LVL73:
 809 01a0 08F80CAD 		strb	r10, [r8, #-12]!
ARM GAS  /tmp/ccczwsg0.s 			page 22


 810              	.LVL74:
 811              	.LBE591:
 812              	.LBE590:
 813              	.LBB594:
 814              	.LBB595:
 815              	.LBB596:
 816              	.LBB597:
   9:MakiseGUI/MakiseGUI/ILI9340C/ili9340.c **** 
 817              		.loc 1 9 0
 818 01a4 5A46     		mov	r2, fp
 819 01a6 2846     		mov	r0, r5
 820 01a8 1021     		movs	r1, #16
 821 01aa FFF7FEFF 		bl	HAL_GPIO_WritePin
 822              	.LVL75:
 823 01ae 1CAF     		add	r7, sp, #112
 824              	.LBE597:
 825              	.LBE596:
 826              		.loc 1 319 0
 827 01b0 4146     		mov	r1, r8
 828 01b2 2246     		mov	r2, r4
 829 01b4 3046     		mov	r0, r6
 830 01b6 0A23     		movs	r3, #10
 831 01b8 FFF7FEFF 		bl	HAL_SPI_Transmit
 832              	.LVL76:
 833 01bc 8523     		movs	r3, #133
 834 01be 07F80D3D 		strb	r3, [r7, #-13]!
 835              	.LVL77:
 836              	.LBE595:
 837              	.LBE594:
 838              	.LBB598:
 839              	.LBB599:
 840              	.LBB600:
 841              	.LBB601:
   9:MakiseGUI/MakiseGUI/ILI9340C/ili9340.c **** 
 842              		.loc 1 9 0
 843 01c2 2246     		mov	r2, r4
 844 01c4 2846     		mov	r0, r5
 845 01c6 1021     		movs	r1, #16
 846 01c8 FFF7FEFF 		bl	HAL_GPIO_WritePin
 847              	.LVL78:
 848              	.LBE601:
 849              	.LBE600:
 312:MakiseGUI/MakiseGUI/ILI9340C/ili9340.c ****     return d;
 850              		.loc 1 312 0
 851 01cc 3946     		mov	r1, r7
 852 01ce 1CAF     		add	r7, sp, #112
 853 01d0 2246     		mov	r2, r4
 854 01d2 0A23     		movs	r3, #10
 855 01d4 3046     		mov	r0, r6
 856 01d6 FFF7FEFF 		bl	HAL_SPI_Transmit
 857              	.LVL79:
 858 01da 07F80E4D 		strb	r4, [r7, #-14]!
 859              	.LVL80:
 860              	.LBE599:
 861              	.LBE598:
 862              	.LBB602:
 863              	.LBB603:
ARM GAS  /tmp/ccczwsg0.s 			page 23


 864              	.LBB604:
 865              	.LBB605:
   9:MakiseGUI/MakiseGUI/ILI9340C/ili9340.c **** 
 866              		.loc 1 9 0
 867 01de 2246     		mov	r2, r4
 868 01e0 2846     		mov	r0, r5
 869 01e2 1021     		movs	r1, #16
 870 01e4 FFF7FEFF 		bl	HAL_GPIO_WritePin
 871              	.LVL81:
 872 01e8 0DF17008 		add	r8, sp, #112
 873              	.LBE605:
 874              	.LBE604:
 312:MakiseGUI/MakiseGUI/ILI9340C/ili9340.c ****     return d;
 875              		.loc 1 312 0
 876 01ec 3946     		mov	r1, r7
 877 01ee 2246     		mov	r2, r4
 878 01f0 3046     		mov	r0, r6
 879 01f2 0A23     		movs	r3, #10
 880 01f4 FFF7FEFF 		bl	HAL_SPI_Transmit
 881              	.LVL82:
 882 01f8 7923     		movs	r3, #121
 883 01fa 08F80F3D 		strb	r3, [r8, #-15]!
 884              	.LVL83:
 885              	.LBE603:
 886              	.LBE602:
 887              	.LBB606:
 888              	.LBB607:
 889              	.LBB608:
 890              	.LBB609:
   9:MakiseGUI/MakiseGUI/ILI9340C/ili9340.c **** 
 891              		.loc 1 9 0
 892 01fe 2246     		mov	r2, r4
 893 0200 2846     		mov	r0, r5
 894 0202 1021     		movs	r1, #16
 895 0204 FFF7FEFF 		bl	HAL_GPIO_WritePin
 896              	.LVL84:
 897 0208 1CAF     		add	r7, sp, #112
 898              	.LBE609:
 899              	.LBE608:
 312:MakiseGUI/MakiseGUI/ILI9340C/ili9340.c ****     return d;
 900              		.loc 1 312 0
 901 020a 4146     		mov	r1, r8
 902 020c 2246     		mov	r2, r4
 903 020e 3046     		mov	r0, r6
 904 0210 0A23     		movs	r3, #10
 905 0212 FFF7FEFF 		bl	HAL_SPI_Transmit
 906              	.LVL85:
 907 0216 CB23     		movs	r3, #203
 908 0218 07F8103D 		strb	r3, [r7, #-16]!
 909              	.LVL86:
 910              	.LBE607:
 911              	.LBE606:
 912              	.LBB610:
 913              	.LBB611:
 914              	.LBB612:
 915              	.LBB613:
   9:MakiseGUI/MakiseGUI/ILI9340C/ili9340.c **** 
ARM GAS  /tmp/ccczwsg0.s 			page 24


 916              		.loc 1 9 0
 917 021c 5A46     		mov	r2, fp
 918 021e 2846     		mov	r0, r5
 919 0220 1021     		movs	r1, #16
 920 0222 FFF7FEFF 		bl	HAL_GPIO_WritePin
 921              	.LVL87:
 922 0226 0DF17008 		add	r8, sp, #112
 923              	.LBE613:
 924              	.LBE612:
 925              		.loc 1 319 0
 926 022a 3946     		mov	r1, r7
 927 022c 2246     		mov	r2, r4
 928 022e 3046     		mov	r0, r6
 929 0230 0A23     		movs	r3, #10
 930 0232 FFF7FEFF 		bl	HAL_SPI_Transmit
 931              	.LVL88:
 932 0236 3923     		movs	r3, #57
 933 0238 08F8113D 		strb	r3, [r8, #-17]!
 934              	.LVL89:
 935              	.LBE611:
 936              	.LBE610:
 937              	.LBB614:
 938              	.LBB615:
 939              	.LBB616:
 940              	.LBB617:
   9:MakiseGUI/MakiseGUI/ILI9340C/ili9340.c **** 
 941              		.loc 1 9 0
 942 023c 2246     		mov	r2, r4
 943 023e 2846     		mov	r0, r5
 944 0240 1021     		movs	r1, #16
 945 0242 FFF7FEFF 		bl	HAL_GPIO_WritePin
 946              	.LVL90:
 947 0246 1CAF     		add	r7, sp, #112
 948              	.LBE617:
 949              	.LBE616:
 312:MakiseGUI/MakiseGUI/ILI9340C/ili9340.c ****     return d;
 950              		.loc 1 312 0
 951 0248 4146     		mov	r1, r8
 952 024a 2246     		mov	r2, r4
 953 024c 3046     		mov	r0, r6
 954 024e 0A23     		movs	r3, #10
 955 0250 FFF7FEFF 		bl	HAL_SPI_Transmit
 956              	.LVL91:
 957 0254 2C23     		movs	r3, #44
 958 0256 07F8123D 		strb	r3, [r7, #-18]!
 959              	.LVL92:
 960 025a 0DF17008 		add	r8, sp, #112
 961              	.LBE615:
 962              	.LBE614:
 963              	.LBB618:
 964              	.LBB619:
 965              	.LBB620:
 966              	.LBB621:
   9:MakiseGUI/MakiseGUI/ILI9340C/ili9340.c **** 
 967              		.loc 1 9 0
 968 025e 2246     		mov	r2, r4
 969 0260 2846     		mov	r0, r5
ARM GAS  /tmp/ccczwsg0.s 			page 25


 970 0262 1021     		movs	r1, #16
 971 0264 FFF7FEFF 		bl	HAL_GPIO_WritePin
 972              	.LVL93:
 973              	.LBE621:
 974              	.LBE620:
 312:MakiseGUI/MakiseGUI/ILI9340C/ili9340.c ****     return d;
 975              		.loc 1 312 0
 976 0268 3946     		mov	r1, r7
 977 026a 2246     		mov	r2, r4
 978 026c 0A23     		movs	r3, #10
 979 026e 3046     		mov	r0, r6
 980 0270 FFF7FEFF 		bl	HAL_SPI_Transmit
 981              	.LVL94:
 982 0274 08F813BD 		strb	fp, [r8, #-19]!
 983              	.LVL95:
 984              	.LBE619:
 985              	.LBE618:
 986              	.LBB622:
 987              	.LBB623:
 988              	.LBB624:
 989              	.LBB625:
   9:MakiseGUI/MakiseGUI/ILI9340C/ili9340.c **** 
 990              		.loc 1 9 0
 991 0278 2246     		mov	r2, r4
 992 027a 2846     		mov	r0, r5
 993 027c 1021     		movs	r1, #16
 994 027e FFF7FEFF 		bl	HAL_GPIO_WritePin
 995              	.LVL96:
 996 0282 1CAF     		add	r7, sp, #112
 997              	.LBE625:
 998              	.LBE624:
 312:MakiseGUI/MakiseGUI/ILI9340C/ili9340.c ****     return d;
 999              		.loc 1 312 0
 1000 0284 4146     		mov	r1, r8
 1001 0286 2246     		mov	r2, r4
 1002 0288 3046     		mov	r0, r6
 1003 028a 0A23     		movs	r3, #10
 1004 028c FFF7FEFF 		bl	HAL_SPI_Transmit
 1005              	.LVL97:
 1006 0290 3423     		movs	r3, #52
 1007 0292 07F8143D 		strb	r3, [r7, #-20]!
 1008              	.LVL98:
 1009              	.LBE623:
 1010              	.LBE622:
 1011              	.LBB626:
 1012              	.LBB627:
 1013              	.LBB628:
 1014              	.LBB629:
   9:MakiseGUI/MakiseGUI/ILI9340C/ili9340.c **** 
 1015              		.loc 1 9 0
 1016 0296 2246     		mov	r2, r4
 1017 0298 2846     		mov	r0, r5
 1018 029a 1021     		movs	r1, #16
 1019 029c FFF7FEFF 		bl	HAL_GPIO_WritePin
 1020              	.LVL99:
 1021 02a0 0DF17008 		add	r8, sp, #112
 1022              	.LBE629:
ARM GAS  /tmp/ccczwsg0.s 			page 26


 1023              	.LBE628:
 312:MakiseGUI/MakiseGUI/ILI9340C/ili9340.c ****     return d;
 1024              		.loc 1 312 0
 1025 02a4 3946     		mov	r1, r7
 1026 02a6 2246     		mov	r2, r4
 1027 02a8 3046     		mov	r0, r6
 1028 02aa 0A23     		movs	r3, #10
 1029 02ac FFF7FEFF 		bl	HAL_SPI_Transmit
 1030              	.LVL100:
 1031 02b0 4FF00203 		mov	r3, #2
 1032 02b4 08F8153D 		strb	r3, [r8, #-21]!
 1033              	.LVL101:
 1034              	.LBE627:
 1035              	.LBE626:
 1036              	.LBB630:
 1037              	.LBB631:
 1038              	.LBB632:
 1039              	.LBB633:
   9:MakiseGUI/MakiseGUI/ILI9340C/ili9340.c **** 
 1040              		.loc 1 9 0
 1041 02b8 2246     		mov	r2, r4
 1042 02ba 2846     		mov	r0, r5
 1043 02bc 1021     		movs	r1, #16
 1044 02be FFF7FEFF 		bl	HAL_GPIO_WritePin
 1045              	.LVL102:
 1046 02c2 1CAF     		add	r7, sp, #112
 1047              	.LBE633:
 1048              	.LBE632:
 312:MakiseGUI/MakiseGUI/ILI9340C/ili9340.c ****     return d;
 1049              		.loc 1 312 0
 1050 02c4 4146     		mov	r1, r8
 1051 02c6 2246     		mov	r2, r4
 1052 02c8 3046     		mov	r0, r6
 1053 02ca 0A23     		movs	r3, #10
 1054 02cc FFF7FEFF 		bl	HAL_SPI_Transmit
 1055              	.LVL103:
 1056 02d0 F723     		movs	r3, #247
 1057 02d2 07F8163D 		strb	r3, [r7, #-22]!
 1058              	.LVL104:
 1059              	.LBE631:
 1060              	.LBE630:
 1061              	.LBB634:
 1062              	.LBB635:
 1063              	.LBB636:
 1064              	.LBB637:
   9:MakiseGUI/MakiseGUI/ILI9340C/ili9340.c **** 
 1065              		.loc 1 9 0
 1066 02d6 5A46     		mov	r2, fp
 1067 02d8 2846     		mov	r0, r5
 1068 02da 1021     		movs	r1, #16
 1069 02dc FFF7FEFF 		bl	HAL_GPIO_WritePin
 1070              	.LVL105:
 1071 02e0 0DF17008 		add	r8, sp, #112
 1072              	.LBE637:
 1073              	.LBE636:
 1074              		.loc 1 319 0
 1075 02e4 3946     		mov	r1, r7
ARM GAS  /tmp/ccczwsg0.s 			page 27


 1076 02e6 2246     		mov	r2, r4
 1077 02e8 3046     		mov	r0, r6
 1078 02ea 0A23     		movs	r3, #10
 1079 02ec FFF7FEFF 		bl	HAL_SPI_Transmit
 1080              	.LVL106:
 1081 02f0 2023     		movs	r3, #32
 1082 02f2 08F8173D 		strb	r3, [r8, #-23]!
 1083              	.LVL107:
 1084              	.LBE635:
 1085              	.LBE634:
 1086              	.LBB638:
 1087              	.LBB639:
 1088              	.LBB640:
 1089              	.LBB641:
   9:MakiseGUI/MakiseGUI/ILI9340C/ili9340.c **** 
 1090              		.loc 1 9 0
 1091 02f6 2246     		mov	r2, r4
 1092 02f8 2846     		mov	r0, r5
 1093 02fa 1021     		movs	r1, #16
 1094 02fc FFF7FEFF 		bl	HAL_GPIO_WritePin
 1095              	.LVL108:
 1096 0300 1CAF     		add	r7, sp, #112
 1097              	.LBE641:
 1098              	.LBE640:
 312:MakiseGUI/MakiseGUI/ILI9340C/ili9340.c ****     return d;
 1099              		.loc 1 312 0
 1100 0302 4146     		mov	r1, r8
 1101 0304 2246     		mov	r2, r4
 1102 0306 3046     		mov	r0, r6
 1103 0308 0A23     		movs	r3, #10
 1104 030a FFF7FEFF 		bl	HAL_SPI_Transmit
 1105              	.LVL109:
 1106 030e EA23     		movs	r3, #234
 1107 0310 07F8183D 		strb	r3, [r7, #-24]!
 1108              	.LVL110:
 1109              	.LBE639:
 1110              	.LBE638:
 1111              	.LBB642:
 1112              	.LBB643:
 1113              	.LBB644:
 1114              	.LBB645:
   9:MakiseGUI/MakiseGUI/ILI9340C/ili9340.c **** 
 1115              		.loc 1 9 0
 1116 0314 5A46     		mov	r2, fp
 1117 0316 2846     		mov	r0, r5
 1118 0318 1021     		movs	r1, #16
 1119 031a FFF7FEFF 		bl	HAL_GPIO_WritePin
 1120              	.LVL111:
 1121              	.LBE645:
 1122              	.LBE644:
 1123              		.loc 1 319 0
 1124 031e 3946     		mov	r1, r7
 1125 0320 1CAF     		add	r7, sp, #112
 1126 0322 2246     		mov	r2, r4
 1127 0324 0A23     		movs	r3, #10
 1128 0326 3046     		mov	r0, r6
 1129 0328 FFF7FEFF 		bl	HAL_SPI_Transmit
ARM GAS  /tmp/ccczwsg0.s 			page 28


 1130              	.LVL112:
 1131 032c 07F819BD 		strb	fp, [r7, #-25]!
 1132              	.LVL113:
 1133              	.LBE643:
 1134              	.LBE642:
 1135              	.LBB646:
 1136              	.LBB647:
 1137              	.LBB648:
 1138              	.LBB649:
   9:MakiseGUI/MakiseGUI/ILI9340C/ili9340.c **** 
 1139              		.loc 1 9 0
 1140 0330 2246     		mov	r2, r4
 1141 0332 2846     		mov	r0, r5
 1142 0334 1021     		movs	r1, #16
 1143 0336 FFF7FEFF 		bl	HAL_GPIO_WritePin
 1144              	.LVL114:
 1145              	.LBE649:
 1146              	.LBE648:
 312:MakiseGUI/MakiseGUI/ILI9340C/ili9340.c ****     return d;
 1147              		.loc 1 312 0
 1148 033a 3946     		mov	r1, r7
 1149 033c 1CAF     		add	r7, sp, #112
 1150 033e 2246     		mov	r2, r4
 1151 0340 0A23     		movs	r3, #10
 1152 0342 3046     		mov	r0, r6
 1153 0344 FFF7FEFF 		bl	HAL_SPI_Transmit
 1154              	.LVL115:
 1155 0348 07F81ABD 		strb	fp, [r7, #-26]!
 1156              	.LVL116:
 1157              	.LBE647:
 1158              	.LBE646:
 1159              	.LBB650:
 1160              	.LBB651:
 1161              	.LBB652:
 1162              	.LBB653:
   9:MakiseGUI/MakiseGUI/ILI9340C/ili9340.c **** 
 1163              		.loc 1 9 0
 1164 034c 2246     		mov	r2, r4
 1165 034e 2846     		mov	r0, r5
 1166 0350 1021     		movs	r1, #16
 1167 0352 FFF7FEFF 		bl	HAL_GPIO_WritePin
 1168              	.LVL117:
 1169 0356 0DF17008 		add	r8, sp, #112
 1170              	.LBE653:
 1171              	.LBE652:
 312:MakiseGUI/MakiseGUI/ILI9340C/ili9340.c ****     return d;
 1172              		.loc 1 312 0
 1173 035a 3946     		mov	r1, r7
 1174 035c 2246     		mov	r2, r4
 1175 035e 3046     		mov	r0, r6
 1176 0360 0A23     		movs	r3, #10
 1177 0362 FFF7FEFF 		bl	HAL_SPI_Transmit
 1178              	.LVL118:
 1179 0366 C023     		movs	r3, #192
 1180 0368 08F81B3D 		strb	r3, [r8, #-27]!
 1181              	.LVL119:
 1182 036c 1CAF     		add	r7, sp, #112
ARM GAS  /tmp/ccczwsg0.s 			page 29


 1183              	.LBE651:
 1184              	.LBE650:
 1185              	.LBB654:
 1186              	.LBB655:
 1187              	.LBB656:
 1188              	.LBB657:
   9:MakiseGUI/MakiseGUI/ILI9340C/ili9340.c **** 
 1189              		.loc 1 9 0
 1190 036e 5A46     		mov	r2, fp
 1191 0370 2846     		mov	r0, r5
 1192 0372 1021     		movs	r1, #16
 1193 0374 FFF7FEFF 		bl	HAL_GPIO_WritePin
 1194              	.LVL120:
 1195 0378 4FF02609 		mov	r9, #38
 1196              	.LBE657:
 1197              	.LBE656:
 1198              		.loc 1 319 0
 1199 037c 4146     		mov	r1, r8
 1200 037e 2246     		mov	r2, r4
 1201 0380 0A23     		movs	r3, #10
 1202 0382 3046     		mov	r0, r6
 1203 0384 FFF7FEFF 		bl	HAL_SPI_Transmit
 1204              	.LVL121:
 1205 0388 07F81C9D 		strb	r9, [r7, #-28]!
 1206              	.LVL122:
 1207              	.LBE655:
 1208              	.LBE654:
 1209              	.LBB658:
 1210              	.LBB659:
 1211              	.LBB660:
 1212              	.LBB661:
   9:MakiseGUI/MakiseGUI/ILI9340C/ili9340.c **** 
 1213              		.loc 1 9 0
 1214 038c 2246     		mov	r2, r4
 1215 038e 2846     		mov	r0, r5
 1216 0390 1021     		movs	r1, #16
 1217 0392 FFF7FEFF 		bl	HAL_GPIO_WritePin
 1218              	.LVL123:
 1219 0396 0DF17008 		add	r8, sp, #112
 1220              	.LBE661:
 1221              	.LBE660:
 312:MakiseGUI/MakiseGUI/ILI9340C/ili9340.c ****     return d;
 1222              		.loc 1 312 0
 1223 039a 3946     		mov	r1, r7
 1224 039c 2246     		mov	r2, r4
 1225 039e 3046     		mov	r0, r6
 1226 03a0 0A23     		movs	r3, #10
 1227 03a2 FFF7FEFF 		bl	HAL_SPI_Transmit
 1228              	.LVL124:
 1229 03a6 6FF03E03 		mvn	r3, #62
 1230 03aa 08F81D3D 		strb	r3, [r8, #-29]!
 1231              	.LVL125:
 1232              	.LBE659:
 1233              	.LBE658:
 1234              	.LBB662:
 1235              	.LBB663:
 1236              	.LBB664:
ARM GAS  /tmp/ccczwsg0.s 			page 30


 1237              	.LBB665:
   9:MakiseGUI/MakiseGUI/ILI9340C/ili9340.c **** 
 1238              		.loc 1 9 0
 1239 03ae 5A46     		mov	r2, fp
 1240 03b0 2846     		mov	r0, r5
 1241 03b2 1021     		movs	r1, #16
 1242 03b4 FFF7FEFF 		bl	HAL_GPIO_WritePin
 1243              	.LVL126:
 1244 03b8 1CAF     		add	r7, sp, #112
 1245              	.LBE665:
 1246              	.LBE664:
 1247              		.loc 1 319 0
 1248 03ba 4146     		mov	r1, r8
 1249 03bc 2246     		mov	r2, r4
 1250 03be 3046     		mov	r0, r6
 1251 03c0 0A23     		movs	r3, #10
 1252 03c2 FFF7FEFF 		bl	HAL_SPI_Transmit
 1253              	.LVL127:
 1254 03c6 4FF01103 		mov	r3, #17
 1255 03ca 07F81E3D 		strb	r3, [r7, #-30]!
 1256              	.LVL128:
 1257              	.LBE663:
 1258              	.LBE662:
 1259              	.LBB666:
 1260              	.LBB667:
 1261              	.LBB668:
 1262              	.LBB669:
   9:MakiseGUI/MakiseGUI/ILI9340C/ili9340.c **** 
 1263              		.loc 1 9 0
 1264 03ce 2246     		mov	r2, r4
 1265 03d0 2846     		mov	r0, r5
 1266 03d2 1021     		movs	r1, #16
 1267 03d4 04E0     		b	.L16
 1268              	.L17:
 1269 03d6 00BF     		.align	2
 1270              	.L15:
 1271 03d8 00080240 		.word	1073874944
 1272 03dc 00000000 		.word	hspi1
 1273              	.L16:
 1274 03e0 FFF7FEFF 		bl	HAL_GPIO_WritePin
 1275              	.LVL129:
 1276 03e4 0DF17008 		add	r8, sp, #112
 1277              	.LBE669:
 1278              	.LBE668:
 312:MakiseGUI/MakiseGUI/ILI9340C/ili9340.c ****     return d;
 1279              		.loc 1 312 0
 1280 03e8 3946     		mov	r1, r7
 1281 03ea 2246     		mov	r2, r4
 1282 03ec 3046     		mov	r0, r6
 1283 03ee 0A23     		movs	r3, #10
 1284 03f0 FFF7FEFF 		bl	HAL_SPI_Transmit
 1285              	.LVL130:
 1286 03f4 C523     		movs	r3, #197
 1287 03f6 08F81F3D 		strb	r3, [r8, #-31]!
 1288              	.LVL131:
 1289              	.LBE667:
 1290              	.LBE666:
ARM GAS  /tmp/ccczwsg0.s 			page 31


 1291              	.LBB670:
 1292              	.LBB671:
 1293              	.LBB672:
 1294              	.LBB673:
   9:MakiseGUI/MakiseGUI/ILI9340C/ili9340.c **** 
 1295              		.loc 1 9 0
 1296 03fa 5A46     		mov	r2, fp
 1297 03fc 2846     		mov	r0, r5
 1298 03fe 1021     		movs	r1, #16
 1299 0400 FFF7FEFF 		bl	HAL_GPIO_WritePin
 1300              	.LVL132:
 1301 0404 1CAF     		add	r7, sp, #112
 1302              	.LBE673:
 1303              	.LBE672:
 1304              		.loc 1 319 0
 1305 0406 4146     		mov	r1, r8
 1306 0408 2246     		mov	r2, r4
 1307 040a 3046     		mov	r0, r6
 1308 040c 0A23     		movs	r3, #10
 1309 040e FFF7FEFF 		bl	HAL_SPI_Transmit
 1310              	.LVL133:
 1311 0412 3523     		movs	r3, #53
 1312 0414 07F8203D 		strb	r3, [r7, #-32]!
 1313              	.LVL134:
 1314              	.LBE671:
 1315              	.LBE670:
 1316              	.LBB674:
 1317              	.LBB675:
 1318              	.LBB676:
 1319              	.LBB677:
   9:MakiseGUI/MakiseGUI/ILI9340C/ili9340.c **** 
 1320              		.loc 1 9 0
 1321 0418 2246     		mov	r2, r4
 1322 041a 2846     		mov	r0, r5
 1323 041c 1021     		movs	r1, #16
 1324 041e FFF7FEFF 		bl	HAL_GPIO_WritePin
 1325              	.LVL135:
 1326 0422 0DF17008 		add	r8, sp, #112
 1327              	.LBE677:
 1328              	.LBE676:
 312:MakiseGUI/MakiseGUI/ILI9340C/ili9340.c ****     return d;
 1329              		.loc 1 312 0
 1330 0426 3946     		mov	r1, r7
 1331 0428 2246     		mov	r2, r4
 1332 042a 3046     		mov	r0, r6
 1333 042c 0A23     		movs	r3, #10
 1334 042e FFF7FEFF 		bl	HAL_SPI_Transmit
 1335              	.LVL136:
 1336 0432 3E23     		movs	r3, #62
 1337 0434 08F8213D 		strb	r3, [r8, #-33]!
 1338              	.LVL137:
 1339              	.LBE675:
 1340              	.LBE674:
 1341              	.LBB678:
 1342              	.LBB679:
 1343              	.LBB680:
 1344              	.LBB681:
ARM GAS  /tmp/ccczwsg0.s 			page 32


   9:MakiseGUI/MakiseGUI/ILI9340C/ili9340.c **** 
 1345              		.loc 1 9 0
 1346 0438 2246     		mov	r2, r4
 1347 043a 2846     		mov	r0, r5
 1348 043c 1021     		movs	r1, #16
 1349 043e FFF7FEFF 		bl	HAL_GPIO_WritePin
 1350              	.LVL138:
 1351 0442 1CAF     		add	r7, sp, #112
 1352              	.LBE681:
 1353              	.LBE680:
 312:MakiseGUI/MakiseGUI/ILI9340C/ili9340.c ****     return d;
 1354              		.loc 1 312 0
 1355 0444 4146     		mov	r1, r8
 1356 0446 2246     		mov	r2, r4
 1357 0448 3046     		mov	r0, r6
 1358 044a 0A23     		movs	r3, #10
 1359 044c FFF7FEFF 		bl	HAL_SPI_Transmit
 1360              	.LVL139:
 1361 0450 C723     		movs	r3, #199
 1362 0452 07F8223D 		strb	r3, [r7, #-34]!
 1363              	.LVL140:
 1364              	.LBE679:
 1365              	.LBE678:
 1366              	.LBB682:
 1367              	.LBB683:
 1368              	.LBB684:
 1369              	.LBB685:
   9:MakiseGUI/MakiseGUI/ILI9340C/ili9340.c **** 
 1370              		.loc 1 9 0
 1371 0456 5A46     		mov	r2, fp
 1372 0458 2846     		mov	r0, r5
 1373 045a 1021     		movs	r1, #16
 1374 045c FFF7FEFF 		bl	HAL_GPIO_WritePin
 1375              	.LVL141:
 1376 0460 0DF17008 		add	r8, sp, #112
 1377              	.LBE685:
 1378              	.LBE684:
 1379              		.loc 1 319 0
 1380 0464 3946     		mov	r1, r7
 1381 0466 2246     		mov	r2, r4
 1382 0468 3046     		mov	r0, r6
 1383 046a 0A23     		movs	r3, #10
 1384 046c FFF7FEFF 		bl	HAL_SPI_Transmit
 1385              	.LVL142:
 1386 0470 BE23     		movs	r3, #190
 1387 0472 08F8233D 		strb	r3, [r8, #-35]!
 1388              	.LVL143:
 1389              	.LBE683:
 1390              	.LBE682:
 1391              	.LBB686:
 1392              	.LBB687:
 1393              	.LBB688:
 1394              	.LBB689:
   9:MakiseGUI/MakiseGUI/ILI9340C/ili9340.c **** 
 1395              		.loc 1 9 0
 1396 0476 2246     		mov	r2, r4
 1397 0478 2846     		mov	r0, r5
ARM GAS  /tmp/ccczwsg0.s 			page 33


 1398 047a 1021     		movs	r1, #16
 1399 047c FFF7FEFF 		bl	HAL_GPIO_WritePin
 1400              	.LVL144:
 1401 0480 1CAF     		add	r7, sp, #112
 1402              	.LBE689:
 1403              	.LBE688:
 312:MakiseGUI/MakiseGUI/ILI9340C/ili9340.c ****     return d;
 1404              		.loc 1 312 0
 1405 0482 4146     		mov	r1, r8
 1406 0484 2246     		mov	r2, r4
 1407 0486 3046     		mov	r0, r6
 1408 0488 0A23     		movs	r3, #10
 1409 048a FFF7FEFF 		bl	HAL_SPI_Transmit
 1410              	.LVL145:
 1411 048e 4FF03603 		mov	r3, #54
 1412 0492 07F8243D 		strb	r3, [r7, #-36]!
 1413              	.LVL146:
 1414 0496 0DF17008 		add	r8, sp, #112
 1415              	.LBE687:
 1416              	.LBE686:
 1417              	.LBB690:
 1418              	.LBB691:
 1419              	.LBB692:
 1420              	.LBB693:
   9:MakiseGUI/MakiseGUI/ILI9340C/ili9340.c **** 
 1421              		.loc 1 9 0
 1422 049a 5A46     		mov	r2, fp
 1423 049c 2846     		mov	r0, r5
 1424 049e 1021     		movs	r1, #16
 1425 04a0 FFF7FEFF 		bl	HAL_GPIO_WritePin
 1426              	.LVL147:
 1427              	.LBE693:
 1428              	.LBE692:
 1429              		.loc 1 319 0
 1430 04a4 3946     		mov	r1, r7
 1431 04a6 2246     		mov	r2, r4
 1432 04a8 0A23     		movs	r3, #10
 1433 04aa 3046     		mov	r0, r6
 1434 04ac FFF7FEFF 		bl	HAL_SPI_Transmit
 1435              	.LVL148:
 1436 04b0 08F825AD 		strb	r10, [r8, #-37]!
 1437              	.LVL149:
 1438              	.LBE691:
 1439              	.LBE690:
 1440              	.LBB694:
 1441              	.LBB695:
 1442              	.LBB696:
 1443              	.LBB697:
   9:MakiseGUI/MakiseGUI/ILI9340C/ili9340.c **** 
 1444              		.loc 1 9 0
 1445 04b4 2246     		mov	r2, r4
 1446 04b6 2846     		mov	r0, r5
 1447 04b8 1021     		movs	r1, #16
 1448 04ba FFF7FEFF 		bl	HAL_GPIO_WritePin
 1449              	.LVL150:
 1450 04be 1CAF     		add	r7, sp, #112
 1451              	.LBE697:
ARM GAS  /tmp/ccczwsg0.s 			page 34


 1452              	.LBE696:
 312:MakiseGUI/MakiseGUI/ILI9340C/ili9340.c ****     return d;
 1453              		.loc 1 312 0
 1454 04c0 4146     		mov	r1, r8
 1455 04c2 2246     		mov	r2, r4
 1456 04c4 3046     		mov	r0, r6
 1457 04c6 0A23     		movs	r3, #10
 1458 04c8 FFF7FEFF 		bl	HAL_SPI_Transmit
 1459              	.LVL151:
 1460 04cc 3A23     		movs	r3, #58
 1461 04ce 07F8263D 		strb	r3, [r7, #-38]!
 1462              	.LVL152:
 1463              	.LBE695:
 1464              	.LBE694:
 1465              	.LBB698:
 1466              	.LBB699:
 1467              	.LBB700:
 1468              	.LBB701:
   9:MakiseGUI/MakiseGUI/ILI9340C/ili9340.c **** 
 1469              		.loc 1 9 0
 1470 04d2 5A46     		mov	r2, fp
 1471 04d4 2846     		mov	r0, r5
 1472 04d6 1021     		movs	r1, #16
 1473 04d8 FFF7FEFF 		bl	HAL_GPIO_WritePin
 1474              	.LVL153:
 1475 04dc 0DF17008 		add	r8, sp, #112
 1476              	.LBE701:
 1477              	.LBE700:
 1478              		.loc 1 319 0
 1479 04e0 3946     		mov	r1, r7
 1480 04e2 2246     		mov	r2, r4
 1481 04e4 3046     		mov	r0, r6
 1482 04e6 0A23     		movs	r3, #10
 1483 04e8 FFF7FEFF 		bl	HAL_SPI_Transmit
 1484              	.LVL154:
 1485 04ec 5523     		movs	r3, #85
 1486 04ee 08F8273D 		strb	r3, [r8, #-39]!
 1487              	.LVL155:
 1488              	.LBE699:
 1489              	.LBE698:
 1490              	.LBB702:
 1491              	.LBB703:
 1492              	.LBB704:
 1493              	.LBB705:
   9:MakiseGUI/MakiseGUI/ILI9340C/ili9340.c **** 
 1494              		.loc 1 9 0
 1495 04f2 2246     		mov	r2, r4
 1496 04f4 2846     		mov	r0, r5
 1497 04f6 1021     		movs	r1, #16
 1498 04f8 FFF7FEFF 		bl	HAL_GPIO_WritePin
 1499              	.LVL156:
 1500 04fc 1CAF     		add	r7, sp, #112
 1501              	.LBE705:
 1502              	.LBE704:
 312:MakiseGUI/MakiseGUI/ILI9340C/ili9340.c ****     return d;
 1503              		.loc 1 312 0
 1504 04fe 4146     		mov	r1, r8
ARM GAS  /tmp/ccczwsg0.s 			page 35


 1505 0500 2246     		mov	r2, r4
 1506 0502 3046     		mov	r0, r6
 1507 0504 0A23     		movs	r3, #10
 1508 0506 FFF7FEFF 		bl	HAL_SPI_Transmit
 1509              	.LVL157:
 1510 050a B123     		movs	r3, #177
 1511 050c 07F8283D 		strb	r3, [r7, #-40]!
 1512              	.LVL158:
 1513 0510 0DF17008 		add	r8, sp, #112
 1514              	.LBE703:
 1515              	.LBE702:
 1516              	.LBB706:
 1517              	.LBB707:
 1518              	.LBB708:
 1519              	.LBB709:
   9:MakiseGUI/MakiseGUI/ILI9340C/ili9340.c **** 
 1520              		.loc 1 9 0
 1521 0514 5A46     		mov	r2, fp
 1522 0516 2846     		mov	r0, r5
 1523 0518 1021     		movs	r1, #16
 1524 051a FFF7FEFF 		bl	HAL_GPIO_WritePin
 1525              	.LVL159:
 1526              	.LBE709:
 1527              	.LBE708:
 1528              		.loc 1 319 0
 1529 051e 3946     		mov	r1, r7
 1530 0520 2246     		mov	r2, r4
 1531 0522 0A23     		movs	r3, #10
 1532 0524 3046     		mov	r0, r6
 1533 0526 FFF7FEFF 		bl	HAL_SPI_Transmit
 1534              	.LVL160:
 1535 052a 08F829BD 		strb	fp, [r8, #-41]!
 1536              	.LVL161:
 1537              	.LBE707:
 1538              	.LBE706:
 1539              	.LBB710:
 1540              	.LBB711:
 1541              	.LBB712:
 1542              	.LBB713:
   9:MakiseGUI/MakiseGUI/ILI9340C/ili9340.c **** 
 1543              		.loc 1 9 0
 1544 052e 2246     		mov	r2, r4
 1545 0530 2846     		mov	r0, r5
 1546 0532 1021     		movs	r1, #16
 1547 0534 FFF7FEFF 		bl	HAL_GPIO_WritePin
 1548              	.LVL162:
 1549 0538 1CAF     		add	r7, sp, #112
 1550              	.LBE713:
 1551              	.LBE712:
 312:MakiseGUI/MakiseGUI/ILI9340C/ili9340.c ****     return d;
 1552              		.loc 1 312 0
 1553 053a 4146     		mov	r1, r8
 1554 053c 2246     		mov	r2, r4
 1555 053e 3046     		mov	r0, r6
 1556 0540 0A23     		movs	r3, #10
 1557 0542 FFF7FEFF 		bl	HAL_SPI_Transmit
 1558              	.LVL163:
ARM GAS  /tmp/ccczwsg0.s 			page 36


 1559 0546 1B23     		movs	r3, #27
 1560 0548 07F82A3D 		strb	r3, [r7, #-42]!
 1561              	.LVL164:
 1562              	.LBE711:
 1563              	.LBE710:
 1564              	.LBB714:
 1565              	.LBB715:
 1566              	.LBB716:
 1567              	.LBB717:
   9:MakiseGUI/MakiseGUI/ILI9340C/ili9340.c **** 
 1568              		.loc 1 9 0
 1569 054c 2246     		mov	r2, r4
 1570 054e 2846     		mov	r0, r5
 1571 0550 1021     		movs	r1, #16
 1572 0552 FFF7FEFF 		bl	HAL_GPIO_WritePin
 1573              	.LVL165:
 1574 0556 0DF17008 		add	r8, sp, #112
 1575              	.LBE717:
 1576              	.LBE716:
 312:MakiseGUI/MakiseGUI/ILI9340C/ili9340.c ****     return d;
 1577              		.loc 1 312 0
 1578 055a 3946     		mov	r1, r7
 1579 055c 2246     		mov	r2, r4
 1580 055e 3046     		mov	r0, r6
 1581 0560 0A23     		movs	r3, #10
 1582 0562 FFF7FEFF 		bl	HAL_SPI_Transmit
 1583              	.LVL166:
 1584 0566 F223     		movs	r3, #242
 1585 0568 08F82B3D 		strb	r3, [r8, #-43]!
 1586              	.LVL167:
 1587              	.LBE715:
 1588              	.LBE714:
 1589              	.LBB718:
 1590              	.LBB719:
 1591              	.LBB720:
 1592              	.LBB721:
   9:MakiseGUI/MakiseGUI/ILI9340C/ili9340.c **** 
 1593              		.loc 1 9 0
 1594 056c 5A46     		mov	r2, fp
 1595 056e 2846     		mov	r0, r5
 1596 0570 1021     		movs	r1, #16
 1597 0572 FFF7FEFF 		bl	HAL_GPIO_WritePin
 1598              	.LVL168:
 1599 0576 1CAF     		add	r7, sp, #112
 1600              	.LBE721:
 1601              	.LBE720:
 1602              		.loc 1 319 0
 1603 0578 4146     		mov	r1, r8
 1604 057a 2246     		mov	r2, r4
 1605 057c 3046     		mov	r0, r6
 1606 057e 0A23     		movs	r3, #10
 1607 0580 FFF7FEFF 		bl	HAL_SPI_Transmit
 1608              	.LVL169:
 1609 0584 4FF00803 		mov	r3, #8
 1610 0588 07F82C3D 		strb	r3, [r7, #-44]!
 1611              	.LVL170:
 1612              	.LBE719:
ARM GAS  /tmp/ccczwsg0.s 			page 37


 1613              	.LBE718:
 1614              	.LBB722:
 1615              	.LBB723:
 1616              	.LBB724:
 1617              	.LBB725:
   9:MakiseGUI/MakiseGUI/ILI9340C/ili9340.c **** 
 1618              		.loc 1 9 0
 1619 058c 2246     		mov	r2, r4
 1620 058e 2846     		mov	r0, r5
 1621 0590 1021     		movs	r1, #16
 1622 0592 FFF7FEFF 		bl	HAL_GPIO_WritePin
 1623              	.LVL171:
 1624              	.LBE725:
 1625              	.LBE724:
 312:MakiseGUI/MakiseGUI/ILI9340C/ili9340.c ****     return d;
 1626              		.loc 1 312 0
 1627 0596 3946     		mov	r1, r7
 1628 0598 1CAF     		add	r7, sp, #112
 1629 059a 2246     		mov	r2, r4
 1630 059c 0A23     		movs	r3, #10
 1631 059e 3046     		mov	r0, r6
 1632 05a0 FFF7FEFF 		bl	HAL_SPI_Transmit
 1633              	.LVL172:
 1634 05a4 07F82D9D 		strb	r9, [r7, #-45]!
 1635              	.LVL173:
 1636              	.LBE723:
 1637              	.LBE722:
 1638              	.LBB726:
 1639              	.LBB727:
 1640              	.LBB728:
 1641              	.LBB729:
   9:MakiseGUI/MakiseGUI/ILI9340C/ili9340.c **** 
 1642              		.loc 1 9 0
 1643 05a8 5A46     		mov	r2, fp
 1644 05aa 2846     		mov	r0, r5
 1645 05ac 1021     		movs	r1, #16
 1646 05ae FFF7FEFF 		bl	HAL_GPIO_WritePin
 1647              	.LVL174:
 1648              	.LBE729:
 1649              	.LBE728:
 1650              		.loc 1 319 0
 1651 05b2 3946     		mov	r1, r7
 1652 05b4 2246     		mov	r2, r4
 1653 05b6 1CAF     		add	r7, sp, #112
 1654 05b8 3046     		mov	r0, r6
 1655 05ba 0A23     		movs	r3, #10
 1656 05bc FFF7FEFF 		bl	HAL_SPI_Transmit
 1657              	.LVL175:
 1658 05c0 4FF00203 		mov	r3, #2
 1659 05c4 07F82E3D 		strb	r3, [r7, #-46]!
 1660              	.LVL176:
 1661              	.LBE727:
 1662              	.LBE726:
 1663              	.LBB730:
 1664              	.LBB731:
 1665              	.LBB732:
 1666              	.LBB733:
ARM GAS  /tmp/ccczwsg0.s 			page 38


   9:MakiseGUI/MakiseGUI/ILI9340C/ili9340.c **** 
 1667              		.loc 1 9 0
 1668 05c8 2246     		mov	r2, r4
 1669 05ca 2846     		mov	r0, r5
 1670 05cc 1021     		movs	r1, #16
 1671 05ce FFF7FEFF 		bl	HAL_GPIO_WritePin
 1672              	.LVL177:
 1673 05d2 0DF17008 		add	r8, sp, #112
 1674              	.LBE733:
 1675              	.LBE732:
 312:MakiseGUI/MakiseGUI/ILI9340C/ili9340.c ****     return d;
 1676              		.loc 1 312 0
 1677 05d6 3946     		mov	r1, r7
 1678 05d8 2246     		mov	r2, r4
 1679 05da 3046     		mov	r0, r6
 1680 05dc 0A23     		movs	r3, #10
 1681 05de FFF7FEFF 		bl	HAL_SPI_Transmit
 1682              	.LVL178:
 1683 05e2 E023     		movs	r3, #224
 1684 05e4 08F82F3D 		strb	r3, [r8, #-47]!
 1685              	.LVL179:
 1686              	.LBE731:
 1687              	.LBE730:
 1688              	.LBB734:
 1689              	.LBB735:
 1690              	.LBB736:
 1691              	.LBB737:
   9:MakiseGUI/MakiseGUI/ILI9340C/ili9340.c **** 
 1692              		.loc 1 9 0
 1693 05e8 5A46     		mov	r2, fp
 1694 05ea 2846     		mov	r0, r5
 1695 05ec 1021     		movs	r1, #16
 1696 05ee FFF7FEFF 		bl	HAL_GPIO_WritePin
 1697              	.LVL180:
 1698 05f2 1CAF     		add	r7, sp, #112
 1699              	.LBE737:
 1700              	.LBE736:
 1701              		.loc 1 319 0
 1702 05f4 4146     		mov	r1, r8
 1703 05f6 2246     		mov	r2, r4
 1704 05f8 3046     		mov	r0, r6
 1705 05fa 0A23     		movs	r3, #10
 1706 05fc FFF7FEFF 		bl	HAL_SPI_Transmit
 1707              	.LVL181:
 1708 0600 4FF00F03 		mov	r3, #15
 1709 0604 07F8303D 		strb	r3, [r7, #-48]!
 1710              	.LVL182:
 1711              	.LBE735:
 1712              	.LBE734:
 1713              	.LBB738:
 1714              	.LBB739:
 1715              	.LBB740:
 1716              	.LBB741:
   9:MakiseGUI/MakiseGUI/ILI9340C/ili9340.c **** 
 1717              		.loc 1 9 0
 1718 0608 2246     		mov	r2, r4
 1719 060a 2846     		mov	r0, r5
ARM GAS  /tmp/ccczwsg0.s 			page 39


 1720 060c 1021     		movs	r1, #16
 1721 060e FFF7FEFF 		bl	HAL_GPIO_WritePin
 1722              	.LVL183:
 1723 0612 0DF17008 		add	r8, sp, #112
 1724              	.LBE741:
 1725              	.LBE740:
 312:MakiseGUI/MakiseGUI/ILI9340C/ili9340.c ****     return d;
 1726              		.loc 1 312 0
 1727 0616 3946     		mov	r1, r7
 1728 0618 2246     		mov	r2, r4
 1729 061a 3046     		mov	r0, r6
 1730 061c 0A23     		movs	r3, #10
 1731 061e FFF7FEFF 		bl	HAL_SPI_Transmit
 1732              	.LVL184:
 1733 0622 4FF03103 		mov	r3, #49
 1734 0626 08F8313D 		strb	r3, [r8, #-49]!
 1735              	.LVL185:
 1736              	.LBE739:
 1737              	.LBE738:
 1738              	.LBB742:
 1739              	.LBB743:
 1740              	.LBB744:
 1741              	.LBB745:
   9:MakiseGUI/MakiseGUI/ILI9340C/ili9340.c **** 
 1742              		.loc 1 9 0
 1743 062a 2246     		mov	r2, r4
 1744 062c 2846     		mov	r0, r5
 1745 062e 1021     		movs	r1, #16
 1746 0630 FFF7FEFF 		bl	HAL_GPIO_WritePin
 1747              	.LVL186:
 1748 0634 1CAF     		add	r7, sp, #112
 1749              	.LBE745:
 1750              	.LBE744:
 312:MakiseGUI/MakiseGUI/ILI9340C/ili9340.c ****     return d;
 1751              		.loc 1 312 0
 1752 0636 4146     		mov	r1, r8
 1753 0638 2246     		mov	r2, r4
 1754 063a 3046     		mov	r0, r6
 1755 063c 0A23     		movs	r3, #10
 1756 063e FFF7FEFF 		bl	HAL_SPI_Transmit
 1757              	.LVL187:
 1758 0642 2B23     		movs	r3, #43
 1759 0644 07F8323D 		strb	r3, [r7, #-50]!
 1760              	.LVL188:
 1761              	.LBE743:
 1762              	.LBE742:
 1763              	.LBB746:
 1764              	.LBB747:
 1765              	.LBB748:
 1766              	.LBB749:
   9:MakiseGUI/MakiseGUI/ILI9340C/ili9340.c **** 
 1767              		.loc 1 9 0
 1768 0648 2246     		mov	r2, r4
 1769 064a 2846     		mov	r0, r5
 1770 064c 1021     		movs	r1, #16
 1771 064e FFF7FEFF 		bl	HAL_GPIO_WritePin
 1772              	.LVL189:
ARM GAS  /tmp/ccczwsg0.s 			page 40


 1773 0652 0DF17009 		add	r9, sp, #112
 1774              	.LBE749:
 1775              	.LBE748:
 312:MakiseGUI/MakiseGUI/ILI9340C/ili9340.c ****     return d;
 1776              		.loc 1 312 0
 1777 0656 3946     		mov	r1, r7
 1778 0658 2246     		mov	r2, r4
 1779 065a 3046     		mov	r0, r6
 1780 065c 0A23     		movs	r3, #10
 1781 065e FFF7FEFF 		bl	HAL_SPI_Transmit
 1782              	.LVL190:
 1783 0662 4FF00C03 		mov	r3, #12
 1784 0666 09F8333D 		strb	r3, [r9, #-51]!
 1785              	.LVL191:
 1786 066a 1CAF     		add	r7, sp, #112
 1787              	.LBE747:
 1788              	.LBE746:
 1789              	.LBB750:
 1790              	.LBB751:
 1791              	.LBB752:
 1792              	.LBB753:
   9:MakiseGUI/MakiseGUI/ILI9340C/ili9340.c **** 
 1793              		.loc 1 9 0
 1794 066c 2246     		mov	r2, r4
 1795 066e 2846     		mov	r0, r5
 1796 0670 1021     		movs	r1, #16
 1797 0672 FFF7FEFF 		bl	HAL_GPIO_WritePin
 1798              	.LVL192:
 1799 0676 4FF00E08 		mov	r8, #14
 1800              	.LBE753:
 1801              	.LBE752:
 312:MakiseGUI/MakiseGUI/ILI9340C/ili9340.c ****     return d;
 1802              		.loc 1 312 0
 1803 067a 4946     		mov	r1, r9
 1804 067c 2246     		mov	r2, r4
 1805 067e 0A23     		movs	r3, #10
 1806 0680 3046     		mov	r0, r6
 1807 0682 FFF7FEFF 		bl	HAL_SPI_Transmit
 1808              	.LVL193:
 1809 0686 07F8348D 		strb	r8, [r7, #-52]!
 1810              	.LVL194:
 1811              	.LBE751:
 1812              	.LBE750:
 1813              	.LBB754:
 1814              	.LBB755:
 1815              	.LBB756:
 1816              	.LBB757:
   9:MakiseGUI/MakiseGUI/ILI9340C/ili9340.c **** 
 1817              		.loc 1 9 0
 1818 068a 2246     		mov	r2, r4
 1819 068c 2846     		mov	r0, r5
 1820 068e 1021     		movs	r1, #16
 1821 0690 FFF7FEFF 		bl	HAL_GPIO_WritePin
 1822              	.LVL195:
 1823 0694 0DF17009 		add	r9, sp, #112
 1824              	.LBE757:
 1825              	.LBE756:
ARM GAS  /tmp/ccczwsg0.s 			page 41


 312:MakiseGUI/MakiseGUI/ILI9340C/ili9340.c ****     return d;
 1826              		.loc 1 312 0
 1827 0698 3946     		mov	r1, r7
 1828 069a 2246     		mov	r2, r4
 1829 069c 3046     		mov	r0, r6
 1830 069e 0A23     		movs	r3, #10
 1831 06a0 FFF7FEFF 		bl	HAL_SPI_Transmit
 1832              	.LVL196:
 1833 06a4 4FF00803 		mov	r3, #8
 1834 06a8 09F8353D 		strb	r3, [r9, #-53]!
 1835              	.LVL197:
 1836              	.LBE755:
 1837              	.LBE754:
 1838              	.LBB758:
 1839              	.LBB759:
 1840              	.LBB760:
 1841              	.LBB761:
   9:MakiseGUI/MakiseGUI/ILI9340C/ili9340.c **** 
 1842              		.loc 1 9 0
 1843 06ac 2246     		mov	r2, r4
 1844 06ae 2846     		mov	r0, r5
 1845 06b0 1021     		movs	r1, #16
 1846 06b2 FFF7FEFF 		bl	HAL_GPIO_WritePin
 1847              	.LVL198:
 1848 06b6 1CAF     		add	r7, sp, #112
 1849              	.LBE761:
 1850              	.LBE760:
 312:MakiseGUI/MakiseGUI/ILI9340C/ili9340.c ****     return d;
 1851              		.loc 1 312 0
 1852 06b8 4946     		mov	r1, r9
 1853 06ba 2246     		mov	r2, r4
 1854 06bc 3046     		mov	r0, r6
 1855 06be 0A23     		movs	r3, #10
 1856 06c0 FFF7FEFF 		bl	HAL_SPI_Transmit
 1857              	.LVL199:
 1858 06c4 4E23     		movs	r3, #78
 1859 06c6 07F8363D 		strb	r3, [r7, #-54]!
 1860              	.LVL200:
 1861              	.LBE759:
 1862              	.LBE758:
 1863              	.LBB762:
 1864              	.LBB763:
 1865              	.LBB764:
 1866              	.LBB765:
   9:MakiseGUI/MakiseGUI/ILI9340C/ili9340.c **** 
 1867              		.loc 1 9 0
 1868 06ca 2246     		mov	r2, r4
 1869 06cc 2846     		mov	r0, r5
 1870 06ce 1021     		movs	r1, #16
 1871 06d0 FFF7FEFF 		bl	HAL_GPIO_WritePin
 1872              	.LVL201:
 1873 06d4 0DF17009 		add	r9, sp, #112
 1874              	.LBE765:
 1875              	.LBE764:
 312:MakiseGUI/MakiseGUI/ILI9340C/ili9340.c ****     return d;
 1876              		.loc 1 312 0
 1877 06d8 3946     		mov	r1, r7
ARM GAS  /tmp/ccczwsg0.s 			page 42


 1878 06da 2246     		mov	r2, r4
 1879 06dc 3046     		mov	r0, r6
 1880 06de 0A23     		movs	r3, #10
 1881 06e0 FFF7FEFF 		bl	HAL_SPI_Transmit
 1882              	.LVL202:
 1883 06e4 F123     		movs	r3, #241
 1884 06e6 09F8373D 		strb	r3, [r9, #-55]!
 1885              	.LVL203:
 1886              	.LBE763:
 1887              	.LBE762:
 1888              	.LBB766:
 1889              	.LBB767:
 1890              	.LBB768:
 1891              	.LBB769:
   9:MakiseGUI/MakiseGUI/ILI9340C/ili9340.c **** 
 1892              		.loc 1 9 0
 1893 06ea 2246     		mov	r2, r4
 1894 06ec 2846     		mov	r0, r5
 1895 06ee 1021     		movs	r1, #16
 1896 06f0 FFF7FEFF 		bl	HAL_GPIO_WritePin
 1897              	.LVL204:
 1898 06f4 1CAF     		add	r7, sp, #112
 1899              	.LBE769:
 1900              	.LBE768:
 312:MakiseGUI/MakiseGUI/ILI9340C/ili9340.c ****     return d;
 1901              		.loc 1 312 0
 1902 06f6 4946     		mov	r1, r9
 1903 06f8 2246     		mov	r2, r4
 1904 06fa 3046     		mov	r0, r6
 1905 06fc 0A23     		movs	r3, #10
 1906 06fe FFF7FEFF 		bl	HAL_SPI_Transmit
 1907              	.LVL205:
 1908 0702 3723     		movs	r3, #55
 1909 0704 07F8383D 		strb	r3, [r7, #-56]!
 1910              	.LVL206:
 1911              	.LBE767:
 1912              	.LBE766:
 1913              	.LBB770:
 1914              	.LBB771:
 1915              	.LBB772:
 1916              	.LBB773:
   9:MakiseGUI/MakiseGUI/ILI9340C/ili9340.c **** 
 1917              		.loc 1 9 0
 1918 0708 2246     		mov	r2, r4
 1919 070a 2846     		mov	r0, r5
 1920 070c 1021     		movs	r1, #16
 1921 070e FFF7FEFF 		bl	HAL_GPIO_WritePin
 1922              	.LVL207:
 1923 0712 0DF1700A 		add	r10, sp, #112
 1924              	.LBE773:
 1925              	.LBE772:
 312:MakiseGUI/MakiseGUI/ILI9340C/ili9340.c ****     return d;
 1926              		.loc 1 312 0
 1927 0716 3946     		mov	r1, r7
 1928 0718 2246     		mov	r2, r4
 1929 071a 3046     		mov	r0, r6
 1930 071c 0A23     		movs	r3, #10
ARM GAS  /tmp/ccczwsg0.s 			page 43


 1931 071e FFF7FEFF 		bl	HAL_SPI_Transmit
 1932              	.LVL208:
 1933 0722 4FF00703 		mov	r3, #7
 1934 0726 0AF8393D 		strb	r3, [r10, #-57]!
 1935              	.LVL209:
 1936 072a 0DF17009 		add	r9, sp, #112
 1937              	.LBE771:
 1938              	.LBE770:
 1939              	.LBB774:
 1940              	.LBB775:
 1941              	.LBB776:
 1942              	.LBB777:
   9:MakiseGUI/MakiseGUI/ILI9340C/ili9340.c **** 
 1943              		.loc 1 9 0
 1944 072e 2246     		mov	r2, r4
 1945 0730 2846     		mov	r0, r5
 1946 0732 1021     		movs	r1, #16
 1947 0734 1027     		movs	r7, #16
 1948 0736 FFF7FEFF 		bl	HAL_GPIO_WritePin
 1949              	.LVL210:
 1950              	.LBE777:
 1951              	.LBE776:
 312:MakiseGUI/MakiseGUI/ILI9340C/ili9340.c ****     return d;
 1952              		.loc 1 312 0
 1953 073a 5146     		mov	r1, r10
 1954 073c 2246     		mov	r2, r4
 1955 073e 0A23     		movs	r3, #10
 1956 0740 3046     		mov	r0, r6
 1957 0742 FFF7FEFF 		bl	HAL_SPI_Transmit
 1958              	.LVL211:
 1959 0746 09F83A7D 		strb	r7, [r9, #-58]!
 1960              	.LVL212:
 1961              	.LBE775:
 1962              	.LBE774:
 1963              	.LBB778:
 1964              	.LBB779:
 1965              	.LBB780:
 1966              	.LBB781:
   9:MakiseGUI/MakiseGUI/ILI9340C/ili9340.c **** 
 1967              		.loc 1 9 0
 1968 074a 2246     		mov	r2, r4
 1969 074c 2846     		mov	r0, r5
 1970 074e 3946     		mov	r1, r7
 1971 0750 FFF7FEFF 		bl	HAL_GPIO_WritePin
 1972              	.LVL213:
 1973              	.LBE781:
 1974              	.LBE780:
 312:MakiseGUI/MakiseGUI/ILI9340C/ili9340.c ****     return d;
 1975              		.loc 1 312 0
 1976 0754 4946     		mov	r1, r9
 1977 0756 2246     		mov	r2, r4
 1978 0758 0DF17009 		add	r9, sp, #112
 1979 075c 3046     		mov	r0, r6
 1980 075e 0A23     		movs	r3, #10
 1981 0760 FFF7FEFF 		bl	HAL_SPI_Transmit
 1982              	.LVL214:
 1983 0764 4FF00303 		mov	r3, #3
ARM GAS  /tmp/ccczwsg0.s 			page 44


 1984 0768 09F83B3D 		strb	r3, [r9, #-59]!
 1985              	.LVL215:
 1986 076c 0DF1700A 		add	r10, sp, #112
 1987              	.LBE779:
 1988              	.LBE778:
 1989              	.LBB782:
 1990              	.LBB783:
 1991              	.LBB784:
 1992              	.LBB785:
   9:MakiseGUI/MakiseGUI/ILI9340C/ili9340.c **** 
 1993              		.loc 1 9 0
 1994 0770 2246     		mov	r2, r4
 1995 0772 3946     		mov	r1, r7
 1996 0774 2846     		mov	r0, r5
 1997 0776 FFF7FEFF 		bl	HAL_GPIO_WritePin
 1998              	.LVL216:
 1999              	.LBE785:
 2000              	.LBE784:
 312:MakiseGUI/MakiseGUI/ILI9340C/ili9340.c ****     return d;
 2001              		.loc 1 312 0
 2002 077a 4946     		mov	r1, r9
 2003 077c 2246     		mov	r2, r4
 2004 077e 0A23     		movs	r3, #10
 2005 0780 3046     		mov	r0, r6
 2006 0782 FFF7FEFF 		bl	HAL_SPI_Transmit
 2007              	.LVL217:
 2008 0786 0AF83C8D 		strb	r8, [r10, #-60]!
 2009              	.LVL218:
 2010              	.LBE783:
 2011              	.LBE782:
 2012              	.LBB786:
 2013              	.LBB787:
 2014              	.LBB788:
 2015              	.LBB789:
   9:MakiseGUI/MakiseGUI/ILI9340C/ili9340.c **** 
 2016              		.loc 1 9 0
 2017 078a 2246     		mov	r2, r4
 2018 078c 3946     		mov	r1, r7
 2019 078e 2846     		mov	r0, r5
 2020 0790 FFF7FEFF 		bl	HAL_GPIO_WritePin
 2021              	.LVL219:
 2022 0794 0DF17009 		add	r9, sp, #112
 2023              	.LBE789:
 2024              	.LBE788:
 312:MakiseGUI/MakiseGUI/ILI9340C/ili9340.c ****     return d;
 2025              		.loc 1 312 0
 2026 0798 5146     		mov	r1, r10
 2027 079a 2246     		mov	r2, r4
 2028 079c 3046     		mov	r0, r6
 2029 079e 0A23     		movs	r3, #10
 2030 07a0 FFF7FEFF 		bl	HAL_SPI_Transmit
 2031              	.LVL220:
 2032 07a4 0923     		movs	r3, #9
 2033 07a6 09F83D3D 		strb	r3, [r9, #-61]!
 2034              	.LVL221:
 2035 07aa 0DF1700A 		add	r10, sp, #112
 2036              	.LBE787:
ARM GAS  /tmp/ccczwsg0.s 			page 45


 2037              	.LBE786:
 2038              	.LBB790:
 2039              	.LBB791:
 2040              	.LBB792:
 2041              	.LBB793:
   9:MakiseGUI/MakiseGUI/ILI9340C/ili9340.c **** 
 2042              		.loc 1 9 0
 2043 07ae 2246     		mov	r2, r4
 2044 07b0 3946     		mov	r1, r7
 2045 07b2 2846     		mov	r0, r5
 2046 07b4 FFF7FEFF 		bl	HAL_GPIO_WritePin
 2047              	.LVL222:
 2048              	.LBE793:
 2049              	.LBE792:
 312:MakiseGUI/MakiseGUI/ILI9340C/ili9340.c ****     return d;
 2050              		.loc 1 312 0
 2051 07b8 4946     		mov	r1, r9
 2052 07ba 2246     		mov	r2, r4
 2053 07bc 0A23     		movs	r3, #10
 2054 07be 3046     		mov	r0, r6
 2055 07c0 FFF7FEFF 		bl	HAL_SPI_Transmit
 2056              	.LVL223:
 2057 07c4 0AF83EBD 		strb	fp, [r10, #-62]!
 2058              	.LVL224:
 2059              	.LBE791:
 2060              	.LBE790:
 2061              	.LBB794:
 2062              	.LBB795:
 2063              	.LBB796:
 2064              	.LBB797:
   9:MakiseGUI/MakiseGUI/ILI9340C/ili9340.c **** 
 2065              		.loc 1 9 0
 2066 07c8 2246     		mov	r2, r4
 2067 07ca 3946     		mov	r1, r7
 2068 07cc 2846     		mov	r0, r5
 2069 07ce FFF7FEFF 		bl	HAL_GPIO_WritePin
 2070              	.LVL225:
 2071 07d2 0DF17009 		add	r9, sp, #112
 2072              	.LBE797:
 2073              	.LBE796:
 312:MakiseGUI/MakiseGUI/ILI9340C/ili9340.c ****     return d;
 2074              		.loc 1 312 0
 2075 07d6 5146     		mov	r1, r10
 2076 07d8 2246     		mov	r2, r4
 2077 07da 3046     		mov	r0, r6
 2078 07dc 0A23     		movs	r3, #10
 2079 07de FFF7FEFF 		bl	HAL_SPI_Transmit
 2080              	.LVL226:
 2081 07e2 E123     		movs	r3, #225
 2082 07e4 09F83F3D 		strb	r3, [r9, #-63]!
 2083              	.LVL227:
 2084              	.LBE795:
 2085              	.LBE794:
 2086              	.LBB798:
 2087              	.LBB799:
 2088              	.LBB800:
 2089              	.LBB801:
ARM GAS  /tmp/ccczwsg0.s 			page 46


   9:MakiseGUI/MakiseGUI/ILI9340C/ili9340.c **** 
 2090              		.loc 1 9 0
 2091 07e8 5A46     		mov	r2, fp
 2092 07ea 3946     		mov	r1, r7
 2093 07ec 2846     		mov	r0, r5
 2094 07ee FFF7FEFF 		bl	HAL_GPIO_WritePin
 2095              	.LVL228:
 2096              	.LBE801:
 2097              	.LBE800:
 2098              		.loc 1 319 0
 2099 07f2 4946     		mov	r1, r9
 2100 07f4 0DF17009 		add	r9, sp, #112
 2101 07f8 2246     		mov	r2, r4
 2102 07fa 0A23     		movs	r3, #10
 2103 07fc 3046     		mov	r0, r6
 2104 07fe FFF7FEFF 		bl	HAL_SPI_Transmit
 2105              	.LVL229:
 2106 0802 09F840BD 		strb	fp, [r9, #-64]!
 2107              	.LVL230:
 2108              	.LBE799:
 2109              	.LBE798:
 2110              	.LBB802:
 2111              	.LBB803:
 2112              	.LBB804:
 2113              	.LBB805:
   9:MakiseGUI/MakiseGUI/ILI9340C/ili9340.c **** 
 2114              		.loc 1 9 0
 2115 0806 2246     		mov	r2, r4
 2116 0808 3946     		mov	r1, r7
 2117 080a 2846     		mov	r0, r5
 2118 080c FFF7FEFF 		bl	HAL_GPIO_WritePin
 2119              	.LVL231:
 2120              	.LBE805:
 2121              	.LBE804:
 312:MakiseGUI/MakiseGUI/ILI9340C/ili9340.c ****     return d;
 2122              		.loc 1 312 0
 2123 0810 4946     		mov	r1, r9
 2124 0812 0DF17009 		add	r9, sp, #112
 2125 0816 2246     		mov	r2, r4
 2126 0818 0A23     		movs	r3, #10
 2127 081a 3046     		mov	r0, r6
 2128 081c FFF7FEFF 		bl	HAL_SPI_Transmit
 2129              	.LVL232:
 2130 0820 09F8418D 		strb	r8, [r9, #-65]!
 2131              	.LVL233:
 2132              	.LBE803:
 2133              	.LBE802:
 2134              	.LBB806:
 2135              	.LBB807:
 2136              	.LBB808:
 2137              	.LBB809:
   9:MakiseGUI/MakiseGUI/ILI9340C/ili9340.c **** 
 2138              		.loc 1 9 0
 2139 0824 2246     		mov	r2, r4
 2140 0826 3946     		mov	r1, r7
 2141 0828 2846     		mov	r0, r5
 2142 082a FFF7FEFF 		bl	HAL_GPIO_WritePin
ARM GAS  /tmp/ccczwsg0.s 			page 47


 2143              	.LVL234:
 2144 082e 0DF17008 		add	r8, sp, #112
 2145              	.LBE809:
 2146              	.LBE808:
 312:MakiseGUI/MakiseGUI/ILI9340C/ili9340.c ****     return d;
 2147              		.loc 1 312 0
 2148 0832 4946     		mov	r1, r9
 2149 0834 2246     		mov	r2, r4
 2150 0836 3046     		mov	r0, r6
 2151 0838 0A23     		movs	r3, #10
 2152 083a FFF7FEFF 		bl	HAL_SPI_Transmit
 2153              	.LVL235:
 2154 083e 1423     		movs	r3, #20
 2155 0840 08F8423D 		strb	r3, [r8, #-66]!
 2156              	.LVL236:
 2157              	.LBE807:
 2158              	.LBE806:
 2159              	.LBB810:
 2160              	.LBB811:
 2161              	.LBB812:
 2162              	.LBB813:
   9:MakiseGUI/MakiseGUI/ILI9340C/ili9340.c **** 
 2163              		.loc 1 9 0
 2164 0844 2246     		mov	r2, r4
 2165 0846 3946     		mov	r1, r7
 2166 0848 2846     		mov	r0, r5
 2167 084a FFF7FEFF 		bl	HAL_GPIO_WritePin
 2168              	.LVL237:
 2169              	.LBE813:
 2170              	.LBE812:
 312:MakiseGUI/MakiseGUI/ILI9340C/ili9340.c ****     return d;
 2171              		.loc 1 312 0
 2172 084e 4146     		mov	r1, r8
 2173 0850 2246     		mov	r2, r4
 2174 0852 0DF17008 		add	r8, sp, #112
 2175 0856 3046     		mov	r0, r6
 2176 0858 0A23     		movs	r3, #10
 2177 085a FFF7FEFF 		bl	HAL_SPI_Transmit
 2178              	.LVL238:
 2179 085e 4FF00303 		mov	r3, #3
 2180 0862 08F8433D 		strb	r3, [r8, #-67]!
 2181              	.LVL239:
 2182              	.LBE811:
 2183              	.LBE810:
 2184              	.LBB814:
 2185              	.LBB815:
 2186              	.LBB816:
 2187              	.LBB817:
   9:MakiseGUI/MakiseGUI/ILI9340C/ili9340.c **** 
 2188              		.loc 1 9 0
 2189 0866 3946     		mov	r1, r7
 2190 0868 2246     		mov	r2, r4
 2191 086a 2846     		mov	r0, r5
 2192 086c FFF7FEFF 		bl	HAL_GPIO_WritePin
 2193              	.LVL240:
 2194 0870 0DF17009 		add	r9, sp, #112
 2195              	.LBE817:
ARM GAS  /tmp/ccczwsg0.s 			page 48


 2196              	.LBE816:
 312:MakiseGUI/MakiseGUI/ILI9340C/ili9340.c ****     return d;
 2197              		.loc 1 312 0
 2198 0874 4146     		mov	r1, r8
 2199 0876 2246     		mov	r2, r4
 2200 0878 3046     		mov	r0, r6
 2201 087a 0A23     		movs	r3, #10
 2202 087c FFF7FEFF 		bl	HAL_SPI_Transmit
 2203              	.LVL241:
 2204 0880 4FF01103 		mov	r3, #17
 2205 0884 09F8443D 		strb	r3, [r9, #-68]!
 2206              	.LVL242:
 2207              	.LBE815:
 2208              	.LBE814:
 2209              	.LBB818:
 2210              	.LBB819:
 2211              	.LBB820:
 2212              	.LBB821:
   9:MakiseGUI/MakiseGUI/ILI9340C/ili9340.c **** 
 2213              		.loc 1 9 0
 2214 0888 3946     		mov	r1, r7
 2215 088a 2246     		mov	r2, r4
 2216 088c 2846     		mov	r0, r5
 2217 088e FFF7FEFF 		bl	HAL_GPIO_WritePin
 2218              	.LVL243:
 2219 0892 0DF17008 		add	r8, sp, #112
 2220              	.LBE821:
 2221              	.LBE820:
 312:MakiseGUI/MakiseGUI/ILI9340C/ili9340.c ****     return d;
 2222              		.loc 1 312 0
 2223 0896 4946     		mov	r1, r9
 2224 0898 2246     		mov	r2, r4
 2225 089a 3046     		mov	r0, r6
 2226 089c 0A23     		movs	r3, #10
 2227 089e FFF7FEFF 		bl	HAL_SPI_Transmit
 2228              	.LVL244:
 2229 08a2 4FF00703 		mov	r3, #7
 2230 08a6 08F8453D 		strb	r3, [r8, #-69]!
 2231              	.LVL245:
 2232              	.LBE819:
 2233              	.LBE818:
 2234              	.LBB822:
 2235              	.LBB823:
 2236              	.LBB824:
 2237              	.LBB825:
   9:MakiseGUI/MakiseGUI/ILI9340C/ili9340.c **** 
 2238              		.loc 1 9 0
 2239 08aa 3946     		mov	r1, r7
 2240 08ac 2246     		mov	r2, r4
 2241 08ae 2846     		mov	r0, r5
 2242 08b0 FFF7FEFF 		bl	HAL_GPIO_WritePin
 2243              	.LVL246:
 2244              	.LBE825:
 2245              	.LBE824:
 312:MakiseGUI/MakiseGUI/ILI9340C/ili9340.c ****     return d;
 2246              		.loc 1 312 0
 2247 08b4 4146     		mov	r1, r8
ARM GAS  /tmp/ccczwsg0.s 			page 49


 2248 08b6 2246     		mov	r2, r4
 2249 08b8 0DF17008 		add	r8, sp, #112
 2250 08bc 3046     		mov	r0, r6
 2251 08be 0A23     		movs	r3, #10
 2252 08c0 FFF7FEFF 		bl	HAL_SPI_Transmit
 2253              	.LVL247:
 2254 08c4 4FF03103 		mov	r3, #49
 2255 08c8 08F8463D 		strb	r3, [r8, #-70]!
 2256              	.LVL248:
 2257              	.LBE823:
 2258              	.LBE822:
 2259              	.LBB826:
 2260              	.LBB827:
 2261              	.LBB828:
 2262              	.LBB829:
   9:MakiseGUI/MakiseGUI/ILI9340C/ili9340.c **** 
 2263              		.loc 1 9 0
 2264 08cc 3946     		mov	r1, r7
 2265 08ce 2246     		mov	r2, r4
 2266 08d0 2846     		mov	r0, r5
 2267 08d2 FFF7FEFF 		bl	HAL_GPIO_WritePin
 2268              	.LVL249:
 2269 08d6 0DF17009 		add	r9, sp, #112
 2270              	.LBE829:
 2271              	.LBE828:
 312:MakiseGUI/MakiseGUI/ILI9340C/ili9340.c ****     return d;
 2272              		.loc 1 312 0
 2273 08da 4146     		mov	r1, r8
 2274 08dc 2246     		mov	r2, r4
 2275 08de 3046     		mov	r0, r6
 2276 08e0 0A23     		movs	r3, #10
 2277 08e2 FFF7FEFF 		bl	HAL_SPI_Transmit
 2278              	.LVL250:
 2279 08e6 6FF03E03 		mvn	r3, #62
 2280 08ea 09F8473D 		strb	r3, [r9, #-71]!
 2281              	.LVL251:
 2282              	.LBE827:
 2283              	.LBE826:
 2284              	.LBB830:
 2285              	.LBB831:
 2286              	.LBB832:
 2287              	.LBB833:
   9:MakiseGUI/MakiseGUI/ILI9340C/ili9340.c **** 
 2288              		.loc 1 9 0
 2289 08ee 2246     		mov	r2, r4
 2290 08f0 3946     		mov	r1, r7
 2291 08f2 2846     		mov	r0, r5
 2292 08f4 FFF7FEFF 		bl	HAL_GPIO_WritePin
 2293              	.LVL252:
 2294 08f8 0DF17008 		add	r8, sp, #112
 2295              	.LBE833:
 2296              	.LBE832:
 312:MakiseGUI/MakiseGUI/ILI9340C/ili9340.c ****     return d;
 2297              		.loc 1 312 0
 2298 08fc 4946     		mov	r1, r9
 2299 08fe 2246     		mov	r2, r4
 2300 0900 3046     		mov	r0, r6
ARM GAS  /tmp/ccczwsg0.s 			page 50


 2301 0902 0A23     		movs	r3, #10
 2302 0904 FFF7FEFF 		bl	HAL_SPI_Transmit
 2303              	.LVL253:
 2304 0908 4823     		movs	r3, #72
 2305 090a 08F8483D 		strb	r3, [r8, #-72]!
 2306              	.LVL254:
 2307              	.LBE831:
 2308              	.LBE830:
 2309              	.LBB834:
 2310              	.LBB835:
 2311              	.LBB836:
 2312              	.LBB837:
   9:MakiseGUI/MakiseGUI/ILI9340C/ili9340.c **** 
 2313              		.loc 1 9 0
 2314 090e 2246     		mov	r2, r4
 2315 0910 3946     		mov	r1, r7
 2316 0912 2846     		mov	r0, r5
 2317 0914 FFF7FEFF 		bl	HAL_GPIO_WritePin
 2318              	.LVL255:
 2319              	.LBE837:
 2320              	.LBE836:
 312:MakiseGUI/MakiseGUI/ILI9340C/ili9340.c ****     return d;
 2321              		.loc 1 312 0
 2322 0918 4146     		mov	r1, r8
 2323 091a 2246     		mov	r2, r4
 2324 091c 0DF17008 		add	r8, sp, #112
 2325 0920 3046     		mov	r0, r6
 2326 0922 0A23     		movs	r3, #10
 2327 0924 FFF7FEFF 		bl	HAL_SPI_Transmit
 2328              	.LVL256:
 2329 0928 4FF00803 		mov	r3, #8
 2330 092c 08F8493D 		strb	r3, [r8, #-73]!
 2331              	.LVL257:
 2332              	.LBE835:
 2333              	.LBE834:
 2334              	.LBB838:
 2335              	.LBB839:
 2336              	.LBB840:
 2337              	.LBB841:
   9:MakiseGUI/MakiseGUI/ILI9340C/ili9340.c **** 
 2338              		.loc 1 9 0
 2339 0930 2246     		mov	r2, r4
 2340 0932 3946     		mov	r1, r7
 2341 0934 2846     		mov	r0, r5
 2342 0936 FFF7FEFF 		bl	HAL_GPIO_WritePin
 2343              	.LVL258:
 2344              	.LBE841:
 2345              	.LBE840:
 312:MakiseGUI/MakiseGUI/ILI9340C/ili9340.c ****     return d;
 2346              		.loc 1 312 0
 2347 093a 4146     		mov	r1, r8
 2348 093c 2246     		mov	r2, r4
 2349 093e 0DF17008 		add	r8, sp, #112
 2350 0942 3046     		mov	r0, r6
 2351 0944 0A23     		movs	r3, #10
 2352 0946 FFF7FEFF 		bl	HAL_SPI_Transmit
 2353              	.LVL259:
ARM GAS  /tmp/ccczwsg0.s 			page 51


 2354 094a 4FF00F03 		mov	r3, #15
 2355 094e 08F84A3D 		strb	r3, [r8, #-74]!
 2356              	.LVL260:
 2357              	.LBE839:
 2358              	.LBE838:
 2359              	.LBB842:
 2360              	.LBB843:
 2361              	.LBB844:
 2362              	.LBB845:
   9:MakiseGUI/MakiseGUI/ILI9340C/ili9340.c **** 
 2363              		.loc 1 9 0
 2364 0952 2246     		mov	r2, r4
 2365 0954 3946     		mov	r1, r7
 2366 0956 2846     		mov	r0, r5
 2367 0958 FFF7FEFF 		bl	HAL_GPIO_WritePin
 2368              	.LVL261:
 2369              	.LBE845:
 2370              	.LBE844:
 312:MakiseGUI/MakiseGUI/ILI9340C/ili9340.c ****     return d;
 2371              		.loc 1 312 0
 2372 095c 4146     		mov	r1, r8
 2373 095e 2246     		mov	r2, r4
 2374 0960 0DF17008 		add	r8, sp, #112
 2375 0964 3046     		mov	r0, r6
 2376 0966 0A23     		movs	r3, #10
 2377 0968 FFF7FEFF 		bl	HAL_SPI_Transmit
 2378              	.LVL262:
 2379 096c 4FF00C03 		mov	r3, #12
 2380 0970 08F84B3D 		strb	r3, [r8, #-75]!
 2381              	.LVL263:
 2382              	.LBE843:
 2383              	.LBE842:
 2384              	.LBB846:
 2385              	.LBB847:
 2386              	.LBB848:
 2387              	.LBB849:
   9:MakiseGUI/MakiseGUI/ILI9340C/ili9340.c **** 
 2388              		.loc 1 9 0
 2389 0974 2246     		mov	r2, r4
 2390 0976 3946     		mov	r1, r7
 2391 0978 2846     		mov	r0, r5
 2392 097a FFF7FEFF 		bl	HAL_GPIO_WritePin
 2393              	.LVL264:
 2394              	.LBE849:
 2395              	.LBE848:
 312:MakiseGUI/MakiseGUI/ILI9340C/ili9340.c ****     return d;
 2396              		.loc 1 312 0
 2397 097e 4146     		mov	r1, r8
 2398 0980 2246     		mov	r2, r4
 2399 0982 0DF17008 		add	r8, sp, #112
 2400 0986 3046     		mov	r0, r6
 2401 0988 0A23     		movs	r3, #10
 2402 098a FFF7FEFF 		bl	HAL_SPI_Transmit
 2403              	.LVL265:
 2404 098e 4FF03103 		mov	r3, #49
 2405 0992 08F84C3D 		strb	r3, [r8, #-76]!
 2406              	.LVL266:
ARM GAS  /tmp/ccczwsg0.s 			page 52


 2407              	.LBE847:
 2408              	.LBE846:
 2409              	.LBB850:
 2410              	.LBB851:
 2411              	.LBB852:
 2412              	.LBB853:
   9:MakiseGUI/MakiseGUI/ILI9340C/ili9340.c **** 
 2413              		.loc 1 9 0
 2414 0996 2246     		mov	r2, r4
 2415 0998 3946     		mov	r1, r7
 2416 099a 2846     		mov	r0, r5
 2417 099c FFF7FEFF 		bl	HAL_GPIO_WritePin
 2418              	.LVL267:
 2419              	.LBE853:
 2420              	.LBE852:
 312:MakiseGUI/MakiseGUI/ILI9340C/ili9340.c ****     return d;
 2421              		.loc 1 312 0
 2422 09a0 4146     		mov	r1, r8
 2423 09a2 2246     		mov	r2, r4
 2424 09a4 0DF17008 		add	r8, sp, #112
 2425 09a8 3046     		mov	r0, r6
 2426 09aa 0A23     		movs	r3, #10
 2427 09ac FFF7FEFF 		bl	HAL_SPI_Transmit
 2428              	.LVL268:
 2429 09b0 4FF03602 		mov	r2, #54
 2430 09b4 08F84D2D 		strb	r2, [r8, #-77]!
 2431              	.LVL269:
 2432 09b8 0723     		movs	r3, #7
 2433              	.LBE851:
 2434              	.LBE850:
 2435              	.LBB854:
 2436              	.LBB855:
 2437              	.LBB856:
 2438              	.LBB857:
   9:MakiseGUI/MakiseGUI/ILI9340C/ili9340.c **** 
 2439              		.loc 1 9 0
 2440 09ba 2246     		mov	r2, r4
 2441 09bc 3946     		mov	r1, r7
 2442 09be 2846     		mov	r0, r5
 2443 09c0 0193     		str	r3, [sp, #4]
 2444 09c2 FFF7FEFF 		bl	HAL_GPIO_WritePin
 2445              	.LVL270:
 2446              	.LBE857:
 2447              	.LBE856:
 312:MakiseGUI/MakiseGUI/ILI9340C/ili9340.c ****     return d;
 2448              		.loc 1 312 0
 2449 09c6 4146     		mov	r1, r8
 2450 09c8 2246     		mov	r2, r4
 2451 09ca 0DF17008 		add	r8, sp, #112
 2452 09ce 0A23     		movs	r3, #10
 2453 09d0 3046     		mov	r0, r6
 2454 09d2 FFF7FEFF 		bl	HAL_SPI_Transmit
 2455              	.LVL271:
 2456 09d6 4FF00F01 		mov	r1, #15
 2457 09da 08F84E1D 		strb	r1, [r8, #-78]!
 2458              	.LVL272:
 2459              	.LBE855:
ARM GAS  /tmp/ccczwsg0.s 			page 53


 2460              	.LBE854:
 2461              	.LBB858:
 2462              	.LBB859:
 2463              	.LBB860:
 2464              	.LBB861:
   9:MakiseGUI/MakiseGUI/ILI9340C/ili9340.c **** 
 2465              		.loc 1 9 0
 2466 09de 2246     		mov	r2, r4
 2467 09e0 3946     		mov	r1, r7
 2468 09e2 2846     		mov	r0, r5
 2469 09e4 FFF7FEFF 		bl	HAL_GPIO_WritePin
 2470              	.LVL273:
 2471 09e8 0DF17009 		add	r9, sp, #112
 2472              	.LBE861:
 2473              	.LBE860:
 312:MakiseGUI/MakiseGUI/ILI9340C/ili9340.c ****     return d;
 2474              		.loc 1 312 0
 2475 09ec 4146     		mov	r1, r8
 2476 09ee 2246     		mov	r2, r4
 2477 09f0 3046     		mov	r0, r6
 2478 09f2 0A23     		movs	r3, #10
 2479 09f4 FFF7FEFF 		bl	HAL_SPI_Transmit
 2480              	.LVL274:
 2481 09f8 2A23     		movs	r3, #42
 2482 09fa 09F84F3D 		strb	r3, [r9, #-79]!
 2483              	.LVL275:
 2484 09fe 0DF17008 		add	r8, sp, #112
 2485              	.LBE859:
 2486              	.LBE858:
 2487              	.LBB862:
 2488              	.LBB863:
 2489              	.LBB864:
 2490              	.LBB865:
   9:MakiseGUI/MakiseGUI/ILI9340C/ili9340.c **** 
 2491              		.loc 1 9 0
 2492 0a02 5A46     		mov	r2, fp
 2493 0a04 3946     		mov	r1, r7
 2494 0a06 2846     		mov	r0, r5
 2495 0a08 FFF7FEFF 		bl	HAL_GPIO_WritePin
 2496              	.LVL276:
 2497              	.LBE865:
 2498              	.LBE864:
 2499              		.loc 1 319 0
 2500 0a0c 4946     		mov	r1, r9
 2501 0a0e 2246     		mov	r2, r4
 2502 0a10 0A23     		movs	r3, #10
 2503 0a12 3046     		mov	r0, r6
 2504 0a14 FFF7FEFF 		bl	HAL_SPI_Transmit
 2505              	.LVL277:
 2506 0a18 08F850BD 		strb	fp, [r8, #-80]!
 2507              	.LVL278:
 2508              	.LBE863:
 2509              	.LBE862:
 2510              	.LBB866:
 2511              	.LBB867:
 2512              	.LBB868:
 2513              	.LBB869:
ARM GAS  /tmp/ccczwsg0.s 			page 54


   9:MakiseGUI/MakiseGUI/ILI9340C/ili9340.c **** 
 2514              		.loc 1 9 0
 2515 0a1c 2246     		mov	r2, r4
 2516 0a1e 3946     		mov	r1, r7
 2517 0a20 2846     		mov	r0, r5
 2518 0a22 FFF7FEFF 		bl	HAL_GPIO_WritePin
 2519              	.LVL279:
 2520              	.LBE869:
 2521              	.LBE868:
 312:MakiseGUI/MakiseGUI/ILI9340C/ili9340.c ****     return d;
 2522              		.loc 1 312 0
 2523 0a26 4146     		mov	r1, r8
 2524 0a28 0DF17008 		add	r8, sp, #112
 2525 0a2c 2246     		mov	r2, r4
 2526 0a2e 0A23     		movs	r3, #10
 2527 0a30 3046     		mov	r0, r6
 2528 0a32 FFF7FEFF 		bl	HAL_SPI_Transmit
 2529              	.LVL280:
 2530 0a36 08F851BD 		strb	fp, [r8, #-81]!
 2531              	.LVL281:
 2532 0a3a 0DF17009 		add	r9, sp, #112
 2533              	.LBE867:
 2534              	.LBE866:
 2535              	.LBB870:
 2536              	.LBB871:
 2537              	.LBB872:
 2538              	.LBB873:
   9:MakiseGUI/MakiseGUI/ILI9340C/ili9340.c **** 
 2539              		.loc 1 9 0
 2540 0a3e 2246     		mov	r2, r4
 2541 0a40 3946     		mov	r1, r7
 2542 0a42 2846     		mov	r0, r5
 2543 0a44 FFF7FEFF 		bl	HAL_GPIO_WritePin
 2544              	.LVL282:
 2545              	.LBE873:
 2546              	.LBE872:
 312:MakiseGUI/MakiseGUI/ILI9340C/ili9340.c ****     return d;
 2547              		.loc 1 312 0
 2548 0a48 4146     		mov	r1, r8
 2549 0a4a 2246     		mov	r2, r4
 2550 0a4c 0A23     		movs	r3, #10
 2551 0a4e 3046     		mov	r0, r6
 2552 0a50 FFF7FEFF 		bl	HAL_SPI_Transmit
 2553              	.LVL283:
 2554 0a54 09F8524D 		strb	r4, [r9, #-82]!
 2555              	.LVL284:
 2556              	.LBE871:
 2557              	.LBE870:
 2558              	.LBB874:
 2559              	.LBB875:
 2560              	.LBB876:
 2561              	.LBB877:
   9:MakiseGUI/MakiseGUI/ILI9340C/ili9340.c **** 
 2562              		.loc 1 9 0
 2563 0a58 2246     		mov	r2, r4
 2564 0a5a 3946     		mov	r1, r7
 2565 0a5c 2846     		mov	r0, r5
ARM GAS  /tmp/ccczwsg0.s 			page 55


 2566 0a5e FFF7FEFF 		bl	HAL_GPIO_WritePin
 2567              	.LVL285:
 2568 0a62 0DF17008 		add	r8, sp, #112
 2569              	.LBE877:
 2570              	.LBE876:
 312:MakiseGUI/MakiseGUI/ILI9340C/ili9340.c ****     return d;
 2571              		.loc 1 312 0
 2572 0a66 4946     		mov	r1, r9
 2573 0a68 2246     		mov	r2, r4
 2574 0a6a 3046     		mov	r0, r6
 2575 0a6c 0A23     		movs	r3, #10
 2576 0a6e FFF7FEFF 		bl	HAL_SPI_Transmit
 2577              	.LVL286:
 2578 0a72 3F23     		movs	r3, #63
 2579 0a74 08F8533D 		strb	r3, [r8, #-83]!
 2580              	.LVL287:
 2581              	.LBE875:
 2582              	.LBE874:
 2583              	.LBB878:
 2584              	.LBB879:
 2585              	.LBB880:
 2586              	.LBB881:
   9:MakiseGUI/MakiseGUI/ILI9340C/ili9340.c **** 
 2587              		.loc 1 9 0
 2588 0a78 3946     		mov	r1, r7
 2589 0a7a 2246     		mov	r2, r4
 2590 0a7c 2846     		mov	r0, r5
 2591 0a7e FFF7FEFF 		bl	HAL_GPIO_WritePin
 2592              	.LVL288:
 2593 0a82 1CAF     		add	r7, sp, #112
 2594              	.LBE881:
 2595              	.LBE880:
 312:MakiseGUI/MakiseGUI/ILI9340C/ili9340.c ****     return d;
 2596              		.loc 1 312 0
 2597 0a84 4146     		mov	r1, r8
 2598 0a86 2246     		mov	r2, r4
 2599 0a88 3046     		mov	r0, r6
 2600 0a8a 0A23     		movs	r3, #10
 2601 0a8c FFF7FEFF 		bl	HAL_SPI_Transmit
 2602              	.LVL289:
 2603 0a90 2B23     		movs	r3, #43
 2604 0a92 07F8543D 		strb	r3, [r7, #-84]!
 2605              	.LVL290:
 2606              	.LBE879:
 2607              	.LBE878:
 2608              	.LBB882:
 2609              	.LBB883:
 2610              	.LBB884:
 2611              	.LBB885:
   9:MakiseGUI/MakiseGUI/ILI9340C/ili9340.c **** 
 2612              		.loc 1 9 0
 2613 0a96 5A46     		mov	r2, fp
 2614 0a98 2846     		mov	r0, r5
 2615 0a9a 1021     		movs	r1, #16
 2616 0a9c FFF7FEFF 		bl	HAL_GPIO_WritePin
 2617              	.LVL291:
 2618              	.LBE885:
ARM GAS  /tmp/ccczwsg0.s 			page 56


 2619              	.LBE884:
 2620              		.loc 1 319 0
 2621 0aa0 3946     		mov	r1, r7
 2622 0aa2 1CAF     		add	r7, sp, #112
 2623 0aa4 2246     		mov	r2, r4
 2624 0aa6 0A23     		movs	r3, #10
 2625 0aa8 3046     		mov	r0, r6
 2626 0aaa FFF7FEFF 		bl	HAL_SPI_Transmit
 2627              	.LVL292:
 2628 0aae 07F855BD 		strb	fp, [r7, #-85]!
 2629              	.LVL293:
 2630              	.LBE883:
 2631              	.LBE882:
 2632              	.LBB886:
 2633              	.LBB887:
 2634              	.LBB888:
 2635              	.LBB889:
   9:MakiseGUI/MakiseGUI/ILI9340C/ili9340.c **** 
 2636              		.loc 1 9 0
 2637 0ab2 2246     		mov	r2, r4
 2638 0ab4 2846     		mov	r0, r5
 2639 0ab6 1021     		movs	r1, #16
 2640 0ab8 FFF7FEFF 		bl	HAL_GPIO_WritePin
 2641              	.LVL294:
 2642              	.LBE889:
 2643              	.LBE888:
 312:MakiseGUI/MakiseGUI/ILI9340C/ili9340.c ****     return d;
 2644              		.loc 1 312 0
 2645 0abc 3946     		mov	r1, r7
 2646 0abe 1CAF     		add	r7, sp, #112
 2647 0ac0 2246     		mov	r2, r4
 2648 0ac2 0A23     		movs	r3, #10
 2649 0ac4 3046     		mov	r0, r6
 2650 0ac6 FFF7FEFF 		bl	HAL_SPI_Transmit
 2651              	.LVL295:
 2652 0aca 07F856BD 		strb	fp, [r7, #-86]!
 2653              	.LVL296:
 2654 0ace 0DF17009 		add	r9, sp, #112
 2655              	.LBE887:
 2656              	.LBE886:
 2657              	.LBB890:
 2658              	.LBB891:
 2659              	.LBB892:
 2660              	.LBB893:
   9:MakiseGUI/MakiseGUI/ILI9340C/ili9340.c **** 
 2661              		.loc 1 9 0
 2662 0ad2 2246     		mov	r2, r4
 2663 0ad4 2846     		mov	r0, r5
 2664 0ad6 1021     		movs	r1, #16
 2665 0ad8 FFF7FEFF 		bl	HAL_GPIO_WritePin
 2666              	.LVL297:
 2667              	.LBE893:
 2668              	.LBE892:
 312:MakiseGUI/MakiseGUI/ILI9340C/ili9340.c ****     return d;
 2669              		.loc 1 312 0
 2670 0adc 3946     		mov	r1, r7
 2671 0ade 2246     		mov	r2, r4
ARM GAS  /tmp/ccczwsg0.s 			page 57


 2672 0ae0 0A23     		movs	r3, #10
 2673 0ae2 3046     		mov	r0, r6
 2674 0ae4 FFF7FEFF 		bl	HAL_SPI_Transmit
 2675              	.LVL298:
 2676 0ae8 09F857BD 		strb	fp, [r9, #-87]!
 2677              	.LVL299:
 2678              	.LBE891:
 2679              	.LBE890:
 2680              	.LBB894:
 2681              	.LBB895:
 2682              	.LBB896:
 2683              	.LBB897:
   9:MakiseGUI/MakiseGUI/ILI9340C/ili9340.c **** 
 2684              		.loc 1 9 0
 2685 0aec 2246     		mov	r2, r4
 2686 0aee 2846     		mov	r0, r5
 2687 0af0 1021     		movs	r1, #16
 2688 0af2 FFF7FEFF 		bl	HAL_GPIO_WritePin
 2689              	.LVL300:
 2690 0af6 1CAF     		add	r7, sp, #112
 2691              	.LBE897:
 2692              	.LBE896:
 312:MakiseGUI/MakiseGUI/ILI9340C/ili9340.c ****     return d;
 2693              		.loc 1 312 0
 2694 0af8 4946     		mov	r1, r9
 2695 0afa 2246     		mov	r2, r4
 2696 0afc 3046     		mov	r0, r6
 2697 0afe 0A23     		movs	r3, #10
 2698 0b00 FFF7FEFF 		bl	HAL_SPI_Transmit
 2699              	.LVL301:
 2700 0b04 EF23     		movs	r3, #239
 2701 0b06 07F8583D 		strb	r3, [r7, #-88]!
 2702              	.LVL302:
 2703              	.LBE895:
 2704              	.LBE894:
 2705              	.LBB898:
 2706              	.LBB899:
 2707              	.LBB900:
 2708              	.LBB901:
   9:MakiseGUI/MakiseGUI/ILI9340C/ili9340.c **** 
 2709              		.loc 1 9 0
 2710 0b0a 2246     		mov	r2, r4
 2711 0b0c 2846     		mov	r0, r5
 2712 0b0e 1021     		movs	r1, #16
 2713 0b10 FFF7FEFF 		bl	HAL_GPIO_WritePin
 2714              	.LVL303:
 2715 0b14 0DF17009 		add	r9, sp, #112
 2716              	.LBE901:
 2717              	.LBE900:
 312:MakiseGUI/MakiseGUI/ILI9340C/ili9340.c ****     return d;
 2718              		.loc 1 312 0
 2719 0b18 3946     		mov	r1, r7
 2720 0b1a 2246     		mov	r2, r4
 2721 0b1c 3046     		mov	r0, r6
 2722 0b1e 0A23     		movs	r3, #10
 2723 0b20 FFF7FEFF 		bl	HAL_SPI_Transmit
 2724              	.LVL304:
ARM GAS  /tmp/ccczwsg0.s 			page 58


 2725 0b24 3423     		movs	r3, #52
 2726 0b26 09F8593D 		strb	r3, [r9, #-89]!
 2727              	.LVL305:
 2728              	.LBE899:
 2729              	.LBE898:
 2730              	.LBB902:
 2731              	.LBB903:
 2732              	.LBB904:
 2733              	.LBB905:
   9:MakiseGUI/MakiseGUI/ILI9340C/ili9340.c **** 
 2734              		.loc 1 9 0
 2735 0b2a 5A46     		mov	r2, fp
 2736 0b2c 2846     		mov	r0, r5
 2737 0b2e 1021     		movs	r1, #16
 2738 0b30 FFF7FEFF 		bl	HAL_GPIO_WritePin
 2739              	.LVL306:
 2740 0b34 1CAF     		add	r7, sp, #112
 2741              	.LBE905:
 2742              	.LBE904:
 2743              		.loc 1 319 0
 2744 0b36 4946     		mov	r1, r9
 2745 0b38 2246     		mov	r2, r4
 2746 0b3a 3046     		mov	r0, r6
 2747 0b3c 0A23     		movs	r3, #10
 2748 0b3e FFF7FEFF 		bl	HAL_SPI_Transmit
 2749              	.LVL307:
 2750 0b42 3523     		movs	r3, #53
 2751 0b44 07F85A3D 		strb	r3, [r7, #-90]!
 2752              	.LVL308:
 2753 0b48 0DF17009 		add	r9, sp, #112
 2754              	.LBE903:
 2755              	.LBE902:
 2756              	.LBB906:
 2757              	.LBB907:
 2758              	.LBB908:
 2759              	.LBB909:
   9:MakiseGUI/MakiseGUI/ILI9340C/ili9340.c **** 
 2760              		.loc 1 9 0
 2761 0b4c 5A46     		mov	r2, fp
 2762 0b4e 2846     		mov	r0, r5
 2763 0b50 1021     		movs	r1, #16
 2764 0b52 FFF7FEFF 		bl	HAL_GPIO_WritePin
 2765              	.LVL309:
 2766              	.LBE909:
 2767              	.LBE908:
 2768              		.loc 1 319 0
 2769 0b56 3946     		mov	r1, r7
 2770 0b58 2246     		mov	r2, r4
 2771 0b5a 0A23     		movs	r3, #10
 2772 0b5c 3046     		mov	r0, r6
 2773 0b5e FFF7FEFF 		bl	HAL_SPI_Transmit
 2774              	.LVL310:
 2775 0b62 09F85B4D 		strb	r4, [r9, #-91]!
 2776              	.LVL311:
 2777              	.LBE907:
 2778              	.LBE906:
 2779              	.LBB910:
ARM GAS  /tmp/ccczwsg0.s 			page 59


 2780              	.LBB911:
 2781              	.LBB912:
 2782              	.LBB913:
   9:MakiseGUI/MakiseGUI/ILI9340C/ili9340.c **** 
 2783              		.loc 1 9 0
 2784 0b66 2246     		mov	r2, r4
 2785 0b68 2846     		mov	r0, r5
 2786 0b6a 1021     		movs	r1, #16
 2787 0b6c FFF7FEFF 		bl	HAL_GPIO_WritePin
 2788              	.LVL312:
 2789 0b70 1CAF     		add	r7, sp, #112
 2790              	.LBE913:
 2791              	.LBE912:
 312:MakiseGUI/MakiseGUI/ILI9340C/ili9340.c ****     return d;
 2792              		.loc 1 312 0
 2793 0b72 4946     		mov	r1, r9
 2794 0b74 2246     		mov	r2, r4
 2795 0b76 3046     		mov	r0, r6
 2796 0b78 0A23     		movs	r3, #10
 2797 0b7a FFF7FEFF 		bl	HAL_SPI_Transmit
 2798              	.LVL313:
 2799 0b7e B723     		movs	r3, #183
 2800 0b80 07F85C3D 		strb	r3, [r7, #-92]!
 2801              	.LVL314:
 2802              	.LBE911:
 2803              	.LBE910:
 2804              	.LBB914:
 2805              	.LBB915:
 2806              	.LBB916:
 2807              	.LBB917:
   9:MakiseGUI/MakiseGUI/ILI9340C/ili9340.c **** 
 2808              		.loc 1 9 0
 2809 0b84 5A46     		mov	r2, fp
 2810 0b86 2846     		mov	r0, r5
 2811 0b88 1021     		movs	r1, #16
 2812 0b8a FFF7FEFF 		bl	HAL_GPIO_WritePin
 2813              	.LVL315:
 2814              	.LBE917:
 2815              	.LBE916:
 2816              		.loc 1 319 0
 2817 0b8e 3946     		mov	r1, r7
 2818 0b90 2246     		mov	r2, r4
 2819 0b92 1CAF     		add	r7, sp, #112
 2820 0b94 3046     		mov	r0, r6
 2821 0b96 0A23     		movs	r3, #10
 2822 0b98 FFF7FEFF 		bl	HAL_SPI_Transmit
 2823              	.LVL316:
 2824 0b9c 9DF80430 		ldrb	r3, [sp, #4]	@ zero_extendqisi2
 2825 0ba0 07F85D3D 		strb	r3, [r7, #-93]!
 2826              	.LVL317:
 2827              	.LBE915:
 2828              	.LBE914:
 2829              	.LBB918:
 2830              	.LBB919:
 2831              	.LBB920:
 2832              	.LBB921:
   9:MakiseGUI/MakiseGUI/ILI9340C/ili9340.c **** 
ARM GAS  /tmp/ccczwsg0.s 			page 60


 2833              		.loc 1 9 0
 2834 0ba4 2246     		mov	r2, r4
 2835 0ba6 2846     		mov	r0, r5
 2836 0ba8 1021     		movs	r1, #16
 2837 0baa D846     		mov	r8, fp
 2838 0bac FFF7FEFF 		bl	HAL_GPIO_WritePin
 2839              	.LVL318:
 2840 0bb0 0DF1700B 		add	fp, sp, #112
 2841              	.LBE921:
 2842              	.LBE920:
 312:MakiseGUI/MakiseGUI/ILI9340C/ili9340.c ****     return d;
 2843              		.loc 1 312 0
 2844 0bb4 3946     		mov	r1, r7
 2845 0bb6 2246     		mov	r2, r4
 2846 0bb8 3046     		mov	r0, r6
 2847 0bba 0A23     		movs	r3, #10
 2848 0bbc FFF7FEFF 		bl	HAL_SPI_Transmit
 2849              	.LVL319:
 2850 0bc0 B623     		movs	r3, #182
 2851 0bc2 0BF85E3D 		strb	r3, [fp, #-94]!
 2852              	.LVL320:
 2853 0bc6 0A27     		movs	r7, #10
 2854 0bc8 0DF17009 		add	r9, sp, #112
 2855              	.LBE919:
 2856              	.LBE918:
 2857              	.LBB922:
 2858              	.LBB923:
 2859              	.LBB924:
 2860              	.LBB925:
   9:MakiseGUI/MakiseGUI/ILI9340C/ili9340.c **** 
 2861              		.loc 1 9 0
 2862 0bcc 4246     		mov	r2, r8
 2863 0bce 2846     		mov	r0, r5
 2864 0bd0 1021     		movs	r1, #16
 2865 0bd2 FFF7FEFF 		bl	HAL_GPIO_WritePin
 2866              	.LVL321:
 2867              	.LBE925:
 2868              	.LBE924:
 2869              		.loc 1 319 0
 2870 0bd6 3B46     		mov	r3, r7
 2871 0bd8 5946     		mov	r1, fp
 2872 0bda 2246     		mov	r2, r4
 2873 0bdc 3046     		mov	r0, r6
 2874 0bde FFF7FEFF 		bl	HAL_SPI_Transmit
 2875              	.LVL322:
 2876 0be2 09F85F7D 		strb	r7, [r9, #-95]!
 2877              	.LVL323:
 2878              	.LBE923:
 2879              	.LBE922:
 2880              	.LBB926:
 2881              	.LBB927:
 2882              	.LBB928:
 2883              	.LBB929:
   9:MakiseGUI/MakiseGUI/ILI9340C/ili9340.c **** 
 2884              		.loc 1 9 0
 2885 0be6 2246     		mov	r2, r4
 2886 0be8 2846     		mov	r0, r5
ARM GAS  /tmp/ccczwsg0.s 			page 61


 2887 0bea 1021     		movs	r1, #16
 2888 0bec FFF7FEFF 		bl	HAL_GPIO_WritePin
 2889              	.LVL324:
 2890              	.LBE929:
 2891              	.LBE928:
 312:MakiseGUI/MakiseGUI/ILI9340C/ili9340.c ****     return d;
 2892              		.loc 1 312 0
 2893 0bf0 3B46     		mov	r3, r7
 2894 0bf2 2246     		mov	r2, r4
 2895 0bf4 4946     		mov	r1, r9
 2896 0bf6 3046     		mov	r0, r6
 2897 0bf8 0DF17009 		add	r9, sp, #112
 2898 0bfc FFF7FEFF 		bl	HAL_SPI_Transmit
 2899              	.LVL325:
 2900 0c00 8223     		movs	r3, #130
 2901 0c02 09F8603D 		strb	r3, [r9, #-96]!
 2902              	.LVL326:
 2903              	.LBE927:
 2904              	.LBE926:
 2905              	.LBB930:
 2906              	.LBB931:
 2907              	.LBB932:
 2908              	.LBB933:
   9:MakiseGUI/MakiseGUI/ILI9340C/ili9340.c **** 
 2909              		.loc 1 9 0
 2910 0c06 2246     		mov	r2, r4
 2911 0c08 2846     		mov	r0, r5
 2912 0c0a 1021     		movs	r1, #16
 2913 0c0c FFF7FEFF 		bl	HAL_GPIO_WritePin
 2914              	.LVL327:
 2915              	.LBE933:
 2916              	.LBE932:
 312:MakiseGUI/MakiseGUI/ILI9340C/ili9340.c ****     return d;
 2917              		.loc 1 312 0
 2918 0c10 3B46     		mov	r3, r7
 2919 0c12 2246     		mov	r2, r4
 2920 0c14 4946     		mov	r1, r9
 2921 0c16 3046     		mov	r0, r6
 2922 0c18 0DF17009 		add	r9, sp, #112
 2923 0c1c FFF7FEFF 		bl	HAL_SPI_Transmit
 2924              	.LVL328:
 2925 0c20 2723     		movs	r3, #39
 2926 0c22 09F8613D 		strb	r3, [r9, #-97]!
 2927              	.LVL329:
 2928              	.LBE931:
 2929              	.LBE930:
 2930              	.LBB934:
 2931              	.LBB935:
 2932              	.LBB936:
 2933              	.LBB937:
   9:MakiseGUI/MakiseGUI/ILI9340C/ili9340.c **** 
 2934              		.loc 1 9 0
 2935 0c26 2246     		mov	r2, r4
 2936 0c28 2846     		mov	r0, r5
 2937 0c2a 1021     		movs	r1, #16
 2938 0c2c FFF7FEFF 		bl	HAL_GPIO_WritePin
 2939              	.LVL330:
ARM GAS  /tmp/ccczwsg0.s 			page 62


 2940              	.LBE937:
 2941              	.LBE936:
 312:MakiseGUI/MakiseGUI/ILI9340C/ili9340.c ****     return d;
 2942              		.loc 1 312 0
 2943 0c30 4946     		mov	r1, r9
 2944 0c32 0DF17009 		add	r9, sp, #112
 2945 0c36 3B46     		mov	r3, r7
 2946 0c38 2246     		mov	r2, r4
 2947 0c3a 3046     		mov	r0, r6
 2948 0c3c FFF7FEFF 		bl	HAL_SPI_Transmit
 2949              	.LVL331:
 2950 0c40 09F8628D 		strb	r8, [r9, #-98]!
 2951              	.LVL332:
 2952              	.LBE935:
 2953              	.LBE934:
 2954              	.LBB938:
 2955              	.LBB939:
 2956              	.LBB940:
 2957              	.LBB941:
   9:MakiseGUI/MakiseGUI/ILI9340C/ili9340.c **** 
 2958              		.loc 1 9 0
 2959 0c44 2246     		mov	r2, r4
 2960 0c46 2846     		mov	r0, r5
 2961 0c48 1021     		movs	r1, #16
 2962 0c4a FFF7FEFF 		bl	HAL_GPIO_WritePin
 2963              	.LVL333:
 2964              	.LBE941:
 2965              	.LBE940:
 312:MakiseGUI/MakiseGUI/ILI9340C/ili9340.c ****     return d;
 2966              		.loc 1 312 0
 2967 0c4e 4946     		mov	r1, r9
 2968 0c50 0DF17009 		add	r9, sp, #112
 2969 0c54 3B46     		mov	r3, r7
 2970 0c56 2246     		mov	r2, r4
 2971 0c58 4FF0110A 		mov	r10, #17
 2972 0c5c 3046     		mov	r0, r6
 2973 0c5e FFF7FEFF 		bl	HAL_SPI_Transmit
 2974              	.LVL334:
 2975 0c62 09F863AD 		strb	r10, [r9, #-99]!
 2976              	.LVL335:
 2977              	.LBE939:
 2978              	.LBE938:
 2979              	.LBB942:
 2980              	.LBB943:
 2981              	.LBB944:
 2982              	.LBB945:
   9:MakiseGUI/MakiseGUI/ILI9340C/ili9340.c **** 
 2983              		.loc 1 9 0
 2984 0c66 4246     		mov	r2, r8
 2985 0c68 2846     		mov	r0, r5
 2986 0c6a 1021     		movs	r1, #16
 2987 0c6c FFF7FEFF 		bl	HAL_GPIO_WritePin
 2988              	.LVL336:
 2989              	.LBE945:
 2990              	.LBE944:
 2991              		.loc 1 319 0
 2992 0c70 3B46     		mov	r3, r7
ARM GAS  /tmp/ccczwsg0.s 			page 63


 2993 0c72 2246     		mov	r2, r4
 2994 0c74 4946     		mov	r1, r9
 2995 0c76 3046     		mov	r0, r6
 2996 0c78 FFF7FEFF 		bl	HAL_SPI_Transmit
 2997              	.LVL337:
 2998 0c7c 0DF17009 		add	r9, sp, #112
 2999              	.LBE943:
 3000              	.LBE942:
 3001              	.LBB946:
 3002              	.LBB947:
   6:MakiseGUI/MakiseGUI/ILI9340C/ili9340.c **** extern inline void _ili9340_rst(uint8_t st){HAL_GPIO_WritePin(ILI9340_RST, st ? GPIO_PIN_SET : GPIO
 3003              		.loc 1 6 0
 3004 0c80 6420     		movs	r0, #100
 3005 0c82 FFF7FEFF 		bl	HAL_Delay
 3006              	.LVL338:
 3007 0c86 2923     		movs	r3, #41
 3008 0c88 09F8643D 		strb	r3, [r9, #-100]!
 3009              	.LVL339:
 3010              	.LBE947:
 3011              	.LBE946:
 3012              	.LBB948:
 3013              	.LBB949:
 3014              	.LBB950:
 3015              	.LBB951:
   9:MakiseGUI/MakiseGUI/ILI9340C/ili9340.c **** 
 3016              		.loc 1 9 0
 3017 0c8c 2846     		mov	r0, r5
 3018 0c8e 4246     		mov	r2, r8
 3019 0c90 1021     		movs	r1, #16
 3020 0c92 FFF7FEFF 		bl	HAL_GPIO_WritePin
 3021              	.LVL340:
 3022              	.LBE951:
 3023              	.LBE950:
 3024              		.loc 1 319 0
 3025 0c96 3B46     		mov	r3, r7
 3026 0c98 2246     		mov	r2, r4
 3027 0c9a 4946     		mov	r1, r9
 3028 0c9c 3046     		mov	r0, r6
 3029 0c9e FFF7FEFF 		bl	HAL_SPI_Transmit
 3030              	.LVL341:
 3031              	.LBE949:
 3032              	.LBE948:
 3033              	.LBB952:
 3034              	.LBB953:
   6:MakiseGUI/MakiseGUI/ILI9340C/ili9340.c **** extern inline void _ili9340_rst(uint8_t st){HAL_GPIO_WritePin(ILI9340_RST, st ? GPIO_PIN_SET : GPIO
 3035              		.loc 1 6 0
 3036 0ca2 6420     		movs	r0, #100
 3037 0ca4 FFF7FEFF 		bl	HAL_Delay
 3038              	.LVL342:
 3039              	.LBE953:
 3040              	.LBE952:
 168:MakiseGUI/MakiseGUI/ILI9340C/ili9340.c **** void _ili9340_setAddrWindow(uint16_t x0, uint16_t y0, uint16_t x1,
 3041              		.loc 1 168 0
 3042 0ca8 4046     		mov	r0, r8
 3043 0caa 1DB0     		add	sp, sp, #116
 3044              	.LCFI6:
 3045              		.cfi_def_cfa_offset 36
ARM GAS  /tmp/ccczwsg0.s 			page 64


 3046              		@ sp needed
 3047 0cac BDE8F08F 		pop	{r4, r5, r6, r7, r8, r9, r10, fp, pc}
 3048              		.cfi_endproc
 3049              	.LFE131:
 3051              		.section	.text._ili9340_delay,"ax",%progbits
 3052              		.align	1
 3053              		.p2align 2,,3
 3054              		.global	_ili9340_delay
 3055              		.syntax unified
 3056              		.thumb
 3057              		.thumb_func
 3058              		.fpu fpv4-sp-d16
 3060              	_ili9340_delay:
 3061              	.LFB126:
   6:MakiseGUI/MakiseGUI/ILI9340C/ili9340.c **** extern inline void _ili9340_rst(uint8_t st){HAL_GPIO_WritePin(ILI9340_RST, st ? GPIO_PIN_SET : GPIO
 3062              		.loc 1 6 0
 3063              		.cfi_startproc
 3064              		@ args = 0, pretend = 0, frame = 0
 3065              		@ frame_needed = 0, uses_anonymous_args = 0
 3066              		@ link register save eliminated.
 3067              	.LVL343:
   6:MakiseGUI/MakiseGUI/ILI9340C/ili9340.c **** extern inline void _ili9340_rst(uint8_t st){HAL_GPIO_WritePin(ILI9340_RST, st ? GPIO_PIN_SET : GPIO
 3068              		.loc 1 6 0
 3069 0000 FFF7FEBF 		b	HAL_Delay
 3070              	.LVL344:
 3071              		.cfi_endproc
 3072              	.LFE126:
 3074              		.section	.text._ili9340_rst,"ax",%progbits
 3075              		.align	1
 3076              		.p2align 2,,3
 3077              		.global	_ili9340_rst
 3078              		.syntax unified
 3079              		.thumb
 3080              		.thumb_func
 3081              		.fpu fpv4-sp-d16
 3083              	_ili9340_rst:
 3084              	.LFB127:
   7:MakiseGUI/MakiseGUI/ILI9340C/ili9340.c **** extern inline void _ili9340_cs(uint8_t st){HAL_GPIO_WritePin(ILI9340_CS, st ? GPIO_PIN_SET : GPIO_P
 3085              		.loc 1 7 0
 3086              		.cfi_startproc
 3087              		@ args = 0, pretend = 0, frame = 0
 3088              		@ frame_needed = 0, uses_anonymous_args = 0
 3089              		@ link register save eliminated.
 3090              	.LVL345:
   7:MakiseGUI/MakiseGUI/ILI9340C/ili9340.c **** extern inline void _ili9340_cs(uint8_t st){HAL_GPIO_WritePin(ILI9340_CS, st ? GPIO_PIN_SET : GPIO_P
 3091              		.loc 1 7 0
 3092 0000 021C     		adds	r2, r0, #0
 3093 0002 18BF     		it	ne
 3094 0004 0122     		movne	r2, #1
 3095 0006 2021     		movs	r1, #32
 3096 0008 0148     		ldr	r0, .L20
 3097              	.LVL346:
 3098 000a FFF7FEBF 		b	HAL_GPIO_WritePin
 3099              	.LVL347:
 3100              	.L21:
 3101 000e 00BF     		.align	2
 3102              	.L20:
ARM GAS  /tmp/ccczwsg0.s 			page 65


 3103 0010 00080240 		.word	1073874944
 3104              		.cfi_endproc
 3105              	.LFE127:
 3107              		.section	.text._ili9340_cs,"ax",%progbits
 3108              		.align	1
 3109              		.p2align 2,,3
 3110              		.global	_ili9340_cs
 3111              		.syntax unified
 3112              		.thumb
 3113              		.thumb_func
 3114              		.fpu fpv4-sp-d16
 3116              	_ili9340_cs:
 3117              	.LFB128:
   8:MakiseGUI/MakiseGUI/ILI9340C/ili9340.c **** extern inline void _ili9340_dc(uint8_t st){HAL_GPIO_WritePin(ILI9340_DC, st ? GPIO_PIN_SET : GPIO_P
 3118              		.loc 1 8 0
 3119              		.cfi_startproc
 3120              		@ args = 0, pretend = 0, frame = 0
 3121              		@ frame_needed = 0, uses_anonymous_args = 0
 3122              		@ link register save eliminated.
 3123              	.LVL348:
   8:MakiseGUI/MakiseGUI/ILI9340C/ili9340.c **** extern inline void _ili9340_dc(uint8_t st){HAL_GPIO_WritePin(ILI9340_DC, st ? GPIO_PIN_SET : GPIO_P
 3124              		.loc 1 8 0
 3125 0000 021C     		adds	r2, r0, #0
 3126 0002 18BF     		it	ne
 3127 0004 0122     		movne	r2, #1
 3128 0006 0121     		movs	r1, #1
 3129 0008 0148     		ldr	r0, .L23
 3130              	.LVL349:
 3131 000a FFF7FEBF 		b	HAL_GPIO_WritePin
 3132              	.LVL350:
 3133              	.L24:
 3134 000e 00BF     		.align	2
 3135              	.L23:
 3136 0010 00040240 		.word	1073873920
 3137              		.cfi_endproc
 3138              	.LFE128:
 3140              		.section	.text._ili9340_dc,"ax",%progbits
 3141              		.align	1
 3142              		.p2align 2,,3
 3143              		.global	_ili9340_dc
 3144              		.syntax unified
 3145              		.thumb
 3146              		.thumb_func
 3147              		.fpu fpv4-sp-d16
 3149              	_ili9340_dc:
 3150              	.LFB129:
   9:MakiseGUI/MakiseGUI/ILI9340C/ili9340.c **** 
 3151              		.loc 1 9 0
 3152              		.cfi_startproc
 3153              		@ args = 0, pretend = 0, frame = 0
 3154              		@ frame_needed = 0, uses_anonymous_args = 0
 3155              		@ link register save eliminated.
 3156              	.LVL351:
   9:MakiseGUI/MakiseGUI/ILI9340C/ili9340.c **** 
 3157              		.loc 1 9 0
 3158 0000 021C     		adds	r2, r0, #0
 3159 0002 18BF     		it	ne
ARM GAS  /tmp/ccczwsg0.s 			page 66


 3160 0004 0122     		movne	r2, #1
 3161 0006 1021     		movs	r1, #16
 3162 0008 0148     		ldr	r0, .L26
 3163              	.LVL352:
 3164 000a FFF7FEBF 		b	HAL_GPIO_WritePin
 3165              	.LVL353:
 3166              	.L27:
 3167 000e 00BF     		.align	2
 3168              	.L26:
 3169 0010 00080240 		.word	1073874944
 3170              		.cfi_endproc
 3171              	.LFE129:
 3173              		.section	.text.ili9340_driver,"ax",%progbits
 3174              		.align	1
 3175              		.p2align 2,,3
 3176              		.global	ili9340_driver
 3177              		.syntax unified
 3178              		.thumb
 3179              		.thumb_func
 3180              		.fpu fpv4-sp-d16
 3182              	ili9340_driver:
 3183              	.LFB130:
  14:MakiseGUI/MakiseGUI/ILI9340C/ili9340.c ****     d->lcd_height    = 240;
 3184              		.loc 1 14 0
 3185              		.cfi_startproc
 3186              		@ args = 0, pretend = 0, frame = 0
 3187              		@ frame_needed = 0, uses_anonymous_args = 0
 3188              		@ link register save eliminated.
 3189              	.LVL354:
 3190 0000 F0B4     		push	{r4, r5, r6, r7}
 3191              	.LCFI7:
 3192              		.cfi_def_cfa_offset 16
 3193              		.cfi_offset 4, -16
 3194              		.cfi_offset 5, -12
 3195              		.cfi_offset 6, -8
 3196              		.cfi_offset 7, -4
  19:MakiseGUI/MakiseGUI/ILI9340C/ili9340.c ****     d->buffer        = 0;
 3197              		.loc 1 19 0
 3198 0002 1021     		movs	r1, #16
  15:MakiseGUI/MakiseGUI/ILI9340C/ili9340.c ****     d->lcd_width     = 320;
 3199              		.loc 1 15 0
 3200 0004 F025     		movs	r5, #240
  17:MakiseGUI/MakiseGUI/ILI9340C/ili9340.c ****     d->buffer_width  = MAKISE_BUF_W;
 3201              		.loc 1 17 0
 3202 0006 0C24     		movs	r4, #12
  20:MakiseGUI/MakiseGUI/ILI9340C/ili9340.c ****     d->size          = MAKISE_BUF_H * MAKISE_BUF_W * 2;
 3203              		.loc 1 20 0
 3204 0008 0022     		movs	r2, #0
  21:MakiseGUI/MakiseGUI/ILI9340C/ili9340.c ****     d->posx          = 0;
 3205              		.loc 1 21 0
 3206 000a 4FF4F053 		mov	r3, #7680
  22:MakiseGUI/MakiseGUI/ILI9340C/ili9340.c ****     d->posy          = 321;
 3207              		.loc 1 22 0
 3208 000e 0B4F     		ldr	r7, .L30
  24:MakiseGUI/MakiseGUI/ILI9340C/ili9340.c ****     d->start         = &ili9340_start;
 3209              		.loc 1 24 0
 3210 0010 0B4E     		ldr	r6, .L30+4
ARM GAS  /tmp/ccczwsg0.s 			page 67


  15:MakiseGUI/MakiseGUI/ILI9340C/ili9340.c ****     d->lcd_width     = 320;
 3211              		.loc 1 15 0
 3212 0012 8580     		strh	r5, [r0, #4]	@ movhi
  17:MakiseGUI/MakiseGUI/ILI9340C/ili9340.c ****     d->buffer_width  = MAKISE_BUF_W;
 3213              		.loc 1 17 0
 3214 0014 0481     		strh	r4, [r0, #8]	@ movhi
  25:MakiseGUI/MakiseGUI/ILI9340C/ili9340.c ****     d->sleep         = &ili9340_sleep;
 3215              		.loc 1 25 0
 3216 0016 0B4D     		ldr	r5, .L30+8
  26:MakiseGUI/MakiseGUI/ILI9340C/ili9340.c ****     d->awake         = &ili9340_awake;
 3217              		.loc 1 26 0
 3218 0018 0B4C     		ldr	r4, .L30+12
  19:MakiseGUI/MakiseGUI/ILI9340C/ili9340.c ****     d->buffer        = 0;
 3219              		.loc 1 19 0
 3220 001a 8181     		strh	r1, [r0, #12]	@ movhi
  20:MakiseGUI/MakiseGUI/ILI9340C/ili9340.c ****     d->size          = MAKISE_BUF_H * MAKISE_BUF_W * 2;
 3221              		.loc 1 20 0
 3222 001c 0261     		str	r2, [r0, #16]
  27:MakiseGUI/MakiseGUI/ILI9340C/ili9340.c ****     d->set_backlight = &ili9340_set_backlight;
 3223              		.loc 1 27 0
 3224 001e 0B49     		ldr	r1, .L30+16
  28:MakiseGUI/MakiseGUI/ILI9340C/ili9340.c **** }
 3225              		.loc 1 28 0
 3226 0020 0B4A     		ldr	r2, .L30+20
  21:MakiseGUI/MakiseGUI/ILI9340C/ili9340.c ****     d->posx          = 0;
 3227              		.loc 1 21 0
 3228 0022 4361     		str	r3, [r0, #20]
  16:MakiseGUI/MakiseGUI/ILI9340C/ili9340.c ****     d->buffer_height = MAKISE_BUF_H;
 3229              		.loc 1 16 0
 3230 0024 4FF4A073 		mov	r3, #320
  22:MakiseGUI/MakiseGUI/ILI9340C/ili9340.c ****     d->posy          = 321;
 3231              		.loc 1 22 0
 3232 0028 8761     		str	r7, [r0, #24]
  24:MakiseGUI/MakiseGUI/ILI9340C/ili9340.c ****     d->start         = &ili9340_start;
 3233              		.loc 1 24 0
 3234 002a C661     		str	r6, [r0, #28]
  25:MakiseGUI/MakiseGUI/ILI9340C/ili9340.c ****     d->sleep         = &ili9340_sleep;
 3235              		.loc 1 25 0
 3236 002c 0562     		str	r5, [r0, #32]
  26:MakiseGUI/MakiseGUI/ILI9340C/ili9340.c ****     d->awake         = &ili9340_awake;
 3237              		.loc 1 26 0
 3238 002e 4462     		str	r4, [r0, #36]
  27:MakiseGUI/MakiseGUI/ILI9340C/ili9340.c ****     d->set_backlight = &ili9340_set_backlight;
 3239              		.loc 1 27 0
 3240 0030 8162     		str	r1, [r0, #40]
  28:MakiseGUI/MakiseGUI/ILI9340C/ili9340.c **** }
 3241              		.loc 1 28 0
 3242 0032 C262     		str	r2, [r0, #44]
  16:MakiseGUI/MakiseGUI/ILI9340C/ili9340.c ****     d->buffer_height = MAKISE_BUF_H;
 3243              		.loc 1 16 0
 3244 0034 C380     		strh	r3, [r0, #6]	@ movhi
  18:MakiseGUI/MakiseGUI/ILI9340C/ili9340.c ****     d->pixeldepth    = 16;
 3245              		.loc 1 18 0
 3246 0036 4381     		strh	r3, [r0, #10]	@ movhi
  29:MakiseGUI/MakiseGUI/ILI9340C/ili9340.c **** 
 3247              		.loc 1 29 0
 3248 0038 F0BC     		pop	{r4, r5, r6, r7}
ARM GAS  /tmp/ccczwsg0.s 			page 68


 3249              	.LCFI8:
 3250              		.cfi_restore 7
 3251              		.cfi_restore 6
 3252              		.cfi_restore 5
 3253              		.cfi_restore 4
 3254              		.cfi_def_cfa_offset 0
 3255 003a 7047     		bx	lr
 3256              	.L31:
 3257              		.align	2
 3258              	.L30:
 3259 003c 00004101 		.word	21037056
 3260 0040 00000000 		.word	ili9340_init
 3261 0044 00000000 		.word	ili9340_start
 3262 0048 00000000 		.word	ili9340_sleep
 3263 004c 00000000 		.word	ili9340_awake
 3264 0050 00000000 		.word	ili9340_set_backlight
 3265              		.cfi_endproc
 3266              	.LFE130:
 3268              		.section	.text._ili9340_setAddrWindow,"ax",%progbits
 3269              		.align	1
 3270              		.p2align 2,,3
 3271              		.global	_ili9340_setAddrWindow
 3272              		.syntax unified
 3273              		.thumb
 3274              		.thumb_func
 3275              		.fpu fpv4-sp-d16
 3277              	_ili9340_setAddrWindow:
 3278              	.LFB132:
 171:MakiseGUI/MakiseGUI/ILI9340C/ili9340.c ****     uint8_t _ili9340_addr_kek[2];
 3279              		.loc 1 171 0
 3280              		.cfi_startproc
 3281              		@ args = 0, pretend = 0, frame = 8
 3282              		@ frame_needed = 0, uses_anonymous_args = 0
 3283              	.LVL355:
 3284 0000 2DE9F047 		push	{r4, r5, r6, r7, r8, r9, r10, lr}
 3285              	.LCFI9:
 3286              		.cfi_def_cfa_offset 32
 3287              		.cfi_offset 4, -32
 3288              		.cfi_offset 5, -28
 3289              		.cfi_offset 6, -24
 3290              		.cfi_offset 7, -20
 3291              		.cfi_offset 8, -16
 3292              		.cfi_offset 9, -12
 3293              		.cfi_offset 10, -8
 3294              		.cfi_offset 14, -4
 3295 0004 82B0     		sub	sp, sp, #8
 3296              	.LCFI10:
 3297              		.cfi_def_cfa_offset 40
 171:MakiseGUI/MakiseGUI/ILI9340C/ili9340.c ****     uint8_t _ili9340_addr_kek[2];
 3298              		.loc 1 171 0
 3299 0006 8246     		mov	r10, r0
 3300 0008 8846     		mov	r8, r1
 3301 000a 9146     		mov	r9, r2
 3302 000c 02AE     		add	r6, sp, #8
 3303              	.LBB978:
 3304              	.LBB979:
   8:MakiseGUI/MakiseGUI/ILI9340C/ili9340.c **** extern inline void _ili9340_dc(uint8_t st){HAL_GPIO_WritePin(ILI9340_DC, st ? GPIO_PIN_SET : GPIO_P
ARM GAS  /tmp/ccczwsg0.s 			page 69


 3305              		.loc 1 8 0
 3306 000e 0121     		movs	r1, #1
 3307              	.LVL356:
 3308 0010 0022     		movs	r2, #0
 3309              	.LVL357:
 3310 0012 3148     		ldr	r0, .L34
 3311              	.LVL358:
 3312              	.LBE979:
 3313              	.LBE978:
 3314              	.LBB981:
 3315              	.LBB982:
 3316              	.LBB983:
 3317              	.LBB984:
   9:MakiseGUI/MakiseGUI/ILI9340C/ili9340.c **** 
 3318              		.loc 1 9 0
 3319 0014 314D     		ldr	r5, .L34+4
 3320              	.LBE984:
 3321              	.LBE983:
 3322              		.loc 1 319 0
 3323 0016 324C     		ldr	r4, .L34+8
 3324              	.LBE982:
 3325              	.LBE981:
 171:MakiseGUI/MakiseGUI/ILI9340C/ili9340.c ****     uint8_t _ili9340_addr_kek[2];
 3326              		.loc 1 171 0
 3327 0018 1F46     		mov	r7, r3
 3328              	.LBB988:
 3329              	.LBB980:
   8:MakiseGUI/MakiseGUI/ILI9340C/ili9340.c **** extern inline void _ili9340_dc(uint8_t st){HAL_GPIO_WritePin(ILI9340_DC, st ? GPIO_PIN_SET : GPIO_P
 3330              		.loc 1 8 0
 3331 001a FFF7FEFF 		bl	HAL_GPIO_WritePin
 3332              	.LVL359:
 3333 001e 2A23     		movs	r3, #42
 3334 0020 06F8053D 		strb	r3, [r6, #-5]!
 3335              	.LVL360:
 3336              	.LBE980:
 3337              	.LBE988:
 3338              	.LBB989:
 3339              	.LBB987:
 3340              	.LBB986:
 3341              	.LBB985:
   9:MakiseGUI/MakiseGUI/ILI9340C/ili9340.c **** 
 3342              		.loc 1 9 0
 3343 0024 2846     		mov	r0, r5
 3344 0026 0022     		movs	r2, #0
 3345 0028 1021     		movs	r1, #16
 3346 002a FFF7FEFF 		bl	HAL_GPIO_WritePin
 3347              	.LVL361:
 3348              	.LBE985:
 3349              	.LBE986:
 3350              		.loc 1 319 0
 3351 002e 3146     		mov	r1, r6
 3352 0030 0A23     		movs	r3, #10
 3353 0032 2046     		mov	r0, r4
 3354 0034 0122     		movs	r2, #1
 3355 0036 FFF7FEFF 		bl	HAL_SPI_Transmit
 3356              	.LVL362:
 3357              	.LBE987:
ARM GAS  /tmp/ccczwsg0.s 			page 70


 3358              	.LBE989:
 3359              	.LBB990:
 3360              	.LBB991:
   9:MakiseGUI/MakiseGUI/ILI9340C/ili9340.c **** 
 3361              		.loc 1 9 0
 3362 003a 2846     		mov	r0, r5
 3363 003c 0122     		movs	r2, #1
 3364 003e 1021     		movs	r1, #16
 3365 0040 FFF7FEFF 		bl	HAL_GPIO_WritePin
 3366              	.LVL363:
 3367              	.LBE991:
 3368              	.LBE990:
 178:MakiseGUI/MakiseGUI/ILI9340C/ili9340.c ****     _ili9340_addr_kek[1] = x0;
 3369              		.loc 1 178 0
 3370 0044 4FEA1A23 		lsr	r3, r10, #8
 180:MakiseGUI/MakiseGUI/ILI9340C/ili9340.c ****     _ili9340_addr_kek[3] = x1;
 3371              		.loc 1 180 0
 3372 0048 4FEA192E 		lsr	lr, r9, #8
 3373 004c 02AE     		add	r6, sp, #8
 182:MakiseGUI/MakiseGUI/ILI9340C/ili9340.c **** 
 3374              		.loc 1 182 0
 3375 004e 01A9     		add	r1, sp, #4
 178:MakiseGUI/MakiseGUI/ILI9340C/ili9340.c ****     _ili9340_addr_kek[1] = x0;
 3376              		.loc 1 178 0
 3377 0050 8DF80430 		strb	r3, [sp, #4]
 182:MakiseGUI/MakiseGUI/ILI9340C/ili9340.c **** 
 3378              		.loc 1 182 0
 3379 0054 2046     		mov	r0, r4
 3380 0056 0A23     		movs	r3, #10
 3381 0058 0422     		movs	r2, #4
 180:MakiseGUI/MakiseGUI/ILI9340C/ili9340.c ****     _ili9340_addr_kek[3] = x1;
 3382              		.loc 1 180 0
 3383 005a 8DF806E0 		strb	lr, [sp, #6]
 179:MakiseGUI/MakiseGUI/ILI9340C/ili9340.c ****     _ili9340_addr_kek[2] = x1 >> 8;
 3384              		.loc 1 179 0
 3385 005e 8DF805A0 		strb	r10, [sp, #5]
 181:MakiseGUI/MakiseGUI/ILI9340C/ili9340.c ****     HAL_SPI_Transmit(&ILI9340_SPI, (uint8_t*)_ili9340_addr_kek, 4, 10);
 3386              		.loc 1 181 0
 3387 0062 8DF80790 		strb	r9, [sp, #7]
 182:MakiseGUI/MakiseGUI/ILI9340C/ili9340.c **** 
 3388              		.loc 1 182 0
 3389 0066 FFF7FEFF 		bl	HAL_SPI_Transmit
 3390              	.LVL364:
 3391 006a 2B23     		movs	r3, #43
 3392 006c 06F8063D 		strb	r3, [r6, #-6]!
 3393              	.LVL365:
 3394              	.LBB992:
 3395              	.LBB993:
 3396              	.LBB994:
 3397              	.LBB995:
   9:MakiseGUI/MakiseGUI/ILI9340C/ili9340.c **** 
 3398              		.loc 1 9 0
 3399 0070 2846     		mov	r0, r5
 3400 0072 0022     		movs	r2, #0
 3401 0074 1021     		movs	r1, #16
 3402 0076 FFF7FEFF 		bl	HAL_GPIO_WritePin
 3403              	.LVL366:
ARM GAS  /tmp/ccczwsg0.s 			page 71


 3404              	.LBE995:
 3405              	.LBE994:
 3406              		.loc 1 319 0
 3407 007a 3146     		mov	r1, r6
 3408 007c 0A23     		movs	r3, #10
 3409 007e 2046     		mov	r0, r4
 3410 0080 0122     		movs	r2, #1
 3411 0082 FFF7FEFF 		bl	HAL_SPI_Transmit
 3412              	.LVL367:
 3413              	.LBE993:
 3414              	.LBE992:
 3415              	.LBB996:
 3416              	.LBB997:
   9:MakiseGUI/MakiseGUI/ILI9340C/ili9340.c **** 
 3417              		.loc 1 9 0
 3418 0086 2846     		mov	r0, r5
 3419 0088 0122     		movs	r2, #1
 3420 008a 1021     		movs	r1, #16
 3421 008c FFF7FEFF 		bl	HAL_GPIO_WritePin
 3422              	.LVL368:
 3423 0090 02AE     		add	r6, sp, #8
 3424              	.LBE997:
 3425              	.LBE996:
 187:MakiseGUI/MakiseGUI/ILI9340C/ili9340.c ****     _ili9340_addr_kek[1] = y0;
 3426              		.loc 1 187 0
 3427 0092 4FEA182C 		lsr	ip, r8, #8
 189:MakiseGUI/MakiseGUI/ILI9340C/ili9340.c ****     _ili9340_addr_kek[3] = y1;
 3428              		.loc 1 189 0
 3429 0096 4FEA172E 		lsr	lr, r7, #8
 191:MakiseGUI/MakiseGUI/ILI9340C/ili9340.c **** 
 3430              		.loc 1 191 0
 3431 009a 01A9     		add	r1, sp, #4
 3432 009c 2046     		mov	r0, r4
 3433 009e 0A23     		movs	r3, #10
 3434 00a0 0422     		movs	r2, #4
 187:MakiseGUI/MakiseGUI/ILI9340C/ili9340.c ****     _ili9340_addr_kek[1] = y0;
 3435              		.loc 1 187 0
 3436 00a2 8DF804C0 		strb	ip, [sp, #4]
 189:MakiseGUI/MakiseGUI/ILI9340C/ili9340.c ****     _ili9340_addr_kek[3] = y1;
 3437              		.loc 1 189 0
 3438 00a6 8DF806E0 		strb	lr, [sp, #6]
 188:MakiseGUI/MakiseGUI/ILI9340C/ili9340.c ****     _ili9340_addr_kek[2] = y1 >>8;
 3439              		.loc 1 188 0
 3440 00aa 8DF80580 		strb	r8, [sp, #5]
 190:MakiseGUI/MakiseGUI/ILI9340C/ili9340.c ****     HAL_SPI_Transmit(&ILI9340_SPI, (uint8_t*)_ili9340_addr_kek, 4, 10);
 3441              		.loc 1 190 0
 3442 00ae 8DF80770 		strb	r7, [sp, #7]
 191:MakiseGUI/MakiseGUI/ILI9340C/ili9340.c **** 
 3443              		.loc 1 191 0
 3444 00b2 FFF7FEFF 		bl	HAL_SPI_Transmit
 3445              	.LVL369:
 3446 00b6 2C23     		movs	r3, #44
 3447 00b8 06F8073D 		strb	r3, [r6, #-7]!
 3448              	.LVL370:
 3449              	.LBB998:
 3450              	.LBB999:
 3451              	.LBB1000:
ARM GAS  /tmp/ccczwsg0.s 			page 72


 3452              	.LBB1001:
   9:MakiseGUI/MakiseGUI/ILI9340C/ili9340.c **** 
 3453              		.loc 1 9 0
 3454 00bc 2846     		mov	r0, r5
 3455 00be 0022     		movs	r2, #0
 3456 00c0 1021     		movs	r1, #16
 3457 00c2 FFF7FEFF 		bl	HAL_GPIO_WritePin
 3458              	.LVL371:
 3459              	.LBE1001:
 3460              	.LBE1000:
 3461              		.loc 1 319 0
 3462 00c6 3146     		mov	r1, r6
 3463 00c8 2046     		mov	r0, r4
 3464 00ca 0A23     		movs	r3, #10
 3465 00cc 0122     		movs	r2, #1
 3466 00ce FFF7FEFF 		bl	HAL_SPI_Transmit
 3467              	.LVL372:
 3468              	.LBE999:
 3469              	.LBE998:
 194:MakiseGUI/MakiseGUI/ILI9340C/ili9340.c **** 
 3470              		.loc 1 194 0
 3471 00d2 02B0     		add	sp, sp, #8
 3472              	.LCFI11:
 3473              		.cfi_def_cfa_offset 32
 3474              		@ sp needed
 3475 00d4 BDE8F087 		pop	{r4, r5, r6, r7, r8, r9, r10, pc}
 3476              	.L35:
 3477              		.align	2
 3478              	.L34:
 3479 00d8 00040240 		.word	1073873920
 3480 00dc 00080240 		.word	1073874944
 3481 00e0 00000000 		.word	hspi1
 3482              		.cfi_endproc
 3483              	.LFE132:
 3485              		.section	.text.ili9340_tx,"ax",%progbits
 3486              		.align	1
 3487              		.p2align 2,,3
 3488              		.global	ili9340_tx
 3489              		.syntax unified
 3490              		.thumb
 3491              		.thumb_func
 3492              		.fpu fpv4-sp-d16
 3494              	ili9340_tx:
 3495              	.LFB133:
 197:MakiseGUI/MakiseGUI/ILI9340C/ili9340.c ****     d->posy = 0;   
 3496              		.loc 1 197 0
 3497              		.cfi_startproc
 3498              		@ args = 0, pretend = 0, frame = 8
 3499              		@ frame_needed = 0, uses_anonymous_args = 0
 3500              	.LVL373:
 3501 0000 2DE9F043 		push	{r4, r5, r6, r7, r8, r9, lr}
 3502              	.LCFI12:
 3503              		.cfi_def_cfa_offset 28
 3504              		.cfi_offset 4, -28
 3505              		.cfi_offset 5, -24
 3506              		.cfi_offset 6, -20
 3507              		.cfi_offset 7, -16
ARM GAS  /tmp/ccczwsg0.s 			page 73


 3508              		.cfi_offset 8, -12
 3509              		.cfi_offset 9, -8
 3510              		.cfi_offset 14, -4
 3511 0004 0446     		mov	r4, r0
 200:MakiseGUI/MakiseGUI/ILI9340C/ili9340.c ****     {
 3512              		.loc 1 200 0
 3513 0006 0068     		ldr	r0, [r0]
 3514              	.LVL374:
 3515 0008 8768     		ldr	r7, [r0, #8]
 198:MakiseGUI/MakiseGUI/ILI9340C/ili9340.c ****     
 3516              		.loc 1 198 0
 3517 000a 0023     		movs	r3, #0
 197:MakiseGUI/MakiseGUI/ILI9340C/ili9340.c ****     d->posy = 0;   
 3518              		.loc 1 197 0
 3519 000c 83B0     		sub	sp, sp, #12
 3520              	.LCFI13:
 3521              		.cfi_def_cfa_offset 40
 198:MakiseGUI/MakiseGUI/ILI9340C/ili9340.c ****     
 3522              		.loc 1 198 0
 3523 000e 6383     		strh	r3, [r4, #26]	@ movhi
 200:MakiseGUI/MakiseGUI/ILI9340C/ili9340.c ****     {
 3524              		.loc 1 200 0
 3525 0010 002F     		cmp	r7, #0
 3526 0012 7FD0     		beq	.L38
 202:MakiseGUI/MakiseGUI/ILI9340C/ili9340.c ****     }
 3527              		.loc 1 202 0
 3528 0014 B847     		blx	r7
 3529              	.LVL375:
 3530 0016 638B     		ldrh	r3, [r4, #26]
 3531 0018 4FEA1329 		lsr	r9, r3, #8
 3532 001c DFB2     		uxtb	r7, r3
 3533              	.L37:
 205:MakiseGUI/MakiseGUI/ILI9340C/ili9340.c ****     makise_render(d->gui, 0);
 3534              		.loc 1 205 0
 3535 001e 2689     		ldrh	r6, [r4, #8]
 3536              	.LBB1026:
 3537              	.LBB1027:
 3538              	.LBB1028:
 3539              	.LBB1029:
   8:MakiseGUI/MakiseGUI/ILI9340C/ili9340.c **** extern inline void _ili9340_dc(uint8_t st){HAL_GPIO_WritePin(ILI9340_DC, st ? GPIO_PIN_SET : GPIO_P
 3540              		.loc 1 8 0
 3541 0020 3E48     		ldr	r0, .L40
 3542              	.LBE1029:
 3543              	.LBE1028:
 3544              	.LBE1027:
 3545              	.LBE1026:
 205:MakiseGUI/MakiseGUI/ILI9340C/ili9340.c ****     makise_render(d->gui, 0);
 3546              		.loc 1 205 0
 3547 0022 B4F80680 		ldrh	r8, [r4, #6]
 3548 0026 013E     		subs	r6, r6, #1
 3549 0028 02AD     		add	r5, sp, #8
 3550 002a 3344     		add	r3, r3, r6
 3551              	.LBB1052:
 3552              	.LBB1050:
 3553              	.LBB1032:
 3554              	.LBB1030:
   8:MakiseGUI/MakiseGUI/ILI9340C/ili9340.c **** extern inline void _ili9340_dc(uint8_t st){HAL_GPIO_WritePin(ILI9340_DC, st ? GPIO_PIN_SET : GPIO_P
ARM GAS  /tmp/ccczwsg0.s 			page 74


 3555              		.loc 1 8 0
 3556 002c 0022     		movs	r2, #0
 3557 002e 0121     		movs	r1, #1
 3558              	.LBE1030:
 3559              	.LBE1032:
 3560              	.LBE1050:
 3561              	.LBE1052:
 205:MakiseGUI/MakiseGUI/ILI9340C/ili9340.c ****     makise_render(d->gui, 0);
 3562              		.loc 1 205 0
 3563 0030 9EB2     		uxth	r6, r3
 3564              	.LVL376:
 3565              	.LBB1053:
 3566              	.LBB1051:
 3567              	.LBB1033:
 3568              	.LBB1031:
   8:MakiseGUI/MakiseGUI/ILI9340C/ili9340.c **** extern inline void _ili9340_dc(uint8_t st){HAL_GPIO_WritePin(ILI9340_DC, st ? GPIO_PIN_SET : GPIO_P
 3569              		.loc 1 8 0
 3570 0032 FFF7FEFF 		bl	HAL_GPIO_WritePin
 3571              	.LVL377:
 3572 0036 2A23     		movs	r3, #42
 3573 0038 05F8053D 		strb	r3, [r5, #-5]!
 3574              	.LVL378:
 3575              	.LBE1031:
 3576              	.LBE1033:
 3577              	.LBB1034:
 3578              	.LBB1035:
 3579              	.LBB1036:
 3580              	.LBB1037:
   9:MakiseGUI/MakiseGUI/ILI9340C/ili9340.c **** 
 3581              		.loc 1 9 0
 3582 003c 0022     		movs	r2, #0
 3583 003e 1021     		movs	r1, #16
 3584 0040 3748     		ldr	r0, .L40+4
 3585 0042 FFF7FEFF 		bl	HAL_GPIO_WritePin
 3586              	.LVL379:
 3587              	.LBE1037:
 3588              	.LBE1036:
 3589              		.loc 1 319 0
 3590 0046 2946     		mov	r1, r5
 3591 0048 0A23     		movs	r3, #10
 3592 004a 0122     		movs	r2, #1
 3593 004c 3548     		ldr	r0, .L40+8
 3594 004e FFF7FEFF 		bl	HAL_SPI_Transmit
 3595              	.LVL380:
 3596              	.LBE1035:
 3597              	.LBE1034:
 3598              	.LBB1038:
 3599              	.LBB1039:
   9:MakiseGUI/MakiseGUI/ILI9340C/ili9340.c **** 
 3600              		.loc 1 9 0
 3601 0052 0122     		movs	r2, #1
 3602 0054 1021     		movs	r1, #16
 3603 0056 3248     		ldr	r0, .L40+4
 3604 0058 FFF7FEFF 		bl	HAL_GPIO_WritePin
 3605              	.LVL381:
 3606              	.LBE1039:
 3607              	.LBE1038:
ARM GAS  /tmp/ccczwsg0.s 			page 75


 178:MakiseGUI/MakiseGUI/ILI9340C/ili9340.c ****     _ili9340_addr_kek[1] = x0;
 3608              		.loc 1 178 0
 3609 005c 0025     		movs	r5, #0
 180:MakiseGUI/MakiseGUI/ILI9340C/ili9340.c ****     _ili9340_addr_kek[3] = x1;
 3610              		.loc 1 180 0
 3611 005e 4FEA182E 		lsr	lr, r8, #8
 182:MakiseGUI/MakiseGUI/ILI9340C/ili9340.c **** 
 3612              		.loc 1 182 0
 3613 0062 01A9     		add	r1, sp, #4
 181:MakiseGUI/MakiseGUI/ILI9340C/ili9340.c ****     HAL_SPI_Transmit(&ILI9340_SPI, (uint8_t*)_ili9340_addr_kek, 4, 10);
 3614              		.loc 1 181 0
 3615 0064 8DF80780 		strb	r8, [sp, #7]
 182:MakiseGUI/MakiseGUI/ILI9340C/ili9340.c **** 
 3616              		.loc 1 182 0
 3617 0068 0A23     		movs	r3, #10
 3618 006a 0DF10808 		add	r8, sp, #8
 3619              	.LVL382:
 3620 006e 0422     		movs	r2, #4
 3621 0070 2C48     		ldr	r0, .L40+8
 180:MakiseGUI/MakiseGUI/ILI9340C/ili9340.c ****     _ili9340_addr_kek[3] = x1;
 3622              		.loc 1 180 0
 3623 0072 8DF806E0 		strb	lr, [sp, #6]
 178:MakiseGUI/MakiseGUI/ILI9340C/ili9340.c ****     _ili9340_addr_kek[1] = x0;
 3624              		.loc 1 178 0
 3625 0076 8DF80450 		strb	r5, [sp, #4]
 179:MakiseGUI/MakiseGUI/ILI9340C/ili9340.c ****     _ili9340_addr_kek[2] = x1 >> 8;
 3626              		.loc 1 179 0
 3627 007a 8DF80550 		strb	r5, [sp, #5]
 182:MakiseGUI/MakiseGUI/ILI9340C/ili9340.c **** 
 3628              		.loc 1 182 0
 3629 007e FFF7FEFF 		bl	HAL_SPI_Transmit
 3630              	.LVL383:
 3631 0082 2B23     		movs	r3, #43
 3632 0084 08F8063D 		strb	r3, [r8, #-6]!
 3633              	.LVL384:
 3634              	.LBB1040:
 3635              	.LBB1041:
 3636              	.LBB1042:
 3637              	.LBB1043:
   9:MakiseGUI/MakiseGUI/ILI9340C/ili9340.c **** 
 3638              		.loc 1 9 0
 3639 0088 2A46     		mov	r2, r5
 3640 008a 1021     		movs	r1, #16
 3641 008c 2448     		ldr	r0, .L40+4
 3642 008e FFF7FEFF 		bl	HAL_GPIO_WritePin
 3643              	.LVL385:
 3644              	.LBE1043:
 3645              	.LBE1042:
 3646              		.loc 1 319 0
 3647 0092 4146     		mov	r1, r8
 3648 0094 0A23     		movs	r3, #10
 3649 0096 0122     		movs	r2, #1
 3650 0098 2248     		ldr	r0, .L40+8
 3651 009a FFF7FEFF 		bl	HAL_SPI_Transmit
 3652              	.LVL386:
 3653              	.LBE1041:
 3654              	.LBE1040:
ARM GAS  /tmp/ccczwsg0.s 			page 76


 3655              	.LBB1044:
 3656              	.LBB1045:
   9:MakiseGUI/MakiseGUI/ILI9340C/ili9340.c **** 
 3657              		.loc 1 9 0
 3658 009e 0122     		movs	r2, #1
 3659 00a0 1021     		movs	r1, #16
 3660 00a2 1F48     		ldr	r0, .L40+4
 3661 00a4 FFF7FEFF 		bl	HAL_GPIO_WritePin
 3662              	.LVL387:
 3663 00a8 0DF10808 		add	r8, sp, #8
 3664              	.LBE1045:
 3665              	.LBE1044:
 189:MakiseGUI/MakiseGUI/ILI9340C/ili9340.c ****     _ili9340_addr_kek[3] = y1;
 3666              		.loc 1 189 0
 3667 00ac 4FEA162E 		lsr	lr, r6, #8
 191:MakiseGUI/MakiseGUI/ILI9340C/ili9340.c **** 
 3668              		.loc 1 191 0
 3669 00b0 01A9     		add	r1, sp, #4
 3670 00b2 0A23     		movs	r3, #10
 3671 00b4 0422     		movs	r2, #4
 3672 00b6 1B48     		ldr	r0, .L40+8
 189:MakiseGUI/MakiseGUI/ILI9340C/ili9340.c ****     _ili9340_addr_kek[3] = y1;
 3673              		.loc 1 189 0
 3674 00b8 8DF806E0 		strb	lr, [sp, #6]
 190:MakiseGUI/MakiseGUI/ILI9340C/ili9340.c ****     HAL_SPI_Transmit(&ILI9340_SPI, (uint8_t*)_ili9340_addr_kek, 4, 10);
 3675              		.loc 1 190 0
 3676 00bc 8DF80760 		strb	r6, [sp, #7]
 187:MakiseGUI/MakiseGUI/ILI9340C/ili9340.c ****     _ili9340_addr_kek[1] = y0;
 3677              		.loc 1 187 0
 3678 00c0 8DF80490 		strb	r9, [sp, #4]
 188:MakiseGUI/MakiseGUI/ILI9340C/ili9340.c ****     _ili9340_addr_kek[2] = y1 >>8;
 3679              		.loc 1 188 0
 3680 00c4 8DF80570 		strb	r7, [sp, #5]
 191:MakiseGUI/MakiseGUI/ILI9340C/ili9340.c **** 
 3681              		.loc 1 191 0
 3682 00c8 FFF7FEFF 		bl	HAL_SPI_Transmit
 3683              	.LVL388:
 3684 00cc 2C23     		movs	r3, #44
 3685 00ce 08F8073D 		strb	r3, [r8, #-7]!
 3686              	.LVL389:
 3687              	.LBB1046:
 3688              	.LBB1047:
 3689              	.LBB1048:
 3690              	.LBB1049:
   9:MakiseGUI/MakiseGUI/ILI9340C/ili9340.c **** 
 3691              		.loc 1 9 0
 3692 00d2 2A46     		mov	r2, r5
 3693 00d4 1021     		movs	r1, #16
 3694 00d6 1248     		ldr	r0, .L40+4
 3695 00d8 FFF7FEFF 		bl	HAL_GPIO_WritePin
 3696              	.LVL390:
 3697              	.LBE1049:
 3698              	.LBE1048:
 3699              		.loc 1 319 0
 3700 00dc 0A23     		movs	r3, #10
 3701 00de 4146     		mov	r1, r8
 3702 00e0 0122     		movs	r2, #1
ARM GAS  /tmp/ccczwsg0.s 			page 77


 3703 00e2 1048     		ldr	r0, .L40+8
 3704 00e4 FFF7FEFF 		bl	HAL_SPI_Transmit
 3705              	.LVL391:
 3706              	.LBE1047:
 3707              	.LBE1046:
 3708              	.LBE1051:
 3709              	.LBE1053:
 206:MakiseGUI/MakiseGUI/ILI9340C/ili9340.c **** 
 3710              		.loc 1 206 0
 3711 00e8 2946     		mov	r1, r5
 3712 00ea 2068     		ldr	r0, [r4]
 3713 00ec FFF7FEFF 		bl	makise_render
 3714              	.LVL392:
 3715              	.LBB1054:
 3716              	.LBB1055:
   9:MakiseGUI/MakiseGUI/ILI9340C/ili9340.c **** 
 3717              		.loc 1 9 0
 3718 00f0 0122     		movs	r2, #1
 3719 00f2 1021     		movs	r1, #16
 3720 00f4 0A48     		ldr	r0, .L40+4
 3721 00f6 FFF7FEFF 		bl	HAL_GPIO_WritePin
 3722              	.LVL393:
 3723              	.LBE1055:
 3724              	.LBE1054:
 3725              	.LBB1056:
 3726              	.LBB1057:
   8:MakiseGUI/MakiseGUI/ILI9340C/ili9340.c **** extern inline void _ili9340_dc(uint8_t st){HAL_GPIO_WritePin(ILI9340_DC, st ? GPIO_PIN_SET : GPIO_P
 3727              		.loc 1 8 0
 3728 00fa 2A46     		mov	r2, r5
 3729 00fc 0121     		movs	r1, #1
 3730 00fe 0748     		ldr	r0, .L40
 3731 0100 FFF7FEFF 		bl	HAL_GPIO_WritePin
 3732              	.LVL394:
 3733              	.LBE1057:
 3734              	.LBE1056:
 211:MakiseGUI/MakiseGUI/ILI9340C/ili9340.c **** }
 3735              		.loc 1 211 0
 3736 0104 A28A     		ldrh	r2, [r4, #20]
 3737 0106 2169     		ldr	r1, [r4, #16]
 3738 0108 0648     		ldr	r0, .L40+8
 3739 010a FFF7FEFF 		bl	HAL_SPI_Transmit_DMA
 3740              	.LVL395:
 212:MakiseGUI/MakiseGUI/ILI9340C/ili9340.c **** 
 3741              		.loc 1 212 0
 3742 010e 03B0     		add	sp, sp, #12
 3743              	.LCFI14:
 3744              		.cfi_remember_state
 3745              		.cfi_def_cfa_offset 28
 3746              		@ sp needed
 3747 0110 BDE8F083 		pop	{r4, r5, r6, r7, r8, r9, pc}
 3748              	.LVL396:
 3749              	.L38:
 3750              	.LCFI15:
 3751              		.cfi_restore_state
 3752 0114 B946     		mov	r9, r7
 3753 0116 3B46     		mov	r3, r7
 3754 0118 81E7     		b	.L37
ARM GAS  /tmp/ccczwsg0.s 			page 78


 3755              	.L41:
 3756 011a 00BF     		.align	2
 3757              	.L40:
 3758 011c 00040240 		.word	1073873920
 3759 0120 00080240 		.word	1073874944
 3760 0124 00000000 		.word	hspi1
 3761              		.cfi_endproc
 3762              	.LFE133:
 3764              		.section	.text.ili9340_spi_txhalfcplt,"ax",%progbits
 3765              		.align	1
 3766              		.p2align 2,,3
 3767              		.global	ili9340_spi_txhalfcplt
 3768              		.syntax unified
 3769              		.thumb
 3770              		.thumb_func
 3771              		.fpu fpv4-sp-d16
 3773              	ili9340_spi_txhalfcplt:
 3774              	.LFB138:
 244:MakiseGUI/MakiseGUI/ILI9340C/ili9340.c ****     if(d->posy < d->lcd_height)
 3775              		.loc 1 244 0
 3776              		.cfi_startproc
 3777              		@ args = 0, pretend = 0, frame = 0
 3778              		@ frame_needed = 0, uses_anonymous_args = 0
 3779              	.LVL397:
 3780 0000 08B5     		push	{r3, lr}
 3781              	.LCFI16:
 3782              		.cfi_def_cfa_offset 8
 3783              		.cfi_offset 3, -8
 3784              		.cfi_offset 14, -4
 245:MakiseGUI/MakiseGUI/ILI9340C/ili9340.c **** 	makise_render(d->gui, 1);
 3785              		.loc 1 245 0
 3786 0002 428B     		ldrh	r2, [r0, #26]
 3787 0004 8388     		ldrh	r3, [r0, #4]
 3788 0006 9A42     		cmp	r2, r3
 3789 0008 03D2     		bcs	.L43
 246:MakiseGUI/MakiseGUI/ILI9340C/ili9340.c ****     return M_OK;
 3790              		.loc 1 246 0
 3791 000a 0068     		ldr	r0, [r0]
 3792              	.LVL398:
 3793 000c 0121     		movs	r1, #1
 3794 000e FFF7FEFF 		bl	makise_render
 3795              	.LVL399:
 3796              	.L43:
 248:MakiseGUI/MakiseGUI/ILI9340C/ili9340.c **** uint8_t ili9340_spi_txcplt(MakiseDriver* d)
 3797              		.loc 1 248 0
 3798 0012 0120     		movs	r0, #1
 3799 0014 08BD     		pop	{r3, pc}
 3800              		.cfi_endproc
 3801              	.LFE138:
 3803 0016 00BF     		.section	.text.ili9340_spi_txcplt,"ax",%progbits
 3804              		.align	1
 3805              		.p2align 2,,3
 3806              		.global	ili9340_spi_txcplt
 3807              		.syntax unified
 3808              		.thumb
 3809              		.thumb_func
 3810              		.fpu fpv4-sp-d16
ARM GAS  /tmp/ccczwsg0.s 			page 79


 3812              	ili9340_spi_txcplt:
 3813              	.LFB139:
 250:MakiseGUI/MakiseGUI/ILI9340C/ili9340.c **** //    _ili9340_cs(1);
 3814              		.loc 1 250 0
 3815              		.cfi_startproc
 3816              		@ args = 0, pretend = 0, frame = 8
 3817              		@ frame_needed = 0, uses_anonymous_args = 0
 3818              	.LVL400:
 3819 0000 2DE9F04F 		push	{r4, r5, r6, r7, r8, r9, r10, fp, lr}
 3820              	.LCFI17:
 3821              		.cfi_def_cfa_offset 36
 3822              		.cfi_offset 4, -36
 3823              		.cfi_offset 5, -32
 3824              		.cfi_offset 6, -28
 3825              		.cfi_offset 7, -24
 3826              		.cfi_offset 8, -20
 3827              		.cfi_offset 9, -16
 3828              		.cfi_offset 10, -12
 3829              		.cfi_offset 11, -8
 3830              		.cfi_offset 14, -4
 256:MakiseGUI/MakiseGUI/ILI9340C/ili9340.c ****     {
 3831              		.loc 1 256 0
 3832 0004 8388     		ldrh	r3, [r0, #4]
 3833 0006 478B     		ldrh	r7, [r0, #26]
 254:MakiseGUI/MakiseGUI/ILI9340C/ili9340.c **** 
 3834              		.loc 1 254 0
 3835 0008 0268     		ldr	r2, [r0]
 256:MakiseGUI/MakiseGUI/ILI9340C/ili9340.c ****     {
 3836              		.loc 1 256 0
 3837 000a 9F42     		cmp	r7, r3
 250:MakiseGUI/MakiseGUI/ILI9340C/ili9340.c **** //    _ili9340_cs(1);
 3838              		.loc 1 250 0
 3839 000c 83B0     		sub	sp, sp, #12
 3840              	.LCFI18:
 3841              		.cfi_def_cfa_offset 48
 250:MakiseGUI/MakiseGUI/ILI9340C/ili9340.c **** //    _ili9340_cs(1);
 3842              		.loc 1 250 0
 3843 000e 0446     		mov	r4, r0
 254:MakiseGUI/MakiseGUI/ILI9340C/ili9340.c **** 
 3844              		.loc 1 254 0
 3845 0010 D2F800B0 		ldr	fp, [r2]
 3846              	.LVL401:
 256:MakiseGUI/MakiseGUI/ILI9340C/ili9340.c ****     {
 3847              		.loc 1 256 0
 3848 0014 80F0BC80 		bcs	.L63
 253:MakiseGUI/MakiseGUI/ILI9340C/ili9340.c ****     MakiseBuffer *bu = d->gui->buffer;
 3849              		.loc 1 253 0
 3850 0018 4FF0000A 		mov	r10, #0
 3851              	.LVL402:
 3852              	.L46:
 3853 001c 02AE     		add	r6, sp, #8
 3854              	.LBB1082:
 3855              	.LBB1083:
 3856              	.LBB1084:
 3857              	.LBB1085:
   8:MakiseGUI/MakiseGUI/ILI9340C/ili9340.c **** extern inline void _ili9340_dc(uint8_t st){HAL_GPIO_WritePin(ILI9340_DC, st ? GPIO_PIN_SET : GPIO_P
 3858              		.loc 1 8 0
ARM GAS  /tmp/ccczwsg0.s 			page 80


 3859 001e 7048     		ldr	r0, .L65
 3860              	.LBE1085:
 3861              	.LBE1084:
 3862              	.LBE1083:
 3863              	.LBE1082:
 273:MakiseGUI/MakiseGUI/ILI9340C/ili9340.c ****     makise_render(d->gui, dr ? 0 : 2);
 3864              		.loc 1 273 0
 3865 0020 B4F80690 		ldrh	r9, [r4, #6]
 3866 0024 2589     		ldrh	r5, [r4, #8]
 280:MakiseGUI/MakiseGUI/ILI9340C/ili9340.c ****     /* Enable the SPI Error Interrupt Bit */
 3867              		.loc 1 280 0
 3868 0026 DFF8C081 		ldr	r8, .L65+8
 3869              	.LBB1114:
 3870              	.LBB1110:
 3871              	.LBB1087:
 3872              	.LBB1086:
   8:MakiseGUI/MakiseGUI/ILI9340C/ili9340.c **** extern inline void _ili9340_dc(uint8_t st){HAL_GPIO_WritePin(ILI9340_DC, st ? GPIO_PIN_SET : GPIO_P
 3873              		.loc 1 8 0
 3874 002a 0022     		movs	r2, #0
 3875 002c 0121     		movs	r1, #1
 3876 002e FFF7FEFF 		bl	HAL_GPIO_WritePin
 3877              	.LVL403:
 3878 0032 2A23     		movs	r3, #42
 3879 0034 06F8053D 		strb	r3, [r6, #-5]!
 3880              	.LBE1086:
 3881              	.LBE1087:
 3882              	.LBB1088:
 3883              	.LBB1089:
 3884              	.LBB1090:
 3885              	.LBB1091:
   9:MakiseGUI/MakiseGUI/ILI9340C/ili9340.c **** 
 3886              		.loc 1 9 0
 3887 0038 0022     		movs	r2, #0
 3888 003a 1021     		movs	r1, #16
 3889 003c 6948     		ldr	r0, .L65+4
 3890 003e FFF7FEFF 		bl	HAL_GPIO_WritePin
 3891              	.LVL404:
 3892              	.LBE1091:
 3893              	.LBE1090:
 3894              		.loc 1 319 0
 3895 0042 3146     		mov	r1, r6
 3896 0044 0A23     		movs	r3, #10
 3897 0046 0122     		movs	r2, #1
 3898 0048 4046     		mov	r0, r8
 3899 004a FFF7FEFF 		bl	HAL_SPI_Transmit
 3900              	.LVL405:
 3901              	.LBE1089:
 3902              	.LBE1088:
 3903              	.LBB1092:
 3904              	.LBB1093:
   9:MakiseGUI/MakiseGUI/ILI9340C/ili9340.c **** 
 3905              		.loc 1 9 0
 3906 004e 0122     		movs	r2, #1
 3907 0050 1021     		movs	r1, #16
 3908 0052 6448     		ldr	r0, .L65+4
 3909 0054 FFF7FEFF 		bl	HAL_GPIO_WritePin
 3910              	.LVL406:
ARM GAS  /tmp/ccczwsg0.s 			page 81


 3911              	.LBE1093:
 3912              	.LBE1092:
 180:MakiseGUI/MakiseGUI/ILI9340C/ili9340.c ****     _ili9340_addr_kek[3] = x1;
 3913              		.loc 1 180 0
 3914 0058 4FEA1920 		lsr	r0, r9, #8
 178:MakiseGUI/MakiseGUI/ILI9340C/ili9340.c ****     _ili9340_addr_kek[1] = x0;
 3915              		.loc 1 178 0
 3916 005c 0026     		movs	r6, #0
 182:MakiseGUI/MakiseGUI/ILI9340C/ili9340.c **** 
 3917              		.loc 1 182 0
 3918 005e 01A9     		add	r1, sp, #4
 3919 0060 0A23     		movs	r3, #10
 181:MakiseGUI/MakiseGUI/ILI9340C/ili9340.c ****     HAL_SPI_Transmit(&ILI9340_SPI, (uint8_t*)_ili9340_addr_kek, 4, 10);
 3920              		.loc 1 181 0
 3921 0062 8DF80790 		strb	r9, [sp, #7]
 182:MakiseGUI/MakiseGUI/ILI9340C/ili9340.c **** 
 3922              		.loc 1 182 0
 3923 0066 0422     		movs	r2, #4
 3924 0068 0DF10809 		add	r9, sp, #8
 180:MakiseGUI/MakiseGUI/ILI9340C/ili9340.c ****     _ili9340_addr_kek[3] = x1;
 3925              		.loc 1 180 0
 3926 006c 8DF80600 		strb	r0, [sp, #6]
 182:MakiseGUI/MakiseGUI/ILI9340C/ili9340.c **** 
 3927              		.loc 1 182 0
 3928 0070 4046     		mov	r0, r8
 178:MakiseGUI/MakiseGUI/ILI9340C/ili9340.c ****     _ili9340_addr_kek[1] = x0;
 3929              		.loc 1 178 0
 3930 0072 8DF80460 		strb	r6, [sp, #4]
 179:MakiseGUI/MakiseGUI/ILI9340C/ili9340.c ****     _ili9340_addr_kek[2] = x1 >> 8;
 3931              		.loc 1 179 0
 3932 0076 8DF80560 		strb	r6, [sp, #5]
 182:MakiseGUI/MakiseGUI/ILI9340C/ili9340.c **** 
 3933              		.loc 1 182 0
 3934 007a FFF7FEFF 		bl	HAL_SPI_Transmit
 3935              	.LVL407:
 3936 007e 2B23     		movs	r3, #43
 3937 0080 09F8063D 		strb	r3, [r9, #-6]!
 3938              	.LBB1094:
 3939              	.LBB1095:
 3940              	.LBB1096:
 3941              	.LBB1097:
   9:MakiseGUI/MakiseGUI/ILI9340C/ili9340.c **** 
 3942              		.loc 1 9 0
 3943 0084 3246     		mov	r2, r6
 3944 0086 1021     		movs	r1, #16
 3945 0088 5648     		ldr	r0, .L65+4
 3946              	.LBE1097:
 3947              	.LBE1096:
 3948              	.LBE1095:
 3949              	.LBE1094:
 3950              	.LBE1110:
 3951              	.LBE1114:
 273:MakiseGUI/MakiseGUI/ILI9340C/ili9340.c ****     makise_render(d->gui, dr ? 0 : 2);
 3952              		.loc 1 273 0
 3953 008a 013D     		subs	r5, r5, #1
 3954              	.LBB1115:
 3955              	.LBB1111:
ARM GAS  /tmp/ccczwsg0.s 			page 82


 3956              	.LBB1102:
 3957              	.LBB1100:
 3958              	.LBB1099:
 3959              	.LBB1098:
   9:MakiseGUI/MakiseGUI/ILI9340C/ili9340.c **** 
 3960              		.loc 1 9 0
 3961 008c FFF7FEFF 		bl	HAL_GPIO_WritePin
 3962              	.LVL408:
 3963              	.LBE1098:
 3964              	.LBE1099:
 3965              	.LBE1100:
 3966              	.LBE1102:
 3967              	.LBE1111:
 3968              	.LBE1115:
 273:MakiseGUI/MakiseGUI/ILI9340C/ili9340.c ****     makise_render(d->gui, dr ? 0 : 2);
 3969              		.loc 1 273 0
 3970 0090 3D44     		add	r5, r5, r7
 3971              	.LBB1116:
 3972              	.LBB1112:
 3973              	.LBB1103:
 3974              	.LBB1101:
 3975              		.loc 1 319 0
 3976 0092 4946     		mov	r1, r9
 3977 0094 0A23     		movs	r3, #10
 3978 0096 0122     		movs	r2, #1
 3979 0098 4046     		mov	r0, r8
 3980 009a FFF7FEFF 		bl	HAL_SPI_Transmit
 3981              	.LVL409:
 3982              	.LBE1101:
 3983              	.LBE1103:
 3984              	.LBE1112:
 3985              	.LBE1116:
 273:MakiseGUI/MakiseGUI/ILI9340C/ili9340.c ****     makise_render(d->gui, dr ? 0 : 2);
 3986              		.loc 1 273 0
 3987 009e ADB2     		uxth	r5, r5
 3988              	.LVL410:
 3989              	.LBB1117:
 3990              	.LBB1113:
 3991              	.LBB1104:
 3992              	.LBB1105:
   9:MakiseGUI/MakiseGUI/ILI9340C/ili9340.c **** 
 3993              		.loc 1 9 0
 3994 00a0 0122     		movs	r2, #1
 3995 00a2 1021     		movs	r1, #16
 3996 00a4 4F48     		ldr	r0, .L65+4
 3997 00a6 FFF7FEFF 		bl	HAL_GPIO_WritePin
 3998              	.LVL411:
 3999              	.LBE1105:
 4000              	.LBE1104:
 189:MakiseGUI/MakiseGUI/ILI9340C/ili9340.c ****     _ili9340_addr_kek[3] = y1;
 4001              		.loc 1 189 0
 4002 00aa 280A     		lsrs	r0, r5, #8
 187:MakiseGUI/MakiseGUI/ILI9340C/ili9340.c ****     _ili9340_addr_kek[1] = y0;
 4003              		.loc 1 187 0
 4004 00ac 4FEA172E 		lsr	lr, r7, #8
 4005 00b0 0DF10809 		add	r9, sp, #8
 191:MakiseGUI/MakiseGUI/ILI9340C/ili9340.c **** 
ARM GAS  /tmp/ccczwsg0.s 			page 83


 4006              		.loc 1 191 0
 4007 00b4 01A9     		add	r1, sp, #4
 4008 00b6 0A23     		movs	r3, #10
 4009 00b8 0422     		movs	r2, #4
 189:MakiseGUI/MakiseGUI/ILI9340C/ili9340.c ****     _ili9340_addr_kek[3] = y1;
 4010              		.loc 1 189 0
 4011 00ba 8DF80600 		strb	r0, [sp, #6]
 191:MakiseGUI/MakiseGUI/ILI9340C/ili9340.c **** 
 4012              		.loc 1 191 0
 4013 00be 4046     		mov	r0, r8
 187:MakiseGUI/MakiseGUI/ILI9340C/ili9340.c ****     _ili9340_addr_kek[1] = y0;
 4014              		.loc 1 187 0
 4015 00c0 8DF804E0 		strb	lr, [sp, #4]
 190:MakiseGUI/MakiseGUI/ILI9340C/ili9340.c ****     HAL_SPI_Transmit(&ILI9340_SPI, (uint8_t*)_ili9340_addr_kek, 4, 10);
 4016              		.loc 1 190 0
 4017 00c4 8DF80750 		strb	r5, [sp, #7]
 188:MakiseGUI/MakiseGUI/ILI9340C/ili9340.c ****     _ili9340_addr_kek[2] = y1 >>8;
 4018              		.loc 1 188 0
 4019 00c8 8DF80570 		strb	r7, [sp, #5]
 191:MakiseGUI/MakiseGUI/ILI9340C/ili9340.c **** 
 4020              		.loc 1 191 0
 4021 00cc FFF7FEFF 		bl	HAL_SPI_Transmit
 4022              	.LVL412:
 4023 00d0 2C23     		movs	r3, #44
 4024 00d2 09F8073D 		strb	r3, [r9, #-7]!
 4025              	.LVL413:
 4026              	.LBB1106:
 4027              	.LBB1107:
 4028              	.LBB1108:
 4029              	.LBB1109:
   9:MakiseGUI/MakiseGUI/ILI9340C/ili9340.c **** 
 4030              		.loc 1 9 0
 4031 00d6 3246     		mov	r2, r6
 4032 00d8 1021     		movs	r1, #16
 4033 00da 4248     		ldr	r0, .L65+4
 4034 00dc FFF7FEFF 		bl	HAL_GPIO_WritePin
 4035              	.LVL414:
 4036              	.LBE1109:
 4037              	.LBE1108:
 4038              		.loc 1 319 0
 4039 00e0 4946     		mov	r1, r9
 4040 00e2 0A23     		movs	r3, #10
 4041 00e4 0122     		movs	r2, #1
 4042 00e6 4046     		mov	r0, r8
 4043 00e8 FFF7FEFF 		bl	HAL_SPI_Transmit
 4044              	.LVL415:
 4045              	.LBE1107:
 4046              	.LBE1106:
 4047              	.LBE1113:
 4048              	.LBE1117:
 274:MakiseGUI/MakiseGUI/ILI9340C/ili9340.c ****     
 4049              		.loc 1 274 0
 4050 00ec B245     		cmp	r10, r6
 4051 00ee 0CBF     		ite	eq
 4052 00f0 0221     		moveq	r1, #2
 4053 00f2 3146     		movne	r1, r6
 4054 00f4 2068     		ldr	r0, [r4]
ARM GAS  /tmp/ccczwsg0.s 			page 84


 4055 00f6 FFF7FEFF 		bl	makise_render
 4056              	.LVL416:
 4057              	.LBB1118:
 4058              	.LBB1119:
   9:MakiseGUI/MakiseGUI/ILI9340C/ili9340.c **** 
 4059              		.loc 1 9 0
 4060 00fa 0122     		movs	r2, #1
 4061 00fc 1021     		movs	r1, #16
 4062 00fe 3948     		ldr	r0, .L65+4
 4063 0100 FFF7FEFF 		bl	HAL_GPIO_WritePin
 4064              	.LVL417:
 4065              	.LBE1119:
 4066              	.LBE1118:
 4067              	.LBB1120:
 4068              	.LBB1121:
   8:MakiseGUI/MakiseGUI/ILI9340C/ili9340.c **** extern inline void _ili9340_dc(uint8_t st){HAL_GPIO_WritePin(ILI9340_DC, st ? GPIO_PIN_SET : GPIO_P
 4069              		.loc 1 8 0
 4070 0104 3246     		mov	r2, r6
 4071 0106 0121     		movs	r1, #1
 4072 0108 3548     		ldr	r0, .L65
 4073 010a FFF7FEFF 		bl	HAL_GPIO_WritePin
 4074              	.LVL418:
 4075              	.LBE1121:
 4076              	.LBE1120:
 280:MakiseGUI/MakiseGUI/ILI9340C/ili9340.c ****     /* Enable the SPI Error Interrupt Bit */
 4077              		.loc 1 280 0
 4078 010e D8F80020 		ldr	r2, [r8]
 4079 0112 6369     		ldr	r3, [r4, #20]
 4080 0114 D8F84800 		ldr	r0, [r8, #72]
 4081 0118 2169     		ldr	r1, [r4, #16]
 4082 011a 0C32     		adds	r2, r2, #12
 4083 011c FFF7FEFF 		bl	HAL_DMA_Start_IT
 4084              	.LVL419:
 282:MakiseGUI/MakiseGUI/ILI9340C/ili9340.c **** 
 4085              		.loc 1 282 0
 4086 0120 D8F80030 		ldr	r3, [r8]
 4087 0124 5A68     		ldr	r2, [r3, #4]
 4088 0126 42F02002 		orr	r2, r2, #32
 4089 012a 5A60     		str	r2, [r3, #4]
 285:MakiseGUI/MakiseGUI/ILI9340C/ili9340.c ****     
 4090              		.loc 1 285 0
 4091 012c 5A68     		ldr	r2, [r3, #4]
 4092 012e 42F00202 		orr	r2, r2, #2
 4093 0132 5A60     		str	r2, [r3, #4]
 287:MakiseGUI/MakiseGUI/ILI9340C/ili9340.c ****     {
 4094              		.loc 1 287 0
 4095 0134 BAF1000F 		cmp	r10, #0
 4096 0138 0BD0     		beq	.L50
 289:MakiseGUI/MakiseGUI/ILI9340C/ili9340.c **** 	{
 4097              		.loc 1 289 0
 4098 013a 2068     		ldr	r0, [r4]
 4099 013c C368     		ldr	r3, [r0, #12]
 4100 013e 0BB1     		cbz	r3, .L51
 291:MakiseGUI/MakiseGUI/ILI9340C/ili9340.c **** 	}
 4101              		.loc 1 291 0
 4102 0140 9847     		blx	r3
 4103              	.LVL420:
ARM GAS  /tmp/ccczwsg0.s 			page 85


 4104 0142 2068     		ldr	r0, [r4]
 4105              	.L51:
 293:MakiseGUI/MakiseGUI/ILI9340C/ili9340.c **** 	{
 4106              		.loc 1 293 0
 4107 0144 0369     		ldr	r3, [r0, #16]
 4108 0146 03B1     		cbz	r3, .L52
 295:MakiseGUI/MakiseGUI/ILI9340C/ili9340.c **** 	}
 4109              		.loc 1 295 0
 4110 0148 9847     		blx	r3
 4111              	.LVL421:
 4112              	.L52:
 307:MakiseGUI/MakiseGUI/ILI9340C/ili9340.c **** 
 4113              		.loc 1 307 0
 4114 014a 0120     		movs	r0, #1
 4115 014c 03B0     		add	sp, sp, #12
 4116              	.LCFI19:
 4117              		.cfi_remember_state
 4118              		.cfi_def_cfa_offset 36
 4119              		@ sp needed
 4120 014e BDE8F08F 		pop	{r4, r5, r6, r7, r8, r9, r10, fp, pc}
 4121              	.LVL422:
 4122              	.L50:
 4123              	.LCFI20:
 4124              		.cfi_restore_state
 300:MakiseGUI/MakiseGUI/ILI9340C/ili9340.c **** 	       d->lcd_width * bu->pixeldepth / 32,
 4125              		.loc 1 300 0
 4126 0152 2089     		ldrh	r0, [r4, #8]
 4127 0154 638B     		ldrh	r3, [r4, #26]
 301:MakiseGUI/MakiseGUI/ILI9340C/ili9340.c **** 	       0,
 4128              		.loc 1 301 0
 4129 0156 E188     		ldrh	r1, [r4, #6]
 4130 0158 BBF80820 		ldrh	r2, [fp, #8]
 300:MakiseGUI/MakiseGUI/ILI9340C/ili9340.c **** 	       d->lcd_width * bu->pixeldepth / 32,
 4131              		.loc 1 300 0
 4132 015c A3EB4003 		sub	r3, r3, r0, lsl #1
 4133 0160 01FB03F3 		mul	r3, r1, r3
 301:MakiseGUI/MakiseGUI/ILI9340C/ili9340.c **** 	       0,
 4134              		.loc 1 301 0
 4135 0164 02FB03F3 		mul	r3, r2, r3
 4136 0168 002B     		cmp	r3, #0
 303:MakiseGUI/MakiseGUI/ILI9340C/ili9340.c ****     }
 4137              		.loc 1 303 0
 4138 016a 01FB00F1 		mul	r1, r1, r0
 301:MakiseGUI/MakiseGUI/ILI9340C/ili9340.c **** 	       0,
 4139              		.loc 1 301 0
 4140 016e B8BF     		it	lt
 4141 0170 1F33     		addlt	r3, r3, #31
 300:MakiseGUI/MakiseGUI/ILI9340C/ili9340.c **** 	       d->lcd_width * bu->pixeldepth / 32,
 4142              		.loc 1 300 0
 4143 0172 DBF80C00 		ldr	r0, [fp, #12]
 301:MakiseGUI/MakiseGUI/ILI9340C/ili9340.c **** 	       0,
 4144              		.loc 1 301 0
 4145 0176 5B11     		asrs	r3, r3, #5
 303:MakiseGUI/MakiseGUI/ILI9340C/ili9340.c ****     }
 4146              		.loc 1 303 0
 4147 0178 02FB01F2 		mul	r2, r2, r1
 4148 017c D210     		asrs	r2, r2, #3
ARM GAS  /tmp/ccczwsg0.s 			page 86


 300:MakiseGUI/MakiseGUI/ILI9340C/ili9340.c **** 	       d->lcd_width * bu->pixeldepth / 32,
 4149              		.loc 1 300 0
 4150 017e 00EB8300 		add	r0, r0, r3, lsl #2
 4151 0182 0021     		movs	r1, #0
 4152 0184 FFF7FEFF 		bl	memset
 4153              	.LVL423:
 307:MakiseGUI/MakiseGUI/ILI9340C/ili9340.c **** 
 4154              		.loc 1 307 0
 4155 0188 0120     		movs	r0, #1
 4156 018a 03B0     		add	sp, sp, #12
 4157              	.LCFI21:
 4158              		.cfi_remember_state
 4159              		.cfi_def_cfa_offset 36
 4160              		@ sp needed
 4161 018c BDE8F08F 		pop	{r4, r5, r6, r7, r8, r9, r10, fp, pc}
 4162              	.LVL424:
 4163              	.L63:
 4164              	.LCFI22:
 4165              		.cfi_restore_state
 262:MakiseGUI/MakiseGUI/ILI9340C/ili9340.c **** 	       0,
 4166              		.loc 1 262 0
 4167 0190 0189     		ldrh	r1, [r0, #8]
 4168 0192 C088     		ldrh	r0, [r0, #6]
 4169              	.LVL425:
 4170 0194 BBF80820 		ldrh	r2, [fp, #8]
 4171 0198 5B1A     		subs	r3, r3, r1
 4172 019a 00FB03F3 		mul	r3, r0, r3
 264:MakiseGUI/MakiseGUI/ILI9340C/ili9340.c **** 
 4173              		.loc 1 264 0
 4174 019e 01FB00F1 		mul	r1, r1, r0
 262:MakiseGUI/MakiseGUI/ILI9340C/ili9340.c **** 	       0,
 4175              		.loc 1 262 0
 4176 01a2 02FB03F3 		mul	r3, r2, r3
 264:MakiseGUI/MakiseGUI/ILI9340C/ili9340.c **** 
 4177              		.loc 1 264 0
 4178 01a6 02FB01F2 		mul	r2, r2, r1
 259:MakiseGUI/MakiseGUI/ILI9340C/ili9340.c **** 	
 4179              		.loc 1 259 0
 4180 01aa 0021     		movs	r1, #0
 262:MakiseGUI/MakiseGUI/ILI9340C/ili9340.c **** 	       0,
 4181              		.loc 1 262 0
 4182 01ac 8B42     		cmp	r3, r1
 4183 01ae B8BF     		it	lt
 4184 01b0 1F33     		addlt	r3, r3, #31
 261:MakiseGUI/MakiseGUI/ILI9340C/ili9340.c **** 	       d->lcd_width * (d->lcd_height - d->buffer_height) * bu->pixeldepth / 32,
 4185              		.loc 1 261 0
 4186 01b2 DBF80C00 		ldr	r0, [fp, #12]
 259:MakiseGUI/MakiseGUI/ILI9340C/ili9340.c **** 	
 4187              		.loc 1 259 0
 4188 01b6 6183     		strh	r1, [r4, #26]	@ movhi
 262:MakiseGUI/MakiseGUI/ILI9340C/ili9340.c **** 	       0,
 4189              		.loc 1 262 0
 4190 01b8 5B11     		asrs	r3, r3, #5
 261:MakiseGUI/MakiseGUI/ILI9340C/ili9340.c **** 	       d->lcd_width * (d->lcd_height - d->buffer_height) * bu->pixeldepth / 32,
 4191              		.loc 1 261 0
 4192 01ba 00EB8300 		add	r0, r0, r3, lsl #2
 264:MakiseGUI/MakiseGUI/ILI9340C/ili9340.c **** 
ARM GAS  /tmp/ccczwsg0.s 			page 87


 4193              		.loc 1 264 0
 4194 01be D210     		asrs	r2, r2, #3
 261:MakiseGUI/MakiseGUI/ILI9340C/ili9340.c **** 	       d->lcd_width * (d->lcd_height - d->buffer_height) * bu->pixeldepth / 32,
 4195              		.loc 1 261 0
 4196 01c0 0021     		movs	r1, #0
 4197 01c2 FFF7FEFF 		bl	memset
 4198              	.LVL426:
 266:MakiseGUI/MakiseGUI/ILI9340C/ili9340.c **** 	{
 4199              		.loc 1 266 0
 4200 01c6 2068     		ldr	r0, [r4]
 4201 01c8 8368     		ldr	r3, [r0, #8]
 4202 01ca 23B1     		cbz	r3, .L64
 268:MakiseGUI/MakiseGUI/ILI9340C/ili9340.c **** 	}
 4203              		.loc 1 268 0
 4204 01cc 9847     		blx	r3
 4205              	.LVL427:
 258:MakiseGUI/MakiseGUI/ILI9340C/ili9340.c **** 	d->posy = 0;
 4206              		.loc 1 258 0
 4207 01ce 4FF0010A 		mov	r10, #1
 4208 01d2 678B     		ldrh	r7, [r4, #26]
 4209 01d4 22E7     		b	.L46
 4210              	.L64:
 4211 01d6 678B     		ldrh	r7, [r4, #26]
 4212 01d8 4FF0010A 		mov	r10, #1
 4213 01dc 1EE7     		b	.L46
 4214              	.L66:
 4215 01de 00BF     		.align	2
 4216              	.L65:
 4217 01e0 00040240 		.word	1073873920
 4218 01e4 00080240 		.word	1073874944
 4219 01e8 00000000 		.word	hspi1
 4220              		.cfi_endproc
 4221              	.LFE139:
 4223              		.section	.text.ili9340_write_data,"ax",%progbits
 4224              		.align	1
 4225              		.p2align 2,,3
 4226              		.global	ili9340_write_data
 4227              		.syntax unified
 4228              		.thumb
 4229              		.thumb_func
 4230              		.fpu fpv4-sp-d16
 4232              	ili9340_write_data:
 4233              	.LFB140:
 310:MakiseGUI/MakiseGUI/ILI9340C/ili9340.c ****     _ili9340_dc(1);
 4234              		.loc 1 310 0
 4235              		.cfi_startproc
 4236              		@ args = 0, pretend = 0, frame = 8
 4237              		@ frame_needed = 0, uses_anonymous_args = 0
 4238              	.LVL428:
 4239 0000 10B5     		push	{r4, lr}
 4240              	.LCFI23:
 4241              		.cfi_def_cfa_offset 8
 4242              		.cfi_offset 4, -8
 4243              		.cfi_offset 14, -4
 4244 0002 82B0     		sub	sp, sp, #8
 4245              	.LCFI24:
 4246              		.cfi_def_cfa_offset 16
ARM GAS  /tmp/ccczwsg0.s 			page 88


 310:MakiseGUI/MakiseGUI/ILI9340C/ili9340.c ****     _ili9340_dc(1);
 4247              		.loc 1 310 0
 4248 0004 02AC     		add	r4, sp, #8
 4249              	.LBB1122:
 4250              	.LBB1123:
   9:MakiseGUI/MakiseGUI/ILI9340C/ili9340.c **** 
 4251              		.loc 1 9 0
 4252 0006 0122     		movs	r2, #1
 4253              	.LBE1123:
 4254              	.LBE1122:
 310:MakiseGUI/MakiseGUI/ILI9340C/ili9340.c ****     _ili9340_dc(1);
 4255              		.loc 1 310 0
 4256 0008 04F8010D 		strb	r0, [r4, #-1]!
 4257              	.LBB1125:
 4258              	.LBB1124:
   9:MakiseGUI/MakiseGUI/ILI9340C/ili9340.c **** 
 4259              		.loc 1 9 0
 4260 000c 1021     		movs	r1, #16
 4261 000e 0648     		ldr	r0, .L69
 4262              	.LVL429:
 4263 0010 FFF7FEFF 		bl	HAL_GPIO_WritePin
 4264              	.LVL430:
 4265              	.LBE1124:
 4266              	.LBE1125:
 312:MakiseGUI/MakiseGUI/ILI9340C/ili9340.c ****     return d;
 4267              		.loc 1 312 0
 4268 0014 2146     		mov	r1, r4
 4269 0016 0A23     		movs	r3, #10
 4270 0018 0122     		movs	r2, #1
 4271 001a 0448     		ldr	r0, .L69+4
 4272 001c FFF7FEFF 		bl	HAL_SPI_Transmit
 4273              	.LVL431:
 314:MakiseGUI/MakiseGUI/ILI9340C/ili9340.c **** 
 4274              		.loc 1 314 0
 4275 0020 9DF80700 		ldrb	r0, [sp, #7]	@ zero_extendqisi2
 4276 0024 02B0     		add	sp, sp, #8
 4277              	.LCFI25:
 4278              		.cfi_def_cfa_offset 8
 4279              		@ sp needed
 4280 0026 10BD     		pop	{r4, pc}
 4281              	.L70:
 4282              		.align	2
 4283              	.L69:
 4284 0028 00080240 		.word	1073874944
 4285 002c 00000000 		.word	hspi1
 4286              		.cfi_endproc
 4287              	.LFE140:
 4289              		.section	.text.ili9340_write_command,"ax",%progbits
 4290              		.align	1
 4291              		.p2align 2,,3
 4292              		.global	ili9340_write_command
 4293              		.syntax unified
 4294              		.thumb
 4295              		.thumb_func
 4296              		.fpu fpv4-sp-d16
 4298              	ili9340_write_command:
 4299              	.LFB141:
ARM GAS  /tmp/ccczwsg0.s 			page 89


 317:MakiseGUI/MakiseGUI/ILI9340C/ili9340.c ****     _ili9340_dc(0);
 4300              		.loc 1 317 0
 4301              		.cfi_startproc
 4302              		@ args = 0, pretend = 0, frame = 8
 4303              		@ frame_needed = 0, uses_anonymous_args = 0
 4304              	.LVL432:
 4305 0000 10B5     		push	{r4, lr}
 4306              	.LCFI26:
 4307              		.cfi_def_cfa_offset 8
 4308              		.cfi_offset 4, -8
 4309              		.cfi_offset 14, -4
 4310 0002 82B0     		sub	sp, sp, #8
 4311              	.LCFI27:
 4312              		.cfi_def_cfa_offset 16
 317:MakiseGUI/MakiseGUI/ILI9340C/ili9340.c ****     _ili9340_dc(0);
 4313              		.loc 1 317 0
 4314 0004 02AC     		add	r4, sp, #8
 4315              	.LBB1126:
 4316              	.LBB1127:
   9:MakiseGUI/MakiseGUI/ILI9340C/ili9340.c **** 
 4317              		.loc 1 9 0
 4318 0006 0022     		movs	r2, #0
 4319              	.LBE1127:
 4320              	.LBE1126:
 317:MakiseGUI/MakiseGUI/ILI9340C/ili9340.c ****     _ili9340_dc(0);
 4321              		.loc 1 317 0
 4322 0008 04F8010D 		strb	r0, [r4, #-1]!
 4323              	.LBB1129:
 4324              	.LBB1128:
   9:MakiseGUI/MakiseGUI/ILI9340C/ili9340.c **** 
 4325              		.loc 1 9 0
 4326 000c 1021     		movs	r1, #16
 4327 000e 0648     		ldr	r0, .L73
 4328              	.LVL433:
 4329 0010 FFF7FEFF 		bl	HAL_GPIO_WritePin
 4330              	.LVL434:
 4331              	.LBE1128:
 4332              	.LBE1129:
 4333              		.loc 1 319 0
 4334 0014 2146     		mov	r1, r4
 4335 0016 0A23     		movs	r3, #10
 4336 0018 0122     		movs	r2, #1
 4337 001a 0448     		ldr	r0, .L73+4
 4338 001c FFF7FEFF 		bl	HAL_SPI_Transmit
 4339              	.LVL435:
 320:MakiseGUI/MakiseGUI/ILI9340C/ili9340.c ****     return c;
 321:MakiseGUI/MakiseGUI/ILI9340C/ili9340.c **** }
 4340              		.loc 1 321 0
 4341 0020 9DF80700 		ldrb	r0, [sp, #7]	@ zero_extendqisi2
 4342 0024 02B0     		add	sp, sp, #8
 4343              	.LCFI28:
 4344              		.cfi_def_cfa_offset 8
 4345              		@ sp needed
 4346 0026 10BD     		pop	{r4, pc}
 4347              	.L74:
 4348              		.align	2
 4349              	.L73:
ARM GAS  /tmp/ccczwsg0.s 			page 90


 4350 0028 00080240 		.word	1073874944
 4351 002c 00000000 		.word	hspi1
 4352              		.cfi_endproc
 4353              	.LFE141:
 4355              		.global	ili9340_backlight
 4356              		.comm	makise_color_palette,4,4
 4357              		.section	.bss.ili9340_backlight,"aw",%nobits
 4360              	ili9340_backlight:
 4361 0000 00       		.space	1
 4362              		.text
 4363              	.Letext0:
 4364              		.file 2 "/usr/arm-none-eabi/include/machine/_default_types.h"
 4365              		.file 3 "/usr/arm-none-eabi/include/sys/_stdint.h"
 4366              		.file 4 "Drivers/CMSIS/Include/core_cm4.h"
 4367              		.file 5 "Drivers/CMSIS/Device/ST/STM32F4xx/Include/system_stm32f4xx.h"
 4368              		.file 6 "Drivers/CMSIS/Device/ST/STM32F4xx/Include/stm32f401xe.h"
 4369              		.file 7 "/usr/arm-none-eabi/include/sys/lock.h"
 4370              		.file 8 "/usr/arm-none-eabi/include/sys/_types.h"
 4371              		.file 9 "/usr/lib/gcc/arm-none-eabi/6.3.0/include/stddef.h"
 4372              		.file 10 "/usr/arm-none-eabi/include/sys/reent.h"
 4373              		.file 11 "Drivers/STM32F4xx_HAL_Driver/Inc/stm32f4xx_hal_def.h"
 4374              		.file 12 "Drivers/STM32F4xx_HAL_Driver/Inc/stm32f4xx_hal_gpio.h"
 4375              		.file 13 "Drivers/STM32F4xx_HAL_Driver/Inc/stm32f4xx_hal_dma.h"
 4376              		.file 14 "Drivers/STM32F4xx_HAL_Driver/Inc/stm32f4xx_hal_spi.h"
 4377              		.file 15 "Drivers/STM32F4xx_HAL_Driver/Inc/stm32f4xx_hal_tim.h"
 4378              		.file 16 "Inc/spi.h"
 4379              		.file 17 "Inc/tim.h"
 4380              		.file 18 "MakiseGUI/MakiseGUI/makise.h"
 4381              		.file 19 "MakiseGUI/MakiseGUI/makise_colors.h"
 4382              		.file 20 "MakiseGUI/MakiseGUI/makise_text.h"
 4383              		.file 21 "MakiseGUI/MakiseGUI/fonts/fonts.h"
 4384              		.file 22 "MakiseGUI/MakiseGUI/ILI9340C/ili9340.h"
 4385              		.file 23 "Inc/dma.h"
 4386              		.file 24 "Drivers/STM32F4xx_HAL_Driver/Inc/stm32f4xx_hal.h"
ARM GAS  /tmp/ccczwsg0.s 			page 91


DEFINED SYMBOLS
                            *ABS*:0000000000000000 ili9340.c
     /tmp/ccczwsg0.s:16     .text.ili9340_awake:0000000000000000 $t
     /tmp/ccczwsg0.s:24     .text.ili9340_awake:0000000000000000 ili9340_awake
     /tmp/ccczwsg0.s:41     .text.ili9340_set_backlight:0000000000000000 $t
     /tmp/ccczwsg0.s:49     .text.ili9340_set_backlight:0000000000000000 ili9340_set_backlight
     /tmp/ccczwsg0.s:70     .text.ili9340_set_backlight:000000000000000c $d
     /tmp/ccczwsg0.s:75     .text.ili9340_sleep:0000000000000000 $t
     /tmp/ccczwsg0.s:83     .text.ili9340_sleep:0000000000000000 ili9340_sleep
     /tmp/ccczwsg0.s:95     .text.ili9340_start:0000000000000000 $t
     /tmp/ccczwsg0.s:103    .text.ili9340_start:0000000000000000 ili9340_start
     /tmp/ccczwsg0.s:418    .text.ili9340_start:0000000000000138 $d
     /tmp/ccczwsg0.s:428    .text.ili9340_init:0000000000000000 $t
     /tmp/ccczwsg0.s:436    .text.ili9340_init:0000000000000000 ili9340_init
     /tmp/ccczwsg0.s:1271   .text.ili9340_init:00000000000003d8 $d
     /tmp/ccczwsg0.s:1274   .text.ili9340_init:00000000000003e0 $t
     /tmp/ccczwsg0.s:3052   .text._ili9340_delay:0000000000000000 $t
     /tmp/ccczwsg0.s:3060   .text._ili9340_delay:0000000000000000 _ili9340_delay
     /tmp/ccczwsg0.s:3075   .text._ili9340_rst:0000000000000000 $t
     /tmp/ccczwsg0.s:3083   .text._ili9340_rst:0000000000000000 _ili9340_rst
     /tmp/ccczwsg0.s:3103   .text._ili9340_rst:0000000000000010 $d
     /tmp/ccczwsg0.s:3108   .text._ili9340_cs:0000000000000000 $t
     /tmp/ccczwsg0.s:3116   .text._ili9340_cs:0000000000000000 _ili9340_cs
     /tmp/ccczwsg0.s:3136   .text._ili9340_cs:0000000000000010 $d
     /tmp/ccczwsg0.s:3141   .text._ili9340_dc:0000000000000000 $t
     /tmp/ccczwsg0.s:3149   .text._ili9340_dc:0000000000000000 _ili9340_dc
     /tmp/ccczwsg0.s:3169   .text._ili9340_dc:0000000000000010 $d
     /tmp/ccczwsg0.s:3174   .text.ili9340_driver:0000000000000000 $t
     /tmp/ccczwsg0.s:3182   .text.ili9340_driver:0000000000000000 ili9340_driver
     /tmp/ccczwsg0.s:3259   .text.ili9340_driver:000000000000003c $d
     /tmp/ccczwsg0.s:3269   .text._ili9340_setAddrWindow:0000000000000000 $t
     /tmp/ccczwsg0.s:3277   .text._ili9340_setAddrWindow:0000000000000000 _ili9340_setAddrWindow
     /tmp/ccczwsg0.s:3479   .text._ili9340_setAddrWindow:00000000000000d8 $d
     /tmp/ccczwsg0.s:3486   .text.ili9340_tx:0000000000000000 $t
     /tmp/ccczwsg0.s:3494   .text.ili9340_tx:0000000000000000 ili9340_tx
     /tmp/ccczwsg0.s:3758   .text.ili9340_tx:000000000000011c $d
     /tmp/ccczwsg0.s:3765   .text.ili9340_spi_txhalfcplt:0000000000000000 $t
     /tmp/ccczwsg0.s:3773   .text.ili9340_spi_txhalfcplt:0000000000000000 ili9340_spi_txhalfcplt
     /tmp/ccczwsg0.s:3804   .text.ili9340_spi_txcplt:0000000000000000 $t
     /tmp/ccczwsg0.s:3812   .text.ili9340_spi_txcplt:0000000000000000 ili9340_spi_txcplt
     /tmp/ccczwsg0.s:4217   .text.ili9340_spi_txcplt:00000000000001e0 $d
     /tmp/ccczwsg0.s:4224   .text.ili9340_write_data:0000000000000000 $t
     /tmp/ccczwsg0.s:4232   .text.ili9340_write_data:0000000000000000 ili9340_write_data
     /tmp/ccczwsg0.s:4284   .text.ili9340_write_data:0000000000000028 $d
     /tmp/ccczwsg0.s:4290   .text.ili9340_write_command:0000000000000000 $t
     /tmp/ccczwsg0.s:4298   .text.ili9340_write_command:0000000000000000 ili9340_write_command
     /tmp/ccczwsg0.s:4350   .text.ili9340_write_command:0000000000000028 $d
     /tmp/ccczwsg0.s:4360   .bss.ili9340_backlight:0000000000000000 ili9340_backlight
                            *COM*:0000000000000004 makise_color_palette
     /tmp/ccczwsg0.s:4361   .bss.ili9340_backlight:0000000000000000 $d
                     .debug_frame:0000000000000010 $d

UNDEFINED SYMBOLS
htim3
HAL_TIM_Base_Start
HAL_TIM_PWM_Start
HAL_GPIO_WritePin
ARM GAS  /tmp/ccczwsg0.s 			page 92


HAL_SPI_Transmit
makise_render
HAL_SPI_Transmit_DMA
hspi1
HAL_Delay
HAL_DMA_Start_IT
memset
