ARM GAS  /tmp/ccmWEtpy.s 			page 1


   1              		.cpu cortex-m4
   2              		.eabi_attribute 27, 1
   3              		.eabi_attribute 28, 1
   4              		.eabi_attribute 23, 1
   5              		.eabi_attribute 24, 1
   6              		.eabi_attribute 25, 1
   7              		.eabi_attribute 26, 1
   8              		.eabi_attribute 30, 2
   9              		.eabi_attribute 34, 1
  10              		.eabi_attribute 18, 4
  11              		.file	"ili9340.c"
  12              		.section	.text.ili9340_awake,"ax",%progbits
  13              		.align	1
  14              		.p2align 2,,3
  15              		.global	ili9340_awake
  16              		.syntax unified
  17              		.thumb
  18              		.thumb_func
  19              		.fpu fpv4-sp-d16
  21              	ili9340_awake:
  22              		@ args = 0, pretend = 0, frame = 0
  23              		@ frame_needed = 0, uses_anonymous_args = 0
  24              		@ link register save eliminated.
  25 0000 0120     		movs	r0, #1
  26 0002 7047     		bx	lr
  28              		.section	.text.ili9340_set_backlight,"ax",%progbits
  29              		.align	1
  30              		.p2align 2,,3
  31              		.global	ili9340_set_backlight
  32              		.syntax unified
  33              		.thumb
  34              		.thumb_func
  35              		.fpu fpv4-sp-d16
  37              	ili9340_set_backlight:
  38              		@ args = 0, pretend = 0, frame = 0
  39              		@ frame_needed = 0, uses_anonymous_args = 0
  40              		@ link register save eliminated.
  41 0000 024B     		ldr	r3, .L3
  42 0002 1B68     		ldr	r3, [r3]
  43 0004 0120     		movs	r0, #1
  44 0006 1964     		str	r1, [r3, #64]
  45 0008 7047     		bx	lr
  46              	.L4:
  47 000a 00BF     		.align	2
  48              	.L3:
  49 000c 00000000 		.word	htim3
  51              		.section	.text.ili9340_sleep,"ax",%progbits
  52              		.align	1
  53              		.p2align 2,,3
  54              		.global	ili9340_sleep
  55              		.syntax unified
  56              		.thumb
  57              		.thumb_func
  58              		.fpu fpv4-sp-d16
  60              	ili9340_sleep:
  61              		@ args = 0, pretend = 0, frame = 0
  62              		@ frame_needed = 0, uses_anonymous_args = 0
ARM GAS  /tmp/ccmWEtpy.s 			page 2


  63              		@ link register save eliminated.
  64 0000 0120     		movs	r0, #1
  65 0002 7047     		bx	lr
  67              		.section	.text.ili9340_start,"ax",%progbits
  68              		.align	1
  69              		.p2align 2,,3
  70              		.global	ili9340_start
  71              		.syntax unified
  72              		.thumb
  73              		.thumb_func
  74              		.fpu fpv4-sp-d16
  76              	ili9340_start:
  77              		@ args = 0, pretend = 0, frame = 8
  78              		@ frame_needed = 0, uses_anonymous_args = 0
  79 0000 2DE9F043 		push	{r4, r5, r6, r7, r8, r9, lr}
  80 0004 4C4D     		ldr	r5, .L11
  81 0006 83B0     		sub	sp, sp, #12
  82 0008 0446     		mov	r4, r0
  83 000a 2846     		mov	r0, r5
  84 000c FFF7FEFF 		bl	HAL_TIM_Base_Start
  85 0010 0C21     		movs	r1, #12
  86 0012 2846     		mov	r0, r5
  87 0014 FFF7FEFF 		bl	HAL_TIM_PWM_Start
  88 0018 6468     		ldr	r4, [r4, #4]
  89 001a 2A68     		ldr	r2, [r5]
  90 001c 2068     		ldr	r0, [r4]
  91 001e 8768     		ldr	r7, [r0, #8]
  92 0020 1F21     		movs	r1, #31
  93 0022 0023     		movs	r3, #0
  94 0024 1164     		str	r1, [r2, #64]
  95 0026 6383     		strh	r3, [r4, #26]	@ movhi
  96 0028 002F     		cmp	r7, #0
  97 002a 00F08180 		beq	.L8
  98 002e B847     		blx	r7
  99 0030 638B     		ldrh	r3, [r4, #26]
 100 0032 4FEA1329 		lsr	r9, r3, #8
 101 0036 DFB2     		uxtb	r7, r3
 102              	.L7:
 103 0038 2689     		ldrh	r6, [r4, #8]
 104 003a 4048     		ldr	r0, .L11+4
 105 003c B4F80680 		ldrh	r8, [r4, #6]
 106 0040 013E     		subs	r6, r6, #1
 107 0042 02AD     		add	r5, sp, #8
 108 0044 3344     		add	r3, r3, r6
 109 0046 0022     		movs	r2, #0
 110 0048 0121     		movs	r1, #1
 111 004a 9EB2     		uxth	r6, r3
 112 004c FFF7FEFF 		bl	HAL_GPIO_WritePin
 113 0050 2A23     		movs	r3, #42
 114 0052 05F8053D 		strb	r3, [r5, #-5]!
 115 0056 0022     		movs	r2, #0
 116 0058 1021     		movs	r1, #16
 117 005a 3948     		ldr	r0, .L11+8
 118 005c FFF7FEFF 		bl	HAL_GPIO_WritePin
 119 0060 2946     		mov	r1, r5
 120 0062 0A23     		movs	r3, #10
 121 0064 0122     		movs	r2, #1
ARM GAS  /tmp/ccmWEtpy.s 			page 3


 122 0066 3748     		ldr	r0, .L11+12
 123 0068 FFF7FEFF 		bl	HAL_SPI_Transmit
 124 006c 0122     		movs	r2, #1
 125 006e 1021     		movs	r1, #16
 126 0070 3348     		ldr	r0, .L11+8
 127 0072 FFF7FEFF 		bl	HAL_GPIO_WritePin
 128 0076 0025     		movs	r5, #0
 129 0078 4FEA182E 		lsr	lr, r8, #8
 130 007c 01A9     		add	r1, sp, #4
 131 007e 8DF80780 		strb	r8, [sp, #7]
 132 0082 0A23     		movs	r3, #10
 133 0084 0DF10808 		add	r8, sp, #8
 134 0088 0422     		movs	r2, #4
 135 008a 2E48     		ldr	r0, .L11+12
 136 008c 8DF806E0 		strb	lr, [sp, #6]
 137 0090 8DF80450 		strb	r5, [sp, #4]
 138 0094 8DF80550 		strb	r5, [sp, #5]
 139 0098 FFF7FEFF 		bl	HAL_SPI_Transmit
 140 009c 2B23     		movs	r3, #43
 141 009e 08F8063D 		strb	r3, [r8, #-6]!
 142 00a2 2A46     		mov	r2, r5
 143 00a4 1021     		movs	r1, #16
 144 00a6 2648     		ldr	r0, .L11+8
 145 00a8 FFF7FEFF 		bl	HAL_GPIO_WritePin
 146 00ac 4146     		mov	r1, r8
 147 00ae 0A23     		movs	r3, #10
 148 00b0 0122     		movs	r2, #1
 149 00b2 2448     		ldr	r0, .L11+12
 150 00b4 FFF7FEFF 		bl	HAL_SPI_Transmit
 151 00b8 0122     		movs	r2, #1
 152 00ba 1021     		movs	r1, #16
 153 00bc 2048     		ldr	r0, .L11+8
 154 00be FFF7FEFF 		bl	HAL_GPIO_WritePin
 155 00c2 0DF10808 		add	r8, sp, #8
 156 00c6 4FEA162E 		lsr	lr, r6, #8
 157 00ca 01A9     		add	r1, sp, #4
 158 00cc 0A23     		movs	r3, #10
 159 00ce 0422     		movs	r2, #4
 160 00d0 1C48     		ldr	r0, .L11+12
 161 00d2 8DF806E0 		strb	lr, [sp, #6]
 162 00d6 8DF80760 		strb	r6, [sp, #7]
 163 00da 8DF80490 		strb	r9, [sp, #4]
 164 00de 8DF80570 		strb	r7, [sp, #5]
 165 00e2 FFF7FEFF 		bl	HAL_SPI_Transmit
 166 00e6 2C23     		movs	r3, #44
 167 00e8 08F8073D 		strb	r3, [r8, #-7]!
 168 00ec 2A46     		mov	r2, r5
 169 00ee 1021     		movs	r1, #16
 170 00f0 1348     		ldr	r0, .L11+8
 171 00f2 FFF7FEFF 		bl	HAL_GPIO_WritePin
 172 00f6 0A23     		movs	r3, #10
 173 00f8 4146     		mov	r1, r8
 174 00fa 0122     		movs	r2, #1
 175 00fc 1148     		ldr	r0, .L11+12
 176 00fe FFF7FEFF 		bl	HAL_SPI_Transmit
 177 0102 2946     		mov	r1, r5
 178 0104 2068     		ldr	r0, [r4]
ARM GAS  /tmp/ccmWEtpy.s 			page 4


 179 0106 FFF7FEFF 		bl	makise_render
 180 010a 0122     		movs	r2, #1
 181 010c 1021     		movs	r1, #16
 182 010e 0C48     		ldr	r0, .L11+8
 183 0110 FFF7FEFF 		bl	HAL_GPIO_WritePin
 184 0114 2A46     		mov	r2, r5
 185 0116 0121     		movs	r1, #1
 186 0118 0848     		ldr	r0, .L11+4
 187 011a FFF7FEFF 		bl	HAL_GPIO_WritePin
 188 011e A28A     		ldrh	r2, [r4, #20]
 189 0120 2169     		ldr	r1, [r4, #16]
 190 0122 0848     		ldr	r0, .L11+12
 191 0124 FFF7FEFF 		bl	HAL_SPI_Transmit_DMA
 192 0128 0120     		movs	r0, #1
 193 012a 03B0     		add	sp, sp, #12
 194              		@ sp needed
 195 012c BDE8F083 		pop	{r4, r5, r6, r7, r8, r9, pc}
 196              	.L8:
 197 0130 B946     		mov	r9, r7
 198 0132 3B46     		mov	r3, r7
 199 0134 80E7     		b	.L7
 200              	.L12:
 201 0136 00BF     		.align	2
 202              	.L11:
 203 0138 00000000 		.word	htim3
 204 013c 00040240 		.word	1073873920
 205 0140 00080240 		.word	1073874944
 206 0144 00000000 		.word	hspi1
 208              		.section	.text.ili9340_init,"ax",%progbits
 209              		.align	1
 210              		.p2align 2,,3
 211              		.global	ili9340_init
 212              		.syntax unified
 213              		.thumb
 214              		.thumb_func
 215              		.fpu fpv4-sp-d16
 217              	ili9340_init:
 218              		@ args = 0, pretend = 0, frame = 112
 219              		@ frame_needed = 0, uses_anonymous_args = 0
 220 0000 2DE9F04F 		push	{r4, r5, r6, r7, r8, r9, r10, fp, lr}
 221 0004 F44D     		ldr	r5, .L15
 222 0006 F54E     		ldr	r6, .L15+4
 223 0008 9DB0     		sub	sp, sp, #116
 224 000a 2846     		mov	r0, r5
 225 000c 0122     		movs	r2, #1
 226 000e 2021     		movs	r1, #32
 227 0010 FFF7FEFF 		bl	HAL_GPIO_WritePin
 228 0014 0520     		movs	r0, #5
 229 0016 FFF7FEFF 		bl	HAL_Delay
 230 001a 2846     		mov	r0, r5
 231 001c 0022     		movs	r2, #0
 232 001e 2021     		movs	r1, #32
 233 0020 FFF7FEFF 		bl	HAL_GPIO_WritePin
 234 0024 1420     		movs	r0, #20
 235 0026 FFF7FEFF 		bl	HAL_Delay
 236 002a 1CAF     		add	r7, sp, #112
 237 002c 2846     		mov	r0, r5
ARM GAS  /tmp/ccmWEtpy.s 			page 5


 238 002e 0122     		movs	r2, #1
 239 0030 2021     		movs	r1, #32
 240 0032 0124     		movs	r4, #1
 241 0034 FFF7FEFF 		bl	HAL_GPIO_WritePin
 242 0038 9620     		movs	r0, #150
 243 003a FFF7FEFF 		bl	HAL_Delay
 244 003e 07F8014D 		strb	r4, [r7, #-1]!
 245 0042 2846     		mov	r0, r5
 246 0044 0022     		movs	r2, #0
 247 0046 1021     		movs	r1, #16
 248 0048 FFF7FEFF 		bl	HAL_GPIO_WritePin
 249 004c 3946     		mov	r1, r7
 250 004e 2246     		mov	r2, r4
 251 0050 0A23     		movs	r3, #10
 252 0052 3046     		mov	r0, r6
 253 0054 FFF7FEFF 		bl	HAL_SPI_Transmit
 254 0058 0DF17008 		add	r8, sp, #112
 255 005c 0520     		movs	r0, #5
 256 005e FFF7FEFF 		bl	HAL_Delay
 257 0062 2823     		movs	r3, #40
 258 0064 08F8023D 		strb	r3, [r8, #-2]!
 259 0068 2846     		mov	r0, r5
 260 006a 0022     		movs	r2, #0
 261 006c 1021     		movs	r1, #16
 262 006e FFF7FEFF 		bl	HAL_GPIO_WritePin
 263 0072 1CAF     		add	r7, sp, #112
 264 0074 4146     		mov	r1, r8
 265 0076 2246     		mov	r2, r4
 266 0078 3046     		mov	r0, r6
 267 007a 0A23     		movs	r3, #10
 268 007c FFF7FEFF 		bl	HAL_SPI_Transmit
 269 0080 CF23     		movs	r3, #207
 270 0082 07F8033D 		strb	r3, [r7, #-3]!
 271 0086 0DF17008 		add	r8, sp, #112
 272 008a 2846     		mov	r0, r5
 273 008c 0022     		movs	r2, #0
 274 008e 1021     		movs	r1, #16
 275 0090 4FF0000B 		mov	fp, #0
 276 0094 FFF7FEFF 		bl	HAL_GPIO_WritePin
 277 0098 3946     		mov	r1, r7
 278 009a 2246     		mov	r2, r4
 279 009c 0A23     		movs	r3, #10
 280 009e 3046     		mov	r0, r6
 281 00a0 FFF7FEFF 		bl	HAL_SPI_Transmit
 282 00a4 08F804BD 		strb	fp, [r8, #-4]!
 283 00a8 2246     		mov	r2, r4
 284 00aa 2846     		mov	r0, r5
 285 00ac 1021     		movs	r1, #16
 286 00ae FFF7FEFF 		bl	HAL_GPIO_WritePin
 287 00b2 1CAF     		add	r7, sp, #112
 288 00b4 4146     		mov	r1, r8
 289 00b6 2246     		mov	r2, r4
 290 00b8 3046     		mov	r0, r6
 291 00ba 0A23     		movs	r3, #10
 292 00bc FFF7FEFF 		bl	HAL_SPI_Transmit
 293 00c0 8323     		movs	r3, #131
 294 00c2 07F8053D 		strb	r3, [r7, #-5]!
ARM GAS  /tmp/ccmWEtpy.s 			page 6


 295 00c6 2246     		mov	r2, r4
 296 00c8 2846     		mov	r0, r5
 297 00ca 1021     		movs	r1, #16
 298 00cc FFF7FEFF 		bl	HAL_GPIO_WritePin
 299 00d0 0DF17008 		add	r8, sp, #112
 300 00d4 3946     		mov	r1, r7
 301 00d6 2246     		mov	r2, r4
 302 00d8 3046     		mov	r0, r6
 303 00da 0A23     		movs	r3, #10
 304 00dc FFF7FEFF 		bl	HAL_SPI_Transmit
 305 00e0 3023     		movs	r3, #48
 306 00e2 08F8063D 		strb	r3, [r8, #-6]!
 307 00e6 2246     		mov	r2, r4
 308 00e8 2846     		mov	r0, r5
 309 00ea 1021     		movs	r1, #16
 310 00ec FFF7FEFF 		bl	HAL_GPIO_WritePin
 311 00f0 1CAF     		add	r7, sp, #112
 312 00f2 4146     		mov	r1, r8
 313 00f4 2246     		mov	r2, r4
 314 00f6 3046     		mov	r0, r6
 315 00f8 0A23     		movs	r3, #10
 316 00fa FFF7FEFF 		bl	HAL_SPI_Transmit
 317 00fe ED23     		movs	r3, #237
 318 0100 07F8073D 		strb	r3, [r7, #-7]!
 319 0104 5A46     		mov	r2, fp
 320 0106 2846     		mov	r0, r5
 321 0108 1021     		movs	r1, #16
 322 010a FFF7FEFF 		bl	HAL_GPIO_WritePin
 323 010e 0DF17008 		add	r8, sp, #112
 324 0112 3946     		mov	r1, r7
 325 0114 2246     		mov	r2, r4
 326 0116 3046     		mov	r0, r6
 327 0118 0A23     		movs	r3, #10
 328 011a FFF7FEFF 		bl	HAL_SPI_Transmit
 329 011e 6423     		movs	r3, #100
 330 0120 08F8083D 		strb	r3, [r8, #-8]!
 331 0124 2246     		mov	r2, r4
 332 0126 2846     		mov	r0, r5
 333 0128 1021     		movs	r1, #16
 334 012a FFF7FEFF 		bl	HAL_GPIO_WritePin
 335 012e 1CAF     		add	r7, sp, #112
 336 0130 4146     		mov	r1, r8
 337 0132 2246     		mov	r2, r4
 338 0134 3046     		mov	r0, r6
 339 0136 0A23     		movs	r3, #10
 340 0138 FFF7FEFF 		bl	HAL_SPI_Transmit
 341 013c 4FF00303 		mov	r3, #3
 342 0140 07F8093D 		strb	r3, [r7, #-9]!
 343 0144 2246     		mov	r2, r4
 344 0146 2846     		mov	r0, r5
 345 0148 1021     		movs	r1, #16
 346 014a FFF7FEFF 		bl	HAL_GPIO_WritePin
 347 014e 0DF17008 		add	r8, sp, #112
 348 0152 3946     		mov	r1, r7
 349 0154 2246     		mov	r2, r4
 350 0156 3046     		mov	r0, r6
 351 0158 0A23     		movs	r3, #10
ARM GAS  /tmp/ccmWEtpy.s 			page 7


 352 015a FFF7FEFF 		bl	HAL_SPI_Transmit
 353 015e 1223     		movs	r3, #18
 354 0160 08F80A3D 		strb	r3, [r8, #-10]!
 355 0164 2246     		mov	r2, r4
 356 0166 2846     		mov	r0, r5
 357 0168 1021     		movs	r1, #16
 358 016a FFF7FEFF 		bl	HAL_GPIO_WritePin
 359 016e 1CAF     		add	r7, sp, #112
 360 0170 4146     		mov	r1, r8
 361 0172 2246     		mov	r2, r4
 362 0174 3046     		mov	r0, r6
 363 0176 0A23     		movs	r3, #10
 364 0178 FFF7FEFF 		bl	HAL_SPI_Transmit
 365 017c 8123     		movs	r3, #129
 366 017e 07F80B3D 		strb	r3, [r7, #-11]!
 367 0182 0DF17008 		add	r8, sp, #112
 368 0186 2246     		mov	r2, r4
 369 0188 2846     		mov	r0, r5
 370 018a 1021     		movs	r1, #16
 371 018c FFF7FEFF 		bl	HAL_GPIO_WritePin
 372 0190 4FF0E80A 		mov	r10, #232
 373 0194 3946     		mov	r1, r7
 374 0196 2246     		mov	r2, r4
 375 0198 0A23     		movs	r3, #10
 376 019a 3046     		mov	r0, r6
 377 019c FFF7FEFF 		bl	HAL_SPI_Transmit
 378 01a0 08F80CAD 		strb	r10, [r8, #-12]!
 379 01a4 5A46     		mov	r2, fp
 380 01a6 2846     		mov	r0, r5
 381 01a8 1021     		movs	r1, #16
 382 01aa FFF7FEFF 		bl	HAL_GPIO_WritePin
 383 01ae 1CAF     		add	r7, sp, #112
 384 01b0 4146     		mov	r1, r8
 385 01b2 2246     		mov	r2, r4
 386 01b4 3046     		mov	r0, r6
 387 01b6 0A23     		movs	r3, #10
 388 01b8 FFF7FEFF 		bl	HAL_SPI_Transmit
 389 01bc 8523     		movs	r3, #133
 390 01be 07F80D3D 		strb	r3, [r7, #-13]!
 391 01c2 2246     		mov	r2, r4
 392 01c4 2846     		mov	r0, r5
 393 01c6 1021     		movs	r1, #16
 394 01c8 FFF7FEFF 		bl	HAL_GPIO_WritePin
 395 01cc 3946     		mov	r1, r7
 396 01ce 1CAF     		add	r7, sp, #112
 397 01d0 2246     		mov	r2, r4
 398 01d2 0A23     		movs	r3, #10
 399 01d4 3046     		mov	r0, r6
 400 01d6 FFF7FEFF 		bl	HAL_SPI_Transmit
 401 01da 07F80E4D 		strb	r4, [r7, #-14]!
 402 01de 2246     		mov	r2, r4
 403 01e0 2846     		mov	r0, r5
 404 01e2 1021     		movs	r1, #16
 405 01e4 FFF7FEFF 		bl	HAL_GPIO_WritePin
 406 01e8 0DF17008 		add	r8, sp, #112
 407 01ec 3946     		mov	r1, r7
 408 01ee 2246     		mov	r2, r4
ARM GAS  /tmp/ccmWEtpy.s 			page 8


 409 01f0 3046     		mov	r0, r6
 410 01f2 0A23     		movs	r3, #10
 411 01f4 FFF7FEFF 		bl	HAL_SPI_Transmit
 412 01f8 7923     		movs	r3, #121
 413 01fa 08F80F3D 		strb	r3, [r8, #-15]!
 414 01fe 2246     		mov	r2, r4
 415 0200 2846     		mov	r0, r5
 416 0202 1021     		movs	r1, #16
 417 0204 FFF7FEFF 		bl	HAL_GPIO_WritePin
 418 0208 1CAF     		add	r7, sp, #112
 419 020a 4146     		mov	r1, r8
 420 020c 2246     		mov	r2, r4
 421 020e 3046     		mov	r0, r6
 422 0210 0A23     		movs	r3, #10
 423 0212 FFF7FEFF 		bl	HAL_SPI_Transmit
 424 0216 CB23     		movs	r3, #203
 425 0218 07F8103D 		strb	r3, [r7, #-16]!
 426 021c 5A46     		mov	r2, fp
 427 021e 2846     		mov	r0, r5
 428 0220 1021     		movs	r1, #16
 429 0222 FFF7FEFF 		bl	HAL_GPIO_WritePin
 430 0226 0DF17008 		add	r8, sp, #112
 431 022a 3946     		mov	r1, r7
 432 022c 2246     		mov	r2, r4
 433 022e 3046     		mov	r0, r6
 434 0230 0A23     		movs	r3, #10
 435 0232 FFF7FEFF 		bl	HAL_SPI_Transmit
 436 0236 3923     		movs	r3, #57
 437 0238 08F8113D 		strb	r3, [r8, #-17]!
 438 023c 2246     		mov	r2, r4
 439 023e 2846     		mov	r0, r5
 440 0240 1021     		movs	r1, #16
 441 0242 FFF7FEFF 		bl	HAL_GPIO_WritePin
 442 0246 1CAF     		add	r7, sp, #112
 443 0248 4146     		mov	r1, r8
 444 024a 2246     		mov	r2, r4
 445 024c 3046     		mov	r0, r6
 446 024e 0A23     		movs	r3, #10
 447 0250 FFF7FEFF 		bl	HAL_SPI_Transmit
 448 0254 2C23     		movs	r3, #44
 449 0256 07F8123D 		strb	r3, [r7, #-18]!
 450 025a 0DF17008 		add	r8, sp, #112
 451 025e 2246     		mov	r2, r4
 452 0260 2846     		mov	r0, r5
 453 0262 1021     		movs	r1, #16
 454 0264 FFF7FEFF 		bl	HAL_GPIO_WritePin
 455 0268 3946     		mov	r1, r7
 456 026a 2246     		mov	r2, r4
 457 026c 0A23     		movs	r3, #10
 458 026e 3046     		mov	r0, r6
 459 0270 FFF7FEFF 		bl	HAL_SPI_Transmit
 460 0274 08F813BD 		strb	fp, [r8, #-19]!
 461 0278 2246     		mov	r2, r4
 462 027a 2846     		mov	r0, r5
 463 027c 1021     		movs	r1, #16
 464 027e FFF7FEFF 		bl	HAL_GPIO_WritePin
 465 0282 1CAF     		add	r7, sp, #112
ARM GAS  /tmp/ccmWEtpy.s 			page 9


 466 0284 4146     		mov	r1, r8
 467 0286 2246     		mov	r2, r4
 468 0288 3046     		mov	r0, r6
 469 028a 0A23     		movs	r3, #10
 470 028c FFF7FEFF 		bl	HAL_SPI_Transmit
 471 0290 3423     		movs	r3, #52
 472 0292 07F8143D 		strb	r3, [r7, #-20]!
 473 0296 2246     		mov	r2, r4
 474 0298 2846     		mov	r0, r5
 475 029a 1021     		movs	r1, #16
 476 029c FFF7FEFF 		bl	HAL_GPIO_WritePin
 477 02a0 0DF17008 		add	r8, sp, #112
 478 02a4 3946     		mov	r1, r7
 479 02a6 2246     		mov	r2, r4
 480 02a8 3046     		mov	r0, r6
 481 02aa 0A23     		movs	r3, #10
 482 02ac FFF7FEFF 		bl	HAL_SPI_Transmit
 483 02b0 4FF00203 		mov	r3, #2
 484 02b4 08F8153D 		strb	r3, [r8, #-21]!
 485 02b8 2246     		mov	r2, r4
 486 02ba 2846     		mov	r0, r5
 487 02bc 1021     		movs	r1, #16
 488 02be FFF7FEFF 		bl	HAL_GPIO_WritePin
 489 02c2 1CAF     		add	r7, sp, #112
 490 02c4 4146     		mov	r1, r8
 491 02c6 2246     		mov	r2, r4
 492 02c8 3046     		mov	r0, r6
 493 02ca 0A23     		movs	r3, #10
 494 02cc FFF7FEFF 		bl	HAL_SPI_Transmit
 495 02d0 F723     		movs	r3, #247
 496 02d2 07F8163D 		strb	r3, [r7, #-22]!
 497 02d6 5A46     		mov	r2, fp
 498 02d8 2846     		mov	r0, r5
 499 02da 1021     		movs	r1, #16
 500 02dc FFF7FEFF 		bl	HAL_GPIO_WritePin
 501 02e0 0DF17008 		add	r8, sp, #112
 502 02e4 3946     		mov	r1, r7
 503 02e6 2246     		mov	r2, r4
 504 02e8 3046     		mov	r0, r6
 505 02ea 0A23     		movs	r3, #10
 506 02ec FFF7FEFF 		bl	HAL_SPI_Transmit
 507 02f0 2023     		movs	r3, #32
 508 02f2 08F8173D 		strb	r3, [r8, #-23]!
 509 02f6 2246     		mov	r2, r4
 510 02f8 2846     		mov	r0, r5
 511 02fa 1021     		movs	r1, #16
 512 02fc FFF7FEFF 		bl	HAL_GPIO_WritePin
 513 0300 1CAF     		add	r7, sp, #112
 514 0302 4146     		mov	r1, r8
 515 0304 2246     		mov	r2, r4
 516 0306 3046     		mov	r0, r6
 517 0308 0A23     		movs	r3, #10
 518 030a FFF7FEFF 		bl	HAL_SPI_Transmit
 519 030e EA23     		movs	r3, #234
 520 0310 07F8183D 		strb	r3, [r7, #-24]!
 521 0314 5A46     		mov	r2, fp
 522 0316 2846     		mov	r0, r5
ARM GAS  /tmp/ccmWEtpy.s 			page 10


 523 0318 1021     		movs	r1, #16
 524 031a FFF7FEFF 		bl	HAL_GPIO_WritePin
 525 031e 3946     		mov	r1, r7
 526 0320 1CAF     		add	r7, sp, #112
 527 0322 2246     		mov	r2, r4
 528 0324 0A23     		movs	r3, #10
 529 0326 3046     		mov	r0, r6
 530 0328 FFF7FEFF 		bl	HAL_SPI_Transmit
 531 032c 07F819BD 		strb	fp, [r7, #-25]!
 532 0330 2246     		mov	r2, r4
 533 0332 2846     		mov	r0, r5
 534 0334 1021     		movs	r1, #16
 535 0336 FFF7FEFF 		bl	HAL_GPIO_WritePin
 536 033a 3946     		mov	r1, r7
 537 033c 1CAF     		add	r7, sp, #112
 538 033e 2246     		mov	r2, r4
 539 0340 0A23     		movs	r3, #10
 540 0342 3046     		mov	r0, r6
 541 0344 FFF7FEFF 		bl	HAL_SPI_Transmit
 542 0348 07F81ABD 		strb	fp, [r7, #-26]!
 543 034c 2246     		mov	r2, r4
 544 034e 2846     		mov	r0, r5
 545 0350 1021     		movs	r1, #16
 546 0352 FFF7FEFF 		bl	HAL_GPIO_WritePin
 547 0356 0DF17008 		add	r8, sp, #112
 548 035a 3946     		mov	r1, r7
 549 035c 2246     		mov	r2, r4
 550 035e 3046     		mov	r0, r6
 551 0360 0A23     		movs	r3, #10
 552 0362 FFF7FEFF 		bl	HAL_SPI_Transmit
 553 0366 C023     		movs	r3, #192
 554 0368 08F81B3D 		strb	r3, [r8, #-27]!
 555 036c 1CAF     		add	r7, sp, #112
 556 036e 5A46     		mov	r2, fp
 557 0370 2846     		mov	r0, r5
 558 0372 1021     		movs	r1, #16
 559 0374 FFF7FEFF 		bl	HAL_GPIO_WritePin
 560 0378 4FF02609 		mov	r9, #38
 561 037c 4146     		mov	r1, r8
 562 037e 2246     		mov	r2, r4
 563 0380 0A23     		movs	r3, #10
 564 0382 3046     		mov	r0, r6
 565 0384 FFF7FEFF 		bl	HAL_SPI_Transmit
 566 0388 07F81C9D 		strb	r9, [r7, #-28]!
 567 038c 2246     		mov	r2, r4
 568 038e 2846     		mov	r0, r5
 569 0390 1021     		movs	r1, #16
 570 0392 FFF7FEFF 		bl	HAL_GPIO_WritePin
 571 0396 0DF17008 		add	r8, sp, #112
 572 039a 3946     		mov	r1, r7
 573 039c 2246     		mov	r2, r4
 574 039e 3046     		mov	r0, r6
 575 03a0 0A23     		movs	r3, #10
 576 03a2 FFF7FEFF 		bl	HAL_SPI_Transmit
 577 03a6 6FF03E03 		mvn	r3, #62
 578 03aa 08F81D3D 		strb	r3, [r8, #-29]!
 579 03ae 5A46     		mov	r2, fp
ARM GAS  /tmp/ccmWEtpy.s 			page 11


 580 03b0 2846     		mov	r0, r5
 581 03b2 1021     		movs	r1, #16
 582 03b4 FFF7FEFF 		bl	HAL_GPIO_WritePin
 583 03b8 1CAF     		add	r7, sp, #112
 584 03ba 4146     		mov	r1, r8
 585 03bc 2246     		mov	r2, r4
 586 03be 3046     		mov	r0, r6
 587 03c0 0A23     		movs	r3, #10
 588 03c2 FFF7FEFF 		bl	HAL_SPI_Transmit
 589 03c6 4FF01103 		mov	r3, #17
 590 03ca 07F81E3D 		strb	r3, [r7, #-30]!
 591 03ce 2246     		mov	r2, r4
 592 03d0 2846     		mov	r0, r5
 593 03d2 1021     		movs	r1, #16
 594 03d4 04E0     		b	.L16
 595              	.L17:
 596 03d6 00BF     		.align	2
 597              	.L15:
 598 03d8 00080240 		.word	1073874944
 599 03dc 00000000 		.word	hspi1
 600              	.L16:
 601 03e0 FFF7FEFF 		bl	HAL_GPIO_WritePin
 602 03e4 0DF17008 		add	r8, sp, #112
 603 03e8 3946     		mov	r1, r7
 604 03ea 2246     		mov	r2, r4
 605 03ec 3046     		mov	r0, r6
 606 03ee 0A23     		movs	r3, #10
 607 03f0 FFF7FEFF 		bl	HAL_SPI_Transmit
 608 03f4 C523     		movs	r3, #197
 609 03f6 08F81F3D 		strb	r3, [r8, #-31]!
 610 03fa 5A46     		mov	r2, fp
 611 03fc 2846     		mov	r0, r5
 612 03fe 1021     		movs	r1, #16
 613 0400 FFF7FEFF 		bl	HAL_GPIO_WritePin
 614 0404 1CAF     		add	r7, sp, #112
 615 0406 4146     		mov	r1, r8
 616 0408 2246     		mov	r2, r4
 617 040a 3046     		mov	r0, r6
 618 040c 0A23     		movs	r3, #10
 619 040e FFF7FEFF 		bl	HAL_SPI_Transmit
 620 0412 3523     		movs	r3, #53
 621 0414 07F8203D 		strb	r3, [r7, #-32]!
 622 0418 2246     		mov	r2, r4
 623 041a 2846     		mov	r0, r5
 624 041c 1021     		movs	r1, #16
 625 041e FFF7FEFF 		bl	HAL_GPIO_WritePin
 626 0422 0DF17008 		add	r8, sp, #112
 627 0426 3946     		mov	r1, r7
 628 0428 2246     		mov	r2, r4
 629 042a 3046     		mov	r0, r6
 630 042c 0A23     		movs	r3, #10
 631 042e FFF7FEFF 		bl	HAL_SPI_Transmit
 632 0432 3E23     		movs	r3, #62
 633 0434 08F8213D 		strb	r3, [r8, #-33]!
 634 0438 2246     		mov	r2, r4
 635 043a 2846     		mov	r0, r5
 636 043c 1021     		movs	r1, #16
ARM GAS  /tmp/ccmWEtpy.s 			page 12


 637 043e FFF7FEFF 		bl	HAL_GPIO_WritePin
 638 0442 1CAF     		add	r7, sp, #112
 639 0444 4146     		mov	r1, r8
 640 0446 2246     		mov	r2, r4
 641 0448 3046     		mov	r0, r6
 642 044a 0A23     		movs	r3, #10
 643 044c FFF7FEFF 		bl	HAL_SPI_Transmit
 644 0450 C723     		movs	r3, #199
 645 0452 07F8223D 		strb	r3, [r7, #-34]!
 646 0456 5A46     		mov	r2, fp
 647 0458 2846     		mov	r0, r5
 648 045a 1021     		movs	r1, #16
 649 045c FFF7FEFF 		bl	HAL_GPIO_WritePin
 650 0460 0DF17008 		add	r8, sp, #112
 651 0464 3946     		mov	r1, r7
 652 0466 2246     		mov	r2, r4
 653 0468 3046     		mov	r0, r6
 654 046a 0A23     		movs	r3, #10
 655 046c FFF7FEFF 		bl	HAL_SPI_Transmit
 656 0470 BE23     		movs	r3, #190
 657 0472 08F8233D 		strb	r3, [r8, #-35]!
 658 0476 2246     		mov	r2, r4
 659 0478 2846     		mov	r0, r5
 660 047a 1021     		movs	r1, #16
 661 047c FFF7FEFF 		bl	HAL_GPIO_WritePin
 662 0480 1CAF     		add	r7, sp, #112
 663 0482 4146     		mov	r1, r8
 664 0484 2246     		mov	r2, r4
 665 0486 3046     		mov	r0, r6
 666 0488 0A23     		movs	r3, #10
 667 048a FFF7FEFF 		bl	HAL_SPI_Transmit
 668 048e 4FF03603 		mov	r3, #54
 669 0492 07F8243D 		strb	r3, [r7, #-36]!
 670 0496 0DF17008 		add	r8, sp, #112
 671 049a 5A46     		mov	r2, fp
 672 049c 2846     		mov	r0, r5
 673 049e 1021     		movs	r1, #16
 674 04a0 FFF7FEFF 		bl	HAL_GPIO_WritePin
 675 04a4 3946     		mov	r1, r7
 676 04a6 2246     		mov	r2, r4
 677 04a8 0A23     		movs	r3, #10
 678 04aa 3046     		mov	r0, r6
 679 04ac FFF7FEFF 		bl	HAL_SPI_Transmit
 680 04b0 08F825AD 		strb	r10, [r8, #-37]!
 681 04b4 2246     		mov	r2, r4
 682 04b6 2846     		mov	r0, r5
 683 04b8 1021     		movs	r1, #16
 684 04ba FFF7FEFF 		bl	HAL_GPIO_WritePin
 685 04be 1CAF     		add	r7, sp, #112
 686 04c0 4146     		mov	r1, r8
 687 04c2 2246     		mov	r2, r4
 688 04c4 3046     		mov	r0, r6
 689 04c6 0A23     		movs	r3, #10
 690 04c8 FFF7FEFF 		bl	HAL_SPI_Transmit
 691 04cc 3A23     		movs	r3, #58
 692 04ce 07F8263D 		strb	r3, [r7, #-38]!
 693 04d2 5A46     		mov	r2, fp
ARM GAS  /tmp/ccmWEtpy.s 			page 13


 694 04d4 2846     		mov	r0, r5
 695 04d6 1021     		movs	r1, #16
 696 04d8 FFF7FEFF 		bl	HAL_GPIO_WritePin
 697 04dc 0DF17008 		add	r8, sp, #112
 698 04e0 3946     		mov	r1, r7
 699 04e2 2246     		mov	r2, r4
 700 04e4 3046     		mov	r0, r6
 701 04e6 0A23     		movs	r3, #10
 702 04e8 FFF7FEFF 		bl	HAL_SPI_Transmit
 703 04ec 5523     		movs	r3, #85
 704 04ee 08F8273D 		strb	r3, [r8, #-39]!
 705 04f2 2246     		mov	r2, r4
 706 04f4 2846     		mov	r0, r5
 707 04f6 1021     		movs	r1, #16
 708 04f8 FFF7FEFF 		bl	HAL_GPIO_WritePin
 709 04fc 1CAF     		add	r7, sp, #112
 710 04fe 4146     		mov	r1, r8
 711 0500 2246     		mov	r2, r4
 712 0502 3046     		mov	r0, r6
 713 0504 0A23     		movs	r3, #10
 714 0506 FFF7FEFF 		bl	HAL_SPI_Transmit
 715 050a B123     		movs	r3, #177
 716 050c 07F8283D 		strb	r3, [r7, #-40]!
 717 0510 0DF17008 		add	r8, sp, #112
 718 0514 5A46     		mov	r2, fp
 719 0516 2846     		mov	r0, r5
 720 0518 1021     		movs	r1, #16
 721 051a FFF7FEFF 		bl	HAL_GPIO_WritePin
 722 051e 3946     		mov	r1, r7
 723 0520 2246     		mov	r2, r4
 724 0522 0A23     		movs	r3, #10
 725 0524 3046     		mov	r0, r6
 726 0526 FFF7FEFF 		bl	HAL_SPI_Transmit
 727 052a 08F829BD 		strb	fp, [r8, #-41]!
 728 052e 2246     		mov	r2, r4
 729 0530 2846     		mov	r0, r5
 730 0532 1021     		movs	r1, #16
 731 0534 FFF7FEFF 		bl	HAL_GPIO_WritePin
 732 0538 1CAF     		add	r7, sp, #112
 733 053a 4146     		mov	r1, r8
 734 053c 2246     		mov	r2, r4
 735 053e 3046     		mov	r0, r6
 736 0540 0A23     		movs	r3, #10
 737 0542 FFF7FEFF 		bl	HAL_SPI_Transmit
 738 0546 1B23     		movs	r3, #27
 739 0548 07F82A3D 		strb	r3, [r7, #-42]!
 740 054c 2246     		mov	r2, r4
 741 054e 2846     		mov	r0, r5
 742 0550 1021     		movs	r1, #16
 743 0552 FFF7FEFF 		bl	HAL_GPIO_WritePin
 744 0556 0DF17008 		add	r8, sp, #112
 745 055a 3946     		mov	r1, r7
 746 055c 2246     		mov	r2, r4
 747 055e 3046     		mov	r0, r6
 748 0560 0A23     		movs	r3, #10
 749 0562 FFF7FEFF 		bl	HAL_SPI_Transmit
 750 0566 F223     		movs	r3, #242
ARM GAS  /tmp/ccmWEtpy.s 			page 14


 751 0568 08F82B3D 		strb	r3, [r8, #-43]!
 752 056c 5A46     		mov	r2, fp
 753 056e 2846     		mov	r0, r5
 754 0570 1021     		movs	r1, #16
 755 0572 FFF7FEFF 		bl	HAL_GPIO_WritePin
 756 0576 1CAF     		add	r7, sp, #112
 757 0578 4146     		mov	r1, r8
 758 057a 2246     		mov	r2, r4
 759 057c 3046     		mov	r0, r6
 760 057e 0A23     		movs	r3, #10
 761 0580 FFF7FEFF 		bl	HAL_SPI_Transmit
 762 0584 4FF00803 		mov	r3, #8
 763 0588 07F82C3D 		strb	r3, [r7, #-44]!
 764 058c 2246     		mov	r2, r4
 765 058e 2846     		mov	r0, r5
 766 0590 1021     		movs	r1, #16
 767 0592 FFF7FEFF 		bl	HAL_GPIO_WritePin
 768 0596 3946     		mov	r1, r7
 769 0598 1CAF     		add	r7, sp, #112
 770 059a 2246     		mov	r2, r4
 771 059c 0A23     		movs	r3, #10
 772 059e 3046     		mov	r0, r6
 773 05a0 FFF7FEFF 		bl	HAL_SPI_Transmit
 774 05a4 07F82D9D 		strb	r9, [r7, #-45]!
 775 05a8 5A46     		mov	r2, fp
 776 05aa 2846     		mov	r0, r5
 777 05ac 1021     		movs	r1, #16
 778 05ae FFF7FEFF 		bl	HAL_GPIO_WritePin
 779 05b2 3946     		mov	r1, r7
 780 05b4 2246     		mov	r2, r4
 781 05b6 1CAF     		add	r7, sp, #112
 782 05b8 3046     		mov	r0, r6
 783 05ba 0A23     		movs	r3, #10
 784 05bc FFF7FEFF 		bl	HAL_SPI_Transmit
 785 05c0 4FF00203 		mov	r3, #2
 786 05c4 07F82E3D 		strb	r3, [r7, #-46]!
 787 05c8 2246     		mov	r2, r4
 788 05ca 2846     		mov	r0, r5
 789 05cc 1021     		movs	r1, #16
 790 05ce FFF7FEFF 		bl	HAL_GPIO_WritePin
 791 05d2 0DF17008 		add	r8, sp, #112
 792 05d6 3946     		mov	r1, r7
 793 05d8 2246     		mov	r2, r4
 794 05da 3046     		mov	r0, r6
 795 05dc 0A23     		movs	r3, #10
 796 05de FFF7FEFF 		bl	HAL_SPI_Transmit
 797 05e2 E023     		movs	r3, #224
 798 05e4 08F82F3D 		strb	r3, [r8, #-47]!
 799 05e8 5A46     		mov	r2, fp
 800 05ea 2846     		mov	r0, r5
 801 05ec 1021     		movs	r1, #16
 802 05ee FFF7FEFF 		bl	HAL_GPIO_WritePin
 803 05f2 1CAF     		add	r7, sp, #112
 804 05f4 4146     		mov	r1, r8
 805 05f6 2246     		mov	r2, r4
 806 05f8 3046     		mov	r0, r6
 807 05fa 0A23     		movs	r3, #10
ARM GAS  /tmp/ccmWEtpy.s 			page 15


 808 05fc FFF7FEFF 		bl	HAL_SPI_Transmit
 809 0600 4FF00F03 		mov	r3, #15
 810 0604 07F8303D 		strb	r3, [r7, #-48]!
 811 0608 2246     		mov	r2, r4
 812 060a 2846     		mov	r0, r5
 813 060c 1021     		movs	r1, #16
 814 060e FFF7FEFF 		bl	HAL_GPIO_WritePin
 815 0612 0DF17008 		add	r8, sp, #112
 816 0616 3946     		mov	r1, r7
 817 0618 2246     		mov	r2, r4
 818 061a 3046     		mov	r0, r6
 819 061c 0A23     		movs	r3, #10
 820 061e FFF7FEFF 		bl	HAL_SPI_Transmit
 821 0622 4FF03103 		mov	r3, #49
 822 0626 08F8313D 		strb	r3, [r8, #-49]!
 823 062a 2246     		mov	r2, r4
 824 062c 2846     		mov	r0, r5
 825 062e 1021     		movs	r1, #16
 826 0630 FFF7FEFF 		bl	HAL_GPIO_WritePin
 827 0634 1CAF     		add	r7, sp, #112
 828 0636 4146     		mov	r1, r8
 829 0638 2246     		mov	r2, r4
 830 063a 3046     		mov	r0, r6
 831 063c 0A23     		movs	r3, #10
 832 063e FFF7FEFF 		bl	HAL_SPI_Transmit
 833 0642 2B23     		movs	r3, #43
 834 0644 07F8323D 		strb	r3, [r7, #-50]!
 835 0648 2246     		mov	r2, r4
 836 064a 2846     		mov	r0, r5
 837 064c 1021     		movs	r1, #16
 838 064e FFF7FEFF 		bl	HAL_GPIO_WritePin
 839 0652 0DF17009 		add	r9, sp, #112
 840 0656 3946     		mov	r1, r7
 841 0658 2246     		mov	r2, r4
 842 065a 3046     		mov	r0, r6
 843 065c 0A23     		movs	r3, #10
 844 065e FFF7FEFF 		bl	HAL_SPI_Transmit
 845 0662 4FF00C03 		mov	r3, #12
 846 0666 09F8333D 		strb	r3, [r9, #-51]!
 847 066a 1CAF     		add	r7, sp, #112
 848 066c 2246     		mov	r2, r4
 849 066e 2846     		mov	r0, r5
 850 0670 1021     		movs	r1, #16
 851 0672 FFF7FEFF 		bl	HAL_GPIO_WritePin
 852 0676 4FF00E08 		mov	r8, #14
 853 067a 4946     		mov	r1, r9
 854 067c 2246     		mov	r2, r4
 855 067e 0A23     		movs	r3, #10
 856 0680 3046     		mov	r0, r6
 857 0682 FFF7FEFF 		bl	HAL_SPI_Transmit
 858 0686 07F8348D 		strb	r8, [r7, #-52]!
 859 068a 2246     		mov	r2, r4
 860 068c 2846     		mov	r0, r5
 861 068e 1021     		movs	r1, #16
 862 0690 FFF7FEFF 		bl	HAL_GPIO_WritePin
 863 0694 0DF17009 		add	r9, sp, #112
 864 0698 3946     		mov	r1, r7
ARM GAS  /tmp/ccmWEtpy.s 			page 16


 865 069a 2246     		mov	r2, r4
 866 069c 3046     		mov	r0, r6
 867 069e 0A23     		movs	r3, #10
 868 06a0 FFF7FEFF 		bl	HAL_SPI_Transmit
 869 06a4 4FF00803 		mov	r3, #8
 870 06a8 09F8353D 		strb	r3, [r9, #-53]!
 871 06ac 2246     		mov	r2, r4
 872 06ae 2846     		mov	r0, r5
 873 06b0 1021     		movs	r1, #16
 874 06b2 FFF7FEFF 		bl	HAL_GPIO_WritePin
 875 06b6 1CAF     		add	r7, sp, #112
 876 06b8 4946     		mov	r1, r9
 877 06ba 2246     		mov	r2, r4
 878 06bc 3046     		mov	r0, r6
 879 06be 0A23     		movs	r3, #10
 880 06c0 FFF7FEFF 		bl	HAL_SPI_Transmit
 881 06c4 4E23     		movs	r3, #78
 882 06c6 07F8363D 		strb	r3, [r7, #-54]!
 883 06ca 2246     		mov	r2, r4
 884 06cc 2846     		mov	r0, r5
 885 06ce 1021     		movs	r1, #16
 886 06d0 FFF7FEFF 		bl	HAL_GPIO_WritePin
 887 06d4 0DF17009 		add	r9, sp, #112
 888 06d8 3946     		mov	r1, r7
 889 06da 2246     		mov	r2, r4
 890 06dc 3046     		mov	r0, r6
 891 06de 0A23     		movs	r3, #10
 892 06e0 FFF7FEFF 		bl	HAL_SPI_Transmit
 893 06e4 F123     		movs	r3, #241
 894 06e6 09F8373D 		strb	r3, [r9, #-55]!
 895 06ea 2246     		mov	r2, r4
 896 06ec 2846     		mov	r0, r5
 897 06ee 1021     		movs	r1, #16
 898 06f0 FFF7FEFF 		bl	HAL_GPIO_WritePin
 899 06f4 1CAF     		add	r7, sp, #112
 900 06f6 4946     		mov	r1, r9
 901 06f8 2246     		mov	r2, r4
 902 06fa 3046     		mov	r0, r6
 903 06fc 0A23     		movs	r3, #10
 904 06fe FFF7FEFF 		bl	HAL_SPI_Transmit
 905 0702 3723     		movs	r3, #55
 906 0704 07F8383D 		strb	r3, [r7, #-56]!
 907 0708 2246     		mov	r2, r4
 908 070a 2846     		mov	r0, r5
 909 070c 1021     		movs	r1, #16
 910 070e FFF7FEFF 		bl	HAL_GPIO_WritePin
 911 0712 0DF1700A 		add	r10, sp, #112
 912 0716 3946     		mov	r1, r7
 913 0718 2246     		mov	r2, r4
 914 071a 3046     		mov	r0, r6
 915 071c 0A23     		movs	r3, #10
 916 071e FFF7FEFF 		bl	HAL_SPI_Transmit
 917 0722 4FF00703 		mov	r3, #7
 918 0726 0AF8393D 		strb	r3, [r10, #-57]!
 919 072a 0DF17009 		add	r9, sp, #112
 920 072e 2246     		mov	r2, r4
 921 0730 2846     		mov	r0, r5
ARM GAS  /tmp/ccmWEtpy.s 			page 17


 922 0732 1021     		movs	r1, #16
 923 0734 1027     		movs	r7, #16
 924 0736 FFF7FEFF 		bl	HAL_GPIO_WritePin
 925 073a 5146     		mov	r1, r10
 926 073c 2246     		mov	r2, r4
 927 073e 0A23     		movs	r3, #10
 928 0740 3046     		mov	r0, r6
 929 0742 FFF7FEFF 		bl	HAL_SPI_Transmit
 930 0746 09F83A7D 		strb	r7, [r9, #-58]!
 931 074a 2246     		mov	r2, r4
 932 074c 2846     		mov	r0, r5
 933 074e 3946     		mov	r1, r7
 934 0750 FFF7FEFF 		bl	HAL_GPIO_WritePin
 935 0754 4946     		mov	r1, r9
 936 0756 2246     		mov	r2, r4
 937 0758 0DF17009 		add	r9, sp, #112
 938 075c 3046     		mov	r0, r6
 939 075e 0A23     		movs	r3, #10
 940 0760 FFF7FEFF 		bl	HAL_SPI_Transmit
 941 0764 4FF00303 		mov	r3, #3
 942 0768 09F83B3D 		strb	r3, [r9, #-59]!
 943 076c 0DF1700A 		add	r10, sp, #112
 944 0770 2246     		mov	r2, r4
 945 0772 3946     		mov	r1, r7
 946 0774 2846     		mov	r0, r5
 947 0776 FFF7FEFF 		bl	HAL_GPIO_WritePin
 948 077a 4946     		mov	r1, r9
 949 077c 2246     		mov	r2, r4
 950 077e 0A23     		movs	r3, #10
 951 0780 3046     		mov	r0, r6
 952 0782 FFF7FEFF 		bl	HAL_SPI_Transmit
 953 0786 0AF83C8D 		strb	r8, [r10, #-60]!
 954 078a 2246     		mov	r2, r4
 955 078c 3946     		mov	r1, r7
 956 078e 2846     		mov	r0, r5
 957 0790 FFF7FEFF 		bl	HAL_GPIO_WritePin
 958 0794 0DF17009 		add	r9, sp, #112
 959 0798 5146     		mov	r1, r10
 960 079a 2246     		mov	r2, r4
 961 079c 3046     		mov	r0, r6
 962 079e 0A23     		movs	r3, #10
 963 07a0 FFF7FEFF 		bl	HAL_SPI_Transmit
 964 07a4 0923     		movs	r3, #9
 965 07a6 09F83D3D 		strb	r3, [r9, #-61]!
 966 07aa 0DF1700A 		add	r10, sp, #112
 967 07ae 2246     		mov	r2, r4
 968 07b0 3946     		mov	r1, r7
 969 07b2 2846     		mov	r0, r5
 970 07b4 FFF7FEFF 		bl	HAL_GPIO_WritePin
 971 07b8 4946     		mov	r1, r9
 972 07ba 2246     		mov	r2, r4
 973 07bc 0A23     		movs	r3, #10
 974 07be 3046     		mov	r0, r6
 975 07c0 FFF7FEFF 		bl	HAL_SPI_Transmit
 976 07c4 0AF83EBD 		strb	fp, [r10, #-62]!
 977 07c8 2246     		mov	r2, r4
 978 07ca 3946     		mov	r1, r7
ARM GAS  /tmp/ccmWEtpy.s 			page 18


 979 07cc 2846     		mov	r0, r5
 980 07ce FFF7FEFF 		bl	HAL_GPIO_WritePin
 981 07d2 0DF17009 		add	r9, sp, #112
 982 07d6 5146     		mov	r1, r10
 983 07d8 2246     		mov	r2, r4
 984 07da 3046     		mov	r0, r6
 985 07dc 0A23     		movs	r3, #10
 986 07de FFF7FEFF 		bl	HAL_SPI_Transmit
 987 07e2 E123     		movs	r3, #225
 988 07e4 09F83F3D 		strb	r3, [r9, #-63]!
 989 07e8 5A46     		mov	r2, fp
 990 07ea 3946     		mov	r1, r7
 991 07ec 2846     		mov	r0, r5
 992 07ee FFF7FEFF 		bl	HAL_GPIO_WritePin
 993 07f2 4946     		mov	r1, r9
 994 07f4 0DF17009 		add	r9, sp, #112
 995 07f8 2246     		mov	r2, r4
 996 07fa 0A23     		movs	r3, #10
 997 07fc 3046     		mov	r0, r6
 998 07fe FFF7FEFF 		bl	HAL_SPI_Transmit
 999 0802 09F840BD 		strb	fp, [r9, #-64]!
 1000 0806 2246     		mov	r2, r4
 1001 0808 3946     		mov	r1, r7
 1002 080a 2846     		mov	r0, r5
 1003 080c FFF7FEFF 		bl	HAL_GPIO_WritePin
 1004 0810 4946     		mov	r1, r9
 1005 0812 0DF17009 		add	r9, sp, #112
 1006 0816 2246     		mov	r2, r4
 1007 0818 0A23     		movs	r3, #10
 1008 081a 3046     		mov	r0, r6
 1009 081c FFF7FEFF 		bl	HAL_SPI_Transmit
 1010 0820 09F8418D 		strb	r8, [r9, #-65]!
 1011 0824 2246     		mov	r2, r4
 1012 0826 3946     		mov	r1, r7
 1013 0828 2846     		mov	r0, r5
 1014 082a FFF7FEFF 		bl	HAL_GPIO_WritePin
 1015 082e 0DF17008 		add	r8, sp, #112
 1016 0832 4946     		mov	r1, r9
 1017 0834 2246     		mov	r2, r4
 1018 0836 3046     		mov	r0, r6
 1019 0838 0A23     		movs	r3, #10
 1020 083a FFF7FEFF 		bl	HAL_SPI_Transmit
 1021 083e 1423     		movs	r3, #20
 1022 0840 08F8423D 		strb	r3, [r8, #-66]!
 1023 0844 2246     		mov	r2, r4
 1024 0846 3946     		mov	r1, r7
 1025 0848 2846     		mov	r0, r5
 1026 084a FFF7FEFF 		bl	HAL_GPIO_WritePin
 1027 084e 4146     		mov	r1, r8
 1028 0850 2246     		mov	r2, r4
 1029 0852 0DF17008 		add	r8, sp, #112
 1030 0856 3046     		mov	r0, r6
 1031 0858 0A23     		movs	r3, #10
 1032 085a FFF7FEFF 		bl	HAL_SPI_Transmit
 1033 085e 4FF00303 		mov	r3, #3
 1034 0862 08F8433D 		strb	r3, [r8, #-67]!
 1035 0866 3946     		mov	r1, r7
ARM GAS  /tmp/ccmWEtpy.s 			page 19


 1036 0868 2246     		mov	r2, r4
 1037 086a 2846     		mov	r0, r5
 1038 086c FFF7FEFF 		bl	HAL_GPIO_WritePin
 1039 0870 0DF17009 		add	r9, sp, #112
 1040 0874 4146     		mov	r1, r8
 1041 0876 2246     		mov	r2, r4
 1042 0878 3046     		mov	r0, r6
 1043 087a 0A23     		movs	r3, #10
 1044 087c FFF7FEFF 		bl	HAL_SPI_Transmit
 1045 0880 4FF01103 		mov	r3, #17
 1046 0884 09F8443D 		strb	r3, [r9, #-68]!
 1047 0888 3946     		mov	r1, r7
 1048 088a 2246     		mov	r2, r4
 1049 088c 2846     		mov	r0, r5
 1050 088e FFF7FEFF 		bl	HAL_GPIO_WritePin
 1051 0892 0DF17008 		add	r8, sp, #112
 1052 0896 4946     		mov	r1, r9
 1053 0898 2246     		mov	r2, r4
 1054 089a 3046     		mov	r0, r6
 1055 089c 0A23     		movs	r3, #10
 1056 089e FFF7FEFF 		bl	HAL_SPI_Transmit
 1057 08a2 4FF00703 		mov	r3, #7
 1058 08a6 08F8453D 		strb	r3, [r8, #-69]!
 1059 08aa 3946     		mov	r1, r7
 1060 08ac 2246     		mov	r2, r4
 1061 08ae 2846     		mov	r0, r5
 1062 08b0 FFF7FEFF 		bl	HAL_GPIO_WritePin
 1063 08b4 4146     		mov	r1, r8
 1064 08b6 2246     		mov	r2, r4
 1065 08b8 0DF17008 		add	r8, sp, #112
 1066 08bc 3046     		mov	r0, r6
 1067 08be 0A23     		movs	r3, #10
 1068 08c0 FFF7FEFF 		bl	HAL_SPI_Transmit
 1069 08c4 4FF03103 		mov	r3, #49
 1070 08c8 08F8463D 		strb	r3, [r8, #-70]!
 1071 08cc 3946     		mov	r1, r7
 1072 08ce 2246     		mov	r2, r4
 1073 08d0 2846     		mov	r0, r5
 1074 08d2 FFF7FEFF 		bl	HAL_GPIO_WritePin
 1075 08d6 0DF17009 		add	r9, sp, #112
 1076 08da 4146     		mov	r1, r8
 1077 08dc 2246     		mov	r2, r4
 1078 08de 3046     		mov	r0, r6
 1079 08e0 0A23     		movs	r3, #10
 1080 08e2 FFF7FEFF 		bl	HAL_SPI_Transmit
 1081 08e6 6FF03E03 		mvn	r3, #62
 1082 08ea 09F8473D 		strb	r3, [r9, #-71]!
 1083 08ee 2246     		mov	r2, r4
 1084 08f0 3946     		mov	r1, r7
 1085 08f2 2846     		mov	r0, r5
 1086 08f4 FFF7FEFF 		bl	HAL_GPIO_WritePin
 1087 08f8 0DF17008 		add	r8, sp, #112
 1088 08fc 4946     		mov	r1, r9
 1089 08fe 2246     		mov	r2, r4
 1090 0900 3046     		mov	r0, r6
 1091 0902 0A23     		movs	r3, #10
 1092 0904 FFF7FEFF 		bl	HAL_SPI_Transmit
ARM GAS  /tmp/ccmWEtpy.s 			page 20


 1093 0908 4823     		movs	r3, #72
 1094 090a 08F8483D 		strb	r3, [r8, #-72]!
 1095 090e 2246     		mov	r2, r4
 1096 0910 3946     		mov	r1, r7
 1097 0912 2846     		mov	r0, r5
 1098 0914 FFF7FEFF 		bl	HAL_GPIO_WritePin
 1099 0918 4146     		mov	r1, r8
 1100 091a 2246     		mov	r2, r4
 1101 091c 0DF17008 		add	r8, sp, #112
 1102 0920 3046     		mov	r0, r6
 1103 0922 0A23     		movs	r3, #10
 1104 0924 FFF7FEFF 		bl	HAL_SPI_Transmit
 1105 0928 4FF00803 		mov	r3, #8
 1106 092c 08F8493D 		strb	r3, [r8, #-73]!
 1107 0930 2246     		mov	r2, r4
 1108 0932 3946     		mov	r1, r7
 1109 0934 2846     		mov	r0, r5
 1110 0936 FFF7FEFF 		bl	HAL_GPIO_WritePin
 1111 093a 4146     		mov	r1, r8
 1112 093c 2246     		mov	r2, r4
 1113 093e 0DF17008 		add	r8, sp, #112
 1114 0942 3046     		mov	r0, r6
 1115 0944 0A23     		movs	r3, #10
 1116 0946 FFF7FEFF 		bl	HAL_SPI_Transmit
 1117 094a 4FF00F03 		mov	r3, #15
 1118 094e 08F84A3D 		strb	r3, [r8, #-74]!
 1119 0952 2246     		mov	r2, r4
 1120 0954 3946     		mov	r1, r7
 1121 0956 2846     		mov	r0, r5
 1122 0958 FFF7FEFF 		bl	HAL_GPIO_WritePin
 1123 095c 4146     		mov	r1, r8
 1124 095e 2246     		mov	r2, r4
 1125 0960 0DF17008 		add	r8, sp, #112
 1126 0964 3046     		mov	r0, r6
 1127 0966 0A23     		movs	r3, #10
 1128 0968 FFF7FEFF 		bl	HAL_SPI_Transmit
 1129 096c 4FF00C03 		mov	r3, #12
 1130 0970 08F84B3D 		strb	r3, [r8, #-75]!
 1131 0974 2246     		mov	r2, r4
 1132 0976 3946     		mov	r1, r7
 1133 0978 2846     		mov	r0, r5
 1134 097a FFF7FEFF 		bl	HAL_GPIO_WritePin
 1135 097e 4146     		mov	r1, r8
 1136 0980 2246     		mov	r2, r4
 1137 0982 0DF17008 		add	r8, sp, #112
 1138 0986 3046     		mov	r0, r6
 1139 0988 0A23     		movs	r3, #10
 1140 098a FFF7FEFF 		bl	HAL_SPI_Transmit
 1141 098e 4FF03103 		mov	r3, #49
 1142 0992 08F84C3D 		strb	r3, [r8, #-76]!
 1143 0996 2246     		mov	r2, r4
 1144 0998 3946     		mov	r1, r7
 1145 099a 2846     		mov	r0, r5
 1146 099c FFF7FEFF 		bl	HAL_GPIO_WritePin
 1147 09a0 4146     		mov	r1, r8
 1148 09a2 2246     		mov	r2, r4
 1149 09a4 0DF17008 		add	r8, sp, #112
ARM GAS  /tmp/ccmWEtpy.s 			page 21


 1150 09a8 3046     		mov	r0, r6
 1151 09aa 0A23     		movs	r3, #10
 1152 09ac FFF7FEFF 		bl	HAL_SPI_Transmit
 1153 09b0 4FF03602 		mov	r2, #54
 1154 09b4 08F84D2D 		strb	r2, [r8, #-77]!
 1155 09b8 0723     		movs	r3, #7
 1156 09ba 2246     		mov	r2, r4
 1157 09bc 3946     		mov	r1, r7
 1158 09be 2846     		mov	r0, r5
 1159 09c0 0193     		str	r3, [sp, #4]
 1160 09c2 FFF7FEFF 		bl	HAL_GPIO_WritePin
 1161 09c6 4146     		mov	r1, r8
 1162 09c8 2246     		mov	r2, r4
 1163 09ca 0DF17008 		add	r8, sp, #112
 1164 09ce 0A23     		movs	r3, #10
 1165 09d0 3046     		mov	r0, r6
 1166 09d2 FFF7FEFF 		bl	HAL_SPI_Transmit
 1167 09d6 4FF00F01 		mov	r1, #15
 1168 09da 08F84E1D 		strb	r1, [r8, #-78]!
 1169 09de 2246     		mov	r2, r4
 1170 09e0 3946     		mov	r1, r7
 1171 09e2 2846     		mov	r0, r5
 1172 09e4 FFF7FEFF 		bl	HAL_GPIO_WritePin
 1173 09e8 0DF17009 		add	r9, sp, #112
 1174 09ec 4146     		mov	r1, r8
 1175 09ee 2246     		mov	r2, r4
 1176 09f0 3046     		mov	r0, r6
 1177 09f2 0A23     		movs	r3, #10
 1178 09f4 FFF7FEFF 		bl	HAL_SPI_Transmit
 1179 09f8 2A23     		movs	r3, #42
 1180 09fa 09F84F3D 		strb	r3, [r9, #-79]!
 1181 09fe 0DF17008 		add	r8, sp, #112
 1182 0a02 5A46     		mov	r2, fp
 1183 0a04 3946     		mov	r1, r7
 1184 0a06 2846     		mov	r0, r5
 1185 0a08 FFF7FEFF 		bl	HAL_GPIO_WritePin
 1186 0a0c 4946     		mov	r1, r9
 1187 0a0e 2246     		mov	r2, r4
 1188 0a10 0A23     		movs	r3, #10
 1189 0a12 3046     		mov	r0, r6
 1190 0a14 FFF7FEFF 		bl	HAL_SPI_Transmit
 1191 0a18 08F850BD 		strb	fp, [r8, #-80]!
 1192 0a1c 2246     		mov	r2, r4
 1193 0a1e 3946     		mov	r1, r7
 1194 0a20 2846     		mov	r0, r5
 1195 0a22 FFF7FEFF 		bl	HAL_GPIO_WritePin
 1196 0a26 4146     		mov	r1, r8
 1197 0a28 0DF17008 		add	r8, sp, #112
 1198 0a2c 2246     		mov	r2, r4
 1199 0a2e 0A23     		movs	r3, #10
 1200 0a30 3046     		mov	r0, r6
 1201 0a32 FFF7FEFF 		bl	HAL_SPI_Transmit
 1202 0a36 08F851BD 		strb	fp, [r8, #-81]!
 1203 0a3a 0DF17009 		add	r9, sp, #112
 1204 0a3e 2246     		mov	r2, r4
 1205 0a40 3946     		mov	r1, r7
 1206 0a42 2846     		mov	r0, r5
ARM GAS  /tmp/ccmWEtpy.s 			page 22


 1207 0a44 FFF7FEFF 		bl	HAL_GPIO_WritePin
 1208 0a48 4146     		mov	r1, r8
 1209 0a4a 2246     		mov	r2, r4
 1210 0a4c 0A23     		movs	r3, #10
 1211 0a4e 3046     		mov	r0, r6
 1212 0a50 FFF7FEFF 		bl	HAL_SPI_Transmit
 1213 0a54 09F8524D 		strb	r4, [r9, #-82]!
 1214 0a58 2246     		mov	r2, r4
 1215 0a5a 3946     		mov	r1, r7
 1216 0a5c 2846     		mov	r0, r5
 1217 0a5e FFF7FEFF 		bl	HAL_GPIO_WritePin
 1218 0a62 0DF17008 		add	r8, sp, #112
 1219 0a66 4946     		mov	r1, r9
 1220 0a68 2246     		mov	r2, r4
 1221 0a6a 3046     		mov	r0, r6
 1222 0a6c 0A23     		movs	r3, #10
 1223 0a6e FFF7FEFF 		bl	HAL_SPI_Transmit
 1224 0a72 3F23     		movs	r3, #63
 1225 0a74 08F8533D 		strb	r3, [r8, #-83]!
 1226 0a78 3946     		mov	r1, r7
 1227 0a7a 2246     		mov	r2, r4
 1228 0a7c 2846     		mov	r0, r5
 1229 0a7e FFF7FEFF 		bl	HAL_GPIO_WritePin
 1230 0a82 1CAF     		add	r7, sp, #112
 1231 0a84 4146     		mov	r1, r8
 1232 0a86 2246     		mov	r2, r4
 1233 0a88 3046     		mov	r0, r6
 1234 0a8a 0A23     		movs	r3, #10
 1235 0a8c FFF7FEFF 		bl	HAL_SPI_Transmit
 1236 0a90 2B23     		movs	r3, #43
 1237 0a92 07F8543D 		strb	r3, [r7, #-84]!
 1238 0a96 5A46     		mov	r2, fp
 1239 0a98 2846     		mov	r0, r5
 1240 0a9a 1021     		movs	r1, #16
 1241 0a9c FFF7FEFF 		bl	HAL_GPIO_WritePin
 1242 0aa0 3946     		mov	r1, r7
 1243 0aa2 1CAF     		add	r7, sp, #112
 1244 0aa4 2246     		mov	r2, r4
 1245 0aa6 0A23     		movs	r3, #10
 1246 0aa8 3046     		mov	r0, r6
 1247 0aaa FFF7FEFF 		bl	HAL_SPI_Transmit
 1248 0aae 07F855BD 		strb	fp, [r7, #-85]!
 1249 0ab2 2246     		mov	r2, r4
 1250 0ab4 2846     		mov	r0, r5
 1251 0ab6 1021     		movs	r1, #16
 1252 0ab8 FFF7FEFF 		bl	HAL_GPIO_WritePin
 1253 0abc 3946     		mov	r1, r7
 1254 0abe 1CAF     		add	r7, sp, #112
 1255 0ac0 2246     		mov	r2, r4
 1256 0ac2 0A23     		movs	r3, #10
 1257 0ac4 3046     		mov	r0, r6
 1258 0ac6 FFF7FEFF 		bl	HAL_SPI_Transmit
 1259 0aca 07F856BD 		strb	fp, [r7, #-86]!
 1260 0ace 0DF17009 		add	r9, sp, #112
 1261 0ad2 2246     		mov	r2, r4
 1262 0ad4 2846     		mov	r0, r5
 1263 0ad6 1021     		movs	r1, #16
ARM GAS  /tmp/ccmWEtpy.s 			page 23


 1264 0ad8 FFF7FEFF 		bl	HAL_GPIO_WritePin
 1265 0adc 3946     		mov	r1, r7
 1266 0ade 2246     		mov	r2, r4
 1267 0ae0 0A23     		movs	r3, #10
 1268 0ae2 3046     		mov	r0, r6
 1269 0ae4 FFF7FEFF 		bl	HAL_SPI_Transmit
 1270 0ae8 09F857BD 		strb	fp, [r9, #-87]!
 1271 0aec 2246     		mov	r2, r4
 1272 0aee 2846     		mov	r0, r5
 1273 0af0 1021     		movs	r1, #16
 1274 0af2 FFF7FEFF 		bl	HAL_GPIO_WritePin
 1275 0af6 1CAF     		add	r7, sp, #112
 1276 0af8 4946     		mov	r1, r9
 1277 0afa 2246     		mov	r2, r4
 1278 0afc 3046     		mov	r0, r6
 1279 0afe 0A23     		movs	r3, #10
 1280 0b00 FFF7FEFF 		bl	HAL_SPI_Transmit
 1281 0b04 EF23     		movs	r3, #239
 1282 0b06 07F8583D 		strb	r3, [r7, #-88]!
 1283 0b0a 2246     		mov	r2, r4
 1284 0b0c 2846     		mov	r0, r5
 1285 0b0e 1021     		movs	r1, #16
 1286 0b10 FFF7FEFF 		bl	HAL_GPIO_WritePin
 1287 0b14 0DF17009 		add	r9, sp, #112
 1288 0b18 3946     		mov	r1, r7
 1289 0b1a 2246     		mov	r2, r4
 1290 0b1c 3046     		mov	r0, r6
 1291 0b1e 0A23     		movs	r3, #10
 1292 0b20 FFF7FEFF 		bl	HAL_SPI_Transmit
 1293 0b24 3423     		movs	r3, #52
 1294 0b26 09F8593D 		strb	r3, [r9, #-89]!
 1295 0b2a 5A46     		mov	r2, fp
 1296 0b2c 2846     		mov	r0, r5
 1297 0b2e 1021     		movs	r1, #16
 1298 0b30 FFF7FEFF 		bl	HAL_GPIO_WritePin
 1299 0b34 1CAF     		add	r7, sp, #112
 1300 0b36 4946     		mov	r1, r9
 1301 0b38 2246     		mov	r2, r4
 1302 0b3a 3046     		mov	r0, r6
 1303 0b3c 0A23     		movs	r3, #10
 1304 0b3e FFF7FEFF 		bl	HAL_SPI_Transmit
 1305 0b42 3523     		movs	r3, #53
 1306 0b44 07F85A3D 		strb	r3, [r7, #-90]!
 1307 0b48 0DF17009 		add	r9, sp, #112
 1308 0b4c 5A46     		mov	r2, fp
 1309 0b4e 2846     		mov	r0, r5
 1310 0b50 1021     		movs	r1, #16
 1311 0b52 FFF7FEFF 		bl	HAL_GPIO_WritePin
 1312 0b56 3946     		mov	r1, r7
 1313 0b58 2246     		mov	r2, r4
 1314 0b5a 0A23     		movs	r3, #10
 1315 0b5c 3046     		mov	r0, r6
 1316 0b5e FFF7FEFF 		bl	HAL_SPI_Transmit
 1317 0b62 09F85B4D 		strb	r4, [r9, #-91]!
 1318 0b66 2246     		mov	r2, r4
 1319 0b68 2846     		mov	r0, r5
 1320 0b6a 1021     		movs	r1, #16
ARM GAS  /tmp/ccmWEtpy.s 			page 24


 1321 0b6c FFF7FEFF 		bl	HAL_GPIO_WritePin
 1322 0b70 1CAF     		add	r7, sp, #112
 1323 0b72 4946     		mov	r1, r9
 1324 0b74 2246     		mov	r2, r4
 1325 0b76 3046     		mov	r0, r6
 1326 0b78 0A23     		movs	r3, #10
 1327 0b7a FFF7FEFF 		bl	HAL_SPI_Transmit
 1328 0b7e B723     		movs	r3, #183
 1329 0b80 07F85C3D 		strb	r3, [r7, #-92]!
 1330 0b84 5A46     		mov	r2, fp
 1331 0b86 2846     		mov	r0, r5
 1332 0b88 1021     		movs	r1, #16
 1333 0b8a FFF7FEFF 		bl	HAL_GPIO_WritePin
 1334 0b8e 3946     		mov	r1, r7
 1335 0b90 2246     		mov	r2, r4
 1336 0b92 1CAF     		add	r7, sp, #112
 1337 0b94 3046     		mov	r0, r6
 1338 0b96 0A23     		movs	r3, #10
 1339 0b98 FFF7FEFF 		bl	HAL_SPI_Transmit
 1340 0b9c 9DF80430 		ldrb	r3, [sp, #4]	@ zero_extendqisi2
 1341 0ba0 07F85D3D 		strb	r3, [r7, #-93]!
 1342 0ba4 2246     		mov	r2, r4
 1343 0ba6 2846     		mov	r0, r5
 1344 0ba8 1021     		movs	r1, #16
 1345 0baa D846     		mov	r8, fp
 1346 0bac FFF7FEFF 		bl	HAL_GPIO_WritePin
 1347 0bb0 0DF1700B 		add	fp, sp, #112
 1348 0bb4 3946     		mov	r1, r7
 1349 0bb6 2246     		mov	r2, r4
 1350 0bb8 3046     		mov	r0, r6
 1351 0bba 0A23     		movs	r3, #10
 1352 0bbc FFF7FEFF 		bl	HAL_SPI_Transmit
 1353 0bc0 B623     		movs	r3, #182
 1354 0bc2 0BF85E3D 		strb	r3, [fp, #-94]!
 1355 0bc6 0A27     		movs	r7, #10
 1356 0bc8 0DF17009 		add	r9, sp, #112
 1357 0bcc 4246     		mov	r2, r8
 1358 0bce 2846     		mov	r0, r5
 1359 0bd0 1021     		movs	r1, #16
 1360 0bd2 FFF7FEFF 		bl	HAL_GPIO_WritePin
 1361 0bd6 3B46     		mov	r3, r7
 1362 0bd8 5946     		mov	r1, fp
 1363 0bda 2246     		mov	r2, r4
 1364 0bdc 3046     		mov	r0, r6
 1365 0bde FFF7FEFF 		bl	HAL_SPI_Transmit
 1366 0be2 09F85F7D 		strb	r7, [r9, #-95]!
 1367 0be6 2246     		mov	r2, r4
 1368 0be8 2846     		mov	r0, r5
 1369 0bea 1021     		movs	r1, #16
 1370 0bec FFF7FEFF 		bl	HAL_GPIO_WritePin
 1371 0bf0 3B46     		mov	r3, r7
 1372 0bf2 2246     		mov	r2, r4
 1373 0bf4 4946     		mov	r1, r9
 1374 0bf6 3046     		mov	r0, r6
 1375 0bf8 0DF17009 		add	r9, sp, #112
 1376 0bfc FFF7FEFF 		bl	HAL_SPI_Transmit
 1377 0c00 8223     		movs	r3, #130
ARM GAS  /tmp/ccmWEtpy.s 			page 25


 1378 0c02 09F8603D 		strb	r3, [r9, #-96]!
 1379 0c06 2246     		mov	r2, r4
 1380 0c08 2846     		mov	r0, r5
 1381 0c0a 1021     		movs	r1, #16
 1382 0c0c FFF7FEFF 		bl	HAL_GPIO_WritePin
 1383 0c10 3B46     		mov	r3, r7
 1384 0c12 2246     		mov	r2, r4
 1385 0c14 4946     		mov	r1, r9
 1386 0c16 3046     		mov	r0, r6
 1387 0c18 0DF17009 		add	r9, sp, #112
 1388 0c1c FFF7FEFF 		bl	HAL_SPI_Transmit
 1389 0c20 2723     		movs	r3, #39
 1390 0c22 09F8613D 		strb	r3, [r9, #-97]!
 1391 0c26 2246     		mov	r2, r4
 1392 0c28 2846     		mov	r0, r5
 1393 0c2a 1021     		movs	r1, #16
 1394 0c2c FFF7FEFF 		bl	HAL_GPIO_WritePin
 1395 0c30 4946     		mov	r1, r9
 1396 0c32 0DF17009 		add	r9, sp, #112
 1397 0c36 3B46     		mov	r3, r7
 1398 0c38 2246     		mov	r2, r4
 1399 0c3a 3046     		mov	r0, r6
 1400 0c3c FFF7FEFF 		bl	HAL_SPI_Transmit
 1401 0c40 09F8628D 		strb	r8, [r9, #-98]!
 1402 0c44 2246     		mov	r2, r4
 1403 0c46 2846     		mov	r0, r5
 1404 0c48 1021     		movs	r1, #16
 1405 0c4a FFF7FEFF 		bl	HAL_GPIO_WritePin
 1406 0c4e 4946     		mov	r1, r9
 1407 0c50 0DF17009 		add	r9, sp, #112
 1408 0c54 3B46     		mov	r3, r7
 1409 0c56 2246     		mov	r2, r4
 1410 0c58 4FF0110A 		mov	r10, #17
 1411 0c5c 3046     		mov	r0, r6
 1412 0c5e FFF7FEFF 		bl	HAL_SPI_Transmit
 1413 0c62 09F863AD 		strb	r10, [r9, #-99]!
 1414 0c66 4246     		mov	r2, r8
 1415 0c68 2846     		mov	r0, r5
 1416 0c6a 1021     		movs	r1, #16
 1417 0c6c FFF7FEFF 		bl	HAL_GPIO_WritePin
 1418 0c70 3B46     		mov	r3, r7
 1419 0c72 2246     		mov	r2, r4
 1420 0c74 4946     		mov	r1, r9
 1421 0c76 3046     		mov	r0, r6
 1422 0c78 FFF7FEFF 		bl	HAL_SPI_Transmit
 1423 0c7c 0DF17009 		add	r9, sp, #112
 1424 0c80 6420     		movs	r0, #100
 1425 0c82 FFF7FEFF 		bl	HAL_Delay
 1426 0c86 2923     		movs	r3, #41
 1427 0c88 09F8643D 		strb	r3, [r9, #-100]!
 1428 0c8c 2846     		mov	r0, r5
 1429 0c8e 4246     		mov	r2, r8
 1430 0c90 1021     		movs	r1, #16
 1431 0c92 FFF7FEFF 		bl	HAL_GPIO_WritePin
 1432 0c96 3B46     		mov	r3, r7
 1433 0c98 2246     		mov	r2, r4
 1434 0c9a 4946     		mov	r1, r9
ARM GAS  /tmp/ccmWEtpy.s 			page 26


 1435 0c9c 3046     		mov	r0, r6
 1436 0c9e FFF7FEFF 		bl	HAL_SPI_Transmit
 1437 0ca2 6420     		movs	r0, #100
 1438 0ca4 FFF7FEFF 		bl	HAL_Delay
 1439 0ca8 4046     		mov	r0, r8
 1440 0caa 1DB0     		add	sp, sp, #116
 1441              		@ sp needed
 1442 0cac BDE8F08F 		pop	{r4, r5, r6, r7, r8, r9, r10, fp, pc}
 1444              		.section	.text._ili9340_delay,"ax",%progbits
 1445              		.align	1
 1446              		.p2align 2,,3
 1447              		.global	_ili9340_delay
 1448              		.syntax unified
 1449              		.thumb
 1450              		.thumb_func
 1451              		.fpu fpv4-sp-d16
 1453              	_ili9340_delay:
 1454              		@ args = 0, pretend = 0, frame = 0
 1455              		@ frame_needed = 0, uses_anonymous_args = 0
 1456              		@ link register save eliminated.
 1457 0000 FFF7FEBF 		b	HAL_Delay
 1459              		.section	.text._ili9340_rst,"ax",%progbits
 1460              		.align	1
 1461              		.p2align 2,,3
 1462              		.global	_ili9340_rst
 1463              		.syntax unified
 1464              		.thumb
 1465              		.thumb_func
 1466              		.fpu fpv4-sp-d16
 1468              	_ili9340_rst:
 1469              		@ args = 0, pretend = 0, frame = 0
 1470              		@ frame_needed = 0, uses_anonymous_args = 0
 1471              		@ link register save eliminated.
 1472 0000 021C     		adds	r2, r0, #0
 1473 0002 18BF     		it	ne
 1474 0004 0122     		movne	r2, #1
 1475 0006 2021     		movs	r1, #32
 1476 0008 0148     		ldr	r0, .L20
 1477 000a FFF7FEBF 		b	HAL_GPIO_WritePin
 1478              	.L21:
 1479 000e 00BF     		.align	2
 1480              	.L20:
 1481 0010 00080240 		.word	1073874944
 1483              		.section	.text._ili9340_cs,"ax",%progbits
 1484              		.align	1
 1485              		.p2align 2,,3
 1486              		.global	_ili9340_cs
 1487              		.syntax unified
 1488              		.thumb
 1489              		.thumb_func
 1490              		.fpu fpv4-sp-d16
 1492              	_ili9340_cs:
 1493              		@ args = 0, pretend = 0, frame = 0
 1494              		@ frame_needed = 0, uses_anonymous_args = 0
 1495              		@ link register save eliminated.
 1496 0000 021C     		adds	r2, r0, #0
 1497 0002 18BF     		it	ne
ARM GAS  /tmp/ccmWEtpy.s 			page 27


 1498 0004 0122     		movne	r2, #1
 1499 0006 0121     		movs	r1, #1
 1500 0008 0148     		ldr	r0, .L23
 1501 000a FFF7FEBF 		b	HAL_GPIO_WritePin
 1502              	.L24:
 1503 000e 00BF     		.align	2
 1504              	.L23:
 1505 0010 00040240 		.word	1073873920
 1507              		.section	.text._ili9340_dc,"ax",%progbits
 1508              		.align	1
 1509              		.p2align 2,,3
 1510              		.global	_ili9340_dc
 1511              		.syntax unified
 1512              		.thumb
 1513              		.thumb_func
 1514              		.fpu fpv4-sp-d16
 1516              	_ili9340_dc:
 1517              		@ args = 0, pretend = 0, frame = 0
 1518              		@ frame_needed = 0, uses_anonymous_args = 0
 1519              		@ link register save eliminated.
 1520 0000 021C     		adds	r2, r0, #0
 1521 0002 18BF     		it	ne
 1522 0004 0122     		movne	r2, #1
 1523 0006 1021     		movs	r1, #16
 1524 0008 0148     		ldr	r0, .L26
 1525 000a FFF7FEBF 		b	HAL_GPIO_WritePin
 1526              	.L27:
 1527 000e 00BF     		.align	2
 1528              	.L26:
 1529 0010 00080240 		.word	1073874944
 1531              		.section	.text.ili9340_driver,"ax",%progbits
 1532              		.align	1
 1533              		.p2align 2,,3
 1534              		.global	ili9340_driver
 1535              		.syntax unified
 1536              		.thumb
 1537              		.thumb_func
 1538              		.fpu fpv4-sp-d16
 1540              	ili9340_driver:
 1541              		@ args = 0, pretend = 0, frame = 0
 1542              		@ frame_needed = 0, uses_anonymous_args = 0
 1543              		@ link register save eliminated.
 1544 0000 F0B4     		push	{r4, r5, r6, r7}
 1545 0002 1021     		movs	r1, #16
 1546 0004 F025     		movs	r5, #240
 1547 0006 0C24     		movs	r4, #12
 1548 0008 0022     		movs	r2, #0
 1549 000a 4FF4F053 		mov	r3, #7680
 1550 000e 0B4F     		ldr	r7, .L30
 1551 0010 0B4E     		ldr	r6, .L30+4
 1552 0012 8580     		strh	r5, [r0, #4]	@ movhi
 1553 0014 0481     		strh	r4, [r0, #8]	@ movhi
 1554 0016 0B4D     		ldr	r5, .L30+8
 1555 0018 0B4C     		ldr	r4, .L30+12
 1556 001a 8181     		strh	r1, [r0, #12]	@ movhi
 1557 001c 0261     		str	r2, [r0, #16]
 1558 001e 0B49     		ldr	r1, .L30+16
ARM GAS  /tmp/ccmWEtpy.s 			page 28


 1559 0020 0B4A     		ldr	r2, .L30+20
 1560 0022 4361     		str	r3, [r0, #20]
 1561 0024 4FF4A073 		mov	r3, #320
 1562 0028 8761     		str	r7, [r0, #24]
 1563 002a C661     		str	r6, [r0, #28]
 1564 002c 0562     		str	r5, [r0, #32]
 1565 002e 4462     		str	r4, [r0, #36]
 1566 0030 8162     		str	r1, [r0, #40]
 1567 0032 C262     		str	r2, [r0, #44]
 1568 0034 C380     		strh	r3, [r0, #6]	@ movhi
 1569 0036 4381     		strh	r3, [r0, #10]	@ movhi
 1570 0038 F0BC     		pop	{r4, r5, r6, r7}
 1571 003a 7047     		bx	lr
 1572              	.L31:
 1573              		.align	2
 1574              	.L30:
 1575 003c 00004101 		.word	21037056
 1576 0040 00000000 		.word	ili9340_init
 1577 0044 00000000 		.word	ili9340_start
 1578 0048 00000000 		.word	ili9340_sleep
 1579 004c 00000000 		.word	ili9340_awake
 1580 0050 00000000 		.word	ili9340_set_backlight
 1582              		.section	.text._ili9340_setAddrWindow,"ax",%progbits
 1583              		.align	1
 1584              		.p2align 2,,3
 1585              		.global	_ili9340_setAddrWindow
 1586              		.syntax unified
 1587              		.thumb
 1588              		.thumb_func
 1589              		.fpu fpv4-sp-d16
 1591              	_ili9340_setAddrWindow:
 1592              		@ args = 0, pretend = 0, frame = 8
 1593              		@ frame_needed = 0, uses_anonymous_args = 0
 1594 0000 2DE9F047 		push	{r4, r5, r6, r7, r8, r9, r10, lr}
 1595 0004 82B0     		sub	sp, sp, #8
 1596 0006 8246     		mov	r10, r0
 1597 0008 8846     		mov	r8, r1
 1598 000a 9146     		mov	r9, r2
 1599 000c 02AE     		add	r6, sp, #8
 1600 000e 0121     		movs	r1, #1
 1601 0010 0022     		movs	r2, #0
 1602 0012 3148     		ldr	r0, .L34
 1603 0014 314D     		ldr	r5, .L34+4
 1604 0016 324C     		ldr	r4, .L34+8
 1605 0018 1F46     		mov	r7, r3
 1606 001a FFF7FEFF 		bl	HAL_GPIO_WritePin
 1607 001e 2A23     		movs	r3, #42
 1608 0020 06F8053D 		strb	r3, [r6, #-5]!
 1609 0024 2846     		mov	r0, r5
 1610 0026 0022     		movs	r2, #0
 1611 0028 1021     		movs	r1, #16
 1612 002a FFF7FEFF 		bl	HAL_GPIO_WritePin
 1613 002e 3146     		mov	r1, r6
 1614 0030 0A23     		movs	r3, #10
 1615 0032 2046     		mov	r0, r4
 1616 0034 0122     		movs	r2, #1
 1617 0036 FFF7FEFF 		bl	HAL_SPI_Transmit
ARM GAS  /tmp/ccmWEtpy.s 			page 29


 1618 003a 2846     		mov	r0, r5
 1619 003c 0122     		movs	r2, #1
 1620 003e 1021     		movs	r1, #16
 1621 0040 FFF7FEFF 		bl	HAL_GPIO_WritePin
 1622 0044 4FEA1A23 		lsr	r3, r10, #8
 1623 0048 4FEA192E 		lsr	lr, r9, #8
 1624 004c 02AE     		add	r6, sp, #8
 1625 004e 01A9     		add	r1, sp, #4
 1626 0050 8DF80430 		strb	r3, [sp, #4]
 1627 0054 2046     		mov	r0, r4
 1628 0056 0A23     		movs	r3, #10
 1629 0058 0422     		movs	r2, #4
 1630 005a 8DF806E0 		strb	lr, [sp, #6]
 1631 005e 8DF805A0 		strb	r10, [sp, #5]
 1632 0062 8DF80790 		strb	r9, [sp, #7]
 1633 0066 FFF7FEFF 		bl	HAL_SPI_Transmit
 1634 006a 2B23     		movs	r3, #43
 1635 006c 06F8063D 		strb	r3, [r6, #-6]!
 1636 0070 2846     		mov	r0, r5
 1637 0072 0022     		movs	r2, #0
 1638 0074 1021     		movs	r1, #16
 1639 0076 FFF7FEFF 		bl	HAL_GPIO_WritePin
 1640 007a 3146     		mov	r1, r6
 1641 007c 0A23     		movs	r3, #10
 1642 007e 2046     		mov	r0, r4
 1643 0080 0122     		movs	r2, #1
 1644 0082 FFF7FEFF 		bl	HAL_SPI_Transmit
 1645 0086 2846     		mov	r0, r5
 1646 0088 0122     		movs	r2, #1
 1647 008a 1021     		movs	r1, #16
 1648 008c FFF7FEFF 		bl	HAL_GPIO_WritePin
 1649 0090 02AE     		add	r6, sp, #8
 1650 0092 4FEA182C 		lsr	ip, r8, #8
 1651 0096 4FEA172E 		lsr	lr, r7, #8
 1652 009a 01A9     		add	r1, sp, #4
 1653 009c 2046     		mov	r0, r4
 1654 009e 0A23     		movs	r3, #10
 1655 00a0 0422     		movs	r2, #4
 1656 00a2 8DF804C0 		strb	ip, [sp, #4]
 1657 00a6 8DF806E0 		strb	lr, [sp, #6]
 1658 00aa 8DF80580 		strb	r8, [sp, #5]
 1659 00ae 8DF80770 		strb	r7, [sp, #7]
 1660 00b2 FFF7FEFF 		bl	HAL_SPI_Transmit
 1661 00b6 2C23     		movs	r3, #44
 1662 00b8 06F8073D 		strb	r3, [r6, #-7]!
 1663 00bc 2846     		mov	r0, r5
 1664 00be 0022     		movs	r2, #0
 1665 00c0 1021     		movs	r1, #16
 1666 00c2 FFF7FEFF 		bl	HAL_GPIO_WritePin
 1667 00c6 3146     		mov	r1, r6
 1668 00c8 2046     		mov	r0, r4
 1669 00ca 0A23     		movs	r3, #10
 1670 00cc 0122     		movs	r2, #1
 1671 00ce FFF7FEFF 		bl	HAL_SPI_Transmit
 1672 00d2 02B0     		add	sp, sp, #8
 1673              		@ sp needed
 1674 00d4 BDE8F087 		pop	{r4, r5, r6, r7, r8, r9, r10, pc}
ARM GAS  /tmp/ccmWEtpy.s 			page 30


 1675              	.L35:
 1676              		.align	2
 1677              	.L34:
 1678 00d8 00040240 		.word	1073873920
 1679 00dc 00080240 		.word	1073874944
 1680 00e0 00000000 		.word	hspi1
 1682              		.section	.text.ili9340_tx,"ax",%progbits
 1683              		.align	1
 1684              		.p2align 2,,3
 1685              		.global	ili9340_tx
 1686              		.syntax unified
 1687              		.thumb
 1688              		.thumb_func
 1689              		.fpu fpv4-sp-d16
 1691              	ili9340_tx:
 1692              		@ args = 0, pretend = 0, frame = 8
 1693              		@ frame_needed = 0, uses_anonymous_args = 0
 1694 0000 2DE9F043 		push	{r4, r5, r6, r7, r8, r9, lr}
 1695 0004 0446     		mov	r4, r0
 1696 0006 0068     		ldr	r0, [r0]
 1697 0008 8768     		ldr	r7, [r0, #8]
 1698 000a 0023     		movs	r3, #0
 1699 000c 83B0     		sub	sp, sp, #12
 1700 000e 6383     		strh	r3, [r4, #26]	@ movhi
 1701 0010 002F     		cmp	r7, #0
 1702 0012 7FD0     		beq	.L38
 1703 0014 B847     		blx	r7
 1704 0016 638B     		ldrh	r3, [r4, #26]
 1705 0018 4FEA1329 		lsr	r9, r3, #8
 1706 001c DFB2     		uxtb	r7, r3
 1707              	.L37:
 1708 001e 2689     		ldrh	r6, [r4, #8]
 1709 0020 3E48     		ldr	r0, .L40
 1710 0022 B4F80680 		ldrh	r8, [r4, #6]
 1711 0026 013E     		subs	r6, r6, #1
 1712 0028 02AD     		add	r5, sp, #8
 1713 002a 3344     		add	r3, r3, r6
 1714 002c 0022     		movs	r2, #0
 1715 002e 0121     		movs	r1, #1
 1716 0030 9EB2     		uxth	r6, r3
 1717 0032 FFF7FEFF 		bl	HAL_GPIO_WritePin
 1718 0036 2A23     		movs	r3, #42
 1719 0038 05F8053D 		strb	r3, [r5, #-5]!
 1720 003c 0022     		movs	r2, #0
 1721 003e 1021     		movs	r1, #16
 1722 0040 3748     		ldr	r0, .L40+4
 1723 0042 FFF7FEFF 		bl	HAL_GPIO_WritePin
 1724 0046 2946     		mov	r1, r5
 1725 0048 0A23     		movs	r3, #10
 1726 004a 0122     		movs	r2, #1
 1727 004c 3548     		ldr	r0, .L40+8
 1728 004e FFF7FEFF 		bl	HAL_SPI_Transmit
 1729 0052 0122     		movs	r2, #1
 1730 0054 1021     		movs	r1, #16
 1731 0056 3248     		ldr	r0, .L40+4
 1732 0058 FFF7FEFF 		bl	HAL_GPIO_WritePin
 1733 005c 0025     		movs	r5, #0
ARM GAS  /tmp/ccmWEtpy.s 			page 31


 1734 005e 4FEA182E 		lsr	lr, r8, #8
 1735 0062 01A9     		add	r1, sp, #4
 1736 0064 8DF80780 		strb	r8, [sp, #7]
 1737 0068 0A23     		movs	r3, #10
 1738 006a 0DF10808 		add	r8, sp, #8
 1739 006e 0422     		movs	r2, #4
 1740 0070 2C48     		ldr	r0, .L40+8
 1741 0072 8DF806E0 		strb	lr, [sp, #6]
 1742 0076 8DF80450 		strb	r5, [sp, #4]
 1743 007a 8DF80550 		strb	r5, [sp, #5]
 1744 007e FFF7FEFF 		bl	HAL_SPI_Transmit
 1745 0082 2B23     		movs	r3, #43
 1746 0084 08F8063D 		strb	r3, [r8, #-6]!
 1747 0088 2A46     		mov	r2, r5
 1748 008a 1021     		movs	r1, #16
 1749 008c 2448     		ldr	r0, .L40+4
 1750 008e FFF7FEFF 		bl	HAL_GPIO_WritePin
 1751 0092 4146     		mov	r1, r8
 1752 0094 0A23     		movs	r3, #10
 1753 0096 0122     		movs	r2, #1
 1754 0098 2248     		ldr	r0, .L40+8
 1755 009a FFF7FEFF 		bl	HAL_SPI_Transmit
 1756 009e 0122     		movs	r2, #1
 1757 00a0 1021     		movs	r1, #16
 1758 00a2 1F48     		ldr	r0, .L40+4
 1759 00a4 FFF7FEFF 		bl	HAL_GPIO_WritePin
 1760 00a8 0DF10808 		add	r8, sp, #8
 1761 00ac 4FEA162E 		lsr	lr, r6, #8
 1762 00b0 01A9     		add	r1, sp, #4
 1763 00b2 0A23     		movs	r3, #10
 1764 00b4 0422     		movs	r2, #4
 1765 00b6 1B48     		ldr	r0, .L40+8
 1766 00b8 8DF806E0 		strb	lr, [sp, #6]
 1767 00bc 8DF80760 		strb	r6, [sp, #7]
 1768 00c0 8DF80490 		strb	r9, [sp, #4]
 1769 00c4 8DF80570 		strb	r7, [sp, #5]
 1770 00c8 FFF7FEFF 		bl	HAL_SPI_Transmit
 1771 00cc 2C23     		movs	r3, #44
 1772 00ce 08F8073D 		strb	r3, [r8, #-7]!
 1773 00d2 2A46     		mov	r2, r5
 1774 00d4 1021     		movs	r1, #16
 1775 00d6 1248     		ldr	r0, .L40+4
 1776 00d8 FFF7FEFF 		bl	HAL_GPIO_WritePin
 1777 00dc 0A23     		movs	r3, #10
 1778 00de 4146     		mov	r1, r8
 1779 00e0 0122     		movs	r2, #1
 1780 00e2 1048     		ldr	r0, .L40+8
 1781 00e4 FFF7FEFF 		bl	HAL_SPI_Transmit
 1782 00e8 2946     		mov	r1, r5
 1783 00ea 2068     		ldr	r0, [r4]
 1784 00ec FFF7FEFF 		bl	makise_render
 1785 00f0 0122     		movs	r2, #1
 1786 00f2 1021     		movs	r1, #16
 1787 00f4 0A48     		ldr	r0, .L40+4
 1788 00f6 FFF7FEFF 		bl	HAL_GPIO_WritePin
 1789 00fa 2A46     		mov	r2, r5
 1790 00fc 0121     		movs	r1, #1
ARM GAS  /tmp/ccmWEtpy.s 			page 32


 1791 00fe 0748     		ldr	r0, .L40
 1792 0100 FFF7FEFF 		bl	HAL_GPIO_WritePin
 1793 0104 A28A     		ldrh	r2, [r4, #20]
 1794 0106 2169     		ldr	r1, [r4, #16]
 1795 0108 0648     		ldr	r0, .L40+8
 1796 010a FFF7FEFF 		bl	HAL_SPI_Transmit_DMA
 1797 010e 03B0     		add	sp, sp, #12
 1798              		@ sp needed
 1799 0110 BDE8F083 		pop	{r4, r5, r6, r7, r8, r9, pc}
 1800              	.L38:
 1801 0114 B946     		mov	r9, r7
 1802 0116 3B46     		mov	r3, r7
 1803 0118 81E7     		b	.L37
 1804              	.L41:
 1805 011a 00BF     		.align	2
 1806              	.L40:
 1807 011c 00040240 		.word	1073873920
 1808 0120 00080240 		.word	1073874944
 1809 0124 00000000 		.word	hspi1
 1811              		.section	.text.ili9340_spi_txhalfcplt,"ax",%progbits
 1812              		.align	1
 1813              		.p2align 2,,3
 1814              		.global	ili9340_spi_txhalfcplt
 1815              		.syntax unified
 1816              		.thumb
 1817              		.thumb_func
 1818              		.fpu fpv4-sp-d16
 1820              	ili9340_spi_txhalfcplt:
 1821              		@ args = 0, pretend = 0, frame = 0
 1822              		@ frame_needed = 0, uses_anonymous_args = 0
 1823 0000 08B5     		push	{r3, lr}
 1824 0002 428B     		ldrh	r2, [r0, #26]
 1825 0004 8388     		ldrh	r3, [r0, #4]
 1826 0006 9A42     		cmp	r2, r3
 1827 0008 03D2     		bcs	.L43
 1828 000a 0068     		ldr	r0, [r0]
 1829 000c 0121     		movs	r1, #1
 1830 000e FFF7FEFF 		bl	makise_render
 1831              	.L43:
 1832 0012 0120     		movs	r0, #1
 1833 0014 08BD     		pop	{r3, pc}
 1835 0016 00BF     		.section	.text.ili9340_spi_txcplt,"ax",%progbits
 1836              		.align	1
 1837              		.p2align 2,,3
 1838              		.global	ili9340_spi_txcplt
 1839              		.syntax unified
 1840              		.thumb
 1841              		.thumb_func
 1842              		.fpu fpv4-sp-d16
 1844              	ili9340_spi_txcplt:
 1845              		@ args = 0, pretend = 0, frame = 8
 1846              		@ frame_needed = 0, uses_anonymous_args = 0
 1847 0000 2DE9F04F 		push	{r4, r5, r6, r7, r8, r9, r10, fp, lr}
 1848 0004 8388     		ldrh	r3, [r0, #4]
 1849 0006 478B     		ldrh	r7, [r0, #26]
 1850 0008 0268     		ldr	r2, [r0]
 1851 000a 9F42     		cmp	r7, r3
ARM GAS  /tmp/ccmWEtpy.s 			page 33


 1852 000c 83B0     		sub	sp, sp, #12
 1853 000e 0446     		mov	r4, r0
 1854 0010 D2F800B0 		ldr	fp, [r2]
 1855 0014 80F0BC80 		bcs	.L63
 1856 0018 4FF0000A 		mov	r10, #0
 1857              	.L46:
 1858 001c 02AE     		add	r6, sp, #8
 1859 001e 7048     		ldr	r0, .L65
 1860 0020 B4F80690 		ldrh	r9, [r4, #6]
 1861 0024 2589     		ldrh	r5, [r4, #8]
 1862 0026 DFF8C081 		ldr	r8, .L65+8
 1863 002a 0022     		movs	r2, #0
 1864 002c 0121     		movs	r1, #1
 1865 002e FFF7FEFF 		bl	HAL_GPIO_WritePin
 1866 0032 2A23     		movs	r3, #42
 1867 0034 06F8053D 		strb	r3, [r6, #-5]!
 1868 0038 0022     		movs	r2, #0
 1869 003a 1021     		movs	r1, #16
 1870 003c 6948     		ldr	r0, .L65+4
 1871 003e FFF7FEFF 		bl	HAL_GPIO_WritePin
 1872 0042 3146     		mov	r1, r6
 1873 0044 0A23     		movs	r3, #10
 1874 0046 0122     		movs	r2, #1
 1875 0048 4046     		mov	r0, r8
 1876 004a FFF7FEFF 		bl	HAL_SPI_Transmit
 1877 004e 0122     		movs	r2, #1
 1878 0050 1021     		movs	r1, #16
 1879 0052 6448     		ldr	r0, .L65+4
 1880 0054 FFF7FEFF 		bl	HAL_GPIO_WritePin
 1881 0058 4FEA1920 		lsr	r0, r9, #8
 1882 005c 0026     		movs	r6, #0
 1883 005e 01A9     		add	r1, sp, #4
 1884 0060 0A23     		movs	r3, #10
 1885 0062 8DF80790 		strb	r9, [sp, #7]
 1886 0066 0422     		movs	r2, #4
 1887 0068 0DF10809 		add	r9, sp, #8
 1888 006c 8DF80600 		strb	r0, [sp, #6]
 1889 0070 4046     		mov	r0, r8
 1890 0072 8DF80460 		strb	r6, [sp, #4]
 1891 0076 8DF80560 		strb	r6, [sp, #5]
 1892 007a FFF7FEFF 		bl	HAL_SPI_Transmit
 1893 007e 2B23     		movs	r3, #43
 1894 0080 09F8063D 		strb	r3, [r9, #-6]!
 1895 0084 3246     		mov	r2, r6
 1896 0086 1021     		movs	r1, #16
 1897 0088 5648     		ldr	r0, .L65+4
 1898 008a 013D     		subs	r5, r5, #1
 1899 008c FFF7FEFF 		bl	HAL_GPIO_WritePin
 1900 0090 3D44     		add	r5, r5, r7
 1901 0092 4946     		mov	r1, r9
 1902 0094 0A23     		movs	r3, #10
 1903 0096 0122     		movs	r2, #1
 1904 0098 4046     		mov	r0, r8
 1905 009a FFF7FEFF 		bl	HAL_SPI_Transmit
 1906 009e ADB2     		uxth	r5, r5
 1907 00a0 0122     		movs	r2, #1
 1908 00a2 1021     		movs	r1, #16
ARM GAS  /tmp/ccmWEtpy.s 			page 34


 1909 00a4 4F48     		ldr	r0, .L65+4
 1910 00a6 FFF7FEFF 		bl	HAL_GPIO_WritePin
 1911 00aa 280A     		lsrs	r0, r5, #8
 1912 00ac 4FEA172E 		lsr	lr, r7, #8
 1913 00b0 0DF10809 		add	r9, sp, #8
 1914 00b4 01A9     		add	r1, sp, #4
 1915 00b6 0A23     		movs	r3, #10
 1916 00b8 0422     		movs	r2, #4
 1917 00ba 8DF80600 		strb	r0, [sp, #6]
 1918 00be 4046     		mov	r0, r8
 1919 00c0 8DF804E0 		strb	lr, [sp, #4]
 1920 00c4 8DF80750 		strb	r5, [sp, #7]
 1921 00c8 8DF80570 		strb	r7, [sp, #5]
 1922 00cc FFF7FEFF 		bl	HAL_SPI_Transmit
 1923 00d0 2C23     		movs	r3, #44
 1924 00d2 09F8073D 		strb	r3, [r9, #-7]!
 1925 00d6 3246     		mov	r2, r6
 1926 00d8 1021     		movs	r1, #16
 1927 00da 4248     		ldr	r0, .L65+4
 1928 00dc FFF7FEFF 		bl	HAL_GPIO_WritePin
 1929 00e0 4946     		mov	r1, r9
 1930 00e2 0A23     		movs	r3, #10
 1931 00e4 0122     		movs	r2, #1
 1932 00e6 4046     		mov	r0, r8
 1933 00e8 FFF7FEFF 		bl	HAL_SPI_Transmit
 1934 00ec B245     		cmp	r10, r6
 1935 00ee 0CBF     		ite	eq
 1936 00f0 0221     		moveq	r1, #2
 1937 00f2 3146     		movne	r1, r6
 1938 00f4 2068     		ldr	r0, [r4]
 1939 00f6 FFF7FEFF 		bl	makise_render
 1940 00fa 0122     		movs	r2, #1
 1941 00fc 1021     		movs	r1, #16
 1942 00fe 3948     		ldr	r0, .L65+4
 1943 0100 FFF7FEFF 		bl	HAL_GPIO_WritePin
 1944 0104 3246     		mov	r2, r6
 1945 0106 0121     		movs	r1, #1
 1946 0108 3548     		ldr	r0, .L65
 1947 010a FFF7FEFF 		bl	HAL_GPIO_WritePin
 1948 010e D8F80020 		ldr	r2, [r8]
 1949 0112 6369     		ldr	r3, [r4, #20]
 1950 0114 D8F84800 		ldr	r0, [r8, #72]
 1951 0118 2169     		ldr	r1, [r4, #16]
 1952 011a 0C32     		adds	r2, r2, #12
 1953 011c FFF7FEFF 		bl	HAL_DMA_Start_IT
 1954 0120 D8F80030 		ldr	r3, [r8]
 1955 0124 5A68     		ldr	r2, [r3, #4]
 1956 0126 42F02002 		orr	r2, r2, #32
 1957 012a 5A60     		str	r2, [r3, #4]
 1958 012c 5A68     		ldr	r2, [r3, #4]
 1959 012e 42F00202 		orr	r2, r2, #2
 1960 0132 5A60     		str	r2, [r3, #4]
 1961 0134 BAF1000F 		cmp	r10, #0
 1962 0138 0BD0     		beq	.L50
 1963 013a 2068     		ldr	r0, [r4]
 1964 013c C368     		ldr	r3, [r0, #12]
 1965 013e 0BB1     		cbz	r3, .L51
ARM GAS  /tmp/ccmWEtpy.s 			page 35


 1966 0140 9847     		blx	r3
 1967 0142 2068     		ldr	r0, [r4]
 1968              	.L51:
 1969 0144 0369     		ldr	r3, [r0, #16]
 1970 0146 03B1     		cbz	r3, .L52
 1971 0148 9847     		blx	r3
 1972              	.L52:
 1973 014a 0120     		movs	r0, #1
 1974 014c 03B0     		add	sp, sp, #12
 1975              		@ sp needed
 1976 014e BDE8F08F 		pop	{r4, r5, r6, r7, r8, r9, r10, fp, pc}
 1977              	.L50:
 1978 0152 2089     		ldrh	r0, [r4, #8]
 1979 0154 638B     		ldrh	r3, [r4, #26]
 1980 0156 E188     		ldrh	r1, [r4, #6]
 1981 0158 BBF80820 		ldrh	r2, [fp, #8]
 1982 015c A3EB4003 		sub	r3, r3, r0, lsl #1
 1983 0160 01FB03F3 		mul	r3, r1, r3
 1984 0164 02FB03F3 		mul	r3, r2, r3
 1985 0168 002B     		cmp	r3, #0
 1986 016a 01FB00F1 		mul	r1, r1, r0
 1987 016e B8BF     		it	lt
 1988 0170 1F33     		addlt	r3, r3, #31
 1989 0172 DBF80C00 		ldr	r0, [fp, #12]
 1990 0176 5B11     		asrs	r3, r3, #5
 1991 0178 02FB01F2 		mul	r2, r2, r1
 1992 017c D210     		asrs	r2, r2, #3
 1993 017e 00EB8300 		add	r0, r0, r3, lsl #2
 1994 0182 0021     		movs	r1, #0
 1995 0184 FFF7FEFF 		bl	memset
 1996 0188 0120     		movs	r0, #1
 1997 018a 03B0     		add	sp, sp, #12
 1998              		@ sp needed
 1999 018c BDE8F08F 		pop	{r4, r5, r6, r7, r8, r9, r10, fp, pc}
 2000              	.L63:
 2001 0190 0189     		ldrh	r1, [r0, #8]
 2002 0192 C088     		ldrh	r0, [r0, #6]
 2003 0194 BBF80820 		ldrh	r2, [fp, #8]
 2004 0198 5B1A     		subs	r3, r3, r1
 2005 019a 00FB03F3 		mul	r3, r0, r3
 2006 019e 01FB00F1 		mul	r1, r1, r0
 2007 01a2 02FB03F3 		mul	r3, r2, r3
 2008 01a6 02FB01F2 		mul	r2, r2, r1
 2009 01aa 0021     		movs	r1, #0
 2010 01ac 8B42     		cmp	r3, r1
 2011 01ae B8BF     		it	lt
 2012 01b0 1F33     		addlt	r3, r3, #31
 2013 01b2 DBF80C00 		ldr	r0, [fp, #12]
 2014 01b6 6183     		strh	r1, [r4, #26]	@ movhi
 2015 01b8 5B11     		asrs	r3, r3, #5
 2016 01ba 00EB8300 		add	r0, r0, r3, lsl #2
 2017 01be D210     		asrs	r2, r2, #3
 2018 01c0 0021     		movs	r1, #0
 2019 01c2 FFF7FEFF 		bl	memset
 2020 01c6 2068     		ldr	r0, [r4]
 2021 01c8 8368     		ldr	r3, [r0, #8]
 2022 01ca 23B1     		cbz	r3, .L64
ARM GAS  /tmp/ccmWEtpy.s 			page 36


 2023 01cc 9847     		blx	r3
 2024 01ce 4FF0010A 		mov	r10, #1
 2025 01d2 678B     		ldrh	r7, [r4, #26]
 2026 01d4 22E7     		b	.L46
 2027              	.L64:
 2028 01d6 678B     		ldrh	r7, [r4, #26]
 2029 01d8 4FF0010A 		mov	r10, #1
 2030 01dc 1EE7     		b	.L46
 2031              	.L66:
 2032 01de 00BF     		.align	2
 2033              	.L65:
 2034 01e0 00040240 		.word	1073873920
 2035 01e4 00080240 		.word	1073874944
 2036 01e8 00000000 		.word	hspi1
 2038              		.section	.text.ili9340_write_data,"ax",%progbits
 2039              		.align	1
 2040              		.p2align 2,,3
 2041              		.global	ili9340_write_data
 2042              		.syntax unified
 2043              		.thumb
 2044              		.thumb_func
 2045              		.fpu fpv4-sp-d16
 2047              	ili9340_write_data:
 2048              		@ args = 0, pretend = 0, frame = 8
 2049              		@ frame_needed = 0, uses_anonymous_args = 0
 2050 0000 10B5     		push	{r4, lr}
 2051 0002 82B0     		sub	sp, sp, #8
 2052 0004 02AC     		add	r4, sp, #8
 2053 0006 0122     		movs	r2, #1
 2054 0008 04F8010D 		strb	r0, [r4, #-1]!
 2055 000c 1021     		movs	r1, #16
 2056 000e 0648     		ldr	r0, .L69
 2057 0010 FFF7FEFF 		bl	HAL_GPIO_WritePin
 2058 0014 2146     		mov	r1, r4
 2059 0016 0A23     		movs	r3, #10
 2060 0018 0122     		movs	r2, #1
 2061 001a 0448     		ldr	r0, .L69+4
 2062 001c FFF7FEFF 		bl	HAL_SPI_Transmit
 2063 0020 9DF80700 		ldrb	r0, [sp, #7]	@ zero_extendqisi2
 2064 0024 02B0     		add	sp, sp, #8
 2065              		@ sp needed
 2066 0026 10BD     		pop	{r4, pc}
 2067              	.L70:
 2068              		.align	2
 2069              	.L69:
 2070 0028 00080240 		.word	1073874944
 2071 002c 00000000 		.word	hspi1
 2073              		.section	.text.ili9340_write_command,"ax",%progbits
 2074              		.align	1
 2075              		.p2align 2,,3
 2076              		.global	ili9340_write_command
 2077              		.syntax unified
 2078              		.thumb
 2079              		.thumb_func
 2080              		.fpu fpv4-sp-d16
 2082              	ili9340_write_command:
 2083              		@ args = 0, pretend = 0, frame = 8
ARM GAS  /tmp/ccmWEtpy.s 			page 37


 2084              		@ frame_needed = 0, uses_anonymous_args = 0
 2085 0000 10B5     		push	{r4, lr}
 2086 0002 82B0     		sub	sp, sp, #8
 2087 0004 02AC     		add	r4, sp, #8
 2088 0006 0022     		movs	r2, #0
 2089 0008 04F8010D 		strb	r0, [r4, #-1]!
 2090 000c 1021     		movs	r1, #16
 2091 000e 0648     		ldr	r0, .L73
 2092 0010 FFF7FEFF 		bl	HAL_GPIO_WritePin
 2093 0014 2146     		mov	r1, r4
 2094 0016 0A23     		movs	r3, #10
 2095 0018 0122     		movs	r2, #1
 2096 001a 0448     		ldr	r0, .L73+4
 2097 001c FFF7FEFF 		bl	HAL_SPI_Transmit
 2098 0020 9DF80700 		ldrb	r0, [sp, #7]	@ zero_extendqisi2
 2099 0024 02B0     		add	sp, sp, #8
 2100              		@ sp needed
 2101 0026 10BD     		pop	{r4, pc}
 2102              	.L74:
 2103              		.align	2
 2104              	.L73:
 2105 0028 00080240 		.word	1073874944
 2106 002c 00000000 		.word	hspi1
 2108              		.global	ili9340_backlight
 2109              		.comm	makise_color_palette,4,4
 2110              		.section	.bss.ili9340_backlight,"aw",%nobits
 2113              	ili9340_backlight:
 2114 0000 00       		.space	1
 2115              		.ident	"GCC: (Arch Repository) 6.3.0"
ARM GAS  /tmp/ccmWEtpy.s 			page 38

