ARM GAS  /tmp/ccvwBD5U.s 			page 1


   1              		.cpu cortex-m4
   2              		.eabi_attribute 27, 1
   3              		.eabi_attribute 28, 1
   4              		.eabi_attribute 23, 1
   5              		.eabi_attribute 24, 1
   6              		.eabi_attribute 25, 1
   7              		.eabi_attribute 26, 1
   8              		.eabi_attribute 30, 2
   9              		.eabi_attribute 34, 1
  10              		.eabi_attribute 18, 4
  11              		.file	"inputs.c"
  12              		.section	.text.inputs_input,"ax",%progbits
  13              		.align	1
  14              		.p2align 2,,3
  15              		.global	inputs_input
  16              		.syntax unified
  17              		.thumb
  18              		.thumb_func
  19              		.fpu fpv4-sp-d16
  21              	inputs_input:
  22              		@ args = 0, pretend = 0, frame = 136
  23              		@ frame_needed = 0, uses_anonymous_args = 0
  24 0000 F0B5     		push	{r4, r5, r6, r7, lr}
  25 0002 11F0050F 		tst	r1, #5
  26 0006 A3B0     		sub	sp, sp, #140
  27 0008 0D46     		mov	r5, r1
  28 000a 0446     		mov	r4, r0
  29 000c 1646     		mov	r6, r2
  30 000e 11D1     		bne	.L37
  31              	.L2:
  32 0010 012D     		cmp	r5, #1
  33 0012 33D0     		beq	.L38
  34              	.L21:
  35 0014 042D     		cmp	r5, #4
  36 0016 3ED0     		beq	.L39
  37 0018 15F00A0F 		tst	r5, #10
  38 001c 08D0     		beq	.L1
  39 001e 022C     		cmp	r4, #2
  40 0020 00F08A80 		beq	.L40
  41 0024 032C     		cmp	r4, #3
  42 0026 65D0     		beq	.L41
  43 0028 012C     		cmp	r4, #1
  44 002a 74D0     		beq	.L42
  45 002c 042C     		cmp	r4, #4
  46 002e 4FD0     		beq	.L43
  47              	.L1:
  48 0030 23B0     		add	sp, sp, #140
  49              		@ sp needed
  50 0032 F0BD     		pop	{r4, r5, r6, r7, pc}
  51              	.L37:
  52 0034 0146     		mov	r1, r0
  53 0036 8248     		ldr	r0, .L49
  54 0038 FFF7FEFF 		bl	printf
  55 003c 022C     		cmp	r4, #2
  56 003e 00F0E380 		beq	.L44
  57 0042 032C     		cmp	r4, #3
  58 0044 00F0B480 		beq	.L45
ARM GAS  /tmp/ccvwBD5U.s 			page 2


  59 0048 012C     		cmp	r4, #1
  60 004a 00F08580 		beq	.L46
  61 004e 042C     		cmp	r4, #4
  62 0050 00F0C280 		beq	.L18
  63 0054 0C2C     		cmp	r4, #12
  64 0056 DBD1     		bne	.L2
  65 0058 7A4B     		ldr	r3, .L49+4
  66 005a 0E96     		str	r6, [sp, #56]
  67 005c 0022     		movs	r2, #0
  68 005e 1868     		ldr	r0, [r3]
  69 0060 8DF83C20 		strb	r2, [sp, #60]
  70 0064 0123     		movs	r3, #1
  71 0066 8DF83430 		strb	r3, [sp, #52]
  72 006a 8DF83530 		strb	r3, [sp, #53]
  73 006e 0DAB     		add	r3, sp, #52
  74 0070 0ECB     		ldm	r3, {r1, r2, r3}
  75 0072 FFF7FEFF 		bl	makise_g_host_input
  76              	.L8:
  77 0076 012D     		cmp	r5, #1
  78 0078 CCD1     		bne	.L21
  79 007a D9E7     		b	.L1
  80              	.L38:
  81 007c 0E2C     		cmp	r4, #14
  82 007e 00F0DC80 		beq	.L47
  83 0082 0D2C     		cmp	r4, #13
  84 0084 D4D1     		bne	.L1
  85 0086 6F4B     		ldr	r3, .L49+4
  86 0088 1B68     		ldr	r3, [r3]
  87              	.L34:
  88 008a 1868     		ldr	r0, [r3]
  89 008c 23B0     		add	sp, sp, #140
  90              		@ sp needed
  91 008e BDE8F040 		pop	{r4, r5, r6, r7, lr}
  92 0092 FFF7FEBF 		b	makise_g_cont_focus_next
  93              	.L39:
  94 0096 0D2C     		cmp	r4, #13
  95 0098 75D0     		beq	.L48
  96 009a 0E2C     		cmp	r4, #14
  97 009c C8D1     		bne	.L1
  98 009e 0A21     		movs	r1, #10
  99 00a0 0122     		movs	r2, #1
 100 00a2 0023     		movs	r3, #0
 101 00a4 674C     		ldr	r4, .L49+4
 102 00a6 8DF85430 		strb	r3, [sp, #84]
 103 00aa 1496     		str	r6, [sp, #80]
 104 00ac 8DF84C10 		strb	r1, [sp, #76]
 105 00b0 8DF84D20 		strb	r2, [sp, #77]
 106 00b4 13AB     		add	r3, sp, #76
 107 00b6 2068     		ldr	r0, [r4]
 108 00b8 0ECB     		ldm	r3, {r1, r2, r3}
 109 00ba FFF7FEFF 		bl	makise_g_host_input
 110 00be 0128     		cmp	r0, #1
 111 00c0 B6D1     		bne	.L1
 112 00c2 2368     		ldr	r3, [r4]
 113              	.L33:
 114 00c4 1868     		ldr	r0, [r3]
 115 00c6 23B0     		add	sp, sp, #140
ARM GAS  /tmp/ccvwBD5U.s 			page 3


 116              		@ sp needed
 117 00c8 BDE8F040 		pop	{r4, r5, r6, r7, lr}
 118 00cc FFF7FEBF 		b	makise_g_cont_focus_prev
 119              	.L43:
 120 00d0 5C4B     		ldr	r3, .L49+4
 121 00d2 2096     		str	r6, [sp, #128]
 122 00d4 1868     		ldr	r0, [r3]
 123 00d6 0022     		movs	r2, #0
 124 00d8 0223     		movs	r3, #2
 125 00da 8DF87C30 		strb	r3, [sp, #124]
 126 00de 8DF87D30 		strb	r3, [sp, #125]
 127 00e2 8DF88420 		strb	r2, [sp, #132]
 128 00e6 22AB     		add	r3, sp, #136
 129 00e8 13E90E00 		ldmdb	r3, {r1, r2, r3}
 130 00ec FFF7FEFF 		bl	makise_g_host_input
 131 00f0 23B0     		add	sp, sp, #140
 132              		@ sp needed
 133 00f2 F0BD     		pop	{r4, r5, r6, r7, pc}
 134              	.L41:
 135 00f4 534B     		ldr	r3, .L49+4
 136 00f6 1A96     		str	r6, [sp, #104]
 137 00f8 0521     		movs	r1, #5
 138 00fa 0222     		movs	r2, #2
 139 00fc 1868     		ldr	r0, [r3]
 140 00fe 8DF86410 		strb	r1, [sp, #100]
 141 0102 0023     		movs	r3, #0
 142 0104 8DF86C30 		strb	r3, [sp, #108]
 143 0108 8DF86520 		strb	r2, [sp, #101]
 144 010c 19AB     		add	r3, sp, #100
 145 010e 0ECB     		ldm	r3, {r1, r2, r3}
 146 0110 FFF7FEFF 		bl	makise_g_host_input
 147 0114 8CE7     		b	.L1
 148              	.L42:
 149 0116 4B4B     		ldr	r3, .L49+4
 150 0118 1D96     		str	r6, [sp, #116]
 151 011a 0321     		movs	r1, #3
 152 011c 0222     		movs	r2, #2
 153 011e 1868     		ldr	r0, [r3]
 154 0120 8DF87010 		strb	r1, [sp, #112]
 155 0124 0023     		movs	r3, #0
 156 0126 8DF87830 		strb	r3, [sp, #120]
 157 012a 8DF87120 		strb	r2, [sp, #113]
 158 012e 1CAB     		add	r3, sp, #112
 159 0130 0ECB     		ldm	r3, {r1, r2, r3}
 160 0132 FFF7FEFF 		bl	makise_g_host_input
 161 0136 7BE7     		b	.L1
 162              	.L40:
 163 0138 424B     		ldr	r3, .L49+4
 164 013a 8DF85940 		strb	r4, [sp, #89]
 165 013e 0422     		movs	r2, #4
 166 0140 1868     		ldr	r0, [r3]
 167 0142 1796     		str	r6, [sp, #92]
 168 0144 0023     		movs	r3, #0
 169 0146 8DF86030 		strb	r3, [sp, #96]
 170 014a 8DF85820 		strb	r2, [sp, #88]
 171 014e 16AB     		add	r3, sp, #88
 172 0150 0ECB     		ldm	r3, {r1, r2, r3}
ARM GAS  /tmp/ccvwBD5U.s 			page 4


 173 0152 FFF7FEFF 		bl	makise_g_host_input
 174 0156 6BE7     		b	.L1
 175              	.L46:
 176 0158 0322     		movs	r2, #3
 177 015a 0023     		movs	r3, #0
 178 015c 394F     		ldr	r7, .L49+4
 179 015e 8DF82430 		strb	r3, [sp, #36]
 180 0162 8DF81D40 		strb	r4, [sp, #29]
 181 0166 0896     		str	r6, [sp, #32]
 182 0168 8DF81C20 		strb	r2, [sp, #28]
 183 016c 07AB     		add	r3, sp, #28
 184 016e 3868     		ldr	r0, [r7]
 185 0170 0ECB     		ldm	r3, {r1, r2, r3}
 186 0172 FFF7FEFF 		bl	makise_g_host_input
 187 0176 0128     		cmp	r0, #1
 188 0178 7FF44AAF 		bne	.L2
 189              	.L32:
 190 017c 3B68     		ldr	r3, [r7]
 191 017e 1868     		ldr	r0, [r3]
 192 0180 FFF7FEFF 		bl	makise_g_cont_focus_next
 193 0184 44E7     		b	.L2
 194              	.L48:
 195 0186 0921     		movs	r1, #9
 196 0188 0122     		movs	r2, #1
 197 018a 0023     		movs	r3, #0
 198 018c 2D4C     		ldr	r4, .L49+4
 199 018e 8DF84830 		strb	r3, [sp, #72]
 200 0192 1196     		str	r6, [sp, #68]
 201 0194 8DF84010 		strb	r1, [sp, #64]
 202 0198 8DF84120 		strb	r2, [sp, #65]
 203 019c 10AB     		add	r3, sp, #64
 204 019e 2068     		ldr	r0, [r4]
 205 01a0 0ECB     		ldm	r3, {r1, r2, r3}
 206 01a2 FFF7FEFF 		bl	makise_g_host_input
 207 01a6 0128     		cmp	r0, #1
 208 01a8 7FF442AF 		bne	.L1
 209 01ac 2368     		ldr	r3, [r4]
 210 01ae 6CE7     		b	.L34
 211              	.L45:
 212 01b0 0521     		movs	r1, #5
 213 01b2 0122     		movs	r2, #1
 214 01b4 0023     		movs	r3, #0
 215 01b6 234F     		ldr	r7, .L49+4
 216 01b8 8DF81830 		strb	r3, [sp, #24]
 217 01bc 0596     		str	r6, [sp, #20]
 218 01be 8DF81010 		strb	r1, [sp, #16]
 219 01c2 8DF81120 		strb	r2, [sp, #17]
 220 01c6 04AB     		add	r3, sp, #16
 221 01c8 3868     		ldr	r0, [r7]
 222 01ca 0ECB     		ldm	r3, {r1, r2, r3}
 223 01cc FFF7FEFF 		bl	makise_g_host_input
 224 01d0 0128     		cmp	r0, #1
 225 01d2 7FF41DAF 		bne	.L2
 226 01d6 D1E7     		b	.L32
 227              	.L18:
 228 01d8 0221     		movs	r1, #2
 229 01da 0122     		movs	r2, #1
ARM GAS  /tmp/ccvwBD5U.s 			page 5


 230 01dc 0023     		movs	r3, #0
 231 01de 194F     		ldr	r7, .L49+4
 232 01e0 8DF83030 		strb	r3, [sp, #48]
 233 01e4 0B96     		str	r6, [sp, #44]
 234 01e6 8DF82810 		strb	r1, [sp, #40]
 235 01ea 8DF82920 		strb	r2, [sp, #41]
 236 01ee 0AAB     		add	r3, sp, #40
 237 01f0 3868     		ldr	r0, [r7]
 238 01f2 0ECB     		ldm	r3, {r1, r2, r3}
 239 01f4 FFF7FEFF 		bl	makise_g_host_input
 240 01f8 0128     		cmp	r0, #1
 241 01fa 7FF409AF 		bne	.L2
 242 01fe 3B68     		ldr	r3, [r7]
 243 0200 1868     		ldr	r0, [r3]
 244 0202 FFF7FEFF 		bl	makise_g_cont_focus_prev
 245 0206 36E7     		b	.L8
 246              	.L44:
 247 0208 0421     		movs	r1, #4
 248 020a 0122     		movs	r2, #1
 249 020c 0023     		movs	r3, #0
 250 020e 0D4F     		ldr	r7, .L49+4
 251 0210 8DF80C30 		strb	r3, [sp, #12]
 252 0214 0296     		str	r6, [sp, #8]
 253 0216 8DF80410 		strb	r1, [sp, #4]
 254 021a 8DF80520 		strb	r2, [sp, #5]
 255 021e 0DEB0103 		add	r3, sp, r1
 256 0222 3868     		ldr	r0, [r7]
 257 0224 0ECB     		ldm	r3, {r1, r2, r3}
 258 0226 FFF7FEFF 		bl	makise_g_host_input
 259 022a 0128     		cmp	r0, #1
 260 022c 7FF4F0AE 		bne	.L2
 261 0230 3B68     		ldr	r3, [r7]
 262 0232 1868     		ldr	r0, [r3]
 263 0234 FFF7FEFF 		bl	makise_g_cont_focus_prev
 264 0238 EAE6     		b	.L2
 265              	.L47:
 266 023a 024B     		ldr	r3, .L49+4
 267 023c 1B68     		ldr	r3, [r3]
 268 023e 41E7     		b	.L33
 269              	.L50:
 270              		.align	2
 271              	.L49:
 272 0240 00000000 		.word	.LC0
 273 0244 00000000 		.word	host
 275              		.section	.text.inputs_init,"ax",%progbits
 276              		.align	1
 277              		.p2align 2,,3
 278              		.global	inputs_init
 279              		.syntax unified
 280              		.thumb
 281              		.thumb_func
 282              		.fpu fpv4-sp-d16
 284              	inputs_init:
 285              		@ args = 0, pretend = 0, frame = 0
 286              		@ frame_needed = 0, uses_anonymous_args = 0
 287 0000 00B5     		push	{lr}
 288 0002 83B0     		sub	sp, sp, #12
ARM GAS  /tmp/ccvwBD5U.s 			page 6


 289 0004 054B     		ldr	r3, .L53
 290 0006 0093     		str	r3, [sp]
 291 0008 054A     		ldr	r2, .L53+4
 292 000a 0648     		ldr	r0, .L53+8
 293 000c 0423     		movs	r3, #4
 294 000e 0821     		movs	r1, #8
 295 0010 FFF7FEFF 		bl	controls_595_init
 296 0014 03B0     		add	sp, sp, #12
 297              		@ sp needed
 298 0016 5DF804FB 		ldr	pc, [sp], #4
 299              	.L54:
 300 001a 00BF     		.align	2
 301              	.L53:
 302 001c 00000000 		.word	inputs_input
 303 0020 00000000 		.word	.LANCHOR0
 304 0024 00000000 		.word	.LANCHOR1
 306              		.section	.text.inputs_update,"ax",%progbits
 307              		.align	1
 308              		.p2align 2,,3
 309              		.global	inputs_update
 310              		.syntax unified
 311              		.thumb
 312              		.thumb_func
 313              		.fpu fpv4-sp-d16
 315              	inputs_update:
 316              		@ args = 0, pretend = 0, frame = 0
 317              		@ frame_needed = 0, uses_anonymous_args = 0
 318              		@ link register save eliminated.
 319 0000 FFF7FEBF 		b	controls_595_update
 321              		.global	inputs_outs
 322              		.global	inputs_buttons
 323              		.comm	makise_color_palette,4,4
 324              		.section	.data.inputs_buttons,"aw",%progbits
 325              		.align	2
 326              		.set	.LANCHOR1,. + 0
 329              	inputs_buttons:
 330 0000 01       		.byte	1
 331 0001 000000   		.space	3
 332 0004 01000000 		.word	1
 333 0008 00080240 		.word	1073874944
 334 000c 0100     		.short	1
 335 000e 0700     		.short	7
 336 0010 00       		.byte	0
 337 0011 00       		.byte	0
 338 0012 0000     		.space	2
 339 0014 00000000 		.word	0
 340 0018 01       		.byte	1
 341 0019 000000   		.space	3
 342 001c 02000000 		.word	2
 343 0020 00080240 		.word	1073874944
 344 0024 0100     		.short	1
 345 0026 0600     		.short	6
 346 0028 00       		.byte	0
 347 0029 00       		.byte	0
 348 002a 0000     		.space	2
 349 002c 00000000 		.word	0
 350 0030 01       		.byte	1
ARM GAS  /tmp/ccvwBD5U.s 			page 7


 351 0031 000000   		.space	3
 352 0034 03000000 		.word	3
 353 0038 00080240 		.word	1073874944
 354 003c 0100     		.short	1
 355 003e 0500     		.short	5
 356 0040 00       		.byte	0
 357 0041 00       		.byte	0
 358 0042 0000     		.space	2
 359 0044 00000000 		.word	0
 360 0048 01       		.byte	1
 361 0049 000000   		.space	3
 362 004c 04000000 		.word	4
 363 0050 00080240 		.word	1073874944
 364 0054 0100     		.short	1
 365 0056 0400     		.short	4
 366 0058 00       		.byte	0
 367 0059 00       		.byte	0
 368 005a 0000     		.space	2
 369 005c 00000000 		.word	0
 370 0060 01       		.byte	1
 371 0061 000000   		.space	3
 372 0064 0B000000 		.word	11
 373 0068 00080240 		.word	1073874944
 374 006c 0200     		.short	2
 375 006e 0700     		.short	7
 376 0070 00       		.byte	0
 377 0071 00       		.byte	0
 378 0072 0000     		.space	2
 379 0074 00000000 		.word	0
 380 0078 01       		.byte	1
 381 0079 000000   		.space	3
 382 007c 0C000000 		.word	12
 383 0080 00080240 		.word	1073874944
 384 0084 0200     		.short	2
 385 0086 0600     		.short	6
 386 0088 00       		.byte	0
 387 0089 00       		.byte	0
 388 008a 0000     		.space	2
 389 008c 00000000 		.word	0
 390 0090 01       		.byte	1
 391 0091 000000   		.space	3
 392 0094 0D000000 		.word	13
 393 0098 00080240 		.word	1073874944
 394 009c 0200     		.short	2
 395 009e 0500     		.short	5
 396 00a0 00       		.byte	0
 397 00a1 00       		.byte	0
 398 00a2 0000     		.space	2
 399 00a4 00000000 		.word	0
 400 00a8 01       		.byte	1
 401 00a9 000000   		.space	3
 402 00ac 0E000000 		.word	14
 403 00b0 00080240 		.word	1073874944
 404 00b4 0200     		.short	2
 405 00b6 0400     		.short	4
 406 00b8 00       		.byte	0
 407 00b9 00       		.byte	0
ARM GAS  /tmp/ccvwBD5U.s 			page 8


 408 00ba 0000     		.space	2
 409 00bc 00000000 		.word	0
 410              		.section	.data.inputs_outs,"aw",%progbits
 411              		.align	2
 412              		.set	.LANCHOR0,. + 0
 415              	inputs_outs:
 416 0000 01       		.byte	1
 417 0001 000000   		.space	3
 418 0004 05000000 		.word	5
 419 0008 0000     		.short	0
 420 000a 01       		.byte	1
 421 000b 00       		.space	1
 422 000c 01       		.byte	1
 423 000d 000000   		.space	3
 424 0010 06000000 		.word	6
 425 0014 0100     		.short	1
 426 0016 00       		.byte	0
 427 0017 00       		.space	1
 428 0018 01       		.byte	1
 429 0019 000000   		.space	3
 430 001c 07000000 		.word	7
 431 0020 0200     		.short	2
 432 0022 00       		.byte	0
 433 0023 00       		.space	1
 434 0024 01       		.byte	1
 435 0025 000000   		.space	3
 436 0028 08000000 		.word	8
 437 002c 0300     		.short	3
 438 002e 01       		.byte	1
 439 002f 00       		.space	1
 440              		.section	.rodata.inputs_input.str1.4,"aMS",%progbits,1
 441              		.align	2
 442              	.LC0:
 443 0000 25640A00 		.ascii	"%d\012\000"
 444              		.ident	"GCC: (Arch Repository) 6.3.0"
ARM GAS  /tmp/ccvwBD5U.s 			page 9

