ARM GAS  /tmp/ccJ3eUD5.s 			page 1


   1              		.cpu cortex-m4
   2              		.eabi_attribute 27, 1
   3              		.eabi_attribute 28, 1
   4              		.eabi_attribute 23, 1
   5              		.eabi_attribute 24, 1
   6              		.eabi_attribute 25, 1
   7              		.eabi_attribute 26, 1
   8              		.eabi_attribute 30, 2
   9              		.eabi_attribute 34, 1
  10              		.eabi_attribute 18, 4
  11              		.file	"makise_e_buttons.c"
  12              		.section	.text._m_button_focus,"ax",%progbits
  13              		.align	1
  14              		.p2align 2,,3
  15              		.global	_m_button_focus
  16              		.syntax unified
  17              		.thumb
  18              		.thumb_func
  19              		.fpu fpv4-sp-d16
  21              	_m_button_focus:
  22              		@ args = 0, pretend = 0, frame = 0
  23              		@ frame_needed = 0, uses_anonymous_args = 0
  24 0000 38B5     		push	{r3, r4, r5, lr}
  25 0002 0B07     		lsls	r3, r1, #28
  26 0004 0546     		mov	r5, r0
  27 0006 0C46     		mov	r4, r1
  28 0008 406B     		ldr	r0, [r0, #52]
  29 000a 0FD5     		bpl	.L2
  30 000c 90F86830 		ldrb	r3, [r0, #104]	@ zero_extendqisi2
  31 0010 012B     		cmp	r3, #1
  32 0012 04D0     		beq	.L3
  33 0014 436E     		ldr	r3, [r0, #100]
  34 0016 13B1     		cbz	r3, .L3
  35 0018 0821     		movs	r1, #8
  36 001a 9847     		blx	r3
  37 001c 686B     		ldr	r0, [r5, #52]
  38              	.L3:
  39 001e 0123     		movs	r3, #1
  40 0020 80F86830 		strb	r3, [r0, #104]
  41              	.L4:
  42 0024 202C     		cmp	r4, #32
  43 0026 0FD1     		bne	.L15
  44 0028 0220     		movs	r0, #2
  45 002a 38BD     		pop	{r3, r4, r5, pc}
  46              	.L2:
  47 002c 0429     		cmp	r1, #4
  48 002e F9D1     		bne	.L4
  49 0030 90F86830 		ldrb	r3, [r0, #104]	@ zero_extendqisi2
  50 0034 1BB1     		cbz	r3, .L5
  51 0036 436E     		ldr	r3, [r0, #100]
  52 0038 0BB1     		cbz	r3, .L5
  53 003a 9847     		blx	r3
  54 003c 686B     		ldr	r0, [r5, #52]
  55              	.L5:
  56 003e 0023     		movs	r3, #0
  57 0040 80F86830 		strb	r3, [r0, #104]
  58 0044 0120     		movs	r0, #1
ARM GAS  /tmp/ccJ3eUD5.s 			page 2


  59 0046 38BD     		pop	{r3, r4, r5, pc}
  60              	.L15:
  61 0048 102C     		cmp	r4, #16
  62 004a 14BF     		ite	ne
  63 004c 0120     		movne	r0, #1
  64 004e 0220     		moveq	r0, #2
  65 0050 38BD     		pop	{r3, r4, r5, pc}
  67 0052 00BF     		.section	.text._m_button_input,"ax",%progbits
  68              		.align	1
  69              		.p2align 2,,3
  70              		.global	_m_button_input
  71              		.syntax unified
  72              		.thumb
  73              		.thumb_func
  74              		.fpu fpv4-sp-d16
  76              	_m_button_input:
  77              		@ args = 0, pretend = 0, frame = 16
  78              		@ frame_needed = 0, uses_anonymous_args = 0
  79 0000 70B5     		push	{r4, r5, r6, lr}
  80 0002 0546     		mov	r5, r0
  81 0004 84B0     		sub	sp, sp, #16
  82 0006 01AC     		add	r4, sp, #4
  83 0008 84E80E00 		stm	r4, {r1, r2, r3}
  84 000c 1048     		ldr	r0, .L25
  85 000e EA6A     		ldr	r2, [r5, #44]
  86 0010 6968     		ldr	r1, [r5, #4]
  87 0012 FFF7FEFF 		bl	printf
  88 0016 6D6B     		ldr	r5, [r5, #52]
  89 0018 2E6E     		ldr	r6, [r5, #96]
  90 001a 26B1     		cbz	r6, .L20
  91 001c 94E80E00 		ldm	r4, {r1, r2, r3}
  92 0020 2846     		mov	r0, r5
  93 0022 B047     		blx	r6
  94 0024 30B1     		cbz	r0, .L19
  95              	.L20:
  96 0026 BDF80420 		ldrh	r2, [sp, #4]
  97 002a 40F20113 		movw	r3, #257
  98 002e 9A42     		cmp	r2, r3
  99 0030 02D0     		beq	.L24
 100              	.L22:
 101 0032 0120     		movs	r0, #1
 102              	.L19:
 103 0034 04B0     		add	sp, sp, #16
 104              		@ sp needed
 105 0036 70BD     		pop	{r4, r5, r6, pc}
 106              	.L24:
 107 0038 EB6D     		ldr	r3, [r5, #92]
 108 003a 002B     		cmp	r3, #0
 109 003c F9D0     		beq	.L22
 110 003e 2846     		mov	r0, r5
 111 0040 9847     		blx	r3
 112 0042 0223     		movs	r3, #2
 113 0044 0020     		movs	r0, #0
 114 0046 85F86830 		strb	r3, [r5, #104]
 115 004a 04B0     		add	sp, sp, #16
 116              		@ sp needed
 117 004c 70BD     		pop	{r4, r5, r6, pc}
ARM GAS  /tmp/ccJ3eUD5.s 			page 3


 118              	.L26:
 119 004e 00BF     		.align	2
 120              	.L25:
 121 0050 00000000 		.word	.LC0
 123              		.section	.text._m_button_draw,"ax",%progbits
 124              		.align	1
 125              		.p2align 2,,3
 126              		.global	_m_button_draw
 127              		.syntax unified
 128              		.thumb
 129              		.thumb_func
 130              		.fpu fpv4-sp-d16
 132              	_m_button_draw:
 133              		@ args = 0, pretend = 0, frame = 0
 134              		@ frame_needed = 0, uses_anonymous_args = 0
 135 0000 70B5     		push	{r4, r5, r6, lr}
 136 0002 426B     		ldr	r2, [r0, #52]
 137 0004 92F86830 		ldrb	r3, [r2, #104]	@ zero_extendqisi2
 138 0008 956D     		ldr	r5, [r2, #88]
 139 000a 84B0     		sub	sp, sp, #16
 140 000c 0446     		mov	r4, r0
 141 000e 002B     		cmp	r3, #0
 142 0010 2FD0     		beq	.L32
 143 0012 012B     		cmp	r3, #1
 144 0014 17BF     		itett	ne
 145 0016 03F1FF33 		addne	r3, r3, #-1
 146 001a 2C35     		addeq	r5, r5, #44
 147 001c 82F86830 		strbne	r3, [r2, #104]
 148 0020 3C35     		addne	r5, r5, #60
 149              	.L29:
 150 0022 2368     		ldr	r3, [r4]
 151 0024 2A46     		mov	r2, r5
 152 0026 1868     		ldr	r0, [r3]
 153 0028 04F11801 		add	r1, r4, #24
 154 002c FFF7FEFF 		bl	_m_e_helper_draw_box
 155 0030 666B     		ldr	r6, [r4, #52]
 156 0032 2268     		ldr	r2, [r4]
 157 0034 6B68     		ldr	r3, [r5, #4]
 158 0036 716D     		ldr	r1, [r6, #84]
 159 0038 656A     		ldr	r5, [r4, #36]
 160 003a 1068     		ldr	r0, [r2]
 161 003c E26A     		ldr	r2, [r4, #44]
 162 003e 0393     		str	r3, [sp, #12]
 163 0040 236A     		ldr	r3, [r4, #32]
 164 0042 B66D     		ldr	r6, [r6, #88]
 165 0044 A46A     		ldr	r4, [r4, #40]
 166 0046 7668     		ldr	r6, [r6, #4]
 167 0048 0296     		str	r6, [sp, #8]
 168 004a 05EBD575 		add	r5, r5, r5, lsr #31
 169 004e 02EB6502 		add	r2, r2, r5, asr #1
 170 0052 03EBD373 		add	r3, r3, r3, lsr #31
 171 0056 92B2     		uxth	r2, r2
 172 0058 04EB6303 		add	r3, r4, r3, asr #1
 173 005c 0124     		movs	r4, #1
 174 005e 0092     		str	r2, [sp]
 175 0060 9BB2     		uxth	r3, r3
 176 0062 0194     		str	r4, [sp, #4]
ARM GAS  /tmp/ccJ3eUD5.s 			page 4


 177 0064 4FF0FF32 		mov	r2, #-1
 178 0068 FFF7FEFF 		bl	makise_d_string
 179 006c 2046     		mov	r0, r4
 180 006e 04B0     		add	sp, sp, #16
 181              		@ sp needed
 182 0070 70BD     		pop	{r4, r5, r6, pc}
 183              	.L32:
 184 0072 1C35     		adds	r5, r5, #28
 185 0074 D5E7     		b	.L29
 187 0076 00BF     		.section	.text.m_create_button,"ax",%progbits
 188              		.align	1
 189              		.p2align 2,,3
 190              		.global	m_create_button
 191              		.syntax unified
 192              		.thumb
 193              		.thumb_func
 194              		.fpu fpv4-sp-d16
 196              	m_create_button:
 197              		@ args = 28, pretend = 0, frame = 0
 198              		@ frame_needed = 0, uses_anonymous_args = 0
 199 0000 2DE9F84F 		push	{r3, r4, r5, r6, r7, r8, r9, r10, fp, lr}
 200 0004 0446     		mov	r4, r0
 201 0006 0868     		ldr	r0, [r1]
 202 0008 2362     		str	r3, [r4, #32]
 203 000a 0A9B     		ldr	r3, [sp, #40]
 204 000c 6060     		str	r0, [r4, #4]
 205 000e 0D46     		mov	r5, r1
 206 0010 0020     		movs	r0, #0
 207 0012 1949     		ldr	r1, .L35
 208 0014 6362     		str	r3, [r4, #36]
 209 0016 0126     		movs	r6, #1
 210 0018 0B9B     		ldr	r3, [sp, #44]
 211 001a DFF86880 		ldr	r8, .L35+12
 212 001e 174F     		ldr	r7, .L35+4
 213 0020 E261     		str	r2, [r4, #28]
 214 0022 C4F83C80 		str	r8, [r4, #60]
 215 0026 A764     		str	r7, [r4, #72]
 216 0028 E164     		str	r1, [r4, #76]
 217 002a A362     		str	r3, [r4, #40]
 218 002c A463     		str	r4, [r4, #56]
 219 002e 2064     		str	r0, [r4, #64]
 220 0030 6064     		str	r0, [r4, #68]
 221 0032 2065     		str	r0, [r4, #80]
 222 0034 2676     		strb	r6, [r4, #24]
 223 0036 DDF830B0 		ldr	fp, [sp, #48]
 224 003a DDF834A0 		ldr	r10, [sp, #52]
 225 003e DDF83890 		ldr	r9, [sp, #56]
 226 0042 DDF83C80 		ldr	r8, [sp, #60]
 227 0046 109F     		ldr	r7, [sp, #64]
 228 0048 FFF7FEFF 		bl	makise_g_newid
 229 004c 211D     		adds	r1, r4, #4
 230 004e A060     		str	r0, [r4, #8]
 231 0050 84F83460 		strb	r6, [r4, #52]
 232 0054 2846     		mov	r0, r5
 233 0056 C4F854B0 		str	fp, [r4, #84]
 234 005a C4F85CA0 		str	r10, [r4, #92]
 235 005e C4F86090 		str	r9, [r4, #96]
ARM GAS  /tmp/ccJ3eUD5.s 			page 5


 236 0062 C4F86480 		str	r8, [r4, #100]
 237 0066 A765     		str	r7, [r4, #88]
 238 0068 FFF7FEFF 		bl	makise_g_cont_add
 239 006c A168     		ldr	r1, [r4, #8]
 240 006e 0448     		ldr	r0, .L35+8
 241 0070 BDE8F84F 		pop	{r3, r4, r5, r6, r7, r8, r9, r10, fp, lr}
 242 0074 FFF7FEBF 		b	printf
 243              	.L36:
 244              		.align	2
 245              	.L35:
 246 0078 00000000 		.word	_m_button_focus
 247 007c 00000000 		.word	_m_button_input
 248 0080 00000000 		.word	.LC1
 249 0084 00000000 		.word	_m_button_draw
 251              		.comm	makise_color_palette,4,4
 252              		.section	.rodata._m_button_input.str1.4,"aMS",%progbits,1
 253              		.align	2
 254              	.LC0:
 255 0000 62757420 		.ascii	"but click %d %d\012\000"
 255      636C6963 
 255      6B202564 
 255      2025640A 
 255      00
 256              		.section	.rodata.m_create_button.str1.4,"aMS",%progbits,1
 257              		.align	2
 258              	.LC1:
 259 0000 42757474 		.ascii	"Button %d created\012\000"
 259      6F6E2025 
 259      64206372 
 259      65617465 
 259      640A00
 260              		.ident	"GCC: (Arch Repository) 6.3.0"
ARM GAS  /tmp/ccJ3eUD5.s 			page 6

