ARM GAS  /tmp/ccjEb5KJ.s 			page 1


   1              		.cpu cortex-m4
   2              		.eabi_attribute 27, 1
   3              		.eabi_attribute 28, 1
   4              		.eabi_attribute 23, 1
   5              		.eabi_attribute 24, 1
   6              		.eabi_attribute 25, 1
   7              		.eabi_attribute 26, 1
   8              		.eabi_attribute 30, 2
   9              		.eabi_attribute 34, 1
  10              		.eabi_attribute 18, 4
  11              		.file	"makise_e_slider.c"
  12              		.section	.text._m_slider_focus,"ax",%progbits
  13              		.align	1
  14              		.p2align 2,,3
  15              		.global	_m_slider_focus
  16              		.syntax unified
  17              		.thumb
  18              		.thumb_func
  19              		.fpu fpv4-sp-d16
  21              	_m_slider_focus:
  22              		@ args = 0, pretend = 0, frame = 0
  23              		@ frame_needed = 0, uses_anonymous_args = 0
  24 0000 38B5     		push	{r3, r4, r5, lr}
  25 0002 0B07     		lsls	r3, r1, #28
  26 0004 0546     		mov	r5, r0
  27 0006 0C46     		mov	r4, r1
  28 0008 406B     		ldr	r0, [r0, #52]
  29 000a 0FD5     		bpl	.L2
  30 000c 90F86C30 		ldrb	r3, [r0, #108]	@ zero_extendqisi2
  31 0010 012B     		cmp	r3, #1
  32 0012 04D0     		beq	.L3
  33 0014 836E     		ldr	r3, [r0, #104]
  34 0016 13B1     		cbz	r3, .L3
  35 0018 0821     		movs	r1, #8
  36 001a 9847     		blx	r3
  37 001c 686B     		ldr	r0, [r5, #52]
  38              	.L3:
  39 001e 0123     		movs	r3, #1
  40 0020 80F86C30 		strb	r3, [r0, #108]
  41              	.L4:
  42 0024 202C     		cmp	r4, #32
  43 0026 0FD1     		bne	.L15
  44 0028 0220     		movs	r0, #2
  45 002a 38BD     		pop	{r3, r4, r5, pc}
  46              	.L2:
  47 002c 0429     		cmp	r1, #4
  48 002e F9D1     		bne	.L4
  49 0030 90F86C30 		ldrb	r3, [r0, #108]	@ zero_extendqisi2
  50 0034 1BB1     		cbz	r3, .L5
  51 0036 836E     		ldr	r3, [r0, #104]
  52 0038 0BB1     		cbz	r3, .L5
  53 003a 9847     		blx	r3
  54 003c 686B     		ldr	r0, [r5, #52]
  55              	.L5:
  56 003e 0023     		movs	r3, #0
  57 0040 80F86C30 		strb	r3, [r0, #108]
  58 0044 0120     		movs	r0, #1
ARM GAS  /tmp/ccjEb5KJ.s 			page 2


  59 0046 38BD     		pop	{r3, r4, r5, pc}
  60              	.L15:
  61 0048 102C     		cmp	r4, #16
  62 004a 14BF     		ite	ne
  63 004c 0120     		movne	r0, #1
  64 004e 0220     		moveq	r0, #2
  65 0050 38BD     		pop	{r3, r4, r5, pc}
  67 0052 00BF     		.section	.text._m_slider_input,"ax",%progbits
  68              		.align	1
  69              		.p2align 2,,3
  70              		.global	_m_slider_input
  71              		.syntax unified
  72              		.thumb
  73              		.thumb_func
  74              		.fpu fpv4-sp-d16
  76              	_m_slider_input:
  77              		@ args = 0, pretend = 0, frame = 16
  78              		@ frame_needed = 0, uses_anonymous_args = 0
  79 0000 30B5     		push	{r4, r5, lr}
  80 0002 85B0     		sub	sp, sp, #20
  81 0004 04AC     		add	r4, sp, #16
  82 0006 04E90E00 		stmdb	r4, {r1, r2, r3}
  83 000a 0446     		mov	r4, r0
  84 000c 1C48     		ldr	r0, .L49
  85 000e E26A     		ldr	r2, [r4, #44]
  86 0010 6168     		ldr	r1, [r4, #4]
  87 0012 9DF80450 		ldrb	r5, [sp, #4]	@ zero_extendqisi2
  88 0016 FFF7FEFF 		bl	printf
  89 001a 9DF80530 		ldrb	r3, [sp, #5]	@ zero_extendqisi2
  90 001e 606B     		ldr	r0, [r4, #52]
  91 0020 012B     		cmp	r3, #1
  92 0022 08D0     		beq	.L17
  93 0024 836D     		ldr	r3, [r0, #88]
  94 0026 C26D     		ldr	r2, [r0, #92]
  95 0028 9B1A     		subs	r3, r3, r2
  96 002a 142B     		cmp	r3, #20
  97 002c 1ADD     		ble	.L29
  98 002e 029B     		ldr	r3, [sp, #8]
  99 0030 B3F5C87F 		cmp	r3, #400
 100 0034 16D9     		bls	.L29
 101              	.L17:
 102 0036 226A     		ldr	r2, [r4, #32]
 103 0038 636A     		ldr	r3, [r4, #36]
 104 003a 9A42     		cmp	r2, r3
 105 003c 15DB     		blt	.L48
 106 003e 032D     		cmp	r5, #3
 107 0040 17D0     		beq	.L25
 108 0042 0223     		movs	r3, #2
 109              	.L26:
 110 0044 AB42     		cmp	r3, r5
 111 0046 0DD1     		bne	.L29
 112 0048 436D     		ldr	r3, [r0, #84]
 113 004a C16D     		ldr	r1, [r0, #92]
 114 004c 1A68     		ldr	r2, [r3]
 115 004e 8A42     		cmp	r2, r1
 116 0050 C8BF     		it	gt
 117 0052 02F1FF31 		addgt	r1, r2, #-1
ARM GAS  /tmp/ccjEb5KJ.s 			page 3


 118              	.L23:
 119 0056 426E     		ldr	r2, [r0, #100]
 120 0058 1960     		str	r1, [r3]
 121 005a 02B1     		cbz	r2, .L45
 122 005c 9047     		blx	r2
 123              	.L45:
 124 005e 0020     		movs	r0, #0
 125 0060 05B0     		add	sp, sp, #20
 126              		@ sp needed
 127 0062 30BD     		pop	{r4, r5, pc}
 128              	.L29:
 129 0064 0120     		movs	r0, #1
 130 0066 05B0     		add	sp, sp, #20
 131              		@ sp needed
 132 0068 30BD     		pop	{r4, r5, pc}
 133              	.L48:
 134 006a 042D     		cmp	r5, #4
 135 006c 01D0     		beq	.L25
 136 006e 0523     		movs	r3, #5
 137 0070 E8E7     		b	.L26
 138              	.L25:
 139 0072 436D     		ldr	r3, [r0, #84]
 140 0074 816D     		ldr	r1, [r0, #88]
 141 0076 1A68     		ldr	r2, [r3]
 142 0078 8A42     		cmp	r2, r1
 143 007a ECDA     		bge	.L23
 144 007c 511C     		adds	r1, r2, #1
 145 007e EAE7     		b	.L23
 146              	.L50:
 147              		.align	2
 148              	.L49:
 149 0080 00000000 		.word	.LC0
 151              		.section	.text._m_slider_draw,"ax",%progbits
 152              		.align	1
 153              		.p2align 2,,3
 154              		.global	_m_slider_draw
 155              		.syntax unified
 156              		.thumb
 157              		.thumb_func
 158              		.fpu fpv4-sp-d16
 160              	_m_slider_draw:
 161              		@ args = 0, pretend = 0, frame = 0
 162              		@ frame_needed = 0, uses_anonymous_args = 0
 163 0000 2DE9F043 		push	{r4, r5, r6, r7, r8, r9, lr}
 164 0004 466B     		ldr	r6, [r0, #52]
 165 0006 96F86C30 		ldrb	r3, [r6, #108]	@ zero_extendqisi2
 166 000a 85B0     		sub	sp, sp, #20
 167 000c 0446     		mov	r4, r0
 168 000e 002B     		cmp	r3, #0
 169 0010 40F0AE80 		bne	.L52
 170 0014 376E     		ldr	r7, [r6, #96]
 171 0016 1C37     		adds	r7, r7, #28
 172              	.L53:
 173 0018 2368     		ldr	r3, [r4]
 174 001a 3A46     		mov	r2, r7
 175 001c 1868     		ldr	r0, [r3]
 176 001e 04F11801 		add	r1, r4, #24
ARM GAS  /tmp/ccjEb5KJ.s 			page 4


 177 0022 FFF7FEFF 		bl	_m_e_helper_draw_box
 178 0026 236A     		ldr	r3, [r4, #32]
 179 0028 626A     		ldr	r2, [r4, #36]
 180 002a 9342     		cmp	r3, r2
 181 002c C0F2A680 		blt	.L54
 182 0030 706D     		ldr	r0, [r6, #84]
 183 0032 616B     		ldr	r1, [r4, #52]
 184 0034 D0F80080 		ldr	r8, [r0]
 185 0038 D6F85CC0 		ldr	ip, [r6, #92]
 186 003c B56D     		ldr	r5, [r6, #88]
 187 003e 91F86CE0 		ldrb	lr, [r1, #108]	@ zero_extendqisi2
 188 0042 2068     		ldr	r0, [r4]
 189 0044 B4F92810 		ldrsh	r1, [r4, #40]
 190 0048 0068     		ldr	r0, [r0]
 191 004a A8EB0C06 		sub	r6, r8, ip
 192 004e 053B     		subs	r3, r3, #5
 193 0050 03FB06F3 		mul	r3, r3, r6
 194 0054 1FFA82F8 		uxth	r8, r2
 195 0058 A5EB0C05 		sub	r5, r5, ip
 196 005c B4F92C20 		ldrsh	r2, [r4, #44]
 197 0060 93FBF5F5 		sdiv	r5, r3, r5
 198 0064 7B68     		ldr	r3, [r7, #4]
 199 0066 BEF1000F 		cmp	lr, #0
 200 006a 40F02D81 		bne	.L63
 201 006e 3E68     		ldr	r6, [r7]
 202              	.L55:
 203 0070 0296     		str	r6, [sp, #8]
 204 0072 0193     		str	r3, [sp, #4]
 205 0074 CDF80080 		str	r8, [sp]
 206 0078 0323     		movs	r3, #3
 207 007a FFF7FEFF 		bl	makise_d_rect_filled
 208 007e 626B     		ldr	r2, [r4, #52]
 209 0080 216A     		ldr	r1, [r4, #32]
 210 0082 A06A     		ldr	r0, [r4, #40]
 211 0084 2368     		ldr	r3, [r4]
 212 0086 92F86C60 		ldrb	r6, [r2, #108]	@ zero_extendqisi2
 213 008a D3F800C0 		ldr	ip, [r3]
 214 008e B4F92C20 		ldrsh	r2, [r4, #44]
 215 0092 B4F824E0 		ldrh	lr, [r4, #36]
 216 0096 7B68     		ldr	r3, [r7, #4]
 217 0098 0844     		add	r0, r0, r1
 218 009a C11E     		subs	r1, r0, #3
 219 009c 09B2     		sxth	r1, r1
 220 009e 002E     		cmp	r6, #0
 221 00a0 40F01481 		bne	.L64
 222 00a4 3E68     		ldr	r6, [r7]
 223              	.L56:
 224 00a6 0296     		str	r6, [sp, #8]
 225 00a8 6046     		mov	r0, ip
 226 00aa 0193     		str	r3, [sp, #4]
 227 00ac CDF800E0 		str	lr, [sp]
 228 00b0 0323     		movs	r3, #3
 229 00b2 FFF7FEFF 		bl	makise_d_rect_filled
 230 00b6 666A     		ldr	r6, [r4, #36]
 231 00b8 884B     		ldr	r3, .L70
 232 00ba 606B     		ldr	r0, [r4, #52]
 233 00bc E26A     		ldr	r2, [r4, #44]
ARM GAS  /tmp/ccjEb5KJ.s 			page 5


 234 00be A16A     		ldr	r1, [r4, #40]
 235 00c0 90F86CE0 		ldrb	lr, [r0, #108]	@ zero_extendqisi2
 236 00c4 2068     		ldr	r0, [r4]
 237 00c6 83FB068C 		smull	r8, ip, r3, r6
 238 00ca ACEBE67C 		sub	ip, ip, r6, asr #31
 239 00ce B600     		lsls	r6, r6, #2
 240 00d0 83FB0683 		smull	r8, r3, r3, r6
 241 00d4 A3EBE673 		sub	r3, r3, r6, asr #31
 242 00d8 6244     		add	r2, r2, ip
 243 00da 0231     		adds	r1, r1, #2
 244 00dc ADB2     		uxth	r5, r5
 245 00de 9BB2     		uxth	r3, r3
 246 00e0 12B2     		sxth	r2, r2
 247 00e2 09B2     		sxth	r1, r1
 248 00e4 0068     		ldr	r0, [r0]
 249 00e6 7E68     		ldr	r6, [r7, #4]
 250 00e8 BEF1000F 		cmp	lr, #0
 251 00ec 40F0F480 		bne	.L65
 252 00f0 D7F800E0 		ldr	lr, [r7]
 253              	.L57:
 254 00f4 8DE84840 		stm	sp, {r3, r6, lr}
 255 00f8 2B46     		mov	r3, r5
 256 00fa FFF7FEFF 		bl	makise_d_rect_filled
 257 00fe 666A     		ldr	r6, [r4, #36]
 258 0100 764A     		ldr	r2, .L70
 259 0102 236A     		ldr	r3, [r4, #32]
 260 0104 A16A     		ldr	r1, [r4, #40]
 261 0106 2068     		ldr	r0, [r4]
 262 0108 4FEA860C 		lsl	ip, r6, #2
 263 010c 82FB0C8E 		smull	r8, lr, r2, ip
 264 0110 AEEBEC7E 		sub	lr, lr, ip, asr #31
 265 0114 82FB0682 		smull	r8, r2, r2, r6
 266 0118 D4F82CC0 		ldr	ip, [r4, #44]
 267 011c 0068     		ldr	r0, [r0]
 268 011e A3F10508 		sub	r8, r3, #5
 269 0122 A2EBE672 		sub	r2, r2, r6, asr #31
 270 0126 7B68     		ldr	r3, [r7, #4]
 271 0128 0193     		str	r3, [sp, #4]
 272 012a 0331     		adds	r1, r1, #3
 273 012c 1FFA8EF6 		uxth	r6, lr
 274 0130 6244     		add	r2, r2, ip
 275 0132 A8EB0503 		sub	r3, r8, r5
 276 0136 2944     		add	r1, r1, r5
 277 0138 0096     		str	r6, [sp]
 278 013a 12B2     		sxth	r2, r2
 279 013c 9BB2     		uxth	r3, r3
 280 013e 09B2     		sxth	r1, r1
 281 0140 FFF7FEFF 		bl	makise_d_rect
 282 0144 E26A     		ldr	r2, [r4, #44]
 283 0146 616A     		ldr	r1, [r4, #36]
 284 0148 A36A     		ldr	r3, [r4, #40]
 285 014a 2068     		ldr	r0, [r4]
 286 014c 7C68     		ldr	r4, [r7, #4]
 287 014e 0068     		ldr	r0, [r0]
 288 0150 0194     		str	r4, [sp, #4]
 289 0152 0233     		adds	r3, r3, #2
 290 0154 8C18     		adds	r4, r1, r2
ARM GAS  /tmp/ccjEb5KJ.s 			page 6


 291 0156 2B44     		add	r3, r3, r5
 292 0158 013C     		subs	r4, r4, #1
 293 015a 1BB2     		sxth	r3, r3
 294 015c 24B2     		sxth	r4, r4
 295 015e 1946     		mov	r1, r3
 296 0160 0094     		str	r4, [sp]
 297 0162 12B2     		sxth	r2, r2
 298 0164 FFF7FEFF 		bl	makise_d_line
 299 0168 0120     		movs	r0, #1
 300 016a 05B0     		add	sp, sp, #20
 301              		@ sp needed
 302 016c BDE8F083 		pop	{r4, r5, r6, r7, r8, r9, pc}
 303              	.L52:
 304 0170 012B     		cmp	r3, #1
 305 0172 0ABF     		itet	eq
 306 0174 376E     		ldreq	r7, [r6, #96]
 307 0176 0027     		movne	r7, #0
 308 0178 2C37     		addeq	r7, r7, #44
 309 017a 4DE7     		b	.L53
 310              	.L54:
 311 017c 716D     		ldr	r1, [r6, #84]
 312 017e D6F85C80 		ldr	r8, [r6, #92]
 313 0182 0D68     		ldr	r5, [r1]
 314 0184 616B     		ldr	r1, [r4, #52]
 315 0186 B66D     		ldr	r6, [r6, #88]
 316 0188 91F86CE0 		ldrb	lr, [r1, #108]	@ zero_extendqisi2
 317 018c 2068     		ldr	r0, [r4]
 318 018e B4F92810 		ldrsh	r1, [r4, #40]
 319 0192 0068     		ldr	r0, [r0]
 320 0194 A5EB080C 		sub	ip, r5, r8
 321 0198 551F     		subs	r5, r2, #5
 322 019a A6EB0806 		sub	r6, r6, r8
 323 019e 05FB0CF5 		mul	r5, r5, ip
 324 01a2 95FBF6F5 		sdiv	r5, r5, r6
 325 01a6 551B     		subs	r5, r2, r5
 326 01a8 9BB2     		uxth	r3, r3
 327 01aa 053D     		subs	r5, r5, #5
 328 01ac B4F92C20 		ldrsh	r2, [r4, #44]
 329 01b0 7E68     		ldr	r6, [r7, #4]
 330 01b2 BEF1000F 		cmp	lr, #0
 331 01b6 40F08580 		bne	.L66
 332 01ba D7F800C0 		ldr	ip, [r7]
 333              	.L59:
 334 01be 0196     		str	r6, [sp, #4]
 335 01c0 4FF0030E 		mov	lr, #3
 336 01c4 CDF800E0 		str	lr, [sp]
 337 01c8 CDF808C0 		str	ip, [sp, #8]
 338 01cc FFF7FEFF 		bl	makise_d_rect_filled
 339 01d0 616B     		ldr	r1, [r4, #52]
 340 01d2 626A     		ldr	r2, [r4, #36]
 341 01d4 E06A     		ldr	r0, [r4, #44]
 342 01d6 2368     		ldr	r3, [r4]
 343 01d8 91F86CE0 		ldrb	lr, [r1, #108]	@ zero_extendqisi2
 344 01dc D3F80080 		ldr	r8, [r3]
 345 01e0 B4F92810 		ldrsh	r1, [r4, #40]
 346 01e4 238C     		ldrh	r3, [r4, #32]
 347 01e6 7E68     		ldr	r6, [r7, #4]
ARM GAS  /tmp/ccjEb5KJ.s 			page 7


 348 01e8 1044     		add	r0, r0, r2
 349 01ea C21E     		subs	r2, r0, #3
 350 01ec 12B2     		sxth	r2, r2
 351 01ee BEF1000F 		cmp	lr, #0
 352 01f2 6FD1     		bne	.L67
 353 01f4 D7F800C0 		ldr	ip, [r7]
 354              	.L60:
 355 01f8 CDF808C0 		str	ip, [sp, #8]
 356 01fc 4FF0030E 		mov	lr, #3
 357 0200 4046     		mov	r0, r8
 358 0202 0196     		str	r6, [sp, #4]
 359 0204 CDF800E0 		str	lr, [sp]
 360 0208 FFF7FEFF 		bl	makise_d_rect_filled
 361 020c 2368     		ldr	r3, [r4]
 362 020e D4F820E0 		ldr	lr, [r4, #32]
 363 0212 DFF8C880 		ldr	r8, .L70
 364 0216 1868     		ldr	r0, [r3]
 365 0218 7B68     		ldr	r3, [r7, #4]
 366 021a A16A     		ldr	r1, [r4, #40]
 367 021c E26A     		ldr	r2, [r4, #44]
 368 021e 0193     		str	r3, [sp, #4]
 369 0220 4FEA8E0C 		lsl	ip, lr, #2
 370 0224 88FB0E36 		smull	r3, r6, r8, lr
 371 0228 A6EBEE76 		sub	r6, r6, lr, asr #31
 372 022c 88FB0C93 		smull	r9, r3, r8, ip
 373 0230 ADB2     		uxth	r5, r5
 374 0232 A3EBEC73 		sub	r3, r3, ip, asr #31
 375 0236 3144     		add	r1, r1, r6
 376 0238 0232     		adds	r2, r2, #2
 377 023a 9BB2     		uxth	r3, r3
 378 023c 09B2     		sxth	r1, r1
 379 023e 12B2     		sxth	r2, r2
 380 0240 0095     		str	r5, [sp]
 381 0242 FFF7FEFF 		bl	makise_d_rect
 382 0246 236A     		ldr	r3, [r4, #32]
 383 0248 606B     		ldr	r0, [r4, #52]
 384 024a E26A     		ldr	r2, [r4, #44]
 385 024c 666A     		ldr	r6, [r4, #36]
 386 024e A16A     		ldr	r1, [r4, #40]
 387 0250 90F86CE0 		ldrb	lr, [r0, #108]	@ zero_extendqisi2
 388 0254 2068     		ldr	r0, [r4]
 389 0256 88FB039C 		smull	r9, ip, r8, r3
 390 025a 4FEA8309 		lsl	r9, r3, #2
 391 025e ACEBE37C 		sub	ip, ip, r3, asr #31
 392 0262 0332     		adds	r2, r2, #3
 393 0264 88FB0983 		smull	r8, r3, r8, r9
 394 0268 053E     		subs	r6, r6, #5
 395 026a 6144     		add	r1, r1, ip
 396 026c A3EBE973 		sub	r3, r3, r9, asr #31
 397 0270 2A44     		add	r2, r2, r5
 398 0272 761B     		subs	r6, r6, r5
 399 0274 D0F800C0 		ldr	ip, [r0]
 400 0278 7868     		ldr	r0, [r7, #4]
 401 027a 9BB2     		uxth	r3, r3
 402 027c 09B2     		sxth	r1, r1
 403 027e 12B2     		sxth	r2, r2
 404 0280 B6B2     		uxth	r6, r6
ARM GAS  /tmp/ccjEb5KJ.s 			page 8


 405 0282 BEF1000F 		cmp	lr, #0
 406 0286 23D1     		bne	.L68
 407 0288 D7F800E0 		ldr	lr, [r7]
 408              	.L61:
 409 028c CDF808E0 		str	lr, [sp, #8]
 410 0290 0190     		str	r0, [sp, #4]
 411 0292 0096     		str	r6, [sp]
 412 0294 6046     		mov	r0, ip
 413 0296 FFF7FEFF 		bl	makise_d_rect_filled
 414 029a E26A     		ldr	r2, [r4, #44]
 415 029c A16A     		ldr	r1, [r4, #40]
 416 029e 236A     		ldr	r3, [r4, #32]
 417 02a0 2068     		ldr	r0, [r4]
 418 02a2 7C68     		ldr	r4, [r7, #4]
 419 02a4 0068     		ldr	r0, [r0]
 420 02a6 0194     		str	r4, [sp, #4]
 421 02a8 0232     		adds	r2, r2, #2
 422 02aa 2A44     		add	r2, r2, r5
 423 02ac 0B44     		add	r3, r3, r1
 424 02ae 12B2     		sxth	r2, r2
 425 02b0 013B     		subs	r3, r3, #1
 426 02b2 0092     		str	r2, [sp]
 427 02b4 1BB2     		sxth	r3, r3
 428 02b6 09B2     		sxth	r1, r1
 429 02b8 FFF7FEFF 		bl	makise_d_line
 430 02bc 0120     		movs	r0, #1
 431 02be 05B0     		add	sp, sp, #20
 432              		@ sp needed
 433 02c0 BDE8F083 		pop	{r4, r5, r6, r7, r8, r9, pc}
 434              	.L66:
 435 02c4 B446     		mov	ip, r6
 436 02c6 7AE7     		b	.L59
 437              	.L63:
 438 02c8 1E46     		mov	r6, r3
 439 02ca D1E6     		b	.L55
 440              	.L64:
 441 02cc 1E46     		mov	r6, r3
 442 02ce EAE6     		b	.L56
 443              	.L68:
 444 02d0 8646     		mov	lr, r0
 445 02d2 DBE7     		b	.L61
 446              	.L67:
 447 02d4 B446     		mov	ip, r6
 448 02d6 8FE7     		b	.L60
 449              	.L65:
 450 02d8 B646     		mov	lr, r6
 451 02da 0BE7     		b	.L57
 452              	.L71:
 453              		.align	2
 454              	.L70:
 455 02dc ABAAAA2A 		.word	715827883
 457              		.section	.text.m_create_slider,"ax",%progbits
 458              		.align	1
 459              		.p2align 2,,3
 460              		.global	m_create_slider
 461              		.syntax unified
 462              		.thumb
ARM GAS  /tmp/ccjEb5KJ.s 			page 9


 463              		.thumb_func
 464              		.fpu fpv4-sp-d16
 466              	m_create_slider:
 467              		@ args = 32, pretend = 0, frame = 8
 468              		@ frame_needed = 0, uses_anonymous_args = 0
 469 0000 2DE9F04F 		push	{r4, r5, r6, r7, r8, r9, r10, fp, lr}
 470 0004 83B0     		sub	sp, sp, #12
 471 0006 0446     		mov	r4, r0
 472 0008 0C9D     		ldr	r5, [sp, #48]
 473 000a 2048     		ldr	r0, .L76
 474 000c 204F     		ldr	r7, .L76+4
 475 000e 214E     		ldr	r6, .L76+8
 476 0010 DDF848B0 		ldr	fp, [sp, #72]
 477 0014 DDF84CA0 		ldr	r10, [sp, #76]
 478 0018 8846     		mov	r8, r1
 479 001a 0968     		ldr	r1, [r1]
 480 001c 6160     		str	r1, [r4, #4]
 481 001e 4FF00109 		mov	r9, #1
 482 0022 0021     		movs	r1, #0
 483 0024 2362     		str	r3, [r4, #32]
 484 0026 6562     		str	r5, [r4, #36]
 485 0028 0D9B     		ldr	r3, [sp, #52]
 486 002a E261     		str	r2, [r4, #28]
 487 002c 0EAD     		add	r5, sp, #56
 488 002e 119A     		ldr	r2, [sp, #68]
 489 0030 A764     		str	r7, [r4, #72]
 490 0032 E664     		str	r6, [r4, #76]
 491 0034 A362     		str	r3, [r4, #40]
 492 0036 E0CD     		ldm	r5, {r5, r6, r7}
 493 0038 2164     		str	r1, [r4, #64]
 494 003a 6164     		str	r1, [r4, #68]
 495 003c 2165     		str	r1, [r4, #80]
 496 003e A463     		str	r4, [r4, #56]
 497 0040 E063     		str	r0, [r4, #60]
 498 0042 84F81890 		strb	r9, [r4, #24]
 499 0046 0192     		str	r2, [sp, #4]
 500 0048 FFF7FEFF 		bl	makise_g_newid
 501 004c 84F83490 		strb	r9, [r4, #52]
 502 0050 A060     		str	r0, [r4, #8]
 503 0052 A665     		str	r6, [r4, #88]
 504 0054 E765     		str	r7, [r4, #92]
 505 0056 2B68     		ldr	r3, [r5]
 506 0058 019A     		ldr	r2, [sp, #4]
 507 005a 6565     		str	r5, [r4, #84]
 508 005c 9E42     		cmp	r6, r3
 509 005e BCBF     		itt	lt
 510 0060 3346     		movlt	r3, r6
 511 0062 2E60     		strlt	r6, [r5]
 512 0064 9F42     		cmp	r7, r3
 513 0066 C8BF     		it	gt
 514 0068 2F60     		strgt	r7, [r5]
 515 006a 211D     		adds	r1, r4, #4
 516 006c 4046     		mov	r0, r8
 517 006e 6266     		str	r2, [r4, #100]
 518 0070 C4F868B0 		str	fp, [r4, #104]
 519 0074 C4F860A0 		str	r10, [r4, #96]
 520 0078 FFF7FEFF 		bl	makise_g_cont_add
ARM GAS  /tmp/ccjEb5KJ.s 			page 10


 521 007c A168     		ldr	r1, [r4, #8]
 522 007e 0648     		ldr	r0, .L76+12
 523 0080 03B0     		add	sp, sp, #12
 524              		@ sp needed
 525 0082 BDE8F04F 		pop	{r4, r5, r6, r7, r8, r9, r10, fp, lr}
 526 0086 FFF7FEBF 		b	printf
 527              	.L77:
 528 008a 00BF     		.align	2
 529              	.L76:
 530 008c 00000000 		.word	_m_slider_draw
 531 0090 00000000 		.word	_m_slider_input
 532 0094 00000000 		.word	_m_slider_focus
 533 0098 00000000 		.word	.LC1
 535              		.comm	makise_color_palette,4,4
 536              		.section	.rodata._m_slider_input.str1.4,"aMS",%progbits,1
 537              		.align	2
 538              	.LC0:
 539 0000 62757420 		.ascii	"but click %d %d\012\000"
 539      636C6963 
 539      6B202564 
 539      2025640A 
 539      00
 540              		.section	.rodata.m_create_slider.str1.4,"aMS",%progbits,1
 541              		.align	2
 542              	.LC1:
 543 0000 536C6964 		.ascii	"Slider %d created\012\000"
 543      65722025 
 543      64206372 
 543      65617465 
 543      640A00
 544              		.ident	"GCC: (Arch Repository) 6.3.0"
ARM GAS  /tmp/ccjEb5KJ.s 			page 11

