ARM GAS  /tmp/ccvXT0sk.s 			page 1


   1              		.cpu cortex-m4
   2              		.eabi_attribute 27, 1
   3              		.eabi_attribute 28, 1
   4              		.eabi_attribute 23, 1
   5              		.eabi_attribute 24, 1
   6              		.eabi_attribute 25, 1
   7              		.eabi_attribute 26, 1
   8              		.eabi_attribute 30, 2
   9              		.eabi_attribute 34, 1
  10              		.eabi_attribute 18, 4
  11              		.file	"makise_e_text_field.c"
  12              		.section	.text._m_textfield_draw,"ax",%progbits
  13              		.align	1
  14              		.p2align 2,,3
  15              		.global	_m_textfield_draw
  16              		.syntax unified
  17              		.thumb
  18              		.thumb_func
  19              		.fpu fpv4-sp-d16
  21              	_m_textfield_draw:
  22              		@ args = 0, pretend = 0, frame = 0
  23              		@ frame_needed = 0, uses_anonymous_args = 0
  24 0000 70B5     		push	{r4, r5, r6, lr}
  25 0002 426B     		ldr	r2, [r0, #52]
  26 0004 0368     		ldr	r3, [r0]
  27 0006 956D     		ldr	r5, [r2, #88]
  28 0008 0446     		mov	r4, r0
  29 000a 86B0     		sub	sp, sp, #24
  30 000c 00F11801 		add	r1, r0, #24
  31 0010 05F11C02 		add	r2, r5, #28
  32 0014 1868     		ldr	r0, [r3]
  33 0016 FFF7FEFF 		bl	_m_e_helper_draw_box
  34 001a 636B     		ldr	r3, [r4, #52]
  35 001c 2268     		ldr	r2, [r4]
  36 001e 2E6A     		ldr	r6, [r5, #32]
  37 0020 9D6D     		ldr	r5, [r3, #88]
  38 0022 596D     		ldr	r1, [r3, #84]
  39 0024 1068     		ldr	r0, [r2]
  40 0026 226A     		ldr	r2, [r4, #32]
  41 0028 0596     		str	r6, [sp, #20]
  42 002a 2E89     		ldrh	r6, [r5, #8]
  43 002c A36A     		ldr	r3, [r4, #40]
  44 002e 0496     		str	r6, [sp, #16]
  45 0030 043A     		subs	r2, r2, #4
  46 0032 6E68     		ldr	r6, [r5, #4]
  47 0034 A58C     		ldrh	r5, [r4, #36]
  48 0036 A48D     		ldrh	r4, [r4, #44]
  49 0038 0094     		str	r4, [sp]
  50 003a 92B2     		uxth	r2, r2
  51 003c 0233     		adds	r3, r3, #2
  52 003e 0192     		str	r2, [sp, #4]
  53 0040 0396     		str	r6, [sp, #12]
  54 0042 9BB2     		uxth	r3, r3
  55 0044 0295     		str	r5, [sp, #8]
  56 0046 4FF0FF32 		mov	r2, #-1
  57 004a FFF7FEFF 		bl	makise_d_string_frame
  58 004e 0120     		movs	r0, #1
ARM GAS  /tmp/ccvXT0sk.s 			page 2


  59 0050 06B0     		add	sp, sp, #24
  60              		@ sp needed
  61 0052 70BD     		pop	{r4, r5, r6, pc}
  63              		.section	.text.m_create_text_field,"ax",%progbits
  64              		.align	1
  65              		.p2align 2,,3
  66              		.global	m_create_text_field
  67              		.syntax unified
  68              		.thumb
  69              		.thumb_func
  70              		.fpu fpv4-sp-d16
  72              	m_create_text_field:
  73              		@ args = 16, pretend = 0, frame = 0
  74              		@ frame_needed = 0, uses_anonymous_args = 0
  75 0000 2DE9F84F 		push	{r3, r4, r5, r6, r7, r8, r9, r10, fp, lr}
  76 0004 0446     		mov	r4, r0
  77 0006 0868     		ldr	r0, [r1]
  78 0008 6060     		str	r0, [r4, #4]
  79 000a A463     		str	r4, [r4, #56]
  80 000c 0846     		mov	r0, r1
  81 000e 211D     		adds	r1, r4, #4
  82 0010 0025     		movs	r5, #0
  83 0012 9346     		mov	fp, r2
  84 0014 9A46     		mov	r10, r3
  85 0016 DDF82890 		ldr	r9, [sp, #40]
  86 001a DDF82C80 		ldr	r8, [sp, #44]
  87 001e 0C9F     		ldr	r7, [sp, #48]
  88 0020 0D9E     		ldr	r6, [sp, #52]
  89 0022 FFF7FEFF 		bl	makise_g_cont_add
  90 0026 0F49     		ldr	r1, .L5
  91 0028 E163     		str	r1, [r4, #60]
  92 002a 0122     		movs	r2, #1
  93 002c C4F81CB0 		str	fp, [r4, #28]
  94 0030 C4F820A0 		str	r10, [r4, #32]
  95 0034 C4F82490 		str	r9, [r4, #36]
  96 0038 C4F82880 		str	r8, [r4, #40]
  97 003c 2276     		strb	r2, [r4, #24]
  98 003e 2564     		str	r5, [r4, #64]
  99 0040 6564     		str	r5, [r4, #68]
 100 0042 A564     		str	r5, [r4, #72]
 101 0044 E564     		str	r5, [r4, #76]
 102 0046 2565     		str	r5, [r4, #80]
 103 0048 FFF7FEFF 		bl	makise_g_newid
 104 004c 84F83450 		strb	r5, [r4, #52]
 105 0050 A060     		str	r0, [r4, #8]
 106 0052 0146     		mov	r1, r0
 107 0054 6765     		str	r7, [r4, #84]
 108 0056 A665     		str	r6, [r4, #88]
 109 0058 0348     		ldr	r0, .L5+4
 110 005a BDE8F84F 		pop	{r3, r4, r5, r6, r7, r8, r9, r10, fp, lr}
 111 005e FFF7FEBF 		b	printf
 112              	.L6:
 113 0062 00BF     		.align	2
 114              	.L5:
 115 0064 00000000 		.word	_m_textfield_draw
 116 0068 00000000 		.word	.LC0
 118              		.comm	makise_color_palette,4,4
ARM GAS  /tmp/ccvXT0sk.s 			page 3


 119              		.section	.rodata.m_create_text_field.str1.4,"aMS",%progbits,1
 120              		.align	2
 121              	.LC0:
 122 0000 54657874 		.ascii	"Text field %d created\012\000"
 122      20666965 
 122      6C642025 
 122      64206372 
 122      65617465 
 123              		.ident	"GCC: (Arch Repository) 6.3.0"
ARM GAS  /tmp/ccvXT0sk.s 			page 4


DEFINED SYMBOLS
                            *ABS*:0000000000000000 makise_e_text_field.c
     /tmp/ccvXT0sk.s:13     .text._m_textfield_draw:0000000000000000 $t
     /tmp/ccvXT0sk.s:21     .text._m_textfield_draw:0000000000000000 _m_textfield_draw
     /tmp/ccvXT0sk.s:64     .text.m_create_text_field:0000000000000000 $t
     /tmp/ccvXT0sk.s:72     .text.m_create_text_field:0000000000000000 m_create_text_field
     /tmp/ccvXT0sk.s:115    .text.m_create_text_field:0000000000000064 $d
                            *COM*:0000000000000004 makise_color_palette
     /tmp/ccvXT0sk.s:120    .rodata.m_create_text_field.str1.4:0000000000000000 $d

UNDEFINED SYMBOLS
_m_e_helper_draw_box
makise_d_string_frame
makise_g_cont_add
makise_g_newid
printf
