ARM GAS  /tmp/cc9oJRAg.s 			page 1


   1              		.cpu cortex-m4
   2              		.eabi_attribute 27, 1
   3              		.eabi_attribute 28, 1
   4              		.eabi_attribute 23, 1
   5              		.eabi_attribute 24, 1
   6              		.eabi_attribute 25, 1
   7              		.eabi_attribute 26, 1
   8              		.eabi_attribute 30, 2
   9              		.eabi_attribute 34, 1
  10              		.eabi_attribute 18, 4
  11              		.file	"makise_text.c"
  12              		.section	.text.makise_d_char,"ax",%progbits
  13              		.align	1
  14              		.p2align 2,,3
  15              		.global	makise_d_char
  16              		.syntax unified
  17              		.thumb
  18              		.thumb_func
  19              		.fpu fpv4-sp-d16
  21              	makise_d_char:
  22              		@ args = 8, pretend = 0, frame = 8
  23              		@ frame_needed = 0, uses_anonymous_args = 0
  24 0000 2DE9F04F 		push	{r4, r5, r6, r7, r8, r9, r10, fp, lr}
  25 0004 83B0     		sub	sp, sp, #12
  26 0006 C9B2     		uxtb	r1, r1
  27 0008 0C9C     		ldr	r4, [sp, #48]
  28 000a 258A     		ldrh	r5, [r4, #16]
  29 000c 648A     		ldrh	r4, [r4, #18]
  30 000e 491B     		subs	r1, r1, r5
  31 0010 0C9D     		ldr	r5, [sp, #48]
  32 0012 89B2     		uxth	r1, r1
  33 0014 8C42     		cmp	r4, r1
  34 0016 AF88     		ldrh	r7, [r5, #4]
  35 0018 36BF     		itet	cc
  36 001a 0024     		movcc	r4, #0
  37 001c 4C00     		lslcs	r4, r1, #1
  38 001e 2146     		movcc	r1, r4
  39 0020 002F     		cmp	r7, #0
  40 0022 3DD1     		bne	.L22
  41 0024 2E46     		mov	r6, r5
  42 0026 ED68     		ldr	r5, [r5, #12]
  43 0028 3668     		ldr	r6, [r6]
  44 002a 35F804E0 		ldrh	lr, [r5, r4]
  45 002e 0C9C     		ldr	r4, [sp, #48]
  46 0030 0C9D     		ldr	r5, [sp, #48]
  47 0032 A468     		ldr	r4, [r4, #8]
  48 0034 ED88     		ldrh	r5, [r5, #6]
  49 0036 675C     		ldrb	r7, [r4, r1]	@ zero_extendqisi2
  50 0038 7644     		add	r6, r6, lr
  51 003a 75B3     		cbz	r5, .L1
  52 003c 6FB3     		cbz	r7, .L1
  53              	.L4:
  54 003e 0193     		str	r3, [sp, #4]
  55 0040 9346     		mov	fp, r2
  56 0042 8246     		mov	r10, r0
  57 0044 4FF00009 		mov	r9, #0
  58              	.L10:
ARM GAS  /tmp/cc9oJRAg.s 			page 2


  59 0048 019B     		ldr	r3, [sp, #4]
  60 004a 0025     		movs	r5, #0
  61 004c 03EB0908 		add	r8, r3, r9
  62 0050 2C46     		mov	r4, r5
  63 0052 1FFA88F8 		uxth	r8, r8
  64 0056 06E0     		b	.L11
  65              	.L8:
  66 0058 0135     		adds	r5, r5, #1
  67 005a BD42     		cmp	r5, r7
  68 005c 15D0     		beq	.L23
  69              	.L9:
  70 005e 072C     		cmp	r4, #7
  71 0060 84BF     		itt	hi
  72 0062 0136     		addhi	r6, r6, #1
  73 0064 0024     		movhi	r4, #0
  74              	.L11:
  75 0066 3378     		ldrb	r3, [r6]	@ zero_extendqisi2
  76 0068 2341     		asrs	r3, r3, r4
  77 006a 13F0010F 		tst	r3, #1
  78 006e 04F10104 		add	r4, r4, #1
  79 0072 F1D0     		beq	.L8
  80 0074 0BEB0501 		add	r1, fp, r5
  81 0078 89B2     		uxth	r1, r1
  82 007a 0D9B     		ldr	r3, [sp, #52]
  83 007c 4246     		mov	r2, r8
  84 007e 5046     		mov	r0, r10
  85 0080 0135     		adds	r5, r5, #1
  86 0082 FFF7FEFF 		bl	makise_pset
  87 0086 BD42     		cmp	r5, r7
  88 0088 E9D1     		bne	.L9
  89              	.L23:
  90 008a 0C9B     		ldr	r3, [sp, #48]
  91 008c DB88     		ldrh	r3, [r3, #6]
  92 008e 09F10109 		add	r9, r9, #1
  93 0092 9945     		cmp	r9, r3
  94 0094 06F10106 		add	r6, r6, #1
  95 0098 D6D3     		bcc	.L10
  96              	.L1:
  97 009a 03B0     		add	sp, sp, #12
  98              		@ sp needed
  99 009c BDE8F08F 		pop	{r4, r5, r6, r7, r8, r9, r10, fp, pc}
 100              	.L22:
 101 00a0 E968     		ldr	r1, [r5, #12]
 102 00a2 2E68     		ldr	r6, [r5]
 103 00a4 0C5B     		ldrh	r4, [r1, r4]
 104 00a6 E988     		ldrh	r1, [r5, #6]
 105 00a8 2644     		add	r6, r6, r4
 106 00aa 0029     		cmp	r1, #0
 107 00ac C7D1     		bne	.L4
 108 00ae F4E7     		b	.L1
 110              		.section	.text.makise_d_string,"ax",%progbits
 111              		.align	1
 112              		.p2align 2,,3
 113              		.global	makise_d_string
 114              		.syntax unified
 115              		.thumb
 116              		.thumb_func
ARM GAS  /tmp/cc9oJRAg.s 			page 3


 117              		.fpu fpv4-sp-d16
 119              	makise_d_string:
 120              		@ args = 16, pretend = 0, frame = 16
 121              		@ frame_needed = 0, uses_anonymous_args = 0
 122 0000 2DE9F04F 		push	{r4, r5, r6, r7, r8, r9, r10, fp, lr}
 123 0004 85B0     		sub	sp, sp, #20
 124 0006 8346     		mov	fp, r0
 125 0008 9DF83C40 		ldrb	r4, [sp, #60]	@ zero_extendqisi2
 126 000c BDF83850 		ldrh	r5, [sp, #56]
 127 0010 0095     		str	r5, [sp]
 128 0012 012C     		cmp	r4, #1
 129 0014 00F09580 		beq	.L100
 130 0018 022C     		cmp	r4, #2
 131 001a 00F0CB80 		beq	.L101
 132 001e 032C     		cmp	r4, #3
 133 0020 61D0     		beq	.L102
 134              	.L34:
 135 0022 0193     		str	r3, [sp, #4]
 136 0024 002A     		cmp	r2, #0
 137 0026 5BD0     		beq	.L24
 138 0028 0B78     		ldrb	r3, [r1]	@ zero_extendqisi2
 139 002a 002B     		cmp	r3, #0
 140 002c 58D0     		beq	.L24
 141 002e 1098     		ldr	r0, [sp, #64]
 142 0030 8A18     		adds	r2, r1, r2
 143 0032 0392     		str	r2, [sp, #12]
 144 0034 C088     		ldrh	r0, [r0, #6]
 145 0036 4A1C     		adds	r2, r1, #1
 146 0038 0292     		str	r2, [sp, #8]
 147              	.L65:
 148 003a 109A     		ldr	r2, [sp, #64]
 149 003c 118A     		ldrh	r1, [r2, #16]
 150 003e 528A     		ldrh	r2, [r2, #18]
 151 0040 5B1A     		subs	r3, r3, r1
 152 0042 1099     		ldr	r1, [sp, #64]
 153 0044 9342     		cmp	r3, r2
 154 0046 8F88     		ldrh	r7, [r1, #4]
 155 0048 8ABF     		itet	hi
 156 004a 0022     		movhi	r2, #0
 157 004c 5A00     		lslls	r2, r3, #1
 158 004e 1346     		movhi	r3, r2
 159 0050 17B9     		cbnz	r7, .L56
 160 0052 8968     		ldr	r1, [r1, #8]
 161 0054 CF5C     		ldrb	r7, [r1, r3]	@ zero_extendqisi2
 162 0056 1099     		ldr	r1, [sp, #64]
 163              	.L56:
 164 0058 109B     		ldr	r3, [sp, #64]
 165 005a 0E68     		ldr	r6, [r1]
 166 005c DB68     		ldr	r3, [r3, #12]
 167 005e BDF804A0 		ldrh	r10, [sp, #4]
 168 0062 9B5A     		ldrh	r3, [r3, r2]
 169 0064 1E44     		add	r6, r6, r3
 170 0066 0B46     		mov	r3, r1
 171 0068 60B3     		cbz	r0, .L58
 172 006a 4FF00009 		mov	r9, #0
 173              	.L62:
 174 006e 17B3     		cbz	r7, .L63
ARM GAS  /tmp/cc9oJRAg.s 			page 4


 175 0070 009B     		ldr	r3, [sp]
 176 0072 0025     		movs	r5, #0
 177 0074 03EB0908 		add	r8, r3, r9
 178 0078 2C46     		mov	r4, r5
 179 007a 1FFA88F8 		uxth	r8, r8
 180 007e 06E0     		b	.L64
 181              	.L60:
 182 0080 0135     		adds	r5, r5, #1
 183 0082 AF42     		cmp	r7, r5
 184 0084 15D0     		beq	.L103
 185              	.L61:
 186 0086 072C     		cmp	r4, #7
 187 0088 84BF     		itt	hi
 188 008a 0136     		addhi	r6, r6, #1
 189 008c 0024     		movhi	r4, #0
 190              	.L64:
 191 008e 3378     		ldrb	r3, [r6]	@ zero_extendqisi2
 192 0090 2341     		asrs	r3, r3, r4
 193 0092 13F0010F 		tst	r3, #1
 194 0096 04F10104 		add	r4, r4, #1
 195 009a F1D0     		beq	.L60
 196 009c 0AEB0501 		add	r1, r10, r5
 197 00a0 89B2     		uxth	r1, r1
 198 00a2 119B     		ldr	r3, [sp, #68]
 199 00a4 4246     		mov	r2, r8
 200 00a6 5846     		mov	r0, fp
 201 00a8 0135     		adds	r5, r5, #1
 202 00aa FFF7FEFF 		bl	makise_pset
 203 00ae AF42     		cmp	r7, r5
 204 00b0 E9D1     		bne	.L61
 205              	.L103:
 206 00b2 109B     		ldr	r3, [sp, #64]
 207 00b4 D888     		ldrh	r0, [r3, #6]
 208              	.L63:
 209 00b6 09F10109 		add	r9, r9, #1
 210 00ba 8145     		cmp	r9, r0
 211 00bc 06F10106 		add	r6, r6, #1
 212 00c0 D5D3     		bcc	.L62
 213 00c2 109B     		ldr	r3, [sp, #64]
 214              	.L58:
 215 00c4 9B8A     		ldrh	r3, [r3, #20]
 216 00c6 029A     		ldr	r2, [sp, #8]
 217 00c8 0399     		ldr	r1, [sp, #12]
 218 00ca 1F44     		add	r7, r7, r3
 219 00cc 019B     		ldr	r3, [sp, #4]
 220 00ce 8A42     		cmp	r2, r1
 221 00d0 3B44     		add	r3, r3, r7
 222 00d2 0193     		str	r3, [sp, #4]
 223 00d4 04D0     		beq	.L24
 224 00d6 12F8013B 		ldrb	r3, [r2], #1	@ zero_extendqisi2
 225 00da 0292     		str	r2, [sp, #8]
 226 00dc 002B     		cmp	r3, #0
 227 00de ACD1     		bne	.L65
 228              	.L24:
 229 00e0 05B0     		add	sp, sp, #20
 230              		@ sp needed
 231 00e2 BDE8F08F 		pop	{r4, r5, r6, r7, r8, r9, r10, fp, pc}
ARM GAS  /tmp/cc9oJRAg.s 			page 5


 232              	.L102:
 233 00e6 002A     		cmp	r2, #0
 234 00e8 00F0A380 		beq	.L72
 235 00ec 0C78     		ldrb	r4, [r1]	@ zero_extendqisi2
 236 00ee 002C     		cmp	r4, #0
 237 00f0 00F0A980 		beq	.L73
 238 00f4 1098     		ldr	r0, [sp, #64]
 239 00f6 109D     		ldr	r5, [sp, #64]
 240 00f8 8088     		ldrh	r0, [r0, #4]
 241 00fa B5F810E0 		ldrh	lr, [r5, #16]
 242 00fe B5F812C0 		ldrh	ip, [r5, #18]
 243 0102 AE8A     		ldrh	r6, [r5, #20]
 244 0104 0028     		cmp	r0, #0
 245 0106 7AD1     		bne	.L45
 246 0108 AF68     		ldr	r7, [r5, #8]
 247 010a 01EB0208 		add	r8, r1, r2
 248 010e 4D1C     		adds	r5, r1, #1
 249 0110 02E0     		b	.L48
 250              	.L104:
 251 0112 15F8014B 		ldrb	r4, [r5], #1	@ zero_extendqisi2
 252 0116 4CB1     		cbz	r4, .L49
 253              	.L48:
 254 0118 A4EB0E04 		sub	r4, r4, lr
 255 011c 6445     		cmp	r4, ip
 256 011e 88BF     		it	hi
 257 0120 0024     		movhi	r4, #0
 258 0122 A845     		cmp	r8, r5
 259 0124 3C5D     		ldrb	r4, [r7, r4]	@ zero_extendqisi2
 260 0126 3444     		add	r4, r4, r6
 261 0128 2044     		add	r0, r0, r4
 262 012a F2D1     		bne	.L104
 263              	.L49:
 264 012c C0F34F00 		ubfx	r0, r0, #1, #16
 265              	.L44:
 266 0130 109C     		ldr	r4, [sp, #64]
 267 0132 1B1A     		subs	r3, r3, r0
 268 0134 E488     		ldrh	r4, [r4, #6]
 269 0136 0098     		ldr	r0, [sp]
 270 0138 001B     		subs	r0, r0, r4
 271 013a 80B2     		uxth	r0, r0
 272 013c 9BB2     		uxth	r3, r3
 273 013e 0090     		str	r0, [sp]
 274 0140 6FE7     		b	.L34
 275              	.L100:
 276 0142 002A     		cmp	r2, #0
 277 0144 7DD0     		beq	.L66
 278 0146 0C78     		ldrb	r4, [r1]	@ zero_extendqisi2
 279 0148 002C     		cmp	r4, #0
 280 014a 78D0     		beq	.L67
 281 014c 1098     		ldr	r0, [sp, #64]
 282 014e 109D     		ldr	r5, [sp, #64]
 283 0150 8088     		ldrh	r0, [r0, #4]
 284 0152 B5F810E0 		ldrh	lr, [r5, #16]
 285 0156 B5F812C0 		ldrh	ip, [r5, #18]
 286 015a AE8A     		ldrh	r6, [r5, #20]
 287 015c E8B9     		cbnz	r0, .L27
 288 015e AF68     		ldr	r7, [r5, #8]
ARM GAS  /tmp/cc9oJRAg.s 			page 6


 289 0160 01EB0208 		add	r8, r1, r2
 290 0164 4D1C     		adds	r5, r1, #1
 291 0166 02E0     		b	.L30
 292              	.L105:
 293 0168 15F8014B 		ldrb	r4, [r5], #1	@ zero_extendqisi2
 294 016c 4CB1     		cbz	r4, .L31
 295              	.L30:
 296 016e A4EB0E04 		sub	r4, r4, lr
 297 0172 6445     		cmp	r4, ip
 298 0174 88BF     		it	hi
 299 0176 0024     		movhi	r4, #0
 300 0178 A845     		cmp	r8, r5
 301 017a 3C5D     		ldrb	r4, [r7, r4]	@ zero_extendqisi2
 302 017c 3444     		add	r4, r4, r6
 303 017e 2044     		add	r0, r0, r4
 304 0180 F2D1     		bne	.L105
 305              	.L31:
 306 0182 C0F34F00 		ubfx	r0, r0, #1, #16
 307              	.L26:
 308 0186 109C     		ldr	r4, [sp, #64]
 309 0188 1B1A     		subs	r3, r3, r0
 310 018a E488     		ldrh	r4, [r4, #6]
 311 018c 0098     		ldr	r0, [sp]
 312 018e A0EB5400 		sub	r0, r0, r4, lsr #1
 313 0192 80B2     		uxth	r0, r0
 314 0194 9BB2     		uxth	r3, r3
 315 0196 0090     		str	r0, [sp]
 316 0198 43E7     		b	.L34
 317              	.L27:
 318 019a 0644     		add	r6, r6, r0
 319 019c 4C1C     		adds	r4, r1, #1
 320 019e 8D18     		adds	r5, r1, r2
 321 01a0 0020     		movs	r0, #0
 322 01a2 03E0     		b	.L33
 323              	.L106:
 324 01a4 14F8017B 		ldrb	r7, [r4], #1	@ zero_extendqisi2
 325 01a8 002F     		cmp	r7, #0
 326 01aa EAD0     		beq	.L31
 327              	.L33:
 328 01ac AC42     		cmp	r4, r5
 329 01ae 3044     		add	r0, r0, r6
 330 01b0 F8D1     		bne	.L106
 331 01b2 E6E7     		b	.L31
 332              	.L101:
 333 01b4 002A     		cmp	r2, #0
 334 01b6 40D0     		beq	.L69
 335 01b8 0C78     		ldrb	r4, [r1]	@ zero_extendqisi2
 336 01ba 002C     		cmp	r4, #0
 337 01bc 3BD0     		beq	.L70
 338 01be 1098     		ldr	r0, [sp, #64]
 339 01c0 109D     		ldr	r5, [sp, #64]
 340 01c2 8088     		ldrh	r0, [r0, #4]
 341 01c4 B5F810E0 		ldrh	lr, [r5, #16]
 342 01c8 B5F812C0 		ldrh	ip, [r5, #18]
 343 01cc AE8A     		ldrh	r6, [r5, #20]
 344 01ce 18BB     		cbnz	r0, .L37
 345 01d0 AF68     		ldr	r7, [r5, #8]
ARM GAS  /tmp/cc9oJRAg.s 			page 7


 346 01d2 01EB0208 		add	r8, r1, r2
 347 01d6 4D1C     		adds	r5, r1, #1
 348 01d8 02E0     		b	.L40
 349              	.L107:
 350 01da 15F8014B 		ldrb	r4, [r5], #1	@ zero_extendqisi2
 351 01de 4CB1     		cbz	r4, .L41
 352              	.L40:
 353 01e0 A4EB0E04 		sub	r4, r4, lr
 354 01e4 6445     		cmp	r4, ip
 355 01e6 88BF     		it	hi
 356 01e8 0024     		movhi	r4, #0
 357 01ea A845     		cmp	r8, r5
 358 01ec 3C5D     		ldrb	r4, [r7, r4]	@ zero_extendqisi2
 359 01ee 3444     		add	r4, r4, r6
 360 01f0 2044     		add	r0, r0, r4
 361 01f2 F2D1     		bne	.L107
 362              	.L41:
 363 01f4 C0F34F00 		ubfx	r0, r0, #1, #16
 364              	.L36:
 365 01f8 1B1A     		subs	r3, r3, r0
 366 01fa 9BB2     		uxth	r3, r3
 367 01fc 11E7     		b	.L34
 368              	.L45:
 369 01fe 0644     		add	r6, r6, r0
 370 0200 4C1C     		adds	r4, r1, #1
 371 0202 8D18     		adds	r5, r1, r2
 372 0204 0020     		movs	r0, #0
 373 0206 03E0     		b	.L51
 374              	.L108:
 375 0208 14F8017B 		ldrb	r7, [r4], #1	@ zero_extendqisi2
 376 020c 002F     		cmp	r7, #0
 377 020e 8DD0     		beq	.L49
 378              	.L51:
 379 0210 A542     		cmp	r5, r4
 380 0212 3044     		add	r0, r0, r6
 381 0214 F8D1     		bne	.L108
 382 0216 89E7     		b	.L49
 383              	.L37:
 384 0218 0644     		add	r6, r6, r0
 385 021a 4C1C     		adds	r4, r1, #1
 386 021c 8D18     		adds	r5, r1, r2
 387 021e 0020     		movs	r0, #0
 388 0220 03E0     		b	.L43
 389              	.L109:
 390 0222 14F8017B 		ldrb	r7, [r4], #1	@ zero_extendqisi2
 391 0226 002F     		cmp	r7, #0
 392 0228 E4D0     		beq	.L41
 393              	.L43:
 394 022a A542     		cmp	r5, r4
 395 022c 3044     		add	r0, r0, r6
 396 022e F8D1     		bne	.L109
 397 0230 E0E7     		b	.L41
 398              	.L72:
 399 0232 1046     		mov	r0, r2
 400 0234 7CE7     		b	.L44
 401              	.L70:
 402 0236 2046     		mov	r0, r4
ARM GAS  /tmp/cc9oJRAg.s 			page 8


 403 0238 DEE7     		b	.L36
 404              	.L69:
 405 023a 1046     		mov	r0, r2
 406 023c DCE7     		b	.L36
 407              	.L67:
 408 023e 2046     		mov	r0, r4
 409 0240 A1E7     		b	.L26
 410              	.L66:
 411 0242 1046     		mov	r0, r2
 412 0244 9FE7     		b	.L26
 413              	.L73:
 414 0246 2046     		mov	r0, r4
 415 0248 72E7     		b	.L44
 417 024a 00BF     		.section	.text.makise_d_string_width,"ax",%progbits
 418              		.align	1
 419              		.p2align 2,,3
 420              		.global	makise_d_string_width
 421              		.syntax unified
 422              		.thumb
 423              		.thumb_func
 424              		.fpu fpv4-sp-d16
 426              	makise_d_string_width:
 427              		@ args = 0, pretend = 0, frame = 0
 428              		@ frame_needed = 0, uses_anonymous_args = 0
 429 0000 51B3     		cbz	r1, .L119
 430 0002 0378     		ldrb	r3, [r0]	@ zero_extendqisi2
 431 0004 53B3     		cbz	r3, .L120
 432 0006 F0B5     		push	{r4, r5, r6, r7, lr}
 433 0008 9588     		ldrh	r5, [r2, #4]
 434 000a 178A     		ldrh	r7, [r2, #16]
 435 000c B2F812E0 		ldrh	lr, [r2, #18]
 436 0010 968A     		ldrh	r6, [r2, #20]
 437 0012 9DB9     		cbnz	r5, .L112
 438 0014 D2F808C0 		ldr	ip, [r2, #8]
 439 0018 4418     		adds	r4, r0, r1
 440 001a 421C     		adds	r2, r0, #1
 441 001c 2846     		mov	r0, r5
 442 001e 02E0     		b	.L115
 443              	.L129:
 444 0020 12F8013B 		ldrb	r3, [r2], #1	@ zero_extendqisi2
 445 0024 BBB1     		cbz	r3, .L128
 446              	.L115:
 447 0026 DB1B     		subs	r3, r3, r7
 448 0028 7345     		cmp	r3, lr
 449 002a 88BF     		it	hi
 450 002c 0023     		movhi	r3, #0
 451 002e 9442     		cmp	r4, r2
 452 0030 1CF80330 		ldrb	r3, [ip, r3]	@ zero_extendqisi2
 453 0034 3344     		add	r3, r3, r6
 454 0036 1844     		add	r0, r0, r3
 455 0038 F2D1     		bne	.L129
 456              	.L110:
 457 003a F0BD     		pop	{r4, r5, r6, r7, pc}
 458              	.L112:
 459 003c 4218     		adds	r2, r0, r1
 460 003e 431C     		adds	r3, r0, #1
 461 0040 AC19     		adds	r4, r5, r6
ARM GAS  /tmp/cc9oJRAg.s 			page 9


 462 0042 0020     		movs	r0, #0
 463 0044 02E0     		b	.L118
 464              	.L131:
 465 0046 13F8011B 		ldrb	r1, [r3], #1	@ zero_extendqisi2
 466 004a 19B1     		cbz	r1, .L130
 467              	.L118:
 468 004c 9342     		cmp	r3, r2
 469 004e 2044     		add	r0, r0, r4
 470 0050 F9D1     		bne	.L131
 471 0052 F2E7     		b	.L110
 472              	.L130:
 473 0054 F0BD     		pop	{r4, r5, r6, r7, pc}
 474              	.L128:
 475 0056 F0BD     		pop	{r4, r5, r6, r7, pc}
 476              	.L119:
 477 0058 0846     		mov	r0, r1
 478 005a 7047     		bx	lr
 479              	.L120:
 480 005c 1846     		mov	r0, r3
 481 005e 7047     		bx	lr
 483              		.section	.text.makise_d_string_frame,"ax",%progbits
 484              		.align	1
 485              		.p2align 2,,3
 486              		.global	makise_d_string_frame
 487              		.syntax unified
 488              		.thumb
 489              		.thumb_func
 490              		.fpu fpv4-sp-d16
 492              	makise_d_string_frame:
 493              		@ args = 24, pretend = 0, frame = 40
 494              		@ frame_needed = 0, uses_anonymous_args = 0
 495 0000 2DE9F04F 		push	{r4, r5, r6, r7, r8, r9, r10, fp, lr}
 496 0004 8BB0     		sub	sp, sp, #44
 497 0006 BDF86040 		ldrh	r4, [sp, #96]
 498 000a 0694     		str	r4, [sp, #24]
 499 000c BDF85040 		ldrh	r4, [sp, #80]
 500 0010 BDF85450 		ldrh	r5, [sp, #84]
 501 0014 BDF85860 		ldrh	r6, [sp, #88]
 502 0018 0394     		str	r4, [sp, #12]
 503 001a 002A     		cmp	r2, #0
 504 001c 7BD0     		beq	.L132
 505 001e 0C78     		ldrb	r4, [r1]	@ zero_extendqisi2
 506 0020 002C     		cmp	r4, #0
 507 0022 78D0     		beq	.L132
 508 0024 1746     		mov	r7, r2
 509 0026 8346     		mov	fp, r0
 510 0028 C819     		adds	r0, r1, r7
 511 002a 0590     		str	r0, [sp, #20]
 512 002c 481C     		adds	r0, r1, #1
 513 002e 0399     		ldr	r1, [sp, #12]
 514 0030 179A     		ldr	r2, [sp, #92]
 515 0032 0893     		str	r3, [sp, #32]
 516 0034 3144     		add	r1, r1, r6
 517 0036 0791     		str	r1, [sp, #28]
 518 0038 D288     		ldrh	r2, [r2, #6]
 519 003a 0490     		str	r0, [sp, #16]
 520 003c 5919     		adds	r1, r3, r5
ARM GAS  /tmp/cc9oJRAg.s 			page 10


 521 003e 0991     		str	r1, [sp, #36]
 522 0040 0293     		str	r3, [sp, #8]
 523              	.L150:
 524 0042 0A2C     		cmp	r4, #10
 525 0044 6AD0     		beq	.L135
 526 0046 0D2C     		cmp	r4, #13
 527 0048 68D0     		beq	.L135
 528 004a 179B     		ldr	r3, [sp, #92]
 529 004c 1798     		ldr	r0, [sp, #92]
 530 004e 198A     		ldrh	r1, [r3, #16]
 531 0050 8788     		ldrh	r7, [r0, #4]
 532 0052 5B8A     		ldrh	r3, [r3, #18]
 533 0054 641A     		subs	r4, r4, r1
 534 0056 9C42     		cmp	r4, r3
 535 0058 88BF     		it	hi
 536 005a 0024     		movhi	r4, #0
 537 005c 0FB9     		cbnz	r7, .L140
 538 005e 8368     		ldr	r3, [r0, #8]
 539 0060 1F5D     		ldrb	r7, [r3, r4]	@ zero_extendqisi2
 540              	.L140:
 541 0062 029B     		ldr	r3, [sp, #8]
 542 0064 0999     		ldr	r1, [sp, #36]
 543 0066 FB18     		adds	r3, r7, r3
 544 0068 8B42     		cmp	r3, r1
 545 006a 0AD9     		bls	.L142
 546 006c 069B     		ldr	r3, [sp, #24]
 547 006e 0399     		ldr	r1, [sp, #12]
 548 0070 D318     		adds	r3, r2, r3
 549 0072 1944     		add	r1, r1, r3
 550 0074 5318     		adds	r3, r2, r1
 551 0076 0391     		str	r1, [sp, #12]
 552 0078 0799     		ldr	r1, [sp, #28]
 553 007a 8B42     		cmp	r3, r1
 554 007c 4BD8     		bhi	.L132
 555 007e 089B     		ldr	r3, [sp, #32]
 556 0080 0293     		str	r3, [sp, #8]
 557              	.L142:
 558 0082 179B     		ldr	r3, [sp, #92]
 559 0084 1799     		ldr	r1, [sp, #92]
 560 0086 DB68     		ldr	r3, [r3, #12]
 561 0088 0E68     		ldr	r6, [r1]
 562 008a 33F81430 		ldrh	r3, [r3, r4, lsl #1]
 563 008e BDF808A0 		ldrh	r10, [sp, #8]
 564 0092 1E44     		add	r6, r6, r3
 565 0094 BDF80C30 		ldrh	r3, [sp, #12]
 566 0098 0193     		str	r3, [sp, #4]
 567 009a 5AB3     		cbz	r2, .L144
 568 009c 57B3     		cbz	r7, .L144
 569 009e 4FF00009 		mov	r9, #0
 570              	.L148:
 571 00a2 019B     		ldr	r3, [sp, #4]
 572 00a4 0025     		movs	r5, #0
 573 00a6 03EB0908 		add	r8, r3, r9
 574 00aa 2C46     		mov	r4, r5
 575 00ac 1FFA88F8 		uxth	r8, r8
 576 00b0 06E0     		b	.L149
 577              	.L146:
ARM GAS  /tmp/cc9oJRAg.s 			page 11


 578 00b2 0135     		adds	r5, r5, #1
 579 00b4 AF42     		cmp	r7, r5
 580 00b6 15D0     		beq	.L167
 581              	.L147:
 582 00b8 072C     		cmp	r4, #7
 583 00ba 84BF     		itt	hi
 584 00bc 0136     		addhi	r6, r6, #1
 585 00be 0024     		movhi	r4, #0
 586              	.L149:
 587 00c0 3378     		ldrb	r3, [r6]	@ zero_extendqisi2
 588 00c2 2341     		asrs	r3, r3, r4
 589 00c4 13F0010F 		tst	r3, #1
 590 00c8 04F10104 		add	r4, r4, #1
 591 00cc F1D0     		beq	.L146
 592 00ce 0AEB0501 		add	r1, r10, r5
 593 00d2 89B2     		uxth	r1, r1
 594 00d4 199B     		ldr	r3, [sp, #100]
 595 00d6 4246     		mov	r2, r8
 596 00d8 5846     		mov	r0, fp
 597 00da 0135     		adds	r5, r5, #1
 598 00dc FFF7FEFF 		bl	makise_pset
 599 00e0 AF42     		cmp	r7, r5
 600 00e2 E9D1     		bne	.L147
 601              	.L167:
 602 00e4 179B     		ldr	r3, [sp, #92]
 603 00e6 DA88     		ldrh	r2, [r3, #6]
 604 00e8 09F10109 		add	r9, r9, #1
 605 00ec 9145     		cmp	r9, r2
 606 00ee 06F10106 		add	r6, r6, #1
 607 00f2 D6D3     		bcc	.L148
 608              	.L144:
 609 00f4 179B     		ldr	r3, [sp, #92]
 610 00f6 9B8A     		ldrh	r3, [r3, #20]
 611 00f8 1F44     		add	r7, r7, r3
 612 00fa 029B     		ldr	r3, [sp, #8]
 613 00fc 3B44     		add	r3, r3, r7
 614 00fe 0293     		str	r3, [sp, #8]
 615              	.L137:
 616 0100 059B     		ldr	r3, [sp, #20]
 617 0102 0499     		ldr	r1, [sp, #16]
 618 0104 1846     		mov	r0, r3
 619 0106 8842     		cmp	r0, r1
 620 0108 0B46     		mov	r3, r1
 621 010a 04D0     		beq	.L132
 622 010c 13F8014B 		ldrb	r4, [r3], #1	@ zero_extendqisi2
 623 0110 0493     		str	r3, [sp, #16]
 624 0112 002C     		cmp	r4, #0
 625 0114 95D1     		bne	.L150
 626              	.L132:
 627 0116 0BB0     		add	sp, sp, #44
 628              		@ sp needed
 629 0118 BDE8F08F 		pop	{r4, r5, r6, r7, r8, r9, r10, fp, pc}
 630              	.L135:
 631 011c 069B     		ldr	r3, [sp, #24]
 632 011e 0399     		ldr	r1, [sp, #12]
 633 0120 D318     		adds	r3, r2, r3
 634 0122 1944     		add	r1, r1, r3
ARM GAS  /tmp/cc9oJRAg.s 			page 12


 635 0124 5318     		adds	r3, r2, r1
 636 0126 0391     		str	r1, [sp, #12]
 637 0128 0799     		ldr	r1, [sp, #28]
 638 012a 8B42     		cmp	r3, r1
 639 012c F3D8     		bhi	.L132
 640 012e 089B     		ldr	r3, [sp, #32]
 641 0130 0293     		str	r3, [sp, #8]
 642 0132 E5E7     		b	.L137
 644              		.comm	makise_color_palette,4,4
 645              		.ident	"GCC: (Arch Repository) 6.3.0"
ARM GAS  /tmp/cc9oJRAg.s 			page 13

