ARM GAS  /tmp/cczBsKXN.s 			page 1


   1              		.cpu cortex-m4
   2              		.eabi_attribute 27, 1
   3              		.eabi_attribute 28, 1
   4              		.eabi_attribute 23, 1
   5              		.eabi_attribute 24, 1
   6              		.eabi_attribute 25, 1
   7              		.eabi_attribute 26, 1
   8              		.eabi_attribute 30, 2
   9              		.eabi_attribute 34, 1
  10              		.eabi_attribute 18, 4
  11              		.file	"makise_primitives.c"
  12              		.section	.text.makise_d_circle.part.0,"ax",%progbits
  13              		.align	1
  14              		.p2align 2,,3
  15              		.syntax unified
  16              		.thumb
  17              		.thumb_func
  18              		.fpu fpv4-sp-d16
  20              	makise_d_circle.part.0:
  21              		@ args = 4, pretend = 0, frame = 40
  22              		@ frame_needed = 0, uses_anonymous_args = 0
  23 0000 2DE9F04F 		push	{r4, r5, r6, r7, r8, r9, r10, fp, lr}
  24 0004 8BB0     		sub	sp, sp, #44
  25 0006 1C46     		mov	r4, r3
  26 0008 149F     		ldr	r7, [sp, #80]
  27 000a 0292     		str	r2, [sp, #8]
  28 000c C3EBC336 		rsb	r6, r3, r3, lsl #15
  29 0010 A218     		adds	r2, r4, r2
  30 0012 7600     		lsls	r6, r6, #1
  31 0014 92B2     		uxth	r2, r2
  32 0016 3B46     		mov	r3, r7
  33 0018 36B2     		sxth	r6, r6
  34 001a 8046     		mov	r8, r0
  35 001c 0596     		str	r6, [sp, #20]
  36 001e 0391     		str	r1, [sp, #12]
  37 0020 0E46     		mov	r6, r1
  38 0022 FFF7FEFF 		bl	makise_pset
  39 0026 029A     		ldr	r2, [sp, #8]
  40 0028 121B     		subs	r2, r2, r4
  41 002a 92B2     		uxth	r2, r2
  42 002c 3B46     		mov	r3, r7
  43 002e 3146     		mov	r1, r6
  44 0030 4046     		mov	r0, r8
  45 0032 FFF7FEFF 		bl	makise_pset
  46 0036 DDF80890 		ldr	r9, [sp, #8]
  47 003a A119     		adds	r1, r4, r6
  48 003c 89B2     		uxth	r1, r1
  49 003e 3B46     		mov	r3, r7
  50 0040 4A46     		mov	r2, r9
  51 0042 4046     		mov	r0, r8
  52 0044 FFF7FEFF 		bl	makise_pset
  53 0048 20B2     		sxth	r0, r4
  54 004a 311B     		subs	r1, r6, r4
  55 004c 0190     		str	r0, [sp, #4]
  56 004e C4F10105 		rsb	r5, r4, #1
  57 0052 89B2     		uxth	r1, r1
  58 0054 0446     		mov	r4, r0
ARM GAS  /tmp/cczBsKXN.s 			page 2


  59 0056 3B46     		mov	r3, r7
  60 0058 4A46     		mov	r2, r9
  61 005a 4046     		mov	r0, r8
  62 005c FFF7FEFF 		bl	makise_pset
  63 0060 002C     		cmp	r4, #0
  64 0062 7FDD     		ble	.L1
  65 0064 0021     		movs	r1, #0
  66 0066 4A46     		mov	r2, r9
  67 0068 531C     		adds	r3, r2, #1
  68 006a 0491     		str	r1, [sp, #16]
  69 006c 711C     		adds	r1, r6, #1
  70 006e 0891     		str	r1, [sp, #32]
  71 0070 0993     		str	r3, [sp, #36]
  72 0072 711E     		subs	r1, r6, #1
  73 0074 09F1FF33 		add	r3, r9, #-1
  74 0078 2DB2     		sxth	r5, r5
  75 007a 0691     		str	r1, [sp, #24]
  76 007c 0793     		str	r3, [sp, #28]
  77              	.L4:
  78 007e 049A     		ldr	r2, [sp, #16]
  79 0080 089B     		ldr	r3, [sp, #32]
  80 0082 94B2     		uxth	r4, r2
  81 0084 0132     		adds	r2, r2, #1
  82 0086 04EB030B 		add	fp, r4, r3
  83 008a 0492     		str	r2, [sp, #16]
  84 008c 059A     		ldr	r2, [sp, #20]
  85 008e 1FFA8BFB 		uxth	fp, fp
  86 0092 002D     		cmp	r5, #0
  87 0094 3B46     		mov	r3, r7
  88 0096 5946     		mov	r1, fp
  89 0098 4046     		mov	r0, r8
  90 009a 02F10202 		add	r2, r2, #2
  91 009e 08DB     		blt	.L3
  92 00a0 019E     		ldr	r6, [sp, #4]
  93 00a2 92B2     		uxth	r2, r2
  94 00a4 1544     		add	r5, r5, r2
  95 00a6 013E     		subs	r6, r6, #1
  96 00a8 12B2     		sxth	r2, r2
  97 00aa 0592     		str	r2, [sp, #20]
  98 00ac 32B2     		sxth	r2, r6
  99 00ae 2DB2     		sxth	r5, r5
 100 00b0 0192     		str	r2, [sp, #4]
 101              	.L3:
 102 00b2 BDF80460 		ldrh	r6, [sp, #4]
 103 00b6 029A     		ldr	r2, [sp, #8]
 104 00b8 02EB060A 		add	r10, r2, r6
 105 00bc 1FFA8AFA 		uxth	r10, r10
 106 00c0 5246     		mov	r2, r10
 107 00c2 FFF7FEFF 		bl	makise_pset
 108 00c6 069B     		ldr	r3, [sp, #24]
 109 00c8 A3EB0409 		sub	r9, r3, r4
 110 00cc 1FFA89F9 		uxth	r9, r9
 111 00d0 5246     		mov	r2, r10
 112 00d2 4946     		mov	r1, r9
 113 00d4 3B46     		mov	r3, r7
 114 00d6 4046     		mov	r0, r8
 115 00d8 FFF7FEFF 		bl	makise_pset
ARM GAS  /tmp/cczBsKXN.s 			page 3


 116 00dc 029A     		ldr	r2, [sp, #8]
 117 00de A2EB060A 		sub	r10, r2, r6
 118 00e2 1FFA8AFA 		uxth	r10, r10
 119 00e6 5246     		mov	r2, r10
 120 00e8 5946     		mov	r1, fp
 121 00ea 3B46     		mov	r3, r7
 122 00ec 4046     		mov	r0, r8
 123 00ee FFF7FEFF 		bl	makise_pset
 124 00f2 5246     		mov	r2, r10
 125 00f4 4946     		mov	r1, r9
 126 00f6 3B46     		mov	r3, r7
 127 00f8 4046     		mov	r0, r8
 128 00fa FFF7FEFF 		bl	makise_pset
 129 00fe 039B     		ldr	r3, [sp, #12]
 130 0100 099A     		ldr	r2, [sp, #36]
 131 0102 03EB0609 		add	r9, r3, r6
 132 0106 04EB020A 		add	r10, r4, r2
 133 010a 1FFA8AFA 		uxth	r10, r10
 134 010e 1FFA89F9 		uxth	r9, r9
 135 0112 5246     		mov	r2, r10
 136 0114 4946     		mov	r1, r9
 137 0116 3B46     		mov	r3, r7
 138 0118 4046     		mov	r0, r8
 139 011a FFF7FEFF 		bl	makise_pset
 140 011e 039B     		ldr	r3, [sp, #12]
 141 0120 9E1B     		subs	r6, r3, r6
 142 0122 B6B2     		uxth	r6, r6
 143 0124 5246     		mov	r2, r10
 144 0126 3146     		mov	r1, r6
 145 0128 3B46     		mov	r3, r7
 146 012a 4046     		mov	r0, r8
 147 012c FFF7FEFF 		bl	makise_pset
 148 0130 079B     		ldr	r3, [sp, #28]
 149 0132 A3EB040A 		sub	r10, r3, r4
 150 0136 1FFA8AFA 		uxth	r10, r10
 151 013a 4946     		mov	r1, r9
 152 013c 5246     		mov	r2, r10
 153 013e 3B46     		mov	r3, r7
 154 0140 4046     		mov	r0, r8
 155 0142 FFF7FEFF 		bl	makise_pset
 156 0146 3B46     		mov	r3, r7
 157 0148 5246     		mov	r2, r10
 158 014a 3146     		mov	r1, r6
 159 014c 4046     		mov	r0, r8
 160 014e 05EB4405 		add	r5, r5, r4, lsl #1
 161 0152 FFF7FEFF 		bl	makise_pset
 162 0156 0134     		adds	r4, r4, #1
 163 0158 019B     		ldr	r3, [sp, #4]
 164 015a 24B2     		sxth	r4, r4
 165 015c 0335     		adds	r5, r5, #3
 166 015e 9C42     		cmp	r4, r3
 167 0160 2DB2     		sxth	r5, r5
 168 0162 8CDB     		blt	.L4
 169              	.L1:
 170 0164 0BB0     		add	sp, sp, #44
 171              		@ sp needed
 172 0166 BDE8F08F 		pop	{r4, r5, r6, r7, r8, r9, r10, fp, pc}
ARM GAS  /tmp/cczBsKXN.s 			page 4


 174 016a 00BF     		.section	.text.makise_d_clear,"ax",%progbits
 175              		.align	1
 176              		.p2align 2,,3
 177              		.global	makise_d_clear
 178              		.syntax unified
 179              		.thumb
 180              		.thumb_func
 181              		.fpu fpv4-sp-d16
 183              	makise_d_clear:
 184              		@ args = 0, pretend = 0, frame = 0
 185              		@ frame_needed = 0, uses_anonymous_args = 0
 186              		@ link register save eliminated.
 187 0000 4FF6FF73 		movw	r3, #65535
 188 0004 9942     		cmp	r1, r3
 189 0006 3FD0     		beq	.L9
 190 0008 70B4     		push	{r4, r5, r6}
 191 000a 0689     		ldrh	r6, [r0, #8]
 192 000c 0825     		movs	r5, #8
 193 000e 95FBF6F5 		sdiv	r5, r5, r6
 194 0012 9DB3     		cbz	r5, .L11
 195 0014 827A     		ldrb	r2, [r0, #10]	@ zero_extendqisi2
 196 0016 012D     		cmp	r5, #1
 197 0018 02EA0102 		and	r2, r2, r1
 198 001c D3B2     		uxtb	r3, r2
 199 001e 2CD0     		beq	.L12
 200 0020 02FA06F1 		lsl	r1, r2, r6
 201 0024 0B43     		orrs	r3, r3, r1
 202 0026 022D     		cmp	r5, #2
 203 0028 DBB2     		uxtb	r3, r3
 204 002a 26D0     		beq	.L12
 205 002c 7400     		lsls	r4, r6, #1
 206 002e 02FA04F1 		lsl	r1, r2, r4
 207 0032 0B43     		orrs	r3, r3, r1
 208 0034 032D     		cmp	r5, #3
 209 0036 DBB2     		uxtb	r3, r3
 210 0038 1FD0     		beq	.L12
 211 003a 3444     		add	r4, r4, r6
 212 003c 02FA04F1 		lsl	r1, r2, r4
 213 0040 0B43     		orrs	r3, r3, r1
 214 0042 042D     		cmp	r5, #4
 215 0044 DBB2     		uxtb	r3, r3
 216 0046 18D0     		beq	.L12
 217 0048 3444     		add	r4, r4, r6
 218 004a 02FA04F1 		lsl	r1, r2, r4
 219 004e 0B43     		orrs	r3, r3, r1
 220 0050 052D     		cmp	r5, #5
 221 0052 DBB2     		uxtb	r3, r3
 222 0054 11D0     		beq	.L12
 223 0056 3444     		add	r4, r4, r6
 224 0058 02FA04F1 		lsl	r1, r2, r4
 225 005c 0B43     		orrs	r3, r3, r1
 226 005e 062D     		cmp	r5, #6
 227 0060 DBB2     		uxtb	r3, r3
 228 0062 0AD0     		beq	.L12
 229 0064 3444     		add	r4, r4, r6
 230 0066 02FA04F1 		lsl	r1, r2, r4
 231 006a 0B43     		orrs	r3, r3, r1
ARM GAS  /tmp/cczBsKXN.s 			page 5


 232 006c 082D     		cmp	r5, #8
 233 006e DBB2     		uxtb	r3, r3
 234 0070 03D1     		bne	.L12
 235 0072 3444     		add	r4, r4, r6
 236 0074 A240     		lsls	r2, r2, r4
 237 0076 1343     		orrs	r3, r3, r2
 238 0078 DBB2     		uxtb	r3, r3
 239              	.L12:
 240 007a 1D46     		mov	r5, r3
 241              	.L11:
 242 007c 2946     		mov	r1, r5
 243 007e 0269     		ldr	r2, [r0, #16]
 244 0080 C068     		ldr	r0, [r0, #12]
 245 0082 70BC     		pop	{r4, r5, r6}
 246 0084 FFF7FEBF 		b	memset
 247              	.L9:
 248 0088 7047     		bx	lr
 250 008a 00BF     		.section	.text.makise_d_point,"ax",%progbits
 251              		.align	1
 252              		.p2align 2,,3
 253              		.global	makise_d_point
 254              		.syntax unified
 255              		.thumb
 256              		.thumb_func
 257              		.fpu fpv4-sp-d16
 259              	makise_d_point:
 260              		@ args = 0, pretend = 0, frame = 0
 261              		@ frame_needed = 0, uses_anonymous_args = 0
 262              		@ link register save eliminated.
 263 0000 10B4     		push	{r4}
 264 0002 4FF6FF74 		movw	r4, #65535
 265 0006 A342     		cmp	r3, r4
 266 0008 03D0     		beq	.L37
 267 000a 5DF8044B 		ldr	r4, [sp], #4
 268 000e FFF7FEBF 		b	makise_pset
 269              	.L37:
 270 0012 5DF8044B 		ldr	r4, [sp], #4
 271 0016 7047     		bx	lr
 273              		.section	.text.makise_d_circle,"ax",%progbits
 274              		.align	1
 275              		.p2align 2,,3
 276              		.global	makise_d_circle
 277              		.syntax unified
 278              		.thumb
 279              		.thumb_func
 280              		.fpu fpv4-sp-d16
 282              	makise_d_circle:
 283              		@ args = 4, pretend = 0, frame = 0
 284              		@ frame_needed = 0, uses_anonymous_args = 0
 285              		@ link register save eliminated.
 286 0000 30B4     		push	{r4, r5}
 287 0002 029C     		ldr	r4, [sp, #8]
 288 0004 4FF6FF75 		movw	r5, #65535
 289 0008 AC42     		cmp	r4, r5
 290 000a 02D0     		beq	.L40
 291 000c 30BC     		pop	{r4, r5}
 292 000e FFF7FEBF 		b	makise_d_circle.part.0
ARM GAS  /tmp/cczBsKXN.s 			page 6


 293              	.L40:
 294 0012 30BC     		pop	{r4, r5}
 295 0014 7047     		bx	lr
 297 0016 00BF     		.section	.text.makise_d_line,"ax",%progbits
 298              		.align	1
 299              		.p2align 2,,3
 300              		.global	makise_d_line
 301              		.syntax unified
 302              		.thumb
 303              		.thumb_func
 304              		.fpu fpv4-sp-d16
 306              	makise_d_line:
 307              		@ args = 8, pretend = 0, frame = 24
 308              		@ frame_needed = 0, uses_anonymous_args = 0
 309 0000 2DE9F04F 		push	{r4, r5, r6, r7, r8, r9, r10, fp, lr}
 310 0004 87B0     		sub	sp, sp, #28
 311 0006 4FF6FF74 		movw	r4, #65535
 312 000a DDF844B0 		ldr	fp, [sp, #68]
 313 000e BDF94060 		ldrsh	r6, [sp, #64]
 314 0012 A345     		cmp	fp, r4
 315 0014 00F09280 		beq	.L43
 316 0018 002B     		cmp	r3, #0
 317 001a C0F2D680 		blt	.L80
 318              	.L45:
 319 001e B0F806E0 		ldrh	lr, [r0, #6]
 320 0022 7345     		cmp	r3, lr
 321 0024 02DB     		blt	.L46
 322 0026 8E45     		cmp	lr, r1
 323 0028 40F38880 		ble	.L43
 324              	.L46:
 325 002c 002E     		cmp	r6, #0
 326 002e C0F2D080 		blt	.L81
 327 0032 8788     		ldrh	r7, [r0, #4]
 328 0034 BE42     		cmp	r6, r7
 329 0036 80F28480 		bge	.L82
 330              	.L48:
 331 003a 22EAE27A 		bic	r10, r2, r2, asr #31
 332 003e 8146     		mov	r9, r0
 333 0040 781E     		subs	r0, r7, #1
 334 0042 26EAE676 		bic	r6, r6, r6, asr #31
 335 0046 8245     		cmp	r10, r0
 336 0048 A8BF     		it	ge
 337 004a 8246     		movge	r10, r0
 338 004c B042     		cmp	r0, r6
 339 004e A8BF     		it	ge
 340 0050 3046     		movge	r0, r6
 341 0052 AAEB0006 		sub	r6, r10, r0
 342 0056 002E     		cmp	r6, #0
 343 0058 23EAE375 		bic	r5, r3, r3, asr #31
 344 005c 21EAE174 		bic	r4, r1, r1, asr #31
 345 0060 0EF1FF33 		add	r3, lr, #-1
 346 0064 B8BF     		it	lt
 347 0066 7642     		rsblt	r6, r6, #0
 348 0068 9C42     		cmp	r4, r3
 349 006a A8BF     		it	ge
 350 006c 1C46     		movge	r4, r3
 351 006e 36B2     		sxth	r6, r6
ARM GAS  /tmp/cczBsKXN.s 			page 7


 352 0070 9D42     		cmp	r5, r3
 353 0072 A8BF     		it	ge
 354 0074 1D46     		movge	r5, r3
 355 0076 002E     		cmp	r6, #0
 356 0078 67D1     		bne	.L49
 357 007a B9F80810 		ldrh	r1, [r9, #8]
 358 007e 2023     		movs	r3, #32
 359 0080 93FBF1F3 		sdiv	r3, r3, r1
 360 0084 002B     		cmp	r3, #0
 361 0086 00F0B780 		beq	.L68
 362 008a 99F80A80 		ldrb	r8, [r9, #10]	@ zero_extendqisi2
 363 008e 3246     		mov	r2, r6
 364 0090 3746     		mov	r7, r6
 365 0092 08EA0B08 		and	r8, r8, fp
 366              	.L51:
 367 0096 0132     		adds	r2, r2, #1
 368 0098 08FA06FC 		lsl	ip, r8, r6
 369 009c 9A42     		cmp	r2, r3
 370 009e 47EA0C07 		orr	r7, r7, ip
 371 00a2 0E44     		add	r6, r6, r1
 372 00a4 F7D1     		bne	.L51
 373              	.L50:
 374 00a6 B4FBF3F2 		udiv	r2, r4, r3
 375 00aa 03FB1242 		mls	r2, r3, r2, r4
 376 00ae D2B1     		cbz	r2, .L55
 377 00b0 AC42     		cmp	r4, r5
 378 00b2 35D8     		bhi	.L57
 379 00b4 86B2     		uxth	r6, r0
 380 00b6 4FF02008 		mov	r8, #32
 381 00ba 01E0     		b	.L56
 382              	.L54:
 383 00bc AC42     		cmp	r4, r5
 384 00be 2FD8     		bhi	.L57
 385              	.L56:
 386 00c0 A1B2     		uxth	r1, r4
 387 00c2 5B46     		mov	r3, fp
 388 00c4 3246     		mov	r2, r6
 389 00c6 0134     		adds	r4, r4, #1
 390 00c8 4846     		mov	r0, r9
 391 00ca FFF7FEFF 		bl	makise_pset
 392 00ce B9F80810 		ldrh	r1, [r9, #8]
 393 00d2 98FBF1F3 		sdiv	r3, r8, r1
 394 00d6 B4FBF3F2 		udiv	r2, r4, r3
 395 00da 03FB1242 		mls	r2, r3, r2, r4
 396 00de 002A     		cmp	r2, #0
 397 00e0 ECD1     		bne	.L54
 398 00e2 B9F806E0 		ldrh	lr, [r9, #6]
 399              	.L55:
 400 00e6 0EFB0A4E 		mla	lr, lr, r10, r4
 401 00ea 01FB0EF1 		mul	r1, r1, lr
 402 00ee AC42     		cmp	r4, r5
 403 00f0 4FEA5111 		lsr	r1, r1, #5
 404 00f4 14D8     		bhi	.L57
 405 00f6 2A1B     		subs	r2, r5, r4
 406 00f8 9A42     		cmp	r2, r3
 407 00fa 11D3     		bcc	.L57
 408 00fc D9F80C00 		ldr	r0, [r9, #12]
ARM GAS  /tmp/cczBsKXN.s 			page 8


 409 0100 1A19     		adds	r2, r3, r4
 410 0102 AE1A     		subs	r6, r5, r2
 411 0104 00EB8101 		add	r1, r0, r1, lsl #2
 412 0108 03E0     		b	.L58
 413              	.L83:
 414 010a B342     		cmp	r3, r6
 415 010c 08D8     		bhi	.L57
 416 010e 0646     		mov	r6, r0
 417 0110 1A44     		add	r2, r2, r3
 418              	.L58:
 419 0112 AA42     		cmp	r2, r5
 420 0114 41F8047B 		str	r7, [r1], #4
 421 0118 1446     		mov	r4, r2
 422 011a A6EB0300 		sub	r0, r6, r3
 423 011e F4D9     		bls	.L83
 424              	.L57:
 425 0120 013C     		subs	r4, r4, #1
 426 0122 AC42     		cmp	r4, r5
 427 0124 0AD8     		bhi	.L43
 428 0126 1FFA8AFA 		uxth	r10, r10
 429              	.L59:
 430 012a A1B2     		uxth	r1, r4
 431 012c 5B46     		mov	r3, fp
 432 012e 5246     		mov	r2, r10
 433 0130 4846     		mov	r0, r9
 434 0132 0134     		adds	r4, r4, #1
 435 0134 FFF7FEFF 		bl	makise_pset
 436 0138 AC42     		cmp	r4, r5
 437 013a F6D9     		bls	.L59
 438              	.L43:
 439 013c 07B0     		add	sp, sp, #28
 440              		@ sp needed
 441 013e BDE8F08F 		pop	{r4, r5, r6, r7, r8, r9, r10, fp, pc}
 442              	.L82:
 443 0142 9742     		cmp	r7, r2
 444 0144 3FF779AF 		bgt	.L48
 445 0148 F8E7     		b	.L43
 446              	.L49:
 447 014a 2A1B     		subs	r2, r5, r4
 448 014c 03B2     		sxth	r3, r0
 449 014e 002A     		cmp	r2, #0
 450 0150 B8BF     		it	lt
 451 0152 5242     		rsblt	r2, r2, #0
 452 0154 1946     		mov	r1, r3
 453 0156 28B2     		sxth	r0, r5
 454 0158 0FFA8AFA 		sxth	r10, r10
 455 015c 0593     		str	r3, [sp, #20]
 456 015e 24B2     		sxth	r4, r4
 457 0160 4FF6FF73 		movw	r3, #65535
 458 0164 8A45     		cmp	r10, r1
 459 0166 ACBF     		ite	ge
 460 0168 1946     		movge	r1, r3
 461 016a 0121     		movlt	r1, #1
 462 016c 8442     		cmp	r4, r0
 463 016e B8BF     		it	lt
 464 0170 0123     		movlt	r3, #1
 465 0172 B242     		cmp	r2, r6
ARM GAS  /tmp/cczBsKXN.s 			page 9


 466 0174 0190     		str	r0, [sp, #4]
 467 0176 0492     		str	r2, [sp, #16]
 468 0178 0291     		str	r1, [sp, #8]
 469 017a 0093     		str	r3, [sp]
 470 017c 30DD     		ble	.L84
 471 017e 1346     		mov	r3, r2
 472 0180 5510     		asrs	r5, r2, #1
 473              	.L64:
 474 0182 5B42     		negs	r3, r3
 475 0184 A7B2     		uxth	r7, r4
 476 0186 1FFA8AF8 		uxth	r8, r10
 477 018a 0393     		str	r3, [sp, #12]
 478              	.L63:
 479 018c 5B46     		mov	r3, fp
 480 018e 4246     		mov	r2, r8
 481 0190 3946     		mov	r1, r7
 482 0192 4846     		mov	r0, r9
 483 0194 FFF7FEFF 		bl	makise_pset
 484 0198 019A     		ldr	r2, [sp, #4]
 485 019a 009B     		ldr	r3, [sp]
 486 019c 9442     		cmp	r4, r2
 487 019e 3B44     		add	r3, r3, r7
 488 01a0 24D0     		beq	.L85
 489              	.L65:
 490 01a2 039A     		ldr	r2, [sp, #12]
 491 01a4 9542     		cmp	r5, r2
 492 01a6 C8BF     		it	gt
 493 01a8 1CB2     		sxthgt	r4, r3
 494 01aa 029A     		ldr	r2, [sp, #8]
 495 01ac C6BF     		itte	gt
 496 01ae A7B2     		uxthgt	r7, r4
 497 01b0 AB1B     		subgt	r3, r5, r6
 498 01b2 2B46     		movle	r3, r5
 499 01b4 B542     		cmp	r5, r6
 500 01b6 4244     		add	r2, r2, r8
 501 01b8 05DA     		bge	.L67
 502 01ba 0FFA82FA 		sxth	r10, r2
 503 01be 049A     		ldr	r2, [sp, #16]
 504 01c0 1FFA8AF8 		uxth	r8, r10
 505 01c4 1344     		add	r3, r3, r2
 506              	.L67:
 507 01c6 1D46     		mov	r5, r3
 508 01c8 E0E7     		b	.L63
 509              	.L80:
 510 01ca 0029     		cmp	r1, #0
 511 01cc BFF627AF 		bge	.L45
 512 01d0 B4E7     		b	.L43
 513              	.L81:
 514 01d2 002A     		cmp	r2, #0
 515 01d4 B2DB     		blt	.L43
 516 01d6 8788     		ldrh	r7, [r0, #4]
 517 01d8 BE42     		cmp	r6, r7
 518 01da FFF62EAF 		blt	.L48
 519 01de B0E7     		b	.L82
 520              	.L84:
 521 01e0 06EBD675 		add	r5, r6, r6, lsr #31
 522 01e4 6D10     		asrs	r5, r5, #1
ARM GAS  /tmp/cczBsKXN.s 			page 10


 523 01e6 6D42     		negs	r5, r5
 524 01e8 1346     		mov	r3, r2
 525 01ea CAE7     		b	.L64
 526              	.L85:
 527 01ec 059A     		ldr	r2, [sp, #20]
 528 01ee 9245     		cmp	r10, r2
 529 01f0 D7D1     		bne	.L65
 530 01f2 07B0     		add	sp, sp, #28
 531              		@ sp needed
 532 01f4 BDE8F08F 		pop	{r4, r5, r6, r7, r8, r9, r10, fp, pc}
 533              	.L68:
 534 01f8 1F46     		mov	r7, r3
 535 01fa 54E7     		b	.L50
 537              		.section	.text.makise_d_rect,"ax",%progbits
 538              		.align	1
 539              		.p2align 2,,3
 540              		.global	makise_d_rect
 541              		.syntax unified
 542              		.thumb
 543              		.thumb_func
 544              		.fpu fpv4-sp-d16
 546              	makise_d_rect:
 547              		@ args = 8, pretend = 0, frame = 0
 548              		@ frame_needed = 0, uses_anonymous_args = 0
 549 0000 2DE9F043 		push	{r4, r5, r6, r7, r8, r9, lr}
 550 0004 0C46     		mov	r4, r1
 551 0006 C188     		ldrh	r1, [r0, #6]
 552 0008 83B0     		sub	sp, sp, #12
 553 000a 8C42     		cmp	r4, r1
 554 000c BDF82870 		ldrh	r7, [sp, #40]
 555 0010 DDF82C80 		ldr	r8, [sp, #44]
 556 0014 4CDA     		bge	.L86
 557 0016 1546     		mov	r5, r2
 558 0018 8288     		ldrh	r2, [r0, #4]
 559 001a 9542     		cmp	r5, r2
 560 001c 0646     		mov	r6, r0
 561 001e AE46     		mov	lr, r5
 562 0020 46DA     		bge	.L86
 563 0022 4FF6FF7C 		movw	ip, #65535
 564 0026 E045     		cmp	r8, ip
 565 0028 42D0     		beq	.L86
 566 002a 002C     		cmp	r4, #0
 567 002c 2046     		mov	r0, r4
 568 002e 3CDB     		blt	.L99
 569              	.L88:
 570 0030 002D     		cmp	r5, #0
 571 0032 40DB     		blt	.L100
 572              	.L89:
 573 0034 1844     		add	r0, r0, r3
 574 0036 8142     		cmp	r1, r0
 575 0038 02DC     		bgt	.L90
 576 003a 4B1E     		subs	r3, r1, #1
 577 003c 1B1B     		subs	r3, r3, r4
 578 003e 9BB2     		uxth	r3, r3
 579              	.L90:
 580 0040 BE44     		add	lr, lr, r7
 581 0042 7245     		cmp	r2, lr
ARM GAS  /tmp/cczBsKXN.s 			page 11


 582 0044 02DC     		bgt	.L91
 583 0046 571E     		subs	r7, r2, #1
 584 0048 7F1B     		subs	r7, r7, r5
 585 004a BFB2     		uxth	r7, r7
 586              	.L91:
 587 004c 83B3     		cbz	r3, .L86
 588 004e 7FB3     		cbz	r7, .L86
 589 0050 04F1FF39 		add	r9, r4, #-1
 590 0054 4B44     		add	r3, r3, r9
 591 0056 0FFA83F9 		sxth	r9, r3
 592 005a 4B46     		mov	r3, r9
 593 005c 2A46     		mov	r2, r5
 594 005e 2146     		mov	r1, r4
 595 0060 3046     		mov	r0, r6
 596 0062 8DE82001 		stm	sp, {r5, r8}
 597 0066 FFF7FEFF 		bl	makise_d_line
 598 006a 6B1E     		subs	r3, r5, #1
 599 006c 1F44     		add	r7, r7, r3
 600 006e 3FB2     		sxth	r7, r7
 601 0070 4B46     		mov	r3, r9
 602 0072 3A46     		mov	r2, r7
 603 0074 2146     		mov	r1, r4
 604 0076 3046     		mov	r0, r6
 605 0078 CDF80480 		str	r8, [sp, #4]
 606 007c 0097     		str	r7, [sp]
 607 007e FFF7FEFF 		bl	makise_d_line
 608 0082 2346     		mov	r3, r4
 609 0084 2146     		mov	r1, r4
 610 0086 2A46     		mov	r2, r5
 611 0088 3046     		mov	r0, r6
 612 008a 8DE88001 		stm	sp, {r7, r8}
 613 008e FFF7FEFF 		bl	makise_d_line
 614 0092 2A46     		mov	r2, r5
 615 0094 3046     		mov	r0, r6
 616 0096 4B46     		mov	r3, r9
 617 0098 4946     		mov	r1, r9
 618 009a 0A97     		str	r7, [sp, #40]
 619 009c CDF82C80 		str	r8, [sp, #44]
 620 00a0 03B0     		add	sp, sp, #12
 621              		@ sp needed
 622 00a2 BDE8F043 		pop	{r4, r5, r6, r7, r8, r9, lr}
 623 00a6 FFF7FEBF 		b	makise_d_line
 624              	.L99:
 625 00aa 6042     		negs	r0, r4
 626 00ac 9842     		cmp	r0, r3
 627 00ae 0BDD     		ble	.L101
 628              	.L86:
 629 00b0 03B0     		add	sp, sp, #12
 630              		@ sp needed
 631 00b2 BDE8F083 		pop	{r4, r5, r6, r7, r8, r9, pc}
 632              	.L100:
 633 00b6 C5F1000E 		rsb	lr, r5, #0
 634 00ba BE45     		cmp	lr, r7
 635 00bc F8DC     		bgt	.L86
 636 00be 2F44     		add	r7, r7, r5
 637 00c0 0025     		movs	r5, #0
 638 00c2 BFB2     		uxth	r7, r7
ARM GAS  /tmp/cczBsKXN.s 			page 12


 639 00c4 AE46     		mov	lr, r5
 640 00c6 B5E7     		b	.L89
 641              	.L101:
 642 00c8 2344     		add	r3, r3, r4
 643 00ca 0024     		movs	r4, #0
 644 00cc 9BB2     		uxth	r3, r3
 645 00ce 2046     		mov	r0, r4
 646 00d0 AEE7     		b	.L88
 648 00d2 00BF     		.section	.text.makise_d_rect_filled,"ax",%progbits
 649              		.align	1
 650              		.p2align 2,,3
 651              		.global	makise_d_rect_filled
 652              		.syntax unified
 653              		.thumb
 654              		.thumb_func
 655              		.fpu fpv4-sp-d16
 657              	makise_d_rect_filled:
 658              		@ args = 12, pretend = 0, frame = 8
 659              		@ frame_needed = 0, uses_anonymous_args = 0
 660 0000 2DE9F04F 		push	{r4, r5, r6, r7, r8, r9, r10, fp, lr}
 661 0004 85B0     		sub	sp, sp, #20
 662 0006 4FF6FF74 		movw	r4, #65535
 663 000a DDF840A0 		ldr	r10, [sp, #64]
 664 000e BDF83860 		ldrh	r6, [sp, #56]
 665 0012 DDF83C80 		ldr	r8, [sp, #60]
 666 0016 A245     		cmp	r10, r4
 667 0018 7FD0     		beq	.L121
 668 001a 9146     		mov	r9, r2
 669 001c C288     		ldrh	r2, [r0, #6]
 670 001e 9142     		cmp	r1, r2
 671 0020 0746     		mov	r7, r0
 672 0022 0D46     		mov	r5, r1
 673 0024 76DA     		bge	.L102
 674 0026 9E46     		mov	lr, r3
 675 0028 8388     		ldrh	r3, [r0, #4]
 676 002a 9945     		cmp	r9, r3
 677 002c 4C46     		mov	r4, r9
 678 002e 71DA     		bge	.L102
 679 0030 0029     		cmp	r1, #0
 680 0032 78DB     		blt	.L122
 681              	.L107:
 682 0034 B9F1000F 		cmp	r9, #0
 683 0038 7EDB     		blt	.L123
 684              	.L108:
 685 003a 7144     		add	r1, r1, lr
 686 003c 8A42     		cmp	r2, r1
 687 003e 03DC     		bgt	.L109
 688 0040 013A     		subs	r2, r2, #1
 689 0042 521B     		subs	r2, r2, r5
 690 0044 1FFA82FE 		uxth	lr, r2
 691              	.L109:
 692 0048 3219     		adds	r2, r6, r4
 693 004a 9342     		cmp	r3, r2
 694 004c 03DC     		bgt	.L110
 695 004e 5E1E     		subs	r6, r3, #1
 696 0050 A6EB0906 		sub	r6, r6, r9
 697 0054 B6B2     		uxth	r6, r6
ARM GAS  /tmp/cczBsKXN.s 			page 13


 698              	.L110:
 699 0056 BEF1000F 		cmp	lr, #0
 700 005a 5BD0     		beq	.L102
 701 005c 002E     		cmp	r6, #0
 702 005e 59D0     		beq	.L102
 703 0060 0EF1FF32 		add	r2, lr, #-1
 704 0064 4FF6FF73 		movw	r3, #65535
 705 0068 013E     		subs	r6, r6, #1
 706 006a 92B2     		uxth	r2, r2
 707 006c 9845     		cmp	r8, r3
 708 006e B6B2     		uxth	r6, r6
 709 0070 0292     		str	r2, [sp, #8]
 710 0072 2DD0     		beq	.L111
 711 0074 5319     		adds	r3, r2, r5
 712 0076 06EB090B 		add	fp, r6, r9
 713 007a 0FFA8BFB 		sxth	fp, fp
 714 007e 1BB2     		sxth	r3, r3
 715 0080 4A46     		mov	r2, r9
 716 0082 2946     		mov	r1, r5
 717 0084 3846     		mov	r0, r7
 718 0086 CDF80480 		str	r8, [sp, #4]
 719 008a CDF80090 		str	r9, [sp]
 720 008e 0393     		str	r3, [sp, #12]
 721 0090 FFF7FEFF 		bl	makise_d_line
 722 0094 039B     		ldr	r3, [sp, #12]
 723 0096 CDF80480 		str	r8, [sp, #4]
 724 009a 5A46     		mov	r2, fp
 725 009c 2946     		mov	r1, r5
 726 009e 3846     		mov	r0, r7
 727 00a0 CDF800B0 		str	fp, [sp]
 728 00a4 FFF7FEFF 		bl	makise_d_line
 729 00a8 2B46     		mov	r3, r5
 730 00aa 4A46     		mov	r2, r9
 731 00ac 2946     		mov	r1, r5
 732 00ae 3846     		mov	r0, r7
 733 00b0 CDF800B0 		str	fp, [sp]
 734 00b4 CDF80480 		str	r8, [sp, #4]
 735 00b8 FFF7FEFF 		bl	makise_d_line
 736 00bc 039B     		ldr	r3, [sp, #12]
 737 00be CDF800B0 		str	fp, [sp]
 738 00c2 CDF80480 		str	r8, [sp, #4]
 739 00c6 4A46     		mov	r2, r9
 740 00c8 1946     		mov	r1, r3
 741 00ca 3846     		mov	r0, r7
 742 00cc FFF7FEFF 		bl	makise_d_line
 743              	.L111:
 744 00d0 4FF6FF73 		movw	r3, #65535
 745 00d4 2644     		add	r6, r6, r4
 746 00d6 B8EB0308 		subs	r8, r8, r3
 747 00da 04F10104 		add	r4, r4, #1
 748 00de 18BF     		it	ne
 749 00e0 4FF00108 		movne	r8, #1
 750 00e4 B442     		cmp	r4, r6
 751 00e6 15DA     		bge	.L102
 752 00e8 1FFA88F8 		uxth	r8, r8
 753 00ec ADB2     		uxth	r5, r5
 754 00ee 029A     		ldr	r2, [sp, #8]
ARM GAS  /tmp/cczBsKXN.s 			page 14


 755 00f0 A5EB0803 		sub	r3, r5, r8
 756 00f4 1A44     		add	r2, r2, r3
 757 00f6 4544     		add	r5, r5, r8
 758 00f8 2DB2     		sxth	r5, r5
 759 00fa 0FFA82F8 		sxth	r8, r2
 760              	.L112:
 761 00fe 22B2     		sxth	r2, r4
 762 0100 8DE80404 		stm	sp, {r2, r10}
 763 0104 0134     		adds	r4, r4, #1
 764 0106 4346     		mov	r3, r8
 765 0108 2946     		mov	r1, r5
 766 010a 3846     		mov	r0, r7
 767 010c FFF7FEFF 		bl	makise_d_line
 768 0110 B442     		cmp	r4, r6
 769 0112 F4D1     		bne	.L112
 770              	.L102:
 771 0114 05B0     		add	sp, sp, #20
 772              		@ sp needed
 773 0116 BDE8F08F 		pop	{r4, r5, r6, r7, r8, r9, r10, fp, pc}
 774              	.L121:
 775 011a 0E96     		str	r6, [sp, #56]
 776 011c 05B0     		add	sp, sp, #20
 777              		@ sp needed
 778 011e BDE8F04F 		pop	{r4, r5, r6, r7, r8, r9, r10, fp, lr}
 779 0122 FFF7FEBF 		b	makise_d_rect
 780              	.L122:
 781 0126 4942     		negs	r1, r1
 782 0128 7145     		cmp	r1, lr
 783 012a F3DC     		bgt	.L102
 784 012c AE44     		add	lr, lr, r5
 785 012e 0025     		movs	r5, #0
 786 0130 1FFA8EFE 		uxth	lr, lr
 787 0134 2946     		mov	r1, r5
 788 0136 7DE7     		b	.L107
 789              	.L123:
 790 0138 C9F10000 		rsb	r0, r9, #0
 791 013c B042     		cmp	r0, r6
 792 013e E9DC     		bgt	.L102
 793 0140 4E44     		add	r6, r6, r9
 794 0142 4FF00009 		mov	r9, #0
 795 0146 B6B2     		uxth	r6, r6
 796 0148 4C46     		mov	r4, r9
 797 014a 76E7     		b	.L108
 799              		.section	.text.makise_d_circle_filled,"ax",%progbits
 800              		.align	1
 801              		.p2align 2,,3
 802              		.global	makise_d_circle_filled
 803              		.syntax unified
 804              		.thumb
 805              		.thumb_func
 806              		.fpu fpv4-sp-d16
 808              	makise_d_circle_filled:
 809              		@ args = 8, pretend = 0, frame = 40
 810              		@ frame_needed = 0, uses_anonymous_args = 0
 811 0000 2DE9F04F 		push	{r4, r5, r6, r7, r8, r9, r10, fp, lr}
 812 0004 8DB0     		sub	sp, sp, #52
 813 0006 179C     		ldr	r4, [sp, #92]
ARM GAS  /tmp/cczBsKXN.s 			page 15


 814 0008 DDF858B0 		ldr	fp, [sp, #88]
 815 000c 2746     		mov	r7, r4
 816 000e 4FF6FF74 		movw	r4, #65535
 817 0012 A742     		cmp	r7, r4
 818 0014 0797     		str	r7, [sp, #28]
 819 0016 00F02F81 		beq	.L136
 820 001a C3EBC33E 		rsb	lr, r3, r3, lsl #15
 821 001e 9146     		mov	r9, r2
 822 0020 9C46     		mov	ip, r3
 823 0022 CE1A     		subs	r6, r1, r3
 824 0024 01EB0308 		add	r8, r1, r3
 825 0028 4FEA4E0E 		lsl	lr, lr, #1
 826 002c 0FFA89F2 		sxth	r2, r9
 827 0030 1FFA88F8 		uxth	r8, r8
 828 0034 079B     		ldr	r3, [sp, #28]
 829 0036 CDF820C0 		str	ip, [sp, #32]
 830 003a B6B2     		uxth	r6, r6
 831 003c CCF1010C 		rsb	ip, ip, #1
 832 0040 0FFA8EFE 		sxth	lr, lr
 833 0044 BBEB0404 		subs	r4, fp, r4
 834 0048 0491     		str	r1, [sp, #16]
 835 004a 0193     		str	r3, [sp, #4]
 836 004c 31B2     		sxth	r1, r6
 837 004e 0FFA88F3 		sxth	r3, r8
 838 0052 0092     		str	r2, [sp]
 839 0054 CDF824E0 		str	lr, [sp, #36]
 840 0058 0FFA8CFE 		sxth	lr, ip
 841 005c 18BF     		it	ne
 842 005e 0124     		movne	r4, #1
 843 0060 0546     		mov	r5, r0
 844 0062 CDF80CE0 		str	lr, [sp, #12]
 845 0066 FFF7FEFF 		bl	makise_d_line
 846 006a 089F     		ldr	r7, [sp, #32]
 847 006c DDF810A0 		ldr	r10, [sp, #16]
 848 0070 CDF80890 		str	r9, [sp, #8]
 849 0074 4B46     		mov	r3, r9
 850 0076 DA19     		adds	r2, r3, r7
 851 0078 92B2     		uxth	r2, r2
 852 007a 5B46     		mov	r3, fp
 853 007c 5146     		mov	r1, r10
 854 007e 2846     		mov	r0, r5
 855 0080 FFF7FEFF 		bl	makise_pset
 856 0084 029B     		ldr	r3, [sp, #8]
 857 0086 DA1B     		subs	r2, r3, r7
 858 0088 92B2     		uxth	r2, r2
 859 008a 5B46     		mov	r3, fp
 860 008c 5146     		mov	r1, r10
 861 008e 2846     		mov	r0, r5
 862 0090 FFF7FEFF 		bl	makise_pset
 863 0094 DDF80890 		ldr	r9, [sp, #8]
 864 0098 4146     		mov	r1, r8
 865 009a 5B46     		mov	r3, fp
 866 009c 4A46     		mov	r2, r9
 867 009e 2846     		mov	r0, r5
 868 00a0 FFF7FEFF 		bl	makise_pset
 869 00a4 0FFA87F8 		sxth	r8, r7
 870 00a8 5B46     		mov	r3, fp
ARM GAS  /tmp/cczBsKXN.s 			page 16


 871 00aa 4A46     		mov	r2, r9
 872 00ac 3146     		mov	r1, r6
 873 00ae 2846     		mov	r0, r5
 874 00b0 FFF7FEFF 		bl	makise_pset
 875 00b4 B8F1000F 		cmp	r8, #0
 876 00b8 40F3DB80 		ble	.L124
 877 00bc A3B2     		uxth	r3, r4
 878 00be 0A93     		str	r3, [sp, #40]
 879 00c0 5246     		mov	r2, r10
 880 00c2 013B     		subs	r3, r3, #1
 881 00c4 D318     		adds	r3, r2, r3
 882 00c6 0B93     		str	r3, [sp, #44]
 883 00c8 0023     		movs	r3, #0
 884 00ca 0593     		str	r3, [sp, #20]
 885 00cc 5F46     		mov	r7, fp
 886              	.L133:
 887 00ce 039A     		ldr	r2, [sp, #12]
 888 00d0 002A     		cmp	r2, #0
 889 00d2 0BDB     		blt	.L129
 890 00d4 099B     		ldr	r3, [sp, #36]
 891 00d6 0233     		adds	r3, r3, #2
 892 00d8 9BB2     		uxth	r3, r3
 893 00da 1A44     		add	r2, r2, r3
 894 00dc 08F1FF38 		add	r8, r8, #-1
 895 00e0 12B2     		sxth	r2, r2
 896 00e2 1BB2     		sxth	r3, r3
 897 00e4 0392     		str	r2, [sp, #12]
 898 00e6 0993     		str	r3, [sp, #36]
 899 00e8 0FFA88F8 		sxth	r8, r8
 900              	.L129:
 901 00ec BDF81440 		ldrh	r4, [sp, #20]
 902 00f0 039B     		ldr	r3, [sp, #12]
 903 00f2 03EB4403 		add	r3, r3, r4, lsl #1
 904 00f6 0333     		adds	r3, r3, #3
 905 00f8 1BB2     		sxth	r3, r3
 906 00fa 621C     		adds	r2, r4, #1
 907 00fc 0393     		str	r3, [sp, #12]
 908 00fe 13B2     		sxth	r3, r2
 909 0100 0693     		str	r3, [sp, #24]
 910 0102 089B     		ldr	r3, [sp, #32]
 911 0104 9845     		cmp	r8, r3
 912 0106 25D0     		beq	.L130
 913 0108 049B     		ldr	r3, [sp, #16]
 914 010a 0A9A     		ldr	r2, [sp, #40]
 915 010c 0B99     		ldr	r1, [sp, #44]
 916 010e A3EB0209 		sub	r9, r3, r2
 917 0112 029B     		ldr	r3, [sp, #8]
 918 0114 1FFA88F6 		uxth	r6, r8
 919 0118 09F10109 		add	r9, r9, #1
 920 011c 9A19     		adds	r2, r3, r6
 921 011e A1EB040A 		sub	r10, r1, r4
 922 0122 A144     		add	r9, r9, r4
 923 0124 12B2     		sxth	r2, r2
 924 0126 0799     		ldr	r1, [sp, #28]
 925 0128 0191     		str	r1, [sp, #4]
 926 012a 0FFA89F9 		sxth	r9, r9
 927 012e 0FFA8AFA 		sxth	r10, r10
ARM GAS  /tmp/cczBsKXN.s 			page 17


 928 0132 4B46     		mov	r3, r9
 929 0134 0092     		str	r2, [sp]
 930 0136 5146     		mov	r1, r10
 931 0138 2846     		mov	r0, r5
 932 013a FFF7FEFF 		bl	makise_d_line
 933 013e 029B     		ldr	r3, [sp, #8]
 934 0140 0798     		ldr	r0, [sp, #28]
 935 0142 0190     		str	r0, [sp, #4]
 936 0144 9A1B     		subs	r2, r3, r6
 937 0146 12B2     		sxth	r2, r2
 938 0148 4B46     		mov	r3, r9
 939 014a 0092     		str	r2, [sp]
 940 014c 5146     		mov	r1, r10
 941 014e 2846     		mov	r0, r5
 942 0150 FFF7FEFF 		bl	makise_d_line
 943              	.L130:
 944 0154 069B     		ldr	r3, [sp, #24]
 945 0156 089A     		ldr	r2, [sp, #32]
 946 0158 9342     		cmp	r3, r2
 947 015a 24D0     		beq	.L131
 948 015c 0499     		ldr	r1, [sp, #16]
 949 015e 0A9E     		ldr	r6, [sp, #40]
 950 0160 029A     		ldr	r2, [sp, #8]
 951 0162 1FFA88F3 		uxth	r3, r8
 952 0166 01EB0609 		add	r9, r1, r6
 953 016a 0132     		adds	r2, r2, #1
 954 016c 8E1B     		subs	r6, r1, r6
 955 016e A9EB0309 		sub	r9, r9, r3
 956 0172 1E44     		add	r6, r6, r3
 957 0174 2244     		add	r2, r2, r4
 958 0176 12B2     		sxth	r2, r2
 959 0178 079B     		ldr	r3, [sp, #28]
 960 017a 0193     		str	r3, [sp, #4]
 961 017c 0FFA89F9 		sxth	r9, r9
 962 0180 36B2     		sxth	r6, r6
 963 0182 3346     		mov	r3, r6
 964 0184 4946     		mov	r1, r9
 965 0186 0092     		str	r2, [sp]
 966 0188 2846     		mov	r0, r5
 967 018a FFF7FEFF 		bl	makise_d_line
 968 018e 029A     		ldr	r2, [sp, #8]
 969 0190 0798     		ldr	r0, [sp, #28]
 970 0192 0190     		str	r0, [sp, #4]
 971 0194 013A     		subs	r2, r2, #1
 972 0196 121B     		subs	r2, r2, r4
 973 0198 12B2     		sxth	r2, r2
 974 019a 3346     		mov	r3, r6
 975 019c 4946     		mov	r1, r9
 976 019e 0092     		str	r2, [sp]
 977 01a0 2846     		mov	r0, r5
 978 01a2 FFF7FEFF 		bl	makise_d_line
 979              	.L131:
 980 01a6 4FF6FF73 		movw	r3, #65535
 981 01aa 9F42     		cmp	r7, r3
 982 01ac 5AD0     		beq	.L132
 983 01ae 049B     		ldr	r3, [sp, #16]
 984 01b0 0299     		ldr	r1, [sp, #8]
ARM GAS  /tmp/cczBsKXN.s 			page 18


 985 01b2 1FFA88F6 		uxth	r6, r8
 986 01b6 03F10109 		add	r9, r3, #1
 987 01ba 01EB060B 		add	fp, r1, r6
 988 01be A144     		add	r9, r9, r4
 989 01c0 1FFA89F9 		uxth	r9, r9
 990 01c4 1FFA8BFB 		uxth	fp, fp
 991 01c8 4946     		mov	r1, r9
 992 01ca 5A46     		mov	r2, fp
 993 01cc 3B46     		mov	r3, r7
 994 01ce 2846     		mov	r0, r5
 995 01d0 FFF7FEFF 		bl	makise_pset
 996 01d4 049A     		ldr	r2, [sp, #16]
 997 01d6 02F1FF3A 		add	r10, r2, #-1
 998 01da AAEB040A 		sub	r10, r10, r4
 999 01de 1FFA8AFA 		uxth	r10, r10
 1000 01e2 5A46     		mov	r2, fp
 1001 01e4 5146     		mov	r1, r10
 1002 01e6 3B46     		mov	r3, r7
 1003 01e8 2846     		mov	r0, r5
 1004 01ea FFF7FEFF 		bl	makise_pset
 1005 01ee 0298     		ldr	r0, [sp, #8]
 1006 01f0 A0EB060B 		sub	fp, r0, r6
 1007 01f4 1FFA8BFB 		uxth	fp, fp
 1008 01f8 4946     		mov	r1, r9
 1009 01fa 5A46     		mov	r2, fp
 1010 01fc 3B46     		mov	r3, r7
 1011 01fe 2846     		mov	r0, r5
 1012 0200 FFF7FEFF 		bl	makise_pset
 1013 0204 5146     		mov	r1, r10
 1014 0206 3B46     		mov	r3, r7
 1015 0208 5A46     		mov	r2, fp
 1016 020a 2846     		mov	r0, r5
 1017 020c FFF7FEFF 		bl	makise_pset
 1018 0210 0299     		ldr	r1, [sp, #8]
 1019 0212 01F10109 		add	r9, r1, #1
 1020 0216 0499     		ldr	r1, [sp, #16]
 1021 0218 A144     		add	r9, r9, r4
 1022 021a 01EB060A 		add	r10, r1, r6
 1023 021e 1FFA8AFA 		uxth	r10, r10
 1024 0222 1FFA89F9 		uxth	r9, r9
 1025 0226 5146     		mov	r1, r10
 1026 0228 4A46     		mov	r2, r9
 1027 022a 3B46     		mov	r3, r7
 1028 022c 2846     		mov	r0, r5
 1029 022e FFF7FEFF 		bl	makise_pset
 1030 0232 0499     		ldr	r1, [sp, #16]
 1031 0234 8E1B     		subs	r6, r1, r6
 1032 0236 B6B2     		uxth	r6, r6
 1033 0238 4A46     		mov	r2, r9
 1034 023a 3146     		mov	r1, r6
 1035 023c 3B46     		mov	r3, r7
 1036 023e 2846     		mov	r0, r5
 1037 0240 FFF7FEFF 		bl	makise_pset
 1038 0244 0299     		ldr	r1, [sp, #8]
 1039 0246 4B1E     		subs	r3, r1, #1
 1040 0248 1C1B     		subs	r4, r3, r4
 1041 024a A4B2     		uxth	r4, r4
ARM GAS  /tmp/cczBsKXN.s 			page 19


 1042 024c 5146     		mov	r1, r10
 1043 024e 2246     		mov	r2, r4
 1044 0250 3B46     		mov	r3, r7
 1045 0252 2846     		mov	r0, r5
 1046 0254 FFF7FEFF 		bl	makise_pset
 1047 0258 3B46     		mov	r3, r7
 1048 025a 2246     		mov	r2, r4
 1049 025c 3146     		mov	r1, r6
 1050 025e 2846     		mov	r0, r5
 1051 0260 FFF7FEFF 		bl	makise_pset
 1052              	.L132:
 1053 0264 059B     		ldr	r3, [sp, #20]
 1054 0266 0133     		adds	r3, r3, #1
 1055 0268 0593     		str	r3, [sp, #20]
 1056 026a 069B     		ldr	r3, [sp, #24]
 1057 026c 9845     		cmp	r8, r3
 1058 026e 3FF72EAF 		bgt	.L133
 1059              	.L124:
 1060 0272 0DB0     		add	sp, sp, #52
 1061              		@ sp needed
 1062 0274 BDE8F08F 		pop	{r4, r5, r6, r7, r8, r9, r10, fp, pc}
 1063              	.L136:
 1064 0278 BB45     		cmp	fp, r7
 1065 027a FAD0     		beq	.L124
 1066 027c 0DB0     		add	sp, sp, #52
 1067              		@ sp needed
 1068 027e BDE8F04F 		pop	{r4, r5, r6, r7, r8, r9, r10, fp, lr}
 1069 0282 FFF7FEBF 		b	makise_d_circle.part.0
 1071 0286 00BF     		.section	.text.makise_d_polyline,"ax",%progbits
 1072              		.align	1
 1073              		.p2align 2,,3
 1074              		.global	makise_d_polyline
 1075              		.syntax unified
 1076              		.thumb
 1077              		.thumb_func
 1078              		.fpu fpv4-sp-d16
 1080              	makise_d_polyline:
 1081              		@ args = 0, pretend = 0, frame = 40
 1082              		@ frame_needed = 0, uses_anonymous_args = 0
 1083 0000 012A     		cmp	r2, #1
 1084 0002 40F20B81 		bls	.L181
 1085 0006 0029     		cmp	r1, #0
 1086 0008 00F00881 		beq	.L181
 1087 000c 2DE9F04F 		push	{r4, r5, r6, r7, r8, r9, r10, fp, lr}
 1088 0010 4FF6FF74 		movw	r4, #65535
 1089 0014 A342     		cmp	r3, r4
 1090 0016 8BB0     		sub	sp, sp, #44
 1091 0018 00F0AD80 		beq	.L137
 1092 001c 0892     		str	r2, [sp, #32]
 1093 001e 0122     		movs	r2, #1
 1094 0020 8346     		mov	fp, r0
 1095 0022 0591     		str	r1, [sp, #20]
 1096 0024 0994     		str	r4, [sp, #36]
 1097 0026 0792     		str	r2, [sp, #28]
 1098 0028 9A46     		mov	r10, r3
 1099              	.L164:
 1100 002a 059A     		ldr	r2, [sp, #20]
ARM GAS  /tmp/cczBsKXN.s 			page 20


 1101 002c B2F90450 		ldrsh	r5, [r2, #4]
 1102 0030 B2F90040 		ldrsh	r4, [r2]
 1103 0034 002D     		cmp	r5, #0
 1104 0036 C0F2E680 		blt	.L184
 1105              	.L140:
 1106 003a BBF806E0 		ldrh	lr, [fp, #6]
 1107 003e 7545     		cmp	r5, lr
 1108 0040 02DB     		blt	.L142
 1109 0042 A645     		cmp	lr, r4
 1110 0044 40F38D80 		ble	.L141
 1111              	.L142:
 1112 0048 059A     		ldr	r2, [sp, #20]
 1113 004a B2F90600 		ldrsh	r0, [r2, #6]
 1114 004e B2F90290 		ldrsh	r9, [r2, #2]
 1115 0052 0028     		cmp	r0, #0
 1116 0054 C0F2DB80 		blt	.L185
 1117              	.L143:
 1118 0058 BBF80430 		ldrh	r3, [fp, #4]
 1119 005c 9842     		cmp	r0, r3
 1120 005e 01DB     		blt	.L144
 1121 0060 4B45     		cmp	r3, r9
 1122 0062 7EDD     		ble	.L141
 1123              	.L144:
 1124 0064 013B     		subs	r3, r3, #1
 1125 0066 29EAE979 		bic	r9, r9, r9, asr #31
 1126 006a 20EAE070 		bic	r0, r0, r0, asr #31
 1127 006e 9945     		cmp	r9, r3
 1128 0070 A8BF     		it	ge
 1129 0072 9946     		movge	r9, r3
 1130 0074 9842     		cmp	r0, r3
 1131 0076 A8BF     		it	ge
 1132 0078 1846     		movge	r0, r3
 1133 007a A9EB0006 		sub	r6, r9, r0
 1134 007e 0EF1FF33 		add	r3, lr, #-1
 1135 0082 002E     		cmp	r6, #0
 1136 0084 24EAE474 		bic	r4, r4, r4, asr #31
 1137 0088 B8BF     		it	lt
 1138 008a 7642     		rsblt	r6, r6, #0
 1139 008c 25EAE575 		bic	r5, r5, r5, asr #31
 1140 0090 9C42     		cmp	r4, r3
 1141 0092 A8BF     		it	ge
 1142 0094 1C46     		movge	r4, r3
 1143 0096 36B2     		sxth	r6, r6
 1144 0098 9D42     		cmp	r5, r3
 1145 009a A8BF     		it	ge
 1146 009c 1D46     		movge	r5, r3
 1147 009e 002E     		cmp	r6, #0
 1148 00a0 6CD1     		bne	.L145
 1149 00a2 BBF80820 		ldrh	r2, [fp, #8]
 1150 00a6 2023     		movs	r3, #32
 1151 00a8 93FBF2F3 		sdiv	r3, r3, r2
 1152 00ac 002B     		cmp	r3, #0
 1153 00ae 00F0B680 		beq	.L165
 1154 00b2 9BF80A80 		ldrb	r8, [fp, #10]	@ zero_extendqisi2
 1155 00b6 3746     		mov	r7, r6
 1156 00b8 3146     		mov	r1, r6
 1157 00ba 08EA0A08 		and	r8, r8, r10
ARM GAS  /tmp/cczBsKXN.s 			page 21


 1158              	.L147:
 1159 00be 0131     		adds	r1, r1, #1
 1160 00c0 08FA06FC 		lsl	ip, r8, r6
 1161 00c4 9942     		cmp	r1, r3
 1162 00c6 47EA0C07 		orr	r7, r7, ip
 1163 00ca 1644     		add	r6, r6, r2
 1164 00cc F7D1     		bne	.L147
 1165              	.L146:
 1166 00ce B4FBF3F1 		udiv	r1, r4, r3
 1167 00d2 03FB1141 		mls	r1, r3, r1, r4
 1168 00d6 C9B1     		cbz	r1, .L151
 1169 00d8 AC42     		cmp	r4, r5
 1170 00da 34D8     		bhi	.L153
 1171 00dc 86B2     		uxth	r6, r0
 1172 00de 01E0     		b	.L152
 1173              	.L150:
 1174 00e0 AC42     		cmp	r4, r5
 1175 00e2 30D8     		bhi	.L153
 1176              	.L152:
 1177 00e4 A1B2     		uxth	r1, r4
 1178 00e6 5346     		mov	r3, r10
 1179 00e8 3246     		mov	r2, r6
 1180 00ea 0134     		adds	r4, r4, #1
 1181 00ec 5846     		mov	r0, fp
 1182 00ee FFF7FEFF 		bl	makise_pset
 1183 00f2 BBF80820 		ldrh	r2, [fp, #8]
 1184 00f6 2023     		movs	r3, #32
 1185 00f8 93FBF2F3 		sdiv	r3, r3, r2
 1186 00fc B4FBF3F1 		udiv	r1, r4, r3
 1187 0100 03FB1141 		mls	r1, r3, r1, r4
 1188 0104 0029     		cmp	r1, #0
 1189 0106 EBD1     		bne	.L150
 1190 0108 BBF806E0 		ldrh	lr, [fp, #6]
 1191              	.L151:
 1192 010c 0EFB0941 		mla	r1, lr, r9, r4
 1193 0110 02FB01F2 		mul	r2, r2, r1
 1194 0114 AC42     		cmp	r4, r5
 1195 0116 4FEA5211 		lsr	r1, r2, #5
 1196 011a 14D8     		bhi	.L153
 1197 011c 2A1B     		subs	r2, r5, r4
 1198 011e 9A42     		cmp	r2, r3
 1199 0120 11D3     		bcc	.L153
 1200 0122 DBF80C00 		ldr	r0, [fp, #12]
 1201 0126 1A19     		adds	r2, r3, r4
 1202 0128 AE1A     		subs	r6, r5, r2
 1203 012a 00EB8101 		add	r1, r0, r1, lsl #2
 1204 012e 03E0     		b	.L154
 1205              	.L186:
 1206 0130 9E42     		cmp	r6, r3
 1207 0132 08D3     		bcc	.L153
 1208 0134 0646     		mov	r6, r0
 1209 0136 1A44     		add	r2, r2, r3
 1210              	.L154:
 1211 0138 AA42     		cmp	r2, r5
 1212 013a 41F8047B 		str	r7, [r1], #4
 1213 013e 1446     		mov	r4, r2
 1214 0140 A6EB0300 		sub	r0, r6, r3
ARM GAS  /tmp/cczBsKXN.s 			page 22


 1215 0144 F4D9     		bls	.L186
 1216              	.L153:
 1217 0146 013C     		subs	r4, r4, #1
 1218 0148 AC42     		cmp	r4, r5
 1219 014a 0AD8     		bhi	.L141
 1220 014c 1FFA89F9 		uxth	r9, r9
 1221              	.L155:
 1222 0150 A1B2     		uxth	r1, r4
 1223 0152 5346     		mov	r3, r10
 1224 0154 4A46     		mov	r2, r9
 1225 0156 5846     		mov	r0, fp
 1226 0158 0134     		adds	r4, r4, #1
 1227 015a FFF7FEFF 		bl	makise_pset
 1228 015e AC42     		cmp	r4, r5
 1229 0160 F6D9     		bls	.L155
 1230              	.L141:
 1231 0162 059A     		ldr	r2, [sp, #20]
 1232 0164 079B     		ldr	r3, [sp, #28]
 1233 0166 0432     		adds	r2, r2, #4
 1234 0168 0592     		str	r2, [sp, #20]
 1235 016a 089A     		ldr	r2, [sp, #32]
 1236 016c 0133     		adds	r3, r3, #1
 1237 016e 9A42     		cmp	r2, r3
 1238 0170 0793     		str	r3, [sp, #28]
 1239 0172 7FF45AAF 		bne	.L164
 1240              	.L137:
 1241 0176 0BB0     		add	sp, sp, #44
 1242              		@ sp needed
 1243 0178 BDE8F08F 		pop	{r4, r5, r6, r7, r8, r9, r10, fp, pc}
 1244              	.L145:
 1245 017c 2B1B     		subs	r3, r5, r4
 1246 017e 29B2     		sxth	r1, r5
 1247 0180 099D     		ldr	r5, [sp, #36]
 1248 0182 0091     		str	r1, [sp]
 1249 0184 002B     		cmp	r3, #0
 1250 0186 02B2     		sxth	r2, r0
 1251 0188 0FFA89F9 		sxth	r9, r9
 1252 018c 2846     		mov	r0, r5
 1253 018e B8BF     		it	lt
 1254 0190 5B42     		rsblt	r3, r3, #0
 1255 0192 9145     		cmp	r9, r2
 1256 0194 B8BF     		it	lt
 1257 0196 0120     		movlt	r0, #1
 1258 0198 24B2     		sxth	r4, r4
 1259 019a 0290     		str	r0, [sp, #8]
 1260 019c 2846     		mov	r0, r5
 1261 019e 8C42     		cmp	r4, r1
 1262 01a0 B8BF     		it	lt
 1263 01a2 0120     		movlt	r0, #1
 1264 01a4 B342     		cmp	r3, r6
 1265 01a6 0692     		str	r2, [sp, #24]
 1266 01a8 0493     		str	r3, [sp, #16]
 1267 01aa 0190     		str	r0, [sp, #4]
 1268 01ac 34DC     		bgt	.L158
 1269 01ae 06EBD675 		add	r5, r6, r6, lsr #31
 1270 01b2 6D10     		asrs	r5, r5, #1
 1271 01b4 6D42     		negs	r5, r5
ARM GAS  /tmp/cczBsKXN.s 			page 23


 1272              	.L160:
 1273 01b6 5B42     		negs	r3, r3
 1274 01b8 A7B2     		uxth	r7, r4
 1275 01ba 1FFA89F8 		uxth	r8, r9
 1276 01be 0393     		str	r3, [sp, #12]
 1277              	.L159:
 1278 01c0 5346     		mov	r3, r10
 1279 01c2 4246     		mov	r2, r8
 1280 01c4 3946     		mov	r1, r7
 1281 01c6 5846     		mov	r0, fp
 1282 01c8 FFF7FEFF 		bl	makise_pset
 1283 01cc 009A     		ldr	r2, [sp]
 1284 01ce 019B     		ldr	r3, [sp, #4]
 1285 01d0 A242     		cmp	r2, r4
 1286 01d2 3B44     		add	r3, r7, r3
 1287 01d4 13D0     		beq	.L187
 1288              	.L161:
 1289 01d6 039A     		ldr	r2, [sp, #12]
 1290 01d8 AA42     		cmp	r2, r5
 1291 01da B8BF     		it	lt
 1292 01dc 1CB2     		sxthlt	r4, r3
 1293 01de 029A     		ldr	r2, [sp, #8]
 1294 01e0 BABF     		itte	lt
 1295 01e2 A7B2     		uxthlt	r7, r4
 1296 01e4 AB1B     		sublt	r3, r5, r6
 1297 01e6 2B46     		movge	r3, r5
 1298 01e8 AE42     		cmp	r6, r5
 1299 01ea 4244     		add	r2, r8, r2
 1300 01ec 05DD     		ble	.L163
 1301 01ee 0FFA82F9 		sxth	r9, r2
 1302 01f2 049A     		ldr	r2, [sp, #16]
 1303 01f4 1FFA89F8 		uxth	r8, r9
 1304 01f8 1344     		add	r3, r3, r2
 1305              	.L163:
 1306 01fa 1D46     		mov	r5, r3
 1307 01fc E0E7     		b	.L159
 1308              	.L187:
 1309 01fe 069A     		ldr	r2, [sp, #24]
 1310 0200 4A45     		cmp	r2, r9
 1311 0202 E8D1     		bne	.L161
 1312 0204 ADE7     		b	.L141
 1313              	.L184:
 1314 0206 002C     		cmp	r4, #0
 1315 0208 BFF617AF 		bge	.L140
 1316 020c A9E7     		b	.L141
 1317              	.L185:
 1318 020e B9F1000F 		cmp	r9, #0
 1319 0212 BFF621AF 		bge	.L143
 1320 0216 A4E7     		b	.L141
 1321              	.L158:
 1322 0218 5D10     		asrs	r5, r3, #1
 1323 021a CCE7     		b	.L160
 1324              	.L181:
 1325 021c 7047     		bx	lr
 1326              	.L165:
 1327 021e 1F46     		mov	r7, r3
 1328 0220 55E7     		b	.L146
ARM GAS  /tmp/cczBsKXN.s 			page 24


 1330              		.global	__aeabi_d2f
 1331              		.global	__aeabi_dcmpeq
 1332 0222 00BF     		.section	.text.makise_dex_polyline,"ax",%progbits
 1333              		.align	1
 1334              		.p2align 2,,3
 1335              		.global	makise_dex_polyline
 1336              		.syntax unified
 1337              		.thumb
 1338              		.thumb_func
 1339              		.fpu fpv4-sp-d16
 1341              	makise_dex_polyline:
 1342              		@ args = 8, pretend = 0, frame = 40
 1343              		@ frame_needed = 0, uses_anonymous_args = 0
 1344 0000 2DE9F04F 		push	{r4, r5, r6, r7, r8, r9, r10, fp, lr}
 1345 0004 2DED088B 		vpush.64	{d8, d9, d10, d11}
 1346 0008 8DB0     		sub	sp, sp, #52
 1347 000a 1E9C     		ldr	r4, [sp, #120]
 1348 000c 002C     		cmp	r4, #0
 1349 000e 00F02381 		beq	.L188
 1350 0012 002B     		cmp	r3, #0
 1351 0014 00F02081 		beq	.L188
 1352 0018 1F9D     		ldr	r5, [sp, #124]
 1353 001a 4FF6FF74 		movw	r4, #65535
 1354 001e A542     		cmp	r5, r4
 1355 0020 00F01A81 		beq	.L188
 1356 0024 1E46     		mov	r6, r3
 1357 0026 55EC104B 		vmov	r4, r5, d0
 1358 002a 9246     		mov	r10, r2
 1359 002c 8946     		mov	r9, r1
 1360 002e 8346     		mov	fp, r0
 1361 0030 11B9     		cbnz	r1, .L193
 1362 0032 002A     		cmp	r2, #0
 1363 0034 00F06681 		beq	.L239
 1364              	.L193:
 1365 0038 45EC104B 		vmov	d0, r4, r5
 1366 003c FFF7FEFF 		bl	cos
 1367 0040 51EC100B 		vmov	r0, r1, d0
 1368 0044 FFF7FEFF 		bl	__aeabi_d2f
 1369 0048 45EC104B 		vmov	d0, r4, r5
 1370 004c 09EE100A 		vmov	s18, r0
 1371 0050 FFF7FEFF 		bl	sin
 1372 0054 51EC100B 		vmov	r0, r1, d0
 1373 0058 FFF7FEFF 		bl	__aeabi_d2f
 1374 005c B6F90230 		ldrsh	r3, [r6, #2]
 1375 0060 07EE103A 		vmov	s14, r3	@ int
 1376 0064 B6F90030 		ldrsh	r3, [r6]
 1377 0068 06EE109A 		vmov	s12, r9	@ int
 1378 006c 06EE903A 		vmov	s13, r3	@ int
 1379 0070 B8EEC77A 		vcvt.f32.s32	s14, s14
 1380 0074 F8EEC69A 		vcvt.f32.s32	s19, s12
 1381 0078 F8EEE66A 		vcvt.f32.s32	s13, s13
 1382 007c 0AEE900A 		vmov	s21, r0
 1383 0080 69EE077A 		vmul.f32	s15, s18, s14
 1384 0084 B0EE696A 		vmov.f32	s12, s19
 1385 0088 EAEEA67A 		vfma.f32	s15, s21, s13
 1386 008c 1E9B     		ldr	r3, [sp, #120]
 1387 008e A9EE266A 		vfma.f32	s12, s18, s13
ARM GAS  /tmp/cczBsKXN.s 			page 25


 1388 0092 012B     		cmp	r3, #1
 1389 0094 06EE90AA 		vmov	s13, r10	@ int
 1390 0098 B8EEE6AA 		vcvt.f32.s32	s20, s13
 1391 009c B1EE6ABA 		vneg.f32	s22, s21
 1392 00a0 ABEE076A 		vfma.f32	s12, s22, s14
 1393 00a4 77EE8A7A 		vadd.f32	s15, s15, s20
 1394 00a8 40F2D680 		bls	.L188
 1395 00ac 0123     		movs	r3, #1
 1396 00ae DDF87CA0 		ldr	r10, [sp, #124]
 1397 00b2 0996     		str	r6, [sp, #36]
 1398 00b4 0B93     		str	r3, [sp, #44]
 1399              	.L220:
 1400 00b6 099A     		ldr	r2, [sp, #36]
 1401 00b8 B2F90430 		ldrsh	r3, [r2, #4]
 1402 00bc 07EE103A 		vmov	s14, r3	@ int
 1403 00c0 B2F90630 		ldrsh	r3, [r2, #6]
 1404 00c4 B8EEC77A 		vcvt.f32.s32	s14, s14
 1405 00c8 F0EE698A 		vmov.f32	s17, s19
 1406 00cc E9EE078A 		vfma.f32	s17, s18, s14
 1407 00d0 06EE903A 		vmov	s13, r3	@ int
 1408 00d4 F8EEE66A 		vcvt.f32.s32	s13, s13
 1409 00d8 EBEE268A 		vfma.f32	s17, s22, s13
 1410 00dc 29EE268A 		vmul.f32	s16, s18, s13
 1411 00e0 AAEE878A 		vfma.f32	s16, s21, s14
 1412 00e4 BDEEE87A 		vcvt.s32.f32	s14, s17
 1413 00e8 38EE0A8A 		vadd.f32	s16, s16, s20
 1414 00ec 8DED057A 		vstr.32	s14, [sp, #20]	@ int
 1415 00f0 BDF91450 		ldrsh	r5, [sp, #20]
 1416 00f4 BDEEC67A 		vcvt.s32.f32	s14, s12
 1417 00f8 002D     		cmp	r5, #0
 1418 00fa 8DED027A 		vstr.32	s14, [sp, #8]	@ int
 1419 00fe BDF90840 		ldrsh	r4, [sp, #8]
 1420 0102 C0F2F480 		blt	.L240
 1421              	.L196:
 1422 0106 BBF806E0 		ldrh	lr, [fp, #6]
 1423 010a 7545     		cmp	r5, lr
 1424 010c 02DB     		blt	.L198
 1425 010e A645     		cmp	lr, r4
 1426 0110 40F39480 		ble	.L197
 1427              	.L198:
 1428 0114 FDEEE77A 		vcvt.s32.f32	s15, s15
 1429 0118 CDED027A 		vstr.32	s15, [sp, #8]	@ int
 1430 011c FDEEC87A 		vcvt.s32.f32	s15, s16
 1431 0120 BDF90890 		ldrsh	r9, [sp, #8]
 1432 0124 CDED057A 		vstr.32	s15, [sp, #20]	@ int
 1433 0128 BDF91430 		ldrsh	r3, [sp, #20]
 1434 012c 002B     		cmp	r3, #0
 1435 012e C0F2E280 		blt	.L241
 1436              	.L199:
 1437 0132 BBF80420 		ldrh	r2, [fp, #4]
 1438 0136 9342     		cmp	r3, r2
 1439 0138 01DB     		blt	.L200
 1440 013a 4A45     		cmp	r2, r9
 1441 013c 7EDD     		ble	.L197
 1442              	.L200:
 1443 013e 511E     		subs	r1, r2, #1
 1444 0140 29EAE979 		bic	r9, r9, r9, asr #31
ARM GAS  /tmp/cczBsKXN.s 			page 26


 1445 0144 23EAE372 		bic	r2, r3, r3, asr #31
 1446 0148 8945     		cmp	r9, r1
 1447 014a A8BF     		it	ge
 1448 014c 8946     		movge	r9, r1
 1449 014e 8A42     		cmp	r2, r1
 1450 0150 A8BF     		it	ge
 1451 0152 0A46     		movge	r2, r1
 1452 0154 A9EB0206 		sub	r6, r9, r2
 1453 0158 0EF1FF33 		add	r3, lr, #-1
 1454 015c 002E     		cmp	r6, #0
 1455 015e 24EAE474 		bic	r4, r4, r4, asr #31
 1456 0162 B8BF     		it	lt
 1457 0164 7642     		rsblt	r6, r6, #0
 1458 0166 25EAE575 		bic	r5, r5, r5, asr #31
 1459 016a 9C42     		cmp	r4, r3
 1460 016c A8BF     		it	ge
 1461 016e 1C46     		movge	r4, r3
 1462 0170 36B2     		sxth	r6, r6
 1463 0172 9D42     		cmp	r5, r3
 1464 0174 A8BF     		it	ge
 1465 0176 1D46     		movge	r5, r3
 1466 0178 002E     		cmp	r6, #0
 1467 017a 72D1     		bne	.L201
 1468 017c BBF80810 		ldrh	r1, [fp, #8]
 1469 0180 2023     		movs	r3, #32
 1470 0182 93FBF1F3 		sdiv	r3, r3, r1
 1471 0186 002B     		cmp	r3, #0
 1472 0188 00F0EF80 		beq	.L221
 1473 018c 9BF80A80 		ldrb	r8, [fp, #10]	@ zero_extendqisi2
 1474 0190 3746     		mov	r7, r6
 1475 0192 3046     		mov	r0, r6
 1476 0194 08EA0A08 		and	r8, r8, r10
 1477              	.L203:
 1478 0198 0130     		adds	r0, r0, #1
 1479 019a 08FA06FC 		lsl	ip, r8, r6
 1480 019e 9842     		cmp	r0, r3
 1481 01a0 47EA0C07 		orr	r7, r7, ip
 1482 01a4 0E44     		add	r6, r6, r1
 1483 01a6 F7D1     		bne	.L203
 1484              	.L202:
 1485 01a8 B4FBF3F0 		udiv	r0, r4, r3
 1486 01ac 03FB1040 		mls	r0, r3, r0, r4
 1487 01b0 C8B1     		cbz	r0, .L207
 1488 01b2 AC42     		cmp	r4, r5
 1489 01b4 34D8     		bhi	.L209
 1490 01b6 96B2     		uxth	r6, r2
 1491 01b8 01E0     		b	.L208
 1492              	.L206:
 1493 01ba AC42     		cmp	r4, r5
 1494 01bc 30D8     		bhi	.L209
 1495              	.L208:
 1496 01be A1B2     		uxth	r1, r4
 1497 01c0 5346     		mov	r3, r10
 1498 01c2 3246     		mov	r2, r6
 1499 01c4 0134     		adds	r4, r4, #1
 1500 01c6 5846     		mov	r0, fp
 1501 01c8 FFF7FEFF 		bl	makise_pset
ARM GAS  /tmp/cczBsKXN.s 			page 27


 1502 01cc BBF80810 		ldrh	r1, [fp, #8]
 1503 01d0 2023     		movs	r3, #32
 1504 01d2 93FBF1F3 		sdiv	r3, r3, r1
 1505 01d6 B4FBF3F2 		udiv	r2, r4, r3
 1506 01da 03FB1242 		mls	r2, r3, r2, r4
 1507 01de 002A     		cmp	r2, #0
 1508 01e0 EBD1     		bne	.L206
 1509 01e2 BBF806E0 		ldrh	lr, [fp, #6]
 1510              	.L207:
 1511 01e6 0EFB094E 		mla	lr, lr, r9, r4
 1512 01ea 01FB0EF1 		mul	r1, r1, lr
 1513 01ee AC42     		cmp	r4, r5
 1514 01f0 4FEA5111 		lsr	r1, r1, #5
 1515 01f4 14D8     		bhi	.L209
 1516 01f6 2A1B     		subs	r2, r5, r4
 1517 01f8 9342     		cmp	r3, r2
 1518 01fa 11D8     		bhi	.L209
 1519 01fc DBF80C00 		ldr	r0, [fp, #12]
 1520 0200 1A19     		adds	r2, r3, r4
 1521 0202 AE1A     		subs	r6, r5, r2
 1522 0204 00EB8101 		add	r1, r0, r1, lsl #2
 1523 0208 03E0     		b	.L210
 1524              	.L242:
 1525 020a B342     		cmp	r3, r6
 1526 020c 08D8     		bhi	.L209
 1527 020e 0646     		mov	r6, r0
 1528 0210 1A44     		add	r2, r2, r3
 1529              	.L210:
 1530 0212 AA42     		cmp	r2, r5
 1531 0214 41F8047B 		str	r7, [r1], #4
 1532 0218 1446     		mov	r4, r2
 1533 021a A6EB0300 		sub	r0, r6, r3
 1534 021e F4D9     		bls	.L242
 1535              	.L209:
 1536 0220 013C     		subs	r4, r4, #1
 1537 0222 A542     		cmp	r5, r4
 1538 0224 0AD3     		bcc	.L197
 1539 0226 1FFA89F9 		uxth	r9, r9
 1540              	.L211:
 1541 022a A1B2     		uxth	r1, r4
 1542 022c 5346     		mov	r3, r10
 1543 022e 4A46     		mov	r2, r9
 1544 0230 5846     		mov	r0, fp
 1545 0232 0134     		adds	r4, r4, #1
 1546 0234 FFF7FEFF 		bl	makise_pset
 1547 0238 A542     		cmp	r5, r4
 1548 023a F6D2     		bcs	.L211
 1549              	.L197:
 1550 023c 099A     		ldr	r2, [sp, #36]
 1551 023e 0B9B     		ldr	r3, [sp, #44]
 1552 0240 0432     		adds	r2, r2, #4
 1553 0242 0992     		str	r2, [sp, #36]
 1554 0244 1E9A     		ldr	r2, [sp, #120]
 1555 0246 0133     		adds	r3, r3, #1
 1556 0248 9A42     		cmp	r2, r3
 1557 024a 0B93     		str	r3, [sp, #44]
 1558 024c B0EE686A 		vmov.f32	s12, s17
ARM GAS  /tmp/cczBsKXN.s 			page 28


 1559 0250 F0EE487A 		vmov.f32	s15, s16
 1560 0254 7FF42FAF 		bne	.L220
 1561              	.L188:
 1562 0258 0DB0     		add	sp, sp, #52
 1563              		@ sp needed
 1564 025a BDEC088B 		vldm	sp!, {d8-d11}
 1565 025e BDE8F08F 		pop	{r4, r5, r6, r7, r8, r9, r10, fp, pc}
 1566              	.L201:
 1567 0262 2B1B     		subs	r3, r5, r4
 1568 0264 002B     		cmp	r3, #0
 1569 0266 12B2     		sxth	r2, r2
 1570 0268 0FFA89F9 		sxth	r9, r9
 1571 026c 4FF6FF70 		movw	r0, #65535
 1572 0270 B8BF     		it	lt
 1573 0272 5B42     		rsblt	r3, r3, #0
 1574 0274 29B2     		sxth	r1, r5
 1575 0276 9145     		cmp	r9, r2
 1576 0278 B8BF     		it	lt
 1577 027a 0120     		movlt	r0, #1
 1578 027c 0A92     		str	r2, [sp, #40]
 1579 027e 24B2     		sxth	r4, r4
 1580 0280 4FF6FF72 		movw	r2, #65535
 1581 0284 8C42     		cmp	r4, r1
 1582 0286 B8BF     		it	lt
 1583 0288 0122     		movlt	r2, #1
 1584 028a B342     		cmp	r3, r6
 1585 028c 0893     		str	r3, [sp, #32]
 1586 028e 0291     		str	r1, [sp, #8]
 1587 0290 0690     		str	r0, [sp, #24]
 1588 0292 0592     		str	r2, [sp, #20]
 1589 0294 34DC     		bgt	.L214
 1590 0296 06EBD675 		add	r5, r6, r6, lsr #31
 1591 029a 6D10     		asrs	r5, r5, #1
 1592 029c 6D42     		negs	r5, r5
 1593              	.L216:
 1594 029e 5B42     		negs	r3, r3
 1595 02a0 A7B2     		uxth	r7, r4
 1596 02a2 1FFA89F8 		uxth	r8, r9
 1597 02a6 0793     		str	r3, [sp, #28]
 1598              	.L215:
 1599 02a8 5346     		mov	r3, r10
 1600 02aa 4246     		mov	r2, r8
 1601 02ac 3946     		mov	r1, r7
 1602 02ae 5846     		mov	r0, fp
 1603 02b0 FFF7FEFF 		bl	makise_pset
 1604 02b4 029A     		ldr	r2, [sp, #8]
 1605 02b6 059B     		ldr	r3, [sp, #20]
 1606 02b8 A242     		cmp	r2, r4
 1607 02ba 3B44     		add	r3, r7, r3
 1608 02bc 13D0     		beq	.L243
 1609              	.L217:
 1610 02be 079A     		ldr	r2, [sp, #28]
 1611 02c0 AA42     		cmp	r2, r5
 1612 02c2 B8BF     		it	lt
 1613 02c4 1CB2     		sxthlt	r4, r3
 1614 02c6 069A     		ldr	r2, [sp, #24]
 1615 02c8 BABF     		itte	lt
ARM GAS  /tmp/cczBsKXN.s 			page 29


 1616 02ca A7B2     		uxthlt	r7, r4
 1617 02cc AB1B     		sublt	r3, r5, r6
 1618 02ce 2B46     		movge	r3, r5
 1619 02d0 AE42     		cmp	r6, r5
 1620 02d2 4244     		add	r2, r8, r2
 1621 02d4 05DD     		ble	.L219
 1622 02d6 0FFA82F9 		sxth	r9, r2
 1623 02da 089A     		ldr	r2, [sp, #32]
 1624 02dc 1FFA89F8 		uxth	r8, r9
 1625 02e0 1344     		add	r3, r3, r2
 1626              	.L219:
 1627 02e2 1D46     		mov	r5, r3
 1628 02e4 E0E7     		b	.L215
 1629              	.L243:
 1630 02e6 0A9A     		ldr	r2, [sp, #40]
 1631 02e8 4A45     		cmp	r2, r9
 1632 02ea E8D1     		bne	.L217
 1633 02ec A6E7     		b	.L197
 1634              	.L240:
 1635 02ee 002C     		cmp	r4, #0
 1636 02f0 BFF609AF 		bge	.L196
 1637 02f4 A2E7     		b	.L197
 1638              	.L241:
 1639 02f6 B9F1000F 		cmp	r9, #0
 1640 02fa BFF61AAF 		bge	.L199
 1641 02fe 9DE7     		b	.L197
 1642              	.L214:
 1643 0300 5D10     		asrs	r5, r3, #1
 1644 0302 CCE7     		b	.L216
 1645              	.L239:
 1646 0304 0022     		movs	r2, #0
 1647 0306 0023     		movs	r3, #0
 1648 0308 10EE100A 		vmov	r0, s0	@ int
 1649 030c 2946     		mov	r1, r5
 1650 030e FFF7FEFF 		bl	__aeabi_dcmpeq
 1651 0312 0028     		cmp	r0, #0
 1652 0314 3FF490AE 		beq	.L193
 1653 0318 1E9B     		ldr	r3, [sp, #120]
 1654 031a 012B     		cmp	r3, #1
 1655 031c 7FF68CAE 		bls	.L193
 1656 0320 CDE90245 		strd	r4, [sp, #8]
 1657 0324 1F9D     		ldr	r5, [sp, #124]
 1658 0326 3746     		mov	r7, r6
 1659 0328 08EE109A 		vmov	s16, r9	@ int
 1660 032c 4FF00108 		mov	r8, #1
 1661 0330 D946     		mov	r9, fp
 1662 0332 B346     		mov	fp, r6
 1663 0334 1E46     		mov	r6, r3
 1664              	.L195:
 1665 0336 B7F90430 		ldrsh	r3, [r7, #4]
 1666 033a B7F90220 		ldrsh	r2, [r7, #2]
 1667 033e B7F90010 		ldrsh	r1, [r7]
 1668 0342 0195     		str	r5, [sp, #4]
 1669 0344 B7F90600 		ldrsh	r0, [r7, #6]
 1670 0348 0090     		str	r0, [sp]
 1671 034a 08F10108 		add	r8, r8, #1
 1672 034e 4846     		mov	r0, r9
ARM GAS  /tmp/cczBsKXN.s 			page 30


 1673 0350 FFF7FEFF 		bl	makise_d_line
 1674 0354 4645     		cmp	r6, r8
 1675 0356 07F10407 		add	r7, r7, #4
 1676 035a ECD1     		bne	.L195
 1677 035c 5E46     		mov	r6, fp
 1678 035e DDE90245 		ldrd	r4, [sp, #8]
 1679 0362 CB46     		mov	fp, r9
 1680 0364 18EE109A 		vmov	r9, s16	@ int
 1681 0368 66E6     		b	.L193
 1682              	.L221:
 1683 036a 1F46     		mov	r7, r3
 1684 036c 1CE7     		b	.L202
 1686              		.comm	makise_color_palette,4,4
 1687 036e 00BF     		.ident	"GCC: (Arch Repository) 6.3.0"
ARM GAS  /tmp/cczBsKXN.s 			page 31

