ARM GAS  /tmp/ccNi52kG.s 			page 1


   1              		.cpu cortex-m4
   2              		.eabi_attribute 27, 1
   3              		.eabi_attribute 28, 1
   4              		.eabi_attribute 23, 1
   5              		.eabi_attribute 24, 1
   6              		.eabi_attribute 25, 1
   7              		.eabi_attribute 26, 1
   8              		.eabi_attribute 30, 2
   9              		.eabi_attribute 34, 1
  10              		.eabi_attribute 18, 4
  11              		.file	"makise.c"
  12              		.section	.text.makise_init,"ax",%progbits
  13              		.align	1
  14              		.p2align 2,,3
  15              		.global	makise_init
  16              		.syntax unified
  17              		.thumb
  18              		.thumb_func
  19              		.fpu fpv4-sp-d16
  21              	makise_init:
  22              		@ args = 0, pretend = 0, frame = 0
  23              		@ frame_needed = 0, uses_anonymous_args = 0
  24              		@ link register save eliminated.
  25 0000 F0B4     		push	{r4, r5, r6, r7}
  26 0002 8C88     		ldrh	r4, [r1, #4]
  27 0004 CD88     		ldrh	r5, [r1, #6]
  28 0006 4160     		str	r1, [r0, #4]
  29 0008 05FB04F3 		mul	r3, r5, r4
  30 000c 9B00     		lsls	r3, r3, #2
  31 000e 0026     		movs	r6, #0
  32 0010 8660     		str	r6, [r0, #8]
  33 0012 0260     		str	r2, [r0]
  34 0014 0860     		str	r0, [r1]
  35 0016 23F00701 		bic	r1, r3, #7
  36 001a 1060     		str	r0, [r2]
  37 001c 8B42     		cmp	r3, r1
  38 001e 4FEAD300 		lsr	r0, r3, #3
  39 0022 4FF00F07 		mov	r7, #15
  40 0026 4FF00406 		mov	r6, #4
  41 002a 88BF     		it	hi
  42 002c 0130     		addhi	r0, r0, #1
  43 002e D580     		strh	r5, [r2, #6]	@ movhi
  44 0030 9480     		strh	r4, [r2, #4]	@ movhi
  45 0032 9772     		strb	r7, [r2, #10]
  46 0034 1681     		strh	r6, [r2, #8]	@ movhi
  47 0036 1061     		str	r0, [r2, #16]
  48 0038 F0BC     		pop	{r4, r5, r6, r7}
  49 003a 7047     		bx	lr
  51              		.section	.text.makise_start,"ax",%progbits
  52              		.align	1
  53              		.p2align 2,,3
  54              		.global	makise_start
  55              		.syntax unified
  56              		.thumb
  57              		.thumb_func
  58              		.fpu fpv4-sp-d16
  60              	makise_start:
ARM GAS  /tmp/ccNi52kG.s 			page 2


  61              		@ args = 0, pretend = 0, frame = 0
  62              		@ frame_needed = 0, uses_anonymous_args = 0
  63              		@ link register save eliminated.
  64 0000 4368     		ldr	r3, [r0, #4]
  65 0002 1B6A     		ldr	r3, [r3, #32]
  66 0004 1847     		bx	r3
  68 0006 00BF     		.section	.text.makise_pget,"ax",%progbits
  69              		.align	1
  70              		.p2align 2,,3
  71              		.global	makise_pget
  72              		.syntax unified
  73              		.thumb
  74              		.thumb_func
  75              		.fpu fpv4-sp-d16
  77              	makise_pget:
  78              		@ args = 0, pretend = 0, frame = 0
  79              		@ frame_needed = 0, uses_anonymous_args = 0
  80 0000 F0B5     		push	{r4, r5, r6, r7, lr}
  81 0002 C488     		ldrh	r4, [r0, #6]
  82 0004 8C42     		cmp	r4, r1
  83 0006 17D9     		bls	.L9
  84 0008 8388     		ldrh	r3, [r0, #4]
  85 000a 9342     		cmp	r3, r2
  86 000c 14D9     		bls	.L9
  87 000e 0389     		ldrh	r3, [r0, #8]
  88 0010 DFF82CE0 		ldr	lr, .L11+4
  89 0014 094F     		ldr	r7, .L11
  90 0016 C668     		ldr	r6, [r0, #12]
  91 0018 857A     		ldrb	r5, [r0, #10]	@ zero_extendqisi2
  92 001a 04FB0212 		mla	r2, r4, r2, r1
  93 001e 03FB02F2 		mul	r2, r3, r2
  94 0022 5309     		lsrs	r3, r2, #5
  95 0024 CEF80020 		str	r2, [lr]
  96 0028 3B60     		str	r3, [r7]
  97 002a 56F82300 		ldr	r0, [r6, r3, lsl #2]
  98 002e 02F01F02 		and	r2, r2, #31
  99 0032 D040     		lsrs	r0, r0, r2
 100 0034 2840     		ands	r0, r0, r5
 101 0036 F0BD     		pop	{r4, r5, r6, r7, pc}
 102              	.L9:
 103 0038 0020     		movs	r0, #0
 104 003a F0BD     		pop	{r4, r5, r6, r7, pc}
 105              	.L12:
 106              		.align	2
 107              	.L11:
 108 003c 00000000 		.word	kpset32
 109 0040 00000000 		.word	kpset
 111              		.section	.text.makise_pset,"ax",%progbits
 112              		.align	1
 113              		.p2align 2,,3
 114              		.global	makise_pset
 115              		.syntax unified
 116              		.thumb
 117              		.thumb_func
 118              		.fpu fpv4-sp-d16
 120              	makise_pset:
 121              		@ args = 0, pretend = 0, frame = 0
ARM GAS  /tmp/ccNi52kG.s 			page 3


 122              		@ frame_needed = 0, uses_anonymous_args = 0
 123 0000 F0B5     		push	{r4, r5, r6, r7, lr}
 124 0002 C588     		ldrh	r5, [r0, #6]
 125 0004 8D42     		cmp	r5, r1
 126 0006 22D9     		bls	.L13
 127 0008 8488     		ldrh	r4, [r0, #4]
 128 000a 9442     		cmp	r4, r2
 129 000c 1FD9     		bls	.L13
 130 000e 0489     		ldrh	r4, [r0, #8]
 131 0010 DFF844E0 		ldr	lr, .L18+8
 132 0014 0E4F     		ldr	r7, .L18
 133 0016 C668     		ldr	r6, [r0, #12]
 134 0018 807A     		ldrb	r0, [r0, #10]	@ zero_extendqisi2
 135 001a 05FB0212 		mla	r2, r5, r2, r1
 136 001e 04FB02F2 		mul	r2, r4, r2
 137 0022 0C49     		ldr	r1, .L18+4
 138 0024 CEF80020 		str	r2, [lr]
 139 0028 5509     		lsrs	r5, r2, #5
 140 002a 02F01F02 		and	r2, r2, #31
 141 002e 3D60     		str	r5, [r7]
 142 0030 0A60     		str	r2, [r1]
 143 0032 56F82510 		ldr	r1, [r6, r5, lsl #2]
 144 0036 21FA02F4 		lsr	r4, r1, r2
 145 003a 0440     		ands	r4, r4, r0
 146 003c 9C42     		cmp	r4, r3
 147 003e 06D0     		beq	.L13
 148 0040 9040     		lsls	r0, r0, r2
 149 0042 21EA0001 		bic	r1, r1, r0
 150 0046 9340     		lsls	r3, r3, r2
 151 0048 0B43     		orrs	r3, r3, r1
 152 004a 46F82530 		str	r3, [r6, r5, lsl #2]
 153              	.L13:
 154 004e F0BD     		pop	{r4, r5, r6, r7, pc}
 155              	.L19:
 156              		.align	2
 157              	.L18:
 158 0050 00000000 		.word	kpset32
 159 0054 00000000 		.word	kpsett
 160 0058 00000000 		.word	kpset
 162              		.section	.text.makise_render,"ax",%progbits
 163              		.align	1
 164              		.p2align 2,,3
 165              		.global	makise_render
 166              		.syntax unified
 167              		.thumb
 168              		.thumb_func
 169              		.fpu fpv4-sp-d16
 171              	makise_render:
 172              		@ args = 0, pretend = 0, frame = 8
 173              		@ frame_needed = 0, uses_anonymous_args = 0
 174 0000 2DE9F04F 		push	{r4, r5, r6, r7, r8, r9, r10, fp, lr}
 175 0004 D0F80490 		ldr	r9, [r0, #4]
 176 0008 83B0     		sub	sp, sp, #12
 177 000a B9F81A80 		ldrh	r8, [r9, #26]
 178 000e 0029     		cmp	r1, #0
 179 0010 41D1     		bne	.L21
 180 0012 B9F80830 		ldrh	r3, [r9, #8]
ARM GAS  /tmp/ccNi52kG.s 			page 4


 181 0016 4344     		add	r3, r8, r3
 182 0018 0193     		str	r3, [sp, #4]
 183 001a 019A     		ldr	r2, [sp, #4]
 184 001c A9F81A30 		strh	r3, [r9, #26]	@ movhi
 185 0020 8A46     		mov	r10, r1
 186              	.L22:
 187 0022 0368     		ldr	r3, [r0]
 188 0024 D988     		ldrh	r1, [r3, #6]
 189 0026 B3F808B0 		ldrh	fp, [r3, #8]
 190 002a 0BFB01FB 		mul	fp, fp, r1
 191 002e 08FB0BFB 		mul	fp, r8, fp
 192 0032 9045     		cmp	r8, r2
 193 0034 4FEA5B1B 		lsr	fp, fp, #5
 194 0038 2AD2     		bcs	.L20
 195 003a B9F80A10 		ldrh	r1, [r9, #10]
 196 003e 0746     		mov	r7, r0
 197 0040 0024     		movs	r4, #0
 198              	.L25:
 199 0042 01B3     		cbz	r1, .L28
 200 0044 4FEA4A06 		lsl	r6, r10, #1
 201 0048 0025     		movs	r5, #0
 202              	.L27:
 203 004a D968     		ldr	r1, [r3, #12]
 204 004c 987A     		ldrb	r0, [r3, #10]	@ zero_extendqisi2
 205 004e 51F82B30 		ldr	r3, [r1, fp, lsl #2]
 206 0052 E340     		lsrs	r3, r3, r4
 207 0054 1840     		ands	r0, r0, r3
 208 0056 FFF7FEFF 		bl	makise_color_get
 209 005a 3B68     		ldr	r3, [r7]
 210 005c 1989     		ldrh	r1, [r3, #8]
 211 005e 0C44     		add	r4, r4, r1
 212 0060 D9F81010 		ldr	r1, [r9, #16]
 213 0064 80B2     		uxth	r0, r0
 214 0066 8853     		strh	r0, [r1, r6]	@ movhi
 215 0068 B9F80A10 		ldrh	r1, [r9, #10]
 216 006c 1F2C     		cmp	r4, #31
 217 006e 05F10105 		add	r5, r5, #1
 218 0072 84BF     		itt	hi
 219 0074 0BF1010B 		addhi	fp, fp, #1
 220 0078 0024     		movhi	r4, #0
 221 007a A942     		cmp	r1, r5
 222 007c 0AF1010A 		add	r10, r10, #1
 223 0080 06F10206 		add	r6, r6, #2
 224 0084 E1D8     		bhi	.L27
 225              	.L28:
 226 0086 019A     		ldr	r2, [sp, #4]
 227 0088 08F10108 		add	r8, r8, #1
 228 008c 4245     		cmp	r2, r8
 229 008e D8D1     		bne	.L25
 230              	.L20:
 231 0090 03B0     		add	sp, sp, #12
 232              		@ sp needed
 233 0092 BDE8F08F 		pop	{r4, r5, r6, r7, r8, r9, r10, fp, pc}
 234              	.L21:
 235 0096 0129     		cmp	r1, #1
 236 0098 05D0     		beq	.L35
 237 009a 0229     		cmp	r1, #2
ARM GAS  /tmp/ccNi52kG.s 			page 5


 238 009c 0CD0     		beq	.L36
 239 009e 4FF0000A 		mov	r10, #0
 240 00a2 019A     		ldr	r2, [sp, #4]
 241 00a4 BDE7     		b	.L22
 242              	.L35:
 243 00a6 B9F80830 		ldrh	r3, [r9, #8]
 244 00aa 08EB5303 		add	r3, r8, r3, lsr #1
 245 00ae 4FF0000A 		mov	r10, #0
 246 00b2 0193     		str	r3, [sp, #4]
 247 00b4 1A46     		mov	r2, r3
 248 00b6 B4E7     		b	.L22
 249              	.L36:
 250 00b8 B9F80810 		ldrh	r1, [r9, #8]
 251 00bc D9F81440 		ldr	r4, [r9, #20]
 252 00c0 4346     		mov	r3, r8
 253 00c2 0B44     		add	r3, r3, r1
 254 00c4 A9F81A30 		strh	r3, [r9, #26]	@ movhi
 255 00c8 01EB0803 		add	r3, r1, r8
 256 00cc 0193     		str	r3, [sp, #4]
 257 00ce 4FEA940A 		lsr	r10, r4, #2
 258 00d2 08EB5108 		add	r8, r8, r1, lsr #1
 259 00d6 1A46     		mov	r2, r3
 260 00d8 A3E7     		b	.L22
 262              		.comm	kpsett,4,4
 263              		.comm	kpset32,4,4
 264              		.comm	kpset,4,4
 265              		.comm	makise_color_palette,4,4
 266 00da 00BF     		.ident	"GCC: (Arch Repository) 6.3.0"
ARM GAS  /tmp/ccNi52kG.s 			page 6


DEFINED SYMBOLS
                            *ABS*:0000000000000000 makise.c
     /tmp/ccNi52kG.s:13     .text.makise_init:0000000000000000 $t
     /tmp/ccNi52kG.s:21     .text.makise_init:0000000000000000 makise_init
     /tmp/ccNi52kG.s:52     .text.makise_start:0000000000000000 $t
     /tmp/ccNi52kG.s:60     .text.makise_start:0000000000000000 makise_start
     /tmp/ccNi52kG.s:69     .text.makise_pget:0000000000000000 $t
     /tmp/ccNi52kG.s:77     .text.makise_pget:0000000000000000 makise_pget
     /tmp/ccNi52kG.s:108    .text.makise_pget:000000000000003c $d
                            *COM*:0000000000000004 kpset32
                            *COM*:0000000000000004 kpset
     /tmp/ccNi52kG.s:112    .text.makise_pset:0000000000000000 $t
     /tmp/ccNi52kG.s:120    .text.makise_pset:0000000000000000 makise_pset
     /tmp/ccNi52kG.s:158    .text.makise_pset:0000000000000050 $d
                            *COM*:0000000000000004 kpsett
     /tmp/ccNi52kG.s:163    .text.makise_render:0000000000000000 $t
     /tmp/ccNi52kG.s:171    .text.makise_render:0000000000000000 makise_render
                            *COM*:0000000000000004 makise_color_palette

UNDEFINED SYMBOLS
makise_color_get
