ARM GAS  /tmp/ccNCmtEy.s 			page 1


   1              		.cpu cortex-m4
   2              		.eabi_attribute 27, 1
   3              		.eabi_attribute 28, 1
   4              		.eabi_attribute 23, 1
   5              		.eabi_attribute 24, 1
   6              		.eabi_attribute 25, 1
   7              		.eabi_attribute 26, 1
   8              		.eabi_attribute 30, 2
   9              		.eabi_attribute 34, 1
  10              		.eabi_attribute 18, 4
  11              		.file	"makise_gui_container.c"
  12              		.section	.text.makise_g_cont_add,"ax",%progbits
  13              		.align	1
  14              		.p2align 2,,3
  15              		.global	makise_g_cont_add
  16              		.syntax unified
  17              		.thumb
  18              		.thumb_func
  19              		.fpu fpv4-sp-d16
  21              	makise_g_cont_add:
  22              		@ args = 0, pretend = 0, frame = 0
  23              		@ frame_needed = 0, uses_anonymous_args = 0
  24              		@ link register save eliminated.
  25 0000 C268     		ldr	r2, [r0, #12]
  26 0002 0861     		str	r0, [r1, #16]
  27 0004 82B1     		cbz	r2, .L9
  28 0006 0369     		ldr	r3, [r0, #16]
  29 0008 2BB1     		cbz	r3, .L6
  30              	.L4:
  31 000a 0022     		movs	r2, #0
  32 000c D960     		str	r1, [r3, #12]
  33 000e 8B60     		str	r3, [r1, #8]
  34 0010 CA60     		str	r2, [r1, #12]
  35 0012 0161     		str	r1, [r0, #16]
  36 0014 7047     		bx	lr
  37              	.L6:
  38 0016 1346     		mov	r3, r2
  39 0018 D268     		ldr	r2, [r2, #12]
  40 001a 002A     		cmp	r2, #0
  41 001c F5D0     		beq	.L4
  42 001e 1346     		mov	r3, r2
  43 0020 D268     		ldr	r2, [r2, #12]
  44 0022 002A     		cmp	r2, #0
  45 0024 F7D1     		bne	.L6
  46 0026 F0E7     		b	.L4
  47              	.L9:
  48 0028 C160     		str	r1, [r0, #12]
  49 002a 0161     		str	r1, [r0, #16]
  50 002c 4261     		str	r2, [r0, #20]
  51 002e CA60     		str	r2, [r1, #12]
  52 0030 8A60     		str	r2, [r1, #8]
  53 0032 7047     		bx	lr
  55              		.section	.text.makise_g_cont_rem,"ax",%progbits
  56              		.align	1
  57              		.p2align 2,,3
  58              		.global	makise_g_cont_rem
  59              		.syntax unified
ARM GAS  /tmp/ccNCmtEy.s 			page 2


  60              		.thumb
  61              		.thumb_func
  62              		.fpu fpv4-sp-d16
  64              	makise_g_cont_rem:
  65              		@ args = 0, pretend = 0, frame = 0
  66              		@ frame_needed = 0, uses_anonymous_args = 0
  67              		@ link register save eliminated.
  68 0000 7047     		bx	lr
  70 0002 00BF     		.section	.text.makise_g_cont_call_common_predraw,"ax",%progbits
  71              		.align	1
  72              		.p2align 2,,3
  73              		.global	makise_g_cont_call_common_predraw
  74              		.syntax unified
  75              		.thumb
  76              		.thumb_func
  77              		.fpu fpv4-sp-d16
  79              	makise_g_cont_call_common_predraw:
  80              		@ args = 0, pretend = 0, frame = 0
  81              		@ frame_needed = 0, uses_anonymous_args = 0
  82              		@ link register save eliminated.
  83 0000 0269     		ldr	r2, [r0, #16]
  84 0002 0346     		mov	r3, r0
  85 0004 6AB1     		cbz	r2, .L12
  86 0006 9168     		ldr	r1, [r2, #8]
  87 0008 59B1     		cbz	r1, .L12
  88 000a 10B4     		push	{r4}
  89 000c 8269     		ldr	r2, [r0, #24]
  90 000e 0C69     		ldr	r4, [r1, #16]
  91 0010 4869     		ldr	r0, [r1, #20]
  92 0012 D969     		ldr	r1, [r3, #28]
  93 0014 2244     		add	r2, r2, r4
  94 0016 0144     		add	r1, r1, r0
  95 0018 D962     		str	r1, [r3, #44]
  96 001a 9A62     		str	r2, [r3, #40]
  97 001c 5DF8044B 		ldr	r4, [sp], #4
  98 0020 7047     		bx	lr
  99              	.L12:
 100 0022 9A69     		ldr	r2, [r3, #24]
 101 0024 D969     		ldr	r1, [r3, #28]
 102 0026 D962     		str	r1, [r3, #44]
 103 0028 9A62     		str	r2, [r3, #40]
 104 002a 7047     		bx	lr
 106              		.section	.text.makise_g_cont_call,"ax",%progbits
 107              		.align	1
 108              		.p2align 2,,3
 109              		.global	makise_g_cont_call
 110              		.syntax unified
 111              		.thumb
 112              		.thumb_func
 113              		.fpu fpv4-sp-d16
 115              	makise_g_cont_call:
 116              		@ args = 0, pretend = 0, frame = 0
 117              		@ frame_needed = 0, uses_anonymous_args = 0
 118 0000 88B1     		cbz	r0, .L35
 119 0002 38B5     		push	{r3, r4, r5, lr}
 120 0004 C468     		ldr	r4, [r0, #12]
 121 0006 002C     		cmp	r4, #0
ARM GAS  /tmp/ccNCmtEy.s 			page 3


 122 0008 2BD0     		beq	.L36
 123 000a 4368     		ldr	r3, [r0, #4]
 124 000c 0D46     		mov	r5, r1
 125 000e 63B1     		cbz	r3, .L26
 126 0010 0229     		cmp	r1, #2
 127 0012 28D0     		beq	.L59
 128              	.L47:
 129 0014 2046     		mov	r0, r4
 130 0016 2946     		mov	r1, r5
 131 0018 FFF7FEFF 		bl	m_element_call
 132 001c E468     		ldr	r4, [r4, #12]
 133 001e 002C     		cmp	r4, #0
 134 0020 F8D1     		bne	.L47
 135              	.L31:
 136 0022 0120     		movs	r0, #1
 137 0024 38BD     		pop	{r3, r4, r5, pc}
 138              	.L35:
 139 0026 0320     		movs	r0, #3
 140 0028 7047     		bx	lr
 141              	.L26:
 142 002a 0229     		cmp	r1, #2
 143 002c F2D1     		bne	.L47
 144 002e 10E0     		b	.L34
 145              	.L60:
 146 0030 9B68     		ldr	r3, [r3, #8]
 147 0032 8BB1     		cbz	r3, .L32
 148 0034 1869     		ldr	r0, [r3, #16]
 149 0036 5969     		ldr	r1, [r3, #20]
 150 0038 A269     		ldr	r2, [r4, #24]
 151 003a E369     		ldr	r3, [r4, #28]
 152 003c 0244     		add	r2, r2, r0
 153 003e 0B44     		add	r3, r3, r1
 154 0040 A262     		str	r2, [r4, #40]
 155 0042 E362     		str	r3, [r4, #44]
 156              	.L33:
 157 0044 2046     		mov	r0, r4
 158 0046 0221     		movs	r1, #2
 159 0048 FFF7FEFF 		bl	m_element_call
 160 004c E468     		ldr	r4, [r4, #12]
 161 004e 002C     		cmp	r4, #0
 162 0050 E7D0     		beq	.L31
 163              	.L34:
 164 0052 2369     		ldr	r3, [r4, #16]
 165 0054 002B     		cmp	r3, #0
 166 0056 EBD1     		bne	.L60
 167              	.L32:
 168 0058 A269     		ldr	r2, [r4, #24]
 169 005a E369     		ldr	r3, [r4, #28]
 170 005c A262     		str	r2, [r4, #40]
 171 005e E362     		str	r3, [r4, #44]
 172 0060 F0E7     		b	.L33
 173              	.L36:
 174 0062 0320     		movs	r0, #3
 175 0064 38BD     		pop	{r3, r4, r5, pc}
 176              	.L59:
 177 0066 1A69     		ldr	r2, [r3, #16]
 178 0068 52B1     		cbz	r2, .L28
ARM GAS  /tmp/ccNCmtEy.s 			page 4


 179 006a 9268     		ldr	r2, [r2, #8]
 180 006c 42B1     		cbz	r2, .L28
 181 006e 1569     		ldr	r5, [r2, #16]
 182 0070 5069     		ldr	r0, [r2, #20]
 183 0072 9969     		ldr	r1, [r3, #24]
 184 0074 DA69     		ldr	r2, [r3, #28]
 185 0076 2944     		add	r1, r1, r5
 186 0078 0244     		add	r2, r2, r0
 187 007a 9962     		str	r1, [r3, #40]
 188 007c DA62     		str	r2, [r3, #44]
 189 007e E8E7     		b	.L34
 190              	.L28:
 191 0080 9969     		ldr	r1, [r3, #24]
 192 0082 DA69     		ldr	r2, [r3, #28]
 193 0084 9962     		str	r1, [r3, #40]
 194 0086 DA62     		str	r2, [r3, #44]
 195 0088 E3E7     		b	.L34
 197 008a 00BF     		.section	.text.makise_g_cont_input,"ax",%progbits
 198              		.align	1
 199              		.p2align 2,,3
 200              		.global	makise_g_cont_input
 201              		.syntax unified
 202              		.thumb
 203              		.thumb_func
 204              		.fpu fpv4-sp-d16
 206              	makise_g_cont_input:
 207              		@ args = 0, pretend = 0, frame = 16
 208              		@ frame_needed = 0, uses_anonymous_args = 0
 209              		@ link register save eliminated.
 210 0000 30B4     		push	{r4, r5}
 211 0002 84B0     		sub	sp, sp, #16
 212 0004 01AC     		add	r4, sp, #4
 213 0006 84E80E00 		stm	r4, {r1, r2, r3}
 214 000a 40B1     		cbz	r0, .L63
 215 000c 4069     		ldr	r0, [r0, #20]
 216 000e 50B1     		cbz	r0, .L64
 217 0010 94E80E00 		ldm	r4, {r1, r2, r3}
 218 0014 456C     		ldr	r5, [r0, #68]
 219 0016 AC46     		mov	ip, r5
 220 0018 04B0     		add	sp, sp, #16
 221              		@ sp needed
 222 001a 30BC     		pop	{r4, r5}
 223 001c 6047     		bx	ip
 224              	.L63:
 225 001e 0320     		movs	r0, #3
 226 0020 04B0     		add	sp, sp, #16
 227              		@ sp needed
 228 0022 30BC     		pop	{r4, r5}
 229 0024 7047     		bx	lr
 230              	.L64:
 231 0026 0120     		movs	r0, #1
 232 0028 04B0     		add	sp, sp, #16
 233              		@ sp needed
 234 002a 30BC     		pop	{r4, r5}
 235 002c 7047     		bx	lr
 237 002e 00BF     		.section	.text.makise_g_cont_focus_next,"ax",%progbits
 238              		.align	1
ARM GAS  /tmp/ccNCmtEy.s 			page 5


 239              		.p2align 2,,3
 240              		.global	makise_g_cont_focus_next
 241              		.syntax unified
 242              		.thumb
 243              		.thumb_func
 244              		.fpu fpv4-sp-d16
 246              	makise_g_cont_focus_next:
 247              		@ args = 0, pretend = 0, frame = 0
 248              		@ frame_needed = 0, uses_anonymous_args = 0
 249 0000 F8B1     		cbz	r0, .L84
 250 0002 38B5     		push	{r3, r4, r5, lr}
 251 0004 0546     		mov	r5, r0
 252 0006 4069     		ldr	r0, [r0, #20]
 253 0008 E8B1     		cbz	r0, .L68
 254 000a 836C     		ldr	r3, [r0, #72]
 255 000c 9BB1     		cbz	r3, .L70
 256 000e 1021     		movs	r1, #16
 257 0010 9847     		blx	r3
 258 0012 0128     		cmp	r0, #1
 259 0014 0FD0     		beq	.L70
 260 0016 6B69     		ldr	r3, [r5, #20]
 261 0018 DC68     		ldr	r4, [r3, #12]
 262 001a 14B9     		cbnz	r4, .L75
 263 001c 0DE0     		b	.L76
 264              	.L77:
 265 001e E468     		ldr	r4, [r4, #12]
 266 0020 5CB1     		cbz	r4, .L76
 267              	.L75:
 268 0022 94F83030 		ldrb	r3, [r4, #48]	@ zero_extendqisi2
 269 0026 002B     		cmp	r3, #0
 270 0028 F9D0     		beq	.L77
 271 002a 1821     		movs	r1, #24
 272 002c 2046     		mov	r0, r4
 273 002e FFF7FEFF 		bl	makise_g_focus
 274 0032 0128     		cmp	r0, #1
 275 0034 F3D1     		bne	.L77
 276              	.L70:
 277 0036 0120     		movs	r0, #1
 278 0038 38BD     		pop	{r3, r4, r5, pc}
 279              	.L76:
 280 003a 6B68     		ldr	r3, [r5, #4]
 281 003c A3B1     		cbz	r3, .L111
 282              	.L73:
 283 003e 0220     		movs	r0, #2
 284 0040 38BD     		pop	{r3, r4, r5, pc}
 285              	.L84:
 286 0042 0320     		movs	r0, #3
 287 0044 7047     		bx	lr
 288              	.L68:
 289 0046 EC68     		ldr	r4, [r5, #12]
 290 0048 1CB9     		cbnz	r4, .L82
 291 004a F8E7     		b	.L73
 292              	.L83:
 293 004c E468     		ldr	r4, [r4, #12]
 294 004e 002C     		cmp	r4, #0
 295 0050 F5D0     		beq	.L73
 296              	.L82:
ARM GAS  /tmp/ccNCmtEy.s 			page 6


 297 0052 94F83030 		ldrb	r3, [r4, #48]	@ zero_extendqisi2
 298 0056 002B     		cmp	r3, #0
 299 0058 F8D0     		beq	.L83
 300 005a 1821     		movs	r1, #24
 301 005c 2046     		mov	r0, r4
 302 005e FFF7FEFF 		bl	makise_g_focus
 303 0062 0128     		cmp	r0, #1
 304 0064 F2D1     		bne	.L83
 305 0066 E6E7     		b	.L70
 306              	.L111:
 307 0068 EC68     		ldr	r4, [r5, #12]
 308 006a 1CB9     		cbnz	r4, .L79
 309 006c E7E7     		b	.L73
 310              	.L80:
 311 006e E468     		ldr	r4, [r4, #12]
 312 0070 002C     		cmp	r4, #0
 313 0072 E4D0     		beq	.L73
 314              	.L79:
 315 0074 94F83030 		ldrb	r3, [r4, #48]	@ zero_extendqisi2
 316 0078 002B     		cmp	r3, #0
 317 007a F8D0     		beq	.L80
 318 007c 1821     		movs	r1, #24
 319 007e 2046     		mov	r0, r4
 320 0080 FFF7FEFF 		bl	makise_g_focus
 321 0084 0128     		cmp	r0, #1
 322 0086 F2D1     		bne	.L80
 323 0088 D5E7     		b	.L70
 325 008a 00BF     		.section	.text.makise_g_cont_focus_prev,"ax",%progbits
 326              		.align	1
 327              		.p2align 2,,3
 328              		.global	makise_g_cont_focus_prev
 329              		.syntax unified
 330              		.thumb
 331              		.thumb_func
 332              		.fpu fpv4-sp-d16
 334              	makise_g_cont_focus_prev:
 335              		@ args = 0, pretend = 0, frame = 0
 336              		@ frame_needed = 0, uses_anonymous_args = 0
 337 0000 F8B1     		cbz	r0, .L130
 338 0002 38B5     		push	{r3, r4, r5, lr}
 339 0004 0546     		mov	r5, r0
 340 0006 4069     		ldr	r0, [r0, #20]
 341 0008 E8B1     		cbz	r0, .L114
 342 000a 836C     		ldr	r3, [r0, #72]
 343 000c 9BB1     		cbz	r3, .L116
 344 000e 2021     		movs	r1, #32
 345 0010 9847     		blx	r3
 346 0012 0128     		cmp	r0, #1
 347 0014 0FD0     		beq	.L116
 348 0016 6B69     		ldr	r3, [r5, #20]
 349 0018 9C68     		ldr	r4, [r3, #8]
 350 001a 14B9     		cbnz	r4, .L121
 351 001c 0DE0     		b	.L122
 352              	.L123:
 353 001e A468     		ldr	r4, [r4, #8]
 354 0020 5CB1     		cbz	r4, .L122
 355              	.L121:
ARM GAS  /tmp/ccNCmtEy.s 			page 7


 356 0022 94F83030 		ldrb	r3, [r4, #48]	@ zero_extendqisi2
 357 0026 002B     		cmp	r3, #0
 358 0028 F9D0     		beq	.L123
 359 002a 2821     		movs	r1, #40
 360 002c 2046     		mov	r0, r4
 361 002e FFF7FEFF 		bl	makise_g_focus
 362 0032 0128     		cmp	r0, #1
 363 0034 F3D1     		bne	.L123
 364              	.L116:
 365 0036 0120     		movs	r0, #1
 366 0038 38BD     		pop	{r3, r4, r5, pc}
 367              	.L122:
 368 003a 6B68     		ldr	r3, [r5, #4]
 369 003c A3B1     		cbz	r3, .L157
 370              	.L119:
 371 003e 0220     		movs	r0, #2
 372 0040 38BD     		pop	{r3, r4, r5, pc}
 373              	.L130:
 374 0042 0320     		movs	r0, #3
 375 0044 7047     		bx	lr
 376              	.L114:
 377 0046 2C69     		ldr	r4, [r5, #16]
 378 0048 1CB9     		cbnz	r4, .L128
 379 004a F8E7     		b	.L119
 380              	.L129:
 381 004c A468     		ldr	r4, [r4, #8]
 382 004e 002C     		cmp	r4, #0
 383 0050 F5D0     		beq	.L119
 384              	.L128:
 385 0052 94F83030 		ldrb	r3, [r4, #48]	@ zero_extendqisi2
 386 0056 002B     		cmp	r3, #0
 387 0058 F8D0     		beq	.L129
 388 005a 2821     		movs	r1, #40
 389 005c 2046     		mov	r0, r4
 390 005e FFF7FEFF 		bl	makise_g_focus
 391 0062 0128     		cmp	r0, #1
 392 0064 F2D1     		bne	.L129
 393 0066 E6E7     		b	.L116
 394              	.L157:
 395 0068 2C69     		ldr	r4, [r5, #16]
 396 006a 1CB9     		cbnz	r4, .L125
 397 006c E7E7     		b	.L119
 398              	.L126:
 399 006e A468     		ldr	r4, [r4, #8]
 400 0070 002C     		cmp	r4, #0
 401 0072 E4D0     		beq	.L119
 402              	.L125:
 403 0074 94F83030 		ldrb	r3, [r4, #48]	@ zero_extendqisi2
 404 0078 002B     		cmp	r3, #0
 405 007a F8D0     		beq	.L126
 406 007c 2821     		movs	r1, #40
 407 007e 2046     		mov	r0, r4
 408 0080 FFF7FEFF 		bl	makise_g_focus
 409 0084 0128     		cmp	r0, #1
 410 0086 F2D1     		bne	.L126
 411 0088 D5E7     		b	.L116
 413              		.comm	makise_color_palette,4,4
ARM GAS  /tmp/ccNCmtEy.s 			page 8


 414 008a 00BF     		.ident	"GCC: (Arch Repository) 6.3.0"
ARM GAS  /tmp/ccNCmtEy.s 			page 9

