ARM GAS  /tmp/cc2HpgoR.s 			page 1


   1              		.cpu cortex-m4
   2              		.eabi_attribute 27, 1
   3              		.eabi_attribute 28, 1
   4              		.eabi_attribute 23, 1
   5              		.eabi_attribute 24, 1
   6              		.eabi_attribute 25, 1
   7              		.eabi_attribute 26, 1
   8              		.eabi_attribute 30, 2
   9              		.eabi_attribute 34, 1
  10              		.eabi_attribute 18, 4
  11              		.file	"spi.c"
  12              		.section	.text.MX_SPI1_Init,"ax",%progbits
  13              		.align	1
  14              		.p2align 2,,3
  15              		.global	MX_SPI1_Init
  16              		.syntax unified
  17              		.thumb
  18              		.thumb_func
  19              		.fpu fpv4-sp-d16
  21              	MX_SPI1_Init:
  22              		@ args = 0, pretend = 0, frame = 0
  23              		@ frame_needed = 0, uses_anonymous_args = 0
  24 0000 38B5     		push	{r3, r4, r5, lr}
  25 0002 0E4B     		ldr	r3, .L6
  26 0004 0E4A     		ldr	r2, .L6+4
  27 0006 1A60     		str	r2, [r3]
  28 0008 4FF48275 		mov	r5, #260
  29 000c 0022     		movs	r2, #0
  30 000e 4FF40074 		mov	r4, #512
  31 0012 0A21     		movs	r1, #10
  32 0014 1846     		mov	r0, r3
  33 0016 5D60     		str	r5, [r3, #4]
  34 0018 9C61     		str	r4, [r3, #24]
  35 001a D962     		str	r1, [r3, #44]
  36 001c 9A60     		str	r2, [r3, #8]
  37 001e DA60     		str	r2, [r3, #12]
  38 0020 1A61     		str	r2, [r3, #16]
  39 0022 5A61     		str	r2, [r3, #20]
  40 0024 DA61     		str	r2, [r3, #28]
  41 0026 1A62     		str	r2, [r3, #32]
  42 0028 5A62     		str	r2, [r3, #36]
  43 002a 9A62     		str	r2, [r3, #40]
  44 002c FFF7FEFF 		bl	HAL_SPI_Init
  45 0030 00B9     		cbnz	r0, .L5
  46 0032 38BD     		pop	{r3, r4, r5, pc}
  47              	.L5:
  48 0034 BDE83840 		pop	{r3, r4, r5, lr}
  49 0038 FFF7FEBF 		b	Error_Handler
  50              	.L7:
  51              		.align	2
  52              	.L6:
  53 003c 00000000 		.word	hspi1
  54 0040 00300140 		.word	1073819648
  56              		.section	.text.HAL_SPI_MspInit,"ax",%progbits
  57              		.align	1
  58              		.p2align 2,,3
  59              		.global	HAL_SPI_MspInit
ARM GAS  /tmp/cc2HpgoR.s 			page 2


  60              		.syntax unified
  61              		.thumb
  62              		.thumb_func
  63              		.fpu fpv4-sp-d16
  65              	HAL_SPI_MspInit:
  66              		@ args = 0, pretend = 0, frame = 24
  67              		@ frame_needed = 0, uses_anonymous_args = 0
  68 0000 1F4B     		ldr	r3, .L20
  69 0002 0268     		ldr	r2, [r0]
  70 0004 9A42     		cmp	r2, r3
  71 0006 00D0     		beq	.L18
  72 0008 7047     		bx	lr
  73              	.L18:
  74 000a F0B5     		push	{r4, r5, r6, r7, lr}
  75 000c 87B0     		sub	sp, sp, #28
  76 000e 0026     		movs	r6, #0
  77 0010 03F58433 		add	r3, r3, #67584
  78 0014 0096     		str	r6, [sp]
  79 0016 5A6C     		ldr	r2, [r3, #68]
  80 0018 1A4D     		ldr	r5, .L20+4
  81 001a 42F48052 		orr	r2, r2, #4096
  82 001e 5A64     		str	r2, [r3, #68]
  83 0020 5B6C     		ldr	r3, [r3, #68]
  84 0022 0396     		str	r6, [sp, #12]
  85 0024 03F48053 		and	r3, r3, #4096
  86 0028 E021     		movs	r1, #224
  87 002a 0093     		str	r3, [sp]
  88 002c 0322     		movs	r2, #3
  89 002e 0523     		movs	r3, #5
  90 0030 0227     		movs	r7, #2
  91 0032 0191     		str	r1, [sp, #4]
  92 0034 0446     		mov	r4, r0
  93 0036 01A9     		add	r1, sp, #4
  94 0038 1348     		ldr	r0, .L20+8
  95 003a 0297     		str	r7, [sp, #8]
  96 003c 0492     		str	r2, [sp, #16]
  97 003e 0593     		str	r3, [sp, #20]
  98 0040 DDF800E0 		ldr	lr, [sp]
  99 0044 114F     		ldr	r7, .L20+12
 100 0046 FFF7FEFF 		bl	HAL_GPIO_Init
 101 004a 4FF0C061 		mov	r1, #100663296
 102 004e 4022     		movs	r2, #64
 103 0050 4FF48063 		mov	r3, #1024
 104 0054 2846     		mov	r0, r5
 105 0056 EE60     		str	r6, [r5, #12]
 106 0058 6E61     		str	r6, [r5, #20]
 107 005a AE61     		str	r6, [r5, #24]
 108 005c EE61     		str	r6, [r5, #28]
 109 005e 2E62     		str	r6, [r5, #32]
 110 0060 6E62     		str	r6, [r5, #36]
 111 0062 2F60     		str	r7, [r5]
 112 0064 6960     		str	r1, [r5, #4]
 113 0066 AA60     		str	r2, [r5, #8]
 114 0068 2B61     		str	r3, [r5, #16]
 115 006a FFF7FEFF 		bl	HAL_DMA_Init
 116 006e 18B9     		cbnz	r0, .L19
 117              	.L10:
ARM GAS  /tmp/cc2HpgoR.s 			page 3


 118 0070 A564     		str	r5, [r4, #72]
 119 0072 AC63     		str	r4, [r5, #56]
 120 0074 07B0     		add	sp, sp, #28
 121              		@ sp needed
 122 0076 F0BD     		pop	{r4, r5, r6, r7, pc}
 123              	.L19:
 124 0078 FFF7FEFF 		bl	Error_Handler
 125 007c F8E7     		b	.L10
 126              	.L21:
 127 007e 00BF     		.align	2
 128              	.L20:
 129 0080 00300140 		.word	1073819648
 130 0084 00000000 		.word	hdma_spi1_tx
 131 0088 00000240 		.word	1073872896
 132 008c 58640240 		.word	1073898584
 134              		.section	.text.HAL_SPI_MspDeInit,"ax",%progbits
 135              		.align	1
 136              		.p2align 2,,3
 137              		.global	HAL_SPI_MspDeInit
 138              		.syntax unified
 139              		.thumb
 140              		.thumb_func
 141              		.fpu fpv4-sp-d16
 143              	HAL_SPI_MspDeInit:
 144              		@ args = 0, pretend = 0, frame = 0
 145              		@ frame_needed = 0, uses_anonymous_args = 0
 146 0000 0A4B     		ldr	r3, .L28
 147 0002 0268     		ldr	r2, [r0]
 148 0004 9A42     		cmp	r2, r3
 149 0006 00D0     		beq	.L27
 150 0008 7047     		bx	lr
 151              	.L27:
 152 000a 094A     		ldr	r2, .L28+4
 153 000c 10B5     		push	{r4, lr}
 154 000e 536C     		ldr	r3, [r2, #68]
 155 0010 0446     		mov	r4, r0
 156 0012 23F48053 		bic	r3, r3, #4096
 157 0016 0748     		ldr	r0, .L28+8
 158 0018 5364     		str	r3, [r2, #68]
 159 001a E021     		movs	r1, #224
 160 001c FFF7FEFF 		bl	HAL_GPIO_DeInit
 161 0020 A06C     		ldr	r0, [r4, #72]
 162 0022 BDE81040 		pop	{r4, lr}
 163 0026 FFF7FEBF 		b	HAL_DMA_DeInit
 164              	.L29:
 165 002a 00BF     		.align	2
 166              	.L28:
 167 002c 00300140 		.word	1073819648
 168 0030 00380240 		.word	1073887232
 169 0034 00000240 		.word	1073872896
 171              		.comm	hdma_spi1_tx,96,4
 172              		.comm	hspi1,88,4
 173              		.ident	"GCC: (Arch Repository) 6.3.0"
ARM GAS  /tmp/cc2HpgoR.s 			page 4

