ARM GAS  /tmp/ccHdAuxH.s 			page 1


   1              		.cpu cortex-m4
   2              		.eabi_attribute 27, 1
   3              		.eabi_attribute 28, 1
   4              		.eabi_attribute 23, 1
   5              		.eabi_attribute 24, 1
   6              		.eabi_attribute 25, 1
   7              		.eabi_attribute 26, 1
   8              		.eabi_attribute 30, 2
   9              		.eabi_attribute 34, 1
  10              		.eabi_attribute 18, 4
  11              		.file	"stm32f4xx_hal_uart.c"
  12              		.section	.text.UART_SetConfig,"ax",%progbits
  13              		.align	1
  14              		.p2align 2,,3
  15              		.syntax unified
  16              		.thumb
  17              		.thumb_func
  18              		.fpu fpv4-sp-d16
  20              	UART_SetConfig:
  21              		@ args = 0, pretend = 0, frame = 0
  22              		@ frame_needed = 0, uses_anonymous_args = 0
  23 0000 2DE9F047 		push	{r4, r5, r6, r7, r8, r9, r10, lr}
  24 0004 0468     		ldr	r4, [r0]
  25 0006 2269     		ldr	r2, [r4, #16]
  26 0008 8246     		mov	r10, r0
  27 000a C068     		ldr	r0, [r0, #12]
  28 000c DAF81C10 		ldr	r1, [r10, #28]
  29 0010 DAF80830 		ldr	r3, [r10, #8]
  30 0014 DAF81060 		ldr	r6, [r10, #16]
  31 0018 DAF81450 		ldr	r5, [r10, #20]
  32 001c 22F44052 		bic	r2, r2, #12288
  33 0020 0243     		orrs	r2, r2, r0
  34 0022 2261     		str	r2, [r4, #16]
  35 0024 E268     		ldr	r2, [r4, #12]
  36 0026 DAF81800 		ldr	r0, [r10, #24]
  37 002a 3343     		orrs	r3, r3, r6
  38 002c 22F41642 		bic	r2, r2, #38400
  39 0030 2B43     		orrs	r3, r3, r5
  40 0032 22F00C02 		bic	r2, r2, #12
  41 0036 0B43     		orrs	r3, r3, r1
  42 0038 1343     		orrs	r3, r3, r2
  43 003a E360     		str	r3, [r4, #12]
  44 003c 6369     		ldr	r3, [r4, #20]
  45 003e 23F44073 		bic	r3, r3, #768
  46 0042 0343     		orrs	r3, r3, r0
  47 0044 B1F5004F 		cmp	r1, #32768
  48 0048 6361     		str	r3, [r4, #20]
  49 004a AB4B     		ldr	r3, .L13
  50 004c 61D0     		beq	.L12
  51 004e 9C42     		cmp	r4, r3
  52 0050 00F00181 		beq	.L6
  53 0054 03F58063 		add	r3, r3, #1024
  54 0058 9C42     		cmp	r4, r3
  55 005a 00F0FC80 		beq	.L6
  56 005e FFF7FEFF 		bl	HAL_RCC_GetPCLK1Freq
  57 0062 A64F     		ldr	r7, .L13+4
  58 0064 DAF80430 		ldr	r3, [r10, #4]
ARM GAS  /tmp/ccHdAuxH.s 			page 2


  59 0068 00EB8000 		add	r0, r0, r0, lsl #2
  60 006c 00EB8000 		add	r0, r0, r0, lsl #2
  61 0070 9B00     		lsls	r3, r3, #2
  62 0072 B0FBF3F3 		udiv	r3, r0, r3
  63 0076 A7FB0323 		umull	r2, r3, r7, r3
  64 007a 5B09     		lsrs	r3, r3, #5
  65 007c 1D01     		lsls	r5, r3, #4
  66 007e FFF7FEFF 		bl	HAL_RCC_GetPCLK1Freq
  67 0082 DAF80430 		ldr	r3, [r10, #4]
  68 0086 00EB8000 		add	r0, r0, r0, lsl #2
  69 008a 9B00     		lsls	r3, r3, #2
  70 008c 00EB8000 		add	r0, r0, r0, lsl #2
  71 0090 B0FBF3F6 		udiv	r6, r0, r3
  72 0094 FFF7FEFF 		bl	HAL_RCC_GetPCLK1Freq
  73 0098 DAF80420 		ldr	r2, [r10, #4]
  74 009c 00EB8000 		add	r0, r0, r0, lsl #2
  75 00a0 9300     		lsls	r3, r2, #2
  76 00a2 00EB8000 		add	r0, r0, r0, lsl #2
  77 00a6 B0FBF3F3 		udiv	r3, r0, r3
  78 00aa A7FB0323 		umull	r2, r3, r7, r3
  79 00ae 4FF06409 		mov	r9, #100
  80 00b2 5B09     		lsrs	r3, r3, #5
  81 00b4 09FB1363 		mls	r3, r9, r3, r6
  82 00b8 1B01     		lsls	r3, r3, #4
  83 00ba 3233     		adds	r3, r3, #50
  84 00bc A7FB0323 		umull	r2, r3, r7, r3
  85 00c0 5B09     		lsrs	r3, r3, #5
  86 00c2 03F0F006 		and	r6, r3, #240
  87 00c6 FFF7FEFF 		bl	HAL_RCC_GetPCLK1Freq
  88 00ca DAF80420 		ldr	r2, [r10, #4]
  89 00ce 00EB8000 		add	r0, r0, r0, lsl #2
  90 00d2 9300     		lsls	r3, r2, #2
  91 00d4 00EB8000 		add	r0, r0, r0, lsl #2
  92 00d8 B0FBF3F8 		udiv	r8, r0, r3
  93 00dc FFF7FEFF 		bl	HAL_RCC_GetPCLK1Freq
  94 00e0 DAF80430 		ldr	r3, [r10, #4]
  95 00e4 00EB8000 		add	r0, r0, r0, lsl #2
  96 00e8 9B00     		lsls	r3, r3, #2
  97 00ea 00EB8000 		add	r0, r0, r0, lsl #2
  98 00ee B0FBF3F0 		udiv	r0, r0, r3
  99 00f2 A7FB0030 		umull	r3, r0, r7, r0
 100 00f6 4009     		lsrs	r0, r0, #5
 101 00f8 09FB1083 		mls	r3, r9, r0, r8
 102              	.L10:
 103 00fc 1B01     		lsls	r3, r3, #4
 104 00fe 3233     		adds	r3, r3, #50
 105 0100 A7FB0323 		umull	r2, r3, r7, r3
 106 0104 C3F34313 		ubfx	r3, r3, #5, #4
 107 0108 3343     		orrs	r3, r3, r6
 108 010a 2B44     		add	r3, r3, r5
 109 010c A360     		str	r3, [r4, #8]
 110 010e BDE8F087 		pop	{r4, r5, r6, r7, r8, r9, r10, pc}
 111              	.L12:
 112 0112 9C42     		cmp	r4, r3
 113 0114 5DD0     		beq	.L3
 114 0116 03F58063 		add	r3, r3, #1024
 115 011a 9C42     		cmp	r4, r3
ARM GAS  /tmp/ccHdAuxH.s 			page 3


 116 011c 59D0     		beq	.L3
 117 011e FFF7FEFF 		bl	HAL_RCC_GetPCLK1Freq
 118 0122 764F     		ldr	r7, .L13+4
 119 0124 DAF80430 		ldr	r3, [r10, #4]
 120 0128 00EB8000 		add	r0, r0, r0, lsl #2
 121 012c 00EB8000 		add	r0, r0, r0, lsl #2
 122 0130 5B00     		lsls	r3, r3, #1
 123 0132 B0FBF3F3 		udiv	r3, r0, r3
 124 0136 A7FB0323 		umull	r2, r3, r7, r3
 125 013a 5B09     		lsrs	r3, r3, #5
 126 013c 1E01     		lsls	r6, r3, #4
 127 013e FFF7FEFF 		bl	HAL_RCC_GetPCLK1Freq
 128 0142 DAF80430 		ldr	r3, [r10, #4]
 129 0146 00EB8000 		add	r0, r0, r0, lsl #2
 130 014a 5B00     		lsls	r3, r3, #1
 131 014c 00EB8000 		add	r0, r0, r0, lsl #2
 132 0150 B0FBF3F5 		udiv	r5, r0, r3
 133 0154 FFF7FEFF 		bl	HAL_RCC_GetPCLK1Freq
 134 0158 DAF80420 		ldr	r2, [r10, #4]
 135 015c 00EB8000 		add	r0, r0, r0, lsl #2
 136 0160 5300     		lsls	r3, r2, #1
 137 0162 00EB8000 		add	r0, r0, r0, lsl #2
 138 0166 B0FBF3F3 		udiv	r3, r0, r3
 139 016a A7FB0323 		umull	r2, r3, r7, r3
 140 016e 5B09     		lsrs	r3, r3, #5
 141 0170 4FF06409 		mov	r9, #100
 142 0174 09FB1353 		mls	r3, r9, r3, r5
 143 0178 DB00     		lsls	r3, r3, #3
 144 017a 3233     		adds	r3, r3, #50
 145 017c A7FB0323 		umull	r2, r3, r7, r3
 146 0180 1B09     		lsrs	r3, r3, #4
 147 0182 03F4F875 		and	r5, r3, #496
 148 0186 FFF7FEFF 		bl	HAL_RCC_GetPCLK1Freq
 149 018a DAF80420 		ldr	r2, [r10, #4]
 150 018e 00EB8000 		add	r0, r0, r0, lsl #2
 151 0192 00EB8000 		add	r0, r0, r0, lsl #2
 152 0196 5300     		lsls	r3, r2, #1
 153 0198 B0FBF3F8 		udiv	r8, r0, r3
 154 019c FFF7FEFF 		bl	HAL_RCC_GetPCLK1Freq
 155              	.L9:
 156 01a0 DAF80430 		ldr	r3, [r10, #4]
 157 01a4 00EB8000 		add	r0, r0, r0, lsl #2
 158 01a8 00EB8000 		add	r0, r0, r0, lsl #2
 159 01ac 5B00     		lsls	r3, r3, #1
 160 01ae B0FBF3F3 		udiv	r3, r0, r3
 161 01b2 A7FB0323 		umull	r2, r3, r7, r3
 162 01b6 5B09     		lsrs	r3, r3, #5
 163 01b8 09FB1383 		mls	r3, r9, r3, r8
 164 01bc DB00     		lsls	r3, r3, #3
 165 01be 3233     		adds	r3, r3, #50
 166 01c0 A7FB0323 		umull	r2, r3, r7, r3
 167 01c4 C3F34213 		ubfx	r3, r3, #5, #3
 168 01c8 3344     		add	r3, r3, r6
 169 01ca 2B44     		add	r3, r3, r5
 170 01cc A360     		str	r3, [r4, #8]
 171 01ce BDE8F087 		pop	{r4, r5, r6, r7, r8, r9, r10, pc}
 172              	.L3:
ARM GAS  /tmp/ccHdAuxH.s 			page 4


 173 01d2 FFF7FEFF 		bl	HAL_RCC_GetPCLK2Freq
 174 01d6 494F     		ldr	r7, .L13+4
 175 01d8 DAF80430 		ldr	r3, [r10, #4]
 176 01dc 00EB8000 		add	r0, r0, r0, lsl #2
 177 01e0 00EB8000 		add	r0, r0, r0, lsl #2
 178 01e4 5B00     		lsls	r3, r3, #1
 179 01e6 B0FBF3F3 		udiv	r3, r0, r3
 180 01ea A7FB0323 		umull	r2, r3, r7, r3
 181 01ee 5B09     		lsrs	r3, r3, #5
 182 01f0 1E01     		lsls	r6, r3, #4
 183 01f2 FFF7FEFF 		bl	HAL_RCC_GetPCLK2Freq
 184 01f6 DAF80430 		ldr	r3, [r10, #4]
 185 01fa 00EB8000 		add	r0, r0, r0, lsl #2
 186 01fe 5B00     		lsls	r3, r3, #1
 187 0200 00EB8000 		add	r0, r0, r0, lsl #2
 188 0204 B0FBF3F5 		udiv	r5, r0, r3
 189 0208 FFF7FEFF 		bl	HAL_RCC_GetPCLK2Freq
 190 020c DAF80420 		ldr	r2, [r10, #4]
 191 0210 00EB8000 		add	r0, r0, r0, lsl #2
 192 0214 5300     		lsls	r3, r2, #1
 193 0216 00EB8000 		add	r0, r0, r0, lsl #2
 194 021a B0FBF3F3 		udiv	r3, r0, r3
 195 021e A7FB0323 		umull	r2, r3, r7, r3
 196 0222 4FF06409 		mov	r9, #100
 197 0226 5B09     		lsrs	r3, r3, #5
 198 0228 09FB1353 		mls	r3, r9, r3, r5
 199 022c DB00     		lsls	r3, r3, #3
 200 022e 3233     		adds	r3, r3, #50
 201 0230 A7FB0323 		umull	r2, r3, r7, r3
 202 0234 1B09     		lsrs	r3, r3, #4
 203 0236 03F4F875 		and	r5, r3, #496
 204 023a FFF7FEFF 		bl	HAL_RCC_GetPCLK2Freq
 205 023e DAF80420 		ldr	r2, [r10, #4]
 206 0242 00EB8000 		add	r0, r0, r0, lsl #2
 207 0246 5300     		lsls	r3, r2, #1
 208 0248 00EB8000 		add	r0, r0, r0, lsl #2
 209 024c B0FBF3F8 		udiv	r8, r0, r3
 210 0250 FFF7FEFF 		bl	HAL_RCC_GetPCLK2Freq
 211 0254 A4E7     		b	.L9
 212              	.L6:
 213 0256 FFF7FEFF 		bl	HAL_RCC_GetPCLK2Freq
 214 025a 284F     		ldr	r7, .L13+4
 215 025c DAF80430 		ldr	r3, [r10, #4]
 216 0260 00EB8000 		add	r0, r0, r0, lsl #2
 217 0264 00EB8000 		add	r0, r0, r0, lsl #2
 218 0268 9B00     		lsls	r3, r3, #2
 219 026a B0FBF3F3 		udiv	r3, r0, r3
 220 026e A7FB0323 		umull	r2, r3, r7, r3
 221 0272 5B09     		lsrs	r3, r3, #5
 222 0274 1D01     		lsls	r5, r3, #4
 223 0276 FFF7FEFF 		bl	HAL_RCC_GetPCLK2Freq
 224 027a DAF80430 		ldr	r3, [r10, #4]
 225 027e 00EB8000 		add	r0, r0, r0, lsl #2
 226 0282 9B00     		lsls	r3, r3, #2
 227 0284 00EB8000 		add	r0, r0, r0, lsl #2
 228 0288 B0FBF3F6 		udiv	r6, r0, r3
 229 028c FFF7FEFF 		bl	HAL_RCC_GetPCLK2Freq
ARM GAS  /tmp/ccHdAuxH.s 			page 5


 230 0290 DAF80420 		ldr	r2, [r10, #4]
 231 0294 00EB8000 		add	r0, r0, r0, lsl #2
 232 0298 9300     		lsls	r3, r2, #2
 233 029a 00EB8000 		add	r0, r0, r0, lsl #2
 234 029e B0FBF3F3 		udiv	r3, r0, r3
 235 02a2 A7FB0323 		umull	r2, r3, r7, r3
 236 02a6 4FF06409 		mov	r9, #100
 237 02aa 5B09     		lsrs	r3, r3, #5
 238 02ac 09FB1363 		mls	r3, r9, r3, r6
 239 02b0 1B01     		lsls	r3, r3, #4
 240 02b2 3233     		adds	r3, r3, #50
 241 02b4 A7FB0323 		umull	r2, r3, r7, r3
 242 02b8 5B09     		lsrs	r3, r3, #5
 243 02ba 03F0F006 		and	r6, r3, #240
 244 02be FFF7FEFF 		bl	HAL_RCC_GetPCLK2Freq
 245 02c2 DAF80420 		ldr	r2, [r10, #4]
 246 02c6 00EB8000 		add	r0, r0, r0, lsl #2
 247 02ca 9300     		lsls	r3, r2, #2
 248 02cc 00EB8000 		add	r0, r0, r0, lsl #2
 249 02d0 B0FBF3F8 		udiv	r8, r0, r3
 250 02d4 FFF7FEFF 		bl	HAL_RCC_GetPCLK2Freq
 251 02d8 DAF80430 		ldr	r3, [r10, #4]
 252 02dc 00EB8000 		add	r0, r0, r0, lsl #2
 253 02e0 00EB8000 		add	r0, r0, r0, lsl #2
 254 02e4 9B00     		lsls	r3, r3, #2
 255 02e6 B0FBF3F3 		udiv	r3, r0, r3
 256 02ea A7FB0323 		umull	r2, r3, r7, r3
 257 02ee 5B09     		lsrs	r3, r3, #5
 258 02f0 09FB1383 		mls	r3, r9, r3, r8
 259 02f4 02E7     		b	.L10
 260              	.L14:
 261 02f6 00BF     		.align	2
 262              	.L13:
 263 02f8 00100140 		.word	1073811456
 264 02fc 1F85EB51 		.word	1374389535
 266              		.section	.text.HAL_UART_MspInit,"ax",%progbits
 267              		.align	1
 268              		.p2align 2,,3
 269              		.weak	HAL_UART_MspInit
 270              		.syntax unified
 271              		.thumb
 272              		.thumb_func
 273              		.fpu fpv4-sp-d16
 275              	HAL_UART_MspInit:
 276              		@ args = 0, pretend = 0, frame = 0
 277              		@ frame_needed = 0, uses_anonymous_args = 0
 278              		@ link register save eliminated.
 279 0000 7047     		bx	lr
 281 0002 00BF     		.section	.text.HAL_UART_Init,"ax",%progbits
 282              		.align	1
 283              		.p2align 2,,3
 284              		.global	HAL_UART_Init
 285              		.syntax unified
 286              		.thumb
 287              		.thumb_func
 288              		.fpu fpv4-sp-d16
 290              	HAL_UART_Init:
ARM GAS  /tmp/ccHdAuxH.s 			page 6


 291              		@ args = 0, pretend = 0, frame = 0
 292              		@ frame_needed = 0, uses_anonymous_args = 0
 293 0000 60B3     		cbz	r0, .L19
 294 0002 38B5     		push	{r3, r4, r5, lr}
 295 0004 90F83930 		ldrb	r3, [r0, #57]	@ zero_extendqisi2
 296 0008 0446     		mov	r4, r0
 297 000a 03F0FF02 		and	r2, r3, #255
 298 000e 03B3     		cbz	r3, .L24
 299              	.L18:
 300 0010 2268     		ldr	r2, [r4]
 301 0012 2423     		movs	r3, #36
 302 0014 84F83930 		strb	r3, [r4, #57]
 303 0018 D368     		ldr	r3, [r2, #12]
 304 001a 23F40053 		bic	r3, r3, #8192
 305 001e D360     		str	r3, [r2, #12]
 306 0020 2046     		mov	r0, r4
 307 0022 FFF7FEFF 		bl	UART_SetConfig
 308 0026 2368     		ldr	r3, [r4]
 309 0028 1A69     		ldr	r2, [r3, #16]
 310 002a 22F49042 		bic	r2, r2, #18432
 311 002e 1A61     		str	r2, [r3, #16]
 312 0030 5A69     		ldr	r2, [r3, #20]
 313 0032 22F02A02 		bic	r2, r2, #42
 314 0036 5A61     		str	r2, [r3, #20]
 315 0038 DA68     		ldr	r2, [r3, #12]
 316 003a 0025     		movs	r5, #0
 317 003c 2021     		movs	r1, #32
 318 003e 42F40052 		orr	r2, r2, #8192
 319 0042 DA60     		str	r2, [r3, #12]
 320 0044 2846     		mov	r0, r5
 321 0046 E563     		str	r5, [r4, #60]
 322 0048 84F83910 		strb	r1, [r4, #57]
 323 004c 84F83A10 		strb	r1, [r4, #58]
 324 0050 38BD     		pop	{r3, r4, r5, pc}
 325              	.L24:
 326 0052 80F83820 		strb	r2, [r0, #56]
 327 0056 FFF7FEFF 		bl	HAL_UART_MspInit
 328 005a D9E7     		b	.L18
 329              	.L19:
 330 005c 0120     		movs	r0, #1
 331 005e 7047     		bx	lr
 333              		.section	.text.HAL_HalfDuplex_Init,"ax",%progbits
 334              		.align	1
 335              		.p2align 2,,3
 336              		.global	HAL_HalfDuplex_Init
 337              		.syntax unified
 338              		.thumb
 339              		.thumb_func
 340              		.fpu fpv4-sp-d16
 342              	HAL_HalfDuplex_Init:
 343              		@ args = 0, pretend = 0, frame = 0
 344              		@ frame_needed = 0, uses_anonymous_args = 0
 345 0000 80B3     		cbz	r0, .L28
 346 0002 38B5     		push	{r3, r4, r5, lr}
 347 0004 90F83930 		ldrb	r3, [r0, #57]	@ zero_extendqisi2
 348 0008 0446     		mov	r4, r0
 349 000a 03F0FF02 		and	r2, r3, #255
ARM GAS  /tmp/ccHdAuxH.s 			page 7


 350 000e 23B3     		cbz	r3, .L33
 351              	.L27:
 352 0010 2268     		ldr	r2, [r4]
 353 0012 2423     		movs	r3, #36
 354 0014 84F83930 		strb	r3, [r4, #57]
 355 0018 D368     		ldr	r3, [r2, #12]
 356 001a 23F40053 		bic	r3, r3, #8192
 357 001e D360     		str	r3, [r2, #12]
 358 0020 2046     		mov	r0, r4
 359 0022 FFF7FEFF 		bl	UART_SetConfig
 360 0026 2368     		ldr	r3, [r4]
 361 0028 1A69     		ldr	r2, [r3, #16]
 362 002a 22F49042 		bic	r2, r2, #18432
 363 002e 1A61     		str	r2, [r3, #16]
 364 0030 5A69     		ldr	r2, [r3, #20]
 365 0032 22F02202 		bic	r2, r2, #34
 366 0036 5A61     		str	r2, [r3, #20]
 367 0038 5A69     		ldr	r2, [r3, #20]
 368 003a 42F00802 		orr	r2, r2, #8
 369 003e 5A61     		str	r2, [r3, #20]
 370 0040 DA68     		ldr	r2, [r3, #12]
 371 0042 0025     		movs	r5, #0
 372 0044 2021     		movs	r1, #32
 373 0046 42F40052 		orr	r2, r2, #8192
 374 004a DA60     		str	r2, [r3, #12]
 375 004c 2846     		mov	r0, r5
 376 004e E563     		str	r5, [r4, #60]
 377 0050 84F83910 		strb	r1, [r4, #57]
 378 0054 84F83A10 		strb	r1, [r4, #58]
 379 0058 38BD     		pop	{r3, r4, r5, pc}
 380              	.L33:
 381 005a 80F83820 		strb	r2, [r0, #56]
 382 005e FFF7FEFF 		bl	HAL_UART_MspInit
 383 0062 D5E7     		b	.L27
 384              	.L28:
 385 0064 0120     		movs	r0, #1
 386 0066 7047     		bx	lr
 388              		.section	.text.HAL_LIN_Init,"ax",%progbits
 389              		.align	1
 390              		.p2align 2,,3
 391              		.global	HAL_LIN_Init
 392              		.syntax unified
 393              		.thumb
 394              		.thumb_func
 395              		.fpu fpv4-sp-d16
 397              	HAL_LIN_Init:
 398              		@ args = 0, pretend = 0, frame = 0
 399              		@ frame_needed = 0, uses_anonymous_args = 0
 400 0000 0028     		cmp	r0, #0
 401 0002 38D0     		beq	.L37
 402 0004 38B5     		push	{r3, r4, r5, lr}
 403 0006 90F83930 		ldrb	r3, [r0, #57]	@ zero_extendqisi2
 404 000a 0446     		mov	r4, r0
 405 000c 0D46     		mov	r5, r1
 406 000e 03F0FF02 		and	r2, r3, #255
 407 0012 5BB3     		cbz	r3, .L42
 408              	.L36:
ARM GAS  /tmp/ccHdAuxH.s 			page 8


 409 0014 2268     		ldr	r2, [r4]
 410 0016 2423     		movs	r3, #36
 411 0018 84F83930 		strb	r3, [r4, #57]
 412 001c D368     		ldr	r3, [r2, #12]
 413 001e 23F40053 		bic	r3, r3, #8192
 414 0022 D360     		str	r3, [r2, #12]
 415 0024 2046     		mov	r0, r4
 416 0026 FFF7FEFF 		bl	UART_SetConfig
 417 002a 2368     		ldr	r3, [r4]
 418 002c 1A69     		ldr	r2, [r3, #16]
 419 002e 22F40062 		bic	r2, r2, #2048
 420 0032 1A61     		str	r2, [r3, #16]
 421 0034 5A69     		ldr	r2, [r3, #20]
 422 0036 22F02A02 		bic	r2, r2, #42
 423 003a 5A61     		str	r2, [r3, #20]
 424 003c 1A69     		ldr	r2, [r3, #16]
 425 003e 42F48042 		orr	r2, r2, #16384
 426 0042 1A61     		str	r2, [r3, #16]
 427 0044 1A69     		ldr	r2, [r3, #16]
 428 0046 22F02002 		bic	r2, r2, #32
 429 004a 1A61     		str	r2, [r3, #16]
 430 004c 1969     		ldr	r1, [r3, #16]
 431 004e 0D43     		orrs	r5, r5, r1
 432 0050 1D61     		str	r5, [r3, #16]
 433 0052 DA68     		ldr	r2, [r3, #12]
 434 0054 0025     		movs	r5, #0
 435 0056 2021     		movs	r1, #32
 436 0058 42F40052 		orr	r2, r2, #8192
 437 005c DA60     		str	r2, [r3, #12]
 438 005e 2846     		mov	r0, r5
 439 0060 E563     		str	r5, [r4, #60]
 440 0062 84F83910 		strb	r1, [r4, #57]
 441 0066 84F83A10 		strb	r1, [r4, #58]
 442 006a 38BD     		pop	{r3, r4, r5, pc}
 443              	.L42:
 444 006c 80F83820 		strb	r2, [r0, #56]
 445 0070 FFF7FEFF 		bl	HAL_UART_MspInit
 446 0074 CEE7     		b	.L36
 447              	.L37:
 448 0076 0120     		movs	r0, #1
 449 0078 7047     		bx	lr
 451 007a 00BF     		.section	.text.HAL_MultiProcessor_Init,"ax",%progbits
 452              		.align	1
 453              		.p2align 2,,3
 454              		.global	HAL_MultiProcessor_Init
 455              		.syntax unified
 456              		.thumb
 457              		.thumb_func
 458              		.fpu fpv4-sp-d16
 460              	HAL_MultiProcessor_Init:
 461              		@ args = 0, pretend = 0, frame = 0
 462              		@ frame_needed = 0, uses_anonymous_args = 0
 463 0000 0028     		cmp	r0, #0
 464 0002 3DD0     		beq	.L46
 465 0004 90F83930 		ldrb	r3, [r0, #57]	@ zero_extendqisi2
 466 0008 70B5     		push	{r4, r5, r6, lr}
 467 000a 1646     		mov	r6, r2
ARM GAS  /tmp/ccHdAuxH.s 			page 9


 468 000c 0446     		mov	r4, r0
 469 000e 0D46     		mov	r5, r1
 470 0010 03F0FF02 		and	r2, r3, #255
 471 0014 002B     		cmp	r3, #0
 472 0016 2ED0     		beq	.L51
 473              	.L45:
 474 0018 2268     		ldr	r2, [r4]
 475 001a 2423     		movs	r3, #36
 476 001c 84F83930 		strb	r3, [r4, #57]
 477 0020 D368     		ldr	r3, [r2, #12]
 478 0022 23F40053 		bic	r3, r3, #8192
 479 0026 D360     		str	r3, [r2, #12]
 480 0028 2046     		mov	r0, r4
 481 002a FFF7FEFF 		bl	UART_SetConfig
 482 002e 2368     		ldr	r3, [r4]
 483 0030 1A69     		ldr	r2, [r3, #16]
 484 0032 22F49042 		bic	r2, r2, #18432
 485 0036 1A61     		str	r2, [r3, #16]
 486 0038 5A69     		ldr	r2, [r3, #20]
 487 003a 22F02A02 		bic	r2, r2, #42
 488 003e 5A61     		str	r2, [r3, #20]
 489 0040 1A69     		ldr	r2, [r3, #16]
 490 0042 22F00F02 		bic	r2, r2, #15
 491 0046 1A61     		str	r2, [r3, #16]
 492 0048 1969     		ldr	r1, [r3, #16]
 493 004a 0D43     		orrs	r5, r5, r1
 494 004c 1D61     		str	r5, [r3, #16]
 495 004e D968     		ldr	r1, [r3, #12]
 496 0050 21F40061 		bic	r1, r1, #2048
 497 0054 D960     		str	r1, [r3, #12]
 498 0056 D968     		ldr	r1, [r3, #12]
 499 0058 3143     		orrs	r1, r1, r6
 500 005a D960     		str	r1, [r3, #12]
 501 005c DA68     		ldr	r2, [r3, #12]
 502 005e 0025     		movs	r5, #0
 503 0060 2021     		movs	r1, #32
 504 0062 42F40052 		orr	r2, r2, #8192
 505 0066 DA60     		str	r2, [r3, #12]
 506 0068 2846     		mov	r0, r5
 507 006a E563     		str	r5, [r4, #60]
 508 006c 84F83910 		strb	r1, [r4, #57]
 509 0070 84F83A10 		strb	r1, [r4, #58]
 510 0074 70BD     		pop	{r4, r5, r6, pc}
 511              	.L51:
 512 0076 80F83820 		strb	r2, [r0, #56]
 513 007a FFF7FEFF 		bl	HAL_UART_MspInit
 514 007e CBE7     		b	.L45
 515              	.L46:
 516 0080 0120     		movs	r0, #1
 517 0082 7047     		bx	lr
 519              		.section	.text.HAL_UART_MspDeInit,"ax",%progbits
 520              		.align	1
 521              		.p2align 2,,3
 522              		.weak	HAL_UART_MspDeInit
 523              		.syntax unified
 524              		.thumb
 525              		.thumb_func
ARM GAS  /tmp/ccHdAuxH.s 			page 10


 526              		.fpu fpv4-sp-d16
 528              	HAL_UART_MspDeInit:
 529              		@ args = 0, pretend = 0, frame = 0
 530              		@ frame_needed = 0, uses_anonymous_args = 0
 531              		@ link register save eliminated.
 532 0000 7047     		bx	lr
 534 0002 00BF     		.section	.text.HAL_UART_DeInit,"ax",%progbits
 535              		.align	1
 536              		.p2align 2,,3
 537              		.global	HAL_UART_DeInit
 538              		.syntax unified
 539              		.thumb
 540              		.thumb_func
 541              		.fpu fpv4-sp-d16
 543              	HAL_UART_DeInit:
 544              		@ args = 0, pretend = 0, frame = 0
 545              		@ frame_needed = 0, uses_anonymous_args = 0
 546 0000 80B1     		cbz	r0, .L55
 547 0002 10B5     		push	{r4, lr}
 548 0004 2423     		movs	r3, #36
 549 0006 0446     		mov	r4, r0
 550 0008 80F83930 		strb	r3, [r0, #57]
 551 000c FFF7FEFF 		bl	HAL_UART_MspDeInit
 552 0010 0023     		movs	r3, #0
 553 0012 E363     		str	r3, [r4, #60]
 554 0014 84F83830 		strb	r3, [r4, #56]
 555 0018 84F83930 		strb	r3, [r4, #57]
 556 001c 1846     		mov	r0, r3
 557 001e 84F83A30 		strb	r3, [r4, #58]
 558 0022 10BD     		pop	{r4, pc}
 559              	.L55:
 560 0024 0120     		movs	r0, #1
 561 0026 7047     		bx	lr
 563              		.section	.text.HAL_UART_Transmit,"ax",%progbits
 564              		.align	1
 565              		.p2align 2,,3
 566              		.global	HAL_UART_Transmit
 567              		.syntax unified
 568              		.thumb
 569              		.thumb_func
 570              		.fpu fpv4-sp-d16
 572              	HAL_UART_Transmit:
 573              		@ args = 0, pretend = 0, frame = 8
 574              		@ frame_needed = 0, uses_anonymous_args = 0
 575 0000 F0B5     		push	{r4, r5, r6, r7, lr}
 576 0002 0E46     		mov	r6, r1
 577 0004 90F83910 		ldrb	r1, [r0, #57]	@ zero_extendqisi2
 578 0008 2029     		cmp	r1, #32
 579 000a 83B0     		sub	sp, sp, #12
 580 000c 02D0     		beq	.L113
 581              	.L92:
 582 000e 0220     		movs	r0, #2
 583              	.L109:
 584 0010 03B0     		add	sp, sp, #12
 585              		@ sp needed
 586 0012 F0BD     		pop	{r4, r5, r6, r7, pc}
 587              	.L113:
ARM GAS  /tmp/ccHdAuxH.s 			page 11


 588 0014 5EB3     		cbz	r6, .L91
 589 0016 52B3     		cbz	r2, .L91
 590 0018 1F46     		mov	r7, r3
 591 001a 90F83830 		ldrb	r3, [r0, #56]	@ zero_extendqisi2
 592 001e 012B     		cmp	r3, #1
 593 0020 0446     		mov	r4, r0
 594 0022 F4D0     		beq	.L92
 595 0024 0020     		movs	r0, #0
 596 0026 0121     		movs	r1, #1
 597 0028 2123     		movs	r3, #33
 598 002a E063     		str	r0, [r4, #60]
 599 002c 84F83810 		strb	r1, [r4, #56]
 600 0030 84F83930 		strb	r3, [r4, #57]
 601 0034 0192     		str	r2, [sp, #4]
 602 0036 FFF7FEFF 		bl	HAL_GetTick
 603 003a 019A     		ldr	r2, [sp, #4]
 604 003c A284     		strh	r2, [r4, #36]	@ movhi
 605 003e 0546     		mov	r5, r0
 606 0040 2068     		ldr	r0, [r4]
 607 0042 E284     		strh	r2, [r4, #38]	@ movhi
 608              	.L62:
 609 0044 E38C     		ldrh	r3, [r4, #38]
 610 0046 9BB2     		uxth	r3, r3
 611 0048 002B     		cmp	r3, #0
 612 004a 35D0     		beq	.L80
 613 004c E28C     		ldrh	r2, [r4, #38]
 614 004e A168     		ldr	r1, [r4, #8]
 615 0050 013A     		subs	r2, r2, #1
 616 0052 92B2     		uxth	r2, r2
 617 0054 B1F5805F 		cmp	r1, #4096
 618 0058 E284     		strh	r2, [r4, #38]	@ movhi
 619 005a 15D0     		beq	.L65
 620              	.L64:
 621 005c 791C     		adds	r1, r7, #1
 622 005e 37D1     		bne	.L75
 623              	.L76:
 624 0060 0268     		ldr	r2, [r0]
 625 0062 1206     		lsls	r2, r2, #24
 626 0064 FCD5     		bpl	.L76
 627              	.L77:
 628 0066 3378     		ldrb	r3, [r6]	@ zero_extendqisi2
 629 0068 4360     		str	r3, [r0, #4]
 630              	.L112:
 631 006a 0136     		adds	r6, r6, #1
 632 006c EAE7     		b	.L62
 633              	.L91:
 634 006e 0120     		movs	r0, #1
 635 0070 CEE7     		b	.L109
 636              	.L68:
 637 0072 0368     		ldr	r3, [r0]
 638 0074 1B06     		lsls	r3, r3, #24
 639 0076 0CD4     		bmi	.L70
 640 0078 002F     		cmp	r7, #0
 641 007a 33D0     		beq	.L81
 642 007c FFF7FEFF 		bl	HAL_GetTick
 643 0080 401B     		subs	r0, r0, r5
 644 0082 8742     		cmp	r7, r0
ARM GAS  /tmp/ccHdAuxH.s 			page 12


 645 0084 2068     		ldr	r0, [r4]
 646 0086 2DD3     		bcc	.L81
 647              	.L65:
 648 0088 791C     		adds	r1, r7, #1
 649 008a F2D1     		bne	.L68
 650              	.L69:
 651 008c 0268     		ldr	r2, [r0]
 652 008e 1206     		lsls	r2, r2, #24
 653 0090 FCD5     		bpl	.L69
 654              	.L70:
 655 0092 3388     		ldrh	r3, [r6]
 656 0094 2269     		ldr	r2, [r4, #16]
 657 0096 C3F30803 		ubfx	r3, r3, #0, #9
 658 009a 4360     		str	r3, [r0, #4]
 659 009c 002A     		cmp	r2, #0
 660 009e E4D1     		bne	.L112
 661 00a0 0236     		adds	r6, r6, #2
 662 00a2 CFE7     		b	.L62
 663              	.L83:
 664 00a4 0368     		ldr	r3, [r0]
 665 00a6 5B06     		lsls	r3, r3, #25
 666 00a8 0BD4     		bmi	.L85
 667 00aa DFB1     		cbz	r7, .L81
 668 00ac FFF7FEFF 		bl	HAL_GetTick
 669 00b0 401B     		subs	r0, r0, r5
 670 00b2 8742     		cmp	r7, r0
 671 00b4 2068     		ldr	r0, [r4]
 672 00b6 15D3     		bcc	.L81
 673              	.L80:
 674 00b8 791C     		adds	r1, r7, #1
 675 00ba F3D1     		bne	.L83
 676              	.L84:
 677 00bc 0368     		ldr	r3, [r0]
 678 00be 5A06     		lsls	r2, r3, #25
 679 00c0 FCD5     		bpl	.L84
 680              	.L85:
 681 00c2 2023     		movs	r3, #32
 682 00c4 0020     		movs	r0, #0
 683 00c6 84F83930 		strb	r3, [r4, #57]
 684 00ca 84F83800 		strb	r0, [r4, #56]
 685 00ce 9FE7     		b	.L109
 686              	.L75:
 687 00d0 0368     		ldr	r3, [r0]
 688 00d2 1B06     		lsls	r3, r3, #24
 689 00d4 C7D4     		bmi	.L77
 690 00d6 2FB1     		cbz	r7, .L81
 691 00d8 FFF7FEFF 		bl	HAL_GetTick
 692 00dc 401B     		subs	r0, r0, r5
 693 00de 8742     		cmp	r7, r0
 694 00e0 2068     		ldr	r0, [r4]
 695 00e2 BBD2     		bcs	.L64
 696              	.L81:
 697 00e4 C368     		ldr	r3, [r0, #12]
 698 00e6 23F4D073 		bic	r3, r3, #416
 699 00ea C360     		str	r3, [r0, #12]
 700 00ec 4369     		ldr	r3, [r0, #20]
 701 00ee 2022     		movs	r2, #32
ARM GAS  /tmp/ccHdAuxH.s 			page 13


 702 00f0 23F00103 		bic	r3, r3, #1
 703 00f4 0021     		movs	r1, #0
 704 00f6 4361     		str	r3, [r0, #20]
 705 00f8 84F83920 		strb	r2, [r4, #57]
 706 00fc 0320     		movs	r0, #3
 707 00fe 84F83810 		strb	r1, [r4, #56]
 708 0102 84F83A20 		strb	r2, [r4, #58]
 709 0106 83E7     		b	.L109
 711              		.section	.text.HAL_UART_Receive,"ax",%progbits
 712              		.align	1
 713              		.p2align 2,,3
 714              		.global	HAL_UART_Receive
 715              		.syntax unified
 716              		.thumb
 717              		.thumb_func
 718              		.fpu fpv4-sp-d16
 720              	HAL_UART_Receive:
 721              		@ args = 0, pretend = 0, frame = 8
 722              		@ frame_needed = 0, uses_anonymous_args = 0
 723 0000 F0B5     		push	{r4, r5, r6, r7, lr}
 724 0002 0E46     		mov	r6, r1
 725 0004 90F83A10 		ldrb	r1, [r0, #58]	@ zero_extendqisi2
 726 0008 2029     		cmp	r1, #32
 727 000a 83B0     		sub	sp, sp, #12
 728 000c 02D0     		beq	.L160
 729              	.L138:
 730 000e 0220     		movs	r0, #2
 731              	.L153:
 732 0010 03B0     		add	sp, sp, #12
 733              		@ sp needed
 734 0012 F0BD     		pop	{r4, r5, r6, r7, pc}
 735              	.L160:
 736 0014 002E     		cmp	r6, #0
 737 0016 2FD0     		beq	.L137
 738 0018 002A     		cmp	r2, #0
 739 001a 2DD0     		beq	.L137
 740 001c 1F46     		mov	r7, r3
 741 001e 90F83830 		ldrb	r3, [r0, #56]	@ zero_extendqisi2
 742 0022 012B     		cmp	r3, #1
 743 0024 0446     		mov	r4, r0
 744 0026 F2D0     		beq	.L138
 745 0028 0020     		movs	r0, #0
 746 002a 0121     		movs	r1, #1
 747 002c 2223     		movs	r3, #34
 748 002e E063     		str	r0, [r4, #60]
 749 0030 84F83810 		strb	r1, [r4, #56]
 750 0034 84F83A30 		strb	r3, [r4, #58]
 751 0038 0192     		str	r2, [sp, #4]
 752 003a FFF7FEFF 		bl	HAL_GetTick
 753 003e 019A     		ldr	r2, [sp, #4]
 754 0040 A285     		strh	r2, [r4, #44]	@ movhi
 755 0042 0546     		mov	r5, r0
 756 0044 E285     		strh	r2, [r4, #46]	@ movhi
 757              	.L116:
 758 0046 E08D     		ldrh	r0, [r4, #46]
 759 0048 80B2     		uxth	r0, r0
 760 004a 0028     		cmp	r0, #0
ARM GAS  /tmp/ccHdAuxH.s 			page 14


 761 004c 54D0     		beq	.L161
 762 004e E28D     		ldrh	r2, [r4, #46]
 763 0050 A368     		ldr	r3, [r4, #8]
 764 0052 013A     		subs	r2, r2, #1
 765 0054 92B2     		uxth	r2, r2
 766 0056 B3F5805F 		cmp	r3, #4096
 767 005a E285     		strh	r2, [r4, #46]	@ movhi
 768 005c 17D0     		beq	.L117
 769              	.L118:
 770 005e 791C     		adds	r1, r7, #1
 771 0060 2068     		ldr	r0, [r4]
 772 0062 22D1     		bne	.L126
 773              	.L127:
 774 0064 0268     		ldr	r2, [r0]
 775 0066 9206     		lsls	r2, r2, #26
 776 0068 FCD5     		bpl	.L127
 777              	.L128:
 778 006a 2369     		ldr	r3, [r4, #16]
 779 006c 002B     		cmp	r3, #0
 780 006e 38D1     		bne	.L162
 781 0070 4368     		ldr	r3, [r0, #4]
 782 0072 3370     		strb	r3, [r6]
 783 0074 0136     		adds	r6, r6, #1
 784 0076 E6E7     		b	.L116
 785              	.L137:
 786 0078 0120     		movs	r0, #1
 787 007a C9E7     		b	.L153
 788              	.L120:
 789 007c 0368     		ldr	r3, [r0]
 790 007e 9B06     		lsls	r3, r3, #26
 791 0080 0BD4     		bmi	.L122
 792 0082 E7B1     		cbz	r7, .L125
 793 0084 FFF7FEFF 		bl	HAL_GetTick
 794 0088 401B     		subs	r0, r0, r5
 795 008a 8742     		cmp	r7, r0
 796 008c 16D3     		bcc	.L157
 797              	.L117:
 798 008e 791C     		adds	r1, r7, #1
 799 0090 2068     		ldr	r0, [r4]
 800 0092 F3D1     		bne	.L120
 801              	.L121:
 802 0094 0268     		ldr	r2, [r0]
 803 0096 9206     		lsls	r2, r2, #26
 804 0098 FCD5     		bpl	.L121
 805              	.L122:
 806 009a 2369     		ldr	r3, [r4, #16]
 807 009c 3BBB     		cbnz	r3, .L163
 808 009e 4368     		ldr	r3, [r0, #4]
 809 00a0 C3F30803 		ubfx	r3, r3, #0, #9
 810 00a4 26F8023B 		strh	r3, [r6], #2	@ movhi
 811 00a8 CDE7     		b	.L116
 812              	.L126:
 813 00aa 0368     		ldr	r3, [r0]
 814 00ac 9B06     		lsls	r3, r3, #26
 815 00ae DCD4     		bmi	.L128
 816 00b0 2FB1     		cbz	r7, .L125
 817 00b2 FFF7FEFF 		bl	HAL_GetTick
ARM GAS  /tmp/ccHdAuxH.s 			page 15


 818 00b6 401B     		subs	r0, r0, r5
 819 00b8 8742     		cmp	r7, r0
 820 00ba D0D2     		bcs	.L118
 821              	.L157:
 822 00bc 2068     		ldr	r0, [r4]
 823              	.L125:
 824 00be C368     		ldr	r3, [r0, #12]
 825 00c0 23F4D073 		bic	r3, r3, #416
 826 00c4 C360     		str	r3, [r0, #12]
 827 00c6 4369     		ldr	r3, [r0, #20]
 828 00c8 2022     		movs	r2, #32
 829 00ca 23F00103 		bic	r3, r3, #1
 830 00ce 0021     		movs	r1, #0
 831 00d0 4361     		str	r3, [r0, #20]
 832 00d2 84F83920 		strb	r2, [r4, #57]
 833 00d6 0320     		movs	r0, #3
 834 00d8 84F83810 		strb	r1, [r4, #56]
 835 00dc 84F83A20 		strb	r2, [r4, #58]
 836 00e0 96E7     		b	.L153
 837              	.L162:
 838 00e2 4368     		ldr	r3, [r0, #4]
 839 00e4 03F07F03 		and	r3, r3, #127
 840 00e8 3370     		strb	r3, [r6]
 841 00ea 0136     		adds	r6, r6, #1
 842 00ec ABE7     		b	.L116
 843              	.L163:
 844 00ee 4368     		ldr	r3, [r0, #4]
 845 00f0 DBB2     		uxtb	r3, r3
 846 00f2 26F8013B 		strh	r3, [r6], #1	@ movhi
 847 00f6 A6E7     		b	.L116
 848              	.L161:
 849 00f8 2023     		movs	r3, #32
 850 00fa 84F83800 		strb	r0, [r4, #56]
 851 00fe 84F83A30 		strb	r3, [r4, #58]
 852 0102 85E7     		b	.L153
 854              		.section	.text.HAL_UART_Transmit_IT,"ax",%progbits
 855              		.align	1
 856              		.p2align 2,,3
 857              		.global	HAL_UART_Transmit_IT
 858              		.syntax unified
 859              		.thumb
 860              		.thumb_func
 861              		.fpu fpv4-sp-d16
 863              	HAL_UART_Transmit_IT:
 864              		@ args = 0, pretend = 0, frame = 0
 865              		@ frame_needed = 0, uses_anonymous_args = 0
 866              		@ link register save eliminated.
 867 0000 90F83930 		ldrb	r3, [r0, #57]	@ zero_extendqisi2
 868 0004 202B     		cmp	r3, #32
 869 0006 01D0     		beq	.L174
 870              	.L169:
 871 0008 0220     		movs	r0, #2
 872 000a 7047     		bx	lr
 873              	.L174:
 874 000c B9B1     		cbz	r1, .L168
 875 000e B2B1     		cbz	r2, .L168
 876 0010 90F83830 		ldrb	r3, [r0, #56]	@ zero_extendqisi2
ARM GAS  /tmp/ccHdAuxH.s 			page 16


 877 0014 012B     		cmp	r3, #1
 878 0016 F7D0     		beq	.L169
 879 0018 30B4     		push	{r4, r5}
 880 001a 0023     		movs	r3, #0
 881 001c 0568     		ldr	r5, [r0]
 882 001e C284     		strh	r2, [r0, #38]	@ movhi
 883 0020 2124     		movs	r4, #33
 884 0022 C363     		str	r3, [r0, #60]
 885 0024 80F83940 		strb	r4, [r0, #57]
 886 0028 EC68     		ldr	r4, [r5, #12]
 887 002a 0162     		str	r1, [r0, #32]
 888 002c 44F08004 		orr	r4, r4, #128
 889 0030 8284     		strh	r2, [r0, #36]	@ movhi
 890 0032 80F83830 		strb	r3, [r0, #56]
 891 0036 1846     		mov	r0, r3
 892 0038 EC60     		str	r4, [r5, #12]
 893 003a 30BC     		pop	{r4, r5}
 894 003c 7047     		bx	lr
 895              	.L168:
 896 003e 0120     		movs	r0, #1
 897 0040 7047     		bx	lr
 899 0042 00BF     		.section	.text.HAL_UART_Receive_IT,"ax",%progbits
 900              		.align	1
 901              		.p2align 2,,3
 902              		.global	HAL_UART_Receive_IT
 903              		.syntax unified
 904              		.thumb
 905              		.thumb_func
 906              		.fpu fpv4-sp-d16
 908              	HAL_UART_Receive_IT:
 909              		@ args = 0, pretend = 0, frame = 0
 910              		@ frame_needed = 0, uses_anonymous_args = 0
 911              		@ link register save eliminated.
 912 0000 90F83A30 		ldrb	r3, [r0, #58]	@ zero_extendqisi2
 913 0004 202B     		cmp	r3, #32
 914 0006 01D0     		beq	.L185
 915              	.L180:
 916 0008 0220     		movs	r0, #2
 917 000a 7047     		bx	lr
 918              	.L185:
 919 000c D9B1     		cbz	r1, .L179
 920 000e D2B1     		cbz	r2, .L179
 921 0010 90F83830 		ldrb	r3, [r0, #56]	@ zero_extendqisi2
 922 0014 012B     		cmp	r3, #1
 923 0016 F7D0     		beq	.L180
 924 0018 30B4     		push	{r4, r5}
 925 001a 0023     		movs	r3, #0
 926 001c 0468     		ldr	r4, [r0]
 927 001e C285     		strh	r2, [r0, #46]	@ movhi
 928 0020 2225     		movs	r5, #34
 929 0022 C363     		str	r3, [r0, #60]
 930 0024 80F83A50 		strb	r5, [r0, #58]
 931 0028 6569     		ldr	r5, [r4, #20]
 932 002a 8285     		strh	r2, [r0, #44]	@ movhi
 933 002c 45F00105 		orr	r5, r5, #1
 934 0030 8162     		str	r1, [r0, #40]
 935 0032 80F83830 		strb	r3, [r0, #56]
ARM GAS  /tmp/ccHdAuxH.s 			page 17


 936 0036 6561     		str	r5, [r4, #20]
 937 0038 E268     		ldr	r2, [r4, #12]
 938 003a 42F49072 		orr	r2, r2, #288
 939 003e 1846     		mov	r0, r3
 940 0040 E260     		str	r2, [r4, #12]
 941 0042 30BC     		pop	{r4, r5}
 942 0044 7047     		bx	lr
 943              	.L179:
 944 0046 0120     		movs	r0, #1
 945 0048 7047     		bx	lr
 947 004a 00BF     		.section	.text.HAL_UART_Transmit_DMA,"ax",%progbits
 948              		.align	1
 949              		.p2align 2,,3
 950              		.global	HAL_UART_Transmit_DMA
 951              		.syntax unified
 952              		.thumb
 953              		.thumb_func
 954              		.fpu fpv4-sp-d16
 956              	HAL_UART_Transmit_DMA:
 957              		@ args = 0, pretend = 0, frame = 0
 958              		@ frame_needed = 0, uses_anonymous_args = 0
 959 0000 F8B5     		push	{r3, r4, r5, r6, r7, lr}
 960 0002 90F83940 		ldrb	r4, [r0, #57]	@ zero_extendqisi2
 961 0006 202C     		cmp	r4, #32
 962 0008 01D0     		beq	.L193
 963              	.L191:
 964 000a 0220     		movs	r0, #2
 965 000c F8BD     		pop	{r3, r4, r5, r6, r7, pc}
 966              	.L193:
 967 000e 59B3     		cbz	r1, .L190
 968 0010 52B3     		cbz	r2, .L190
 969 0012 90F83840 		ldrb	r4, [r0, #56]	@ zero_extendqisi2
 970 0016 012C     		cmp	r4, #1
 971 0018 F7D0     		beq	.L191
 972 001a 0446     		mov	r4, r0
 973 001c 0126     		movs	r6, #1
 974 001e 006B     		ldr	r0, [r0, #48]
 975 0020 84F83860 		strb	r6, [r4, #56]
 976 0024 1346     		mov	r3, r2
 977 0026 0025     		movs	r5, #0
 978 0028 2268     		ldr	r2, [r4]
 979 002a E384     		strh	r3, [r4, #38]	@ movhi
 980 002c 2126     		movs	r6, #33
 981 002e E563     		str	r5, [r4, #60]
 982 0030 DFF840E0 		ldr	lr, .L194+8
 983 0034 84F83960 		strb	r6, [r4, #57]
 984 0038 0C4F     		ldr	r7, .L194
 985 003a 0D4E     		ldr	r6, .L194+4
 986 003c A384     		strh	r3, [r4, #36]	@ movhi
 987 003e 2162     		str	r1, [r4, #32]
 988 0040 0432     		adds	r2, r2, #4
 989 0042 0565     		str	r5, [r0, #80]
 990 0044 C0F83CE0 		str	lr, [r0, #60]
 991 0048 0764     		str	r7, [r0, #64]
 992 004a C664     		str	r6, [r0, #76]
 993 004c FFF7FEFF 		bl	HAL_DMA_Start_IT
 994 0050 2368     		ldr	r3, [r4]
ARM GAS  /tmp/ccHdAuxH.s 			page 18


 995 0052 6FF04002 		mvn	r2, #64
 996 0056 1A60     		str	r2, [r3]
 997 0058 5A69     		ldr	r2, [r3, #20]
 998 005a 84F83850 		strb	r5, [r4, #56]
 999 005e 42F08002 		orr	r2, r2, #128
 1000 0062 2846     		mov	r0, r5
 1001 0064 5A61     		str	r2, [r3, #20]
 1002 0066 F8BD     		pop	{r3, r4, r5, r6, r7, pc}
 1003              	.L190:
 1004 0068 0120     		movs	r0, #1
 1005 006a F8BD     		pop	{r3, r4, r5, r6, r7, pc}
 1006              	.L195:
 1007              		.align	2
 1008              	.L194:
 1009 006c 00000000 		.word	UART_DMATxHalfCplt
 1010 0070 00000000 		.word	UART_DMAError
 1011 0074 00000000 		.word	UART_DMATransmitCplt
 1013              		.section	.text.HAL_UART_Receive_DMA,"ax",%progbits
 1014              		.align	1
 1015              		.p2align 2,,3
 1016              		.global	HAL_UART_Receive_DMA
 1017              		.syntax unified
 1018              		.thumb
 1019              		.thumb_func
 1020              		.fpu fpv4-sp-d16
 1022              	HAL_UART_Receive_DMA:
 1023              		@ args = 0, pretend = 0, frame = 0
 1024              		@ frame_needed = 0, uses_anonymous_args = 0
 1025 0000 F8B5     		push	{r3, r4, r5, r6, r7, lr}
 1026 0002 90F83A40 		ldrb	r4, [r0, #58]	@ zero_extendqisi2
 1027 0006 202C     		cmp	r4, #32
 1028 0008 01D0     		beq	.L203
 1029              	.L201:
 1030 000a 0220     		movs	r0, #2
 1031 000c F8BD     		pop	{r3, r4, r5, r6, r7, pc}
 1032              	.L203:
 1033 000e 0029     		cmp	r1, #0
 1034 0010 2FD0     		beq	.L200
 1035 0012 002A     		cmp	r2, #0
 1036 0014 2DD0     		beq	.L200
 1037 0016 90F83830 		ldrb	r3, [r0, #56]	@ zero_extendqisi2
 1038 001a 012B     		cmp	r3, #1
 1039 001c F5D0     		beq	.L201
 1040 001e 0446     		mov	r4, r0
 1041 0020 0127     		movs	r7, #1
 1042 0022 406B     		ldr	r0, [r0, #52]
 1043 0024 144E     		ldr	r6, .L204
 1044 0026 84F83870 		strb	r7, [r4, #56]
 1045 002a 0025     		movs	r5, #0
 1046 002c 1346     		mov	r3, r2
 1047 002e 2227     		movs	r7, #34
 1048 0030 0A46     		mov	r2, r1
 1049 0032 2168     		ldr	r1, [r4]
 1050 0034 A262     		str	r2, [r4, #40]
 1051 0036 A385     		strh	r3, [r4, #44]	@ movhi
 1052 0038 E563     		str	r5, [r4, #60]
 1053 003a 84F83A70 		strb	r7, [r4, #58]
ARM GAS  /tmp/ccHdAuxH.s 			page 19


 1054 003e 0F4F     		ldr	r7, .L204+4
 1055 0040 C663     		str	r6, [r0, #60]
 1056 0042 0F4E     		ldr	r6, .L204+8
 1057 0044 0565     		str	r5, [r0, #80]
 1058 0046 0764     		str	r7, [r0, #64]
 1059 0048 C664     		str	r6, [r0, #76]
 1060 004a 0431     		adds	r1, r1, #4
 1061 004c FFF7FEFF 		bl	HAL_DMA_Start_IT
 1062 0050 2368     		ldr	r3, [r4]
 1063 0052 DA68     		ldr	r2, [r3, #12]
 1064 0054 42F48072 		orr	r2, r2, #256
 1065 0058 DA60     		str	r2, [r3, #12]
 1066 005a 5A69     		ldr	r2, [r3, #20]
 1067 005c 42F00102 		orr	r2, r2, #1
 1068 0060 5A61     		str	r2, [r3, #20]
 1069 0062 5A69     		ldr	r2, [r3, #20]
 1070 0064 42F04002 		orr	r2, r2, #64
 1071 0068 5A61     		str	r2, [r3, #20]
 1072 006a 2846     		mov	r0, r5
 1073 006c 84F83850 		strb	r5, [r4, #56]
 1074 0070 F8BD     		pop	{r3, r4, r5, r6, r7, pc}
 1075              	.L200:
 1076 0072 0120     		movs	r0, #1
 1077 0074 F8BD     		pop	{r3, r4, r5, r6, r7, pc}
 1078              	.L205:
 1079 0076 00BF     		.align	2
 1080              	.L204:
 1081 0078 00000000 		.word	UART_DMAReceiveCplt
 1082 007c 00000000 		.word	UART_DMARxHalfCplt
 1083 0080 00000000 		.word	UART_DMAError
 1085              		.section	.text.HAL_UART_DMAPause,"ax",%progbits
 1086              		.align	1
 1087              		.p2align 2,,3
 1088              		.global	HAL_UART_DMAPause
 1089              		.syntax unified
 1090              		.thumb
 1091              		.thumb_func
 1092              		.fpu fpv4-sp-d16
 1094              	HAL_UART_DMAPause:
 1095              		@ args = 0, pretend = 0, frame = 0
 1096              		@ frame_needed = 0, uses_anonymous_args = 0
 1097              		@ link register save eliminated.
 1098 0000 90F83830 		ldrb	r3, [r0, #56]	@ zero_extendqisi2
 1099 0004 012B     		cmp	r3, #1
 1100 0006 15D0     		beq	.L210
 1101 0008 0368     		ldr	r3, [r0]
 1102 000a 10B4     		push	{r4}
 1103 000c 5C69     		ldr	r4, [r3, #20]
 1104 000e 90F83920 		ldrb	r2, [r0, #57]	@ zero_extendqisi2
 1105 0012 0121     		movs	r1, #1
 1106 0014 212A     		cmp	r2, #33
 1107 0016 80F83810 		strb	r1, [r0, #56]
 1108 001a 1CD0     		beq	.L221
 1109              	.L208:
 1110 001c 5969     		ldr	r1, [r3, #20]
 1111 001e 90F83A20 		ldrb	r2, [r0, #58]	@ zero_extendqisi2
 1112 0022 222A     		cmp	r2, #34
ARM GAS  /tmp/ccHdAuxH.s 			page 20


 1113 0024 08D0     		beq	.L222
 1114              	.L209:
 1115 0026 0023     		movs	r3, #0
 1116 0028 80F83830 		strb	r3, [r0, #56]
 1117 002c 5DF8044B 		ldr	r4, [sp], #4
 1118 0030 1846     		mov	r0, r3
 1119 0032 7047     		bx	lr
 1120              	.L210:
 1121 0034 0220     		movs	r0, #2
 1122 0036 7047     		bx	lr
 1123              	.L222:
 1124 0038 4A06     		lsls	r2, r1, #25
 1125 003a F4D5     		bpl	.L209
 1126 003c DA68     		ldr	r2, [r3, #12]
 1127 003e 22F48072 		bic	r2, r2, #256
 1128 0042 DA60     		str	r2, [r3, #12]
 1129 0044 5A69     		ldr	r2, [r3, #20]
 1130 0046 22F00102 		bic	r2, r2, #1
 1131 004a 5A61     		str	r2, [r3, #20]
 1132 004c 5A69     		ldr	r2, [r3, #20]
 1133 004e 22F04002 		bic	r2, r2, #64
 1134 0052 5A61     		str	r2, [r3, #20]
 1135 0054 E7E7     		b	.L209
 1136              	.L221:
 1137 0056 2106     		lsls	r1, r4, #24
 1138 0058 E0D5     		bpl	.L208
 1139 005a 5A69     		ldr	r2, [r3, #20]
 1140 005c 22F08002 		bic	r2, r2, #128
 1141 0060 5A61     		str	r2, [r3, #20]
 1142 0062 DBE7     		b	.L208
 1144              		.section	.text.HAL_UART_DMAResume,"ax",%progbits
 1145              		.align	1
 1146              		.p2align 2,,3
 1147              		.global	HAL_UART_DMAResume
 1148              		.syntax unified
 1149              		.thumb
 1150              		.thumb_func
 1151              		.fpu fpv4-sp-d16
 1153              	HAL_UART_DMAResume:
 1154              		@ args = 0, pretend = 0, frame = 8
 1155              		@ frame_needed = 0, uses_anonymous_args = 0
 1156              		@ link register save eliminated.
 1157 0000 90F83830 		ldrb	r3, [r0, #56]	@ zero_extendqisi2
 1158 0004 012B     		cmp	r3, #1
 1159 0006 0FD0     		beq	.L227
 1160 0008 90F83930 		ldrb	r3, [r0, #57]	@ zero_extendqisi2
 1161 000c 0122     		movs	r2, #1
 1162 000e 212B     		cmp	r3, #33
 1163 0010 80F83820 		strb	r2, [r0, #56]
 1164 0014 25D0     		beq	.L233
 1165 0016 90F83A30 		ldrb	r3, [r0, #58]	@ zero_extendqisi2
 1166 001a 222B     		cmp	r3, #34
 1167 001c 06D0     		beq	.L234
 1168              	.L229:
 1169 001e 0023     		movs	r3, #0
 1170 0020 80F83830 		strb	r3, [r0, #56]
 1171 0024 1846     		mov	r0, r3
ARM GAS  /tmp/ccHdAuxH.s 			page 21


 1172 0026 7047     		bx	lr
 1173              	.L227:
 1174 0028 0220     		movs	r0, #2
 1175 002a 7047     		bx	lr
 1176              	.L234:
 1177 002c 82B0     		sub	sp, sp, #8
 1178 002e 0368     		ldr	r3, [r0]
 1179 0030 0022     		movs	r2, #0
 1180 0032 0192     		str	r2, [sp, #4]
 1181 0034 1A68     		ldr	r2, [r3]
 1182 0036 0192     		str	r2, [sp, #4]
 1183 0038 5A68     		ldr	r2, [r3, #4]
 1184 003a 0192     		str	r2, [sp, #4]
 1185 003c 019A     		ldr	r2, [sp, #4]
 1186 003e DA68     		ldr	r2, [r3, #12]
 1187 0040 42F48072 		orr	r2, r2, #256
 1188 0044 DA60     		str	r2, [r3, #12]
 1189 0046 5A69     		ldr	r2, [r3, #20]
 1190 0048 42F00102 		orr	r2, r2, #1
 1191 004c 5A61     		str	r2, [r3, #20]
 1192 004e 5A69     		ldr	r2, [r3, #20]
 1193 0050 42F04002 		orr	r2, r2, #64
 1194 0054 5A61     		str	r2, [r3, #20]
 1195 0056 0023     		movs	r3, #0
 1196 0058 80F83830 		strb	r3, [r0, #56]
 1197 005c 1846     		mov	r0, r3
 1198 005e 02B0     		add	sp, sp, #8
 1199              		@ sp needed
 1200 0060 7047     		bx	lr
 1201              	.L233:
 1202 0062 0268     		ldr	r2, [r0]
 1203 0064 5369     		ldr	r3, [r2, #20]
 1204 0066 43F08003 		orr	r3, r3, #128
 1205 006a 5361     		str	r3, [r2, #20]
 1206 006c 90F83A30 		ldrb	r3, [r0, #58]	@ zero_extendqisi2
 1207 0070 222B     		cmp	r3, #34
 1208 0072 D4D1     		bne	.L229
 1209 0074 DAE7     		b	.L234
 1211 0076 00BF     		.section	.text.HAL_UART_DMAStop,"ax",%progbits
 1212              		.align	1
 1213              		.p2align 2,,3
 1214              		.global	HAL_UART_DMAStop
 1215              		.syntax unified
 1216              		.thumb
 1217              		.thumb_func
 1218              		.fpu fpv4-sp-d16
 1220              	HAL_UART_DMAStop:
 1221              		@ args = 0, pretend = 0, frame = 0
 1222              		@ frame_needed = 0, uses_anonymous_args = 0
 1223 0000 0368     		ldr	r3, [r0]
 1224 0002 5969     		ldr	r1, [r3, #20]
 1225 0004 90F83920 		ldrb	r2, [r0, #57]	@ zero_extendqisi2
 1226 0008 212A     		cmp	r2, #33
 1227 000a 10B5     		push	{r4, lr}
 1228 000c 0446     		mov	r4, r0
 1229 000e 1ED0     		beq	.L253
 1230              	.L236:
ARM GAS  /tmp/ccHdAuxH.s 			page 22


 1231 0010 5969     		ldr	r1, [r3, #20]
 1232 0012 94F83A20 		ldrb	r2, [r4, #58]	@ zero_extendqisi2
 1233 0016 222A     		cmp	r2, #34
 1234 0018 01D0     		beq	.L254
 1235              	.L238:
 1236 001a 0020     		movs	r0, #0
 1237 001c 10BD     		pop	{r4, pc}
 1238              	.L254:
 1239 001e 4A06     		lsls	r2, r1, #25
 1240 0020 FBD5     		bpl	.L238
 1241 0022 5A69     		ldr	r2, [r3, #20]
 1242 0024 606B     		ldr	r0, [r4, #52]
 1243 0026 22F04002 		bic	r2, r2, #64
 1244 002a 5A61     		str	r2, [r3, #20]
 1245 002c 10B1     		cbz	r0, .L239
 1246 002e FFF7FEFF 		bl	HAL_DMA_Abort
 1247 0032 2368     		ldr	r3, [r4]
 1248              	.L239:
 1249 0034 DA68     		ldr	r2, [r3, #12]
 1250 0036 22F49072 		bic	r2, r2, #288
 1251 003a DA60     		str	r2, [r3, #12]
 1252 003c 5A69     		ldr	r2, [r3, #20]
 1253 003e 2021     		movs	r1, #32
 1254 0040 22F00102 		bic	r2, r2, #1
 1255 0044 5A61     		str	r2, [r3, #20]
 1256 0046 0020     		movs	r0, #0
 1257 0048 84F83A10 		strb	r1, [r4, #58]
 1258 004c 10BD     		pop	{r4, pc}
 1259              	.L253:
 1260 004e 0906     		lsls	r1, r1, #24
 1261 0050 DED5     		bpl	.L236
 1262 0052 5A69     		ldr	r2, [r3, #20]
 1263 0054 006B     		ldr	r0, [r0, #48]
 1264 0056 22F08002 		bic	r2, r2, #128
 1265 005a 5A61     		str	r2, [r3, #20]
 1266 005c 10B1     		cbz	r0, .L237
 1267 005e FFF7FEFF 		bl	HAL_DMA_Abort
 1268 0062 2368     		ldr	r3, [r4]
 1269              	.L237:
 1270 0064 DA68     		ldr	r2, [r3, #12]
 1271 0066 2021     		movs	r1, #32
 1272 0068 22F0C002 		bic	r2, r2, #192
 1273 006c DA60     		str	r2, [r3, #12]
 1274 006e 84F83910 		strb	r1, [r4, #57]
 1275 0072 CDE7     		b	.L236
 1277              		.section	.text.HAL_UART_Abort,"ax",%progbits
 1278              		.align	1
 1279              		.p2align 2,,3
 1280              		.global	HAL_UART_Abort
 1281              		.syntax unified
 1282              		.thumb
 1283              		.thumb_func
 1284              		.fpu fpv4-sp-d16
 1286              	HAL_UART_Abort:
 1287              		@ args = 0, pretend = 0, frame = 0
 1288              		@ frame_needed = 0, uses_anonymous_args = 0
 1289 0000 0368     		ldr	r3, [r0]
ARM GAS  /tmp/ccHdAuxH.s 			page 23


 1290 0002 DA68     		ldr	r2, [r3, #12]
 1291 0004 22F4F072 		bic	r2, r2, #480
 1292 0008 10B5     		push	{r4, lr}
 1293 000a DA60     		str	r2, [r3, #12]
 1294 000c 5A69     		ldr	r2, [r3, #20]
 1295 000e 22F00102 		bic	r2, r2, #1
 1296 0012 5A61     		str	r2, [r3, #20]
 1297 0014 5A69     		ldr	r2, [r3, #20]
 1298 0016 1106     		lsls	r1, r2, #24
 1299 0018 0446     		mov	r4, r0
 1300 001a 0AD5     		bpl	.L256
 1301 001c 5A69     		ldr	r2, [r3, #20]
 1302 001e 006B     		ldr	r0, [r0, #48]
 1303 0020 22F08002 		bic	r2, r2, #128
 1304 0024 5A61     		str	r2, [r3, #20]
 1305 0026 20B1     		cbz	r0, .L256
 1306 0028 0023     		movs	r3, #0
 1307 002a 0365     		str	r3, [r0, #80]
 1308 002c FFF7FEFF 		bl	HAL_DMA_Abort
 1309 0030 2368     		ldr	r3, [r4]
 1310              	.L256:
 1311 0032 5A69     		ldr	r2, [r3, #20]
 1312 0034 5206     		lsls	r2, r2, #25
 1313 0036 09D5     		bpl	.L258
 1314 0038 5A69     		ldr	r2, [r3, #20]
 1315 003a 606B     		ldr	r0, [r4, #52]
 1316 003c 22F04002 		bic	r2, r2, #64
 1317 0040 5A61     		str	r2, [r3, #20]
 1318 0042 18B1     		cbz	r0, .L258
 1319 0044 0023     		movs	r3, #0
 1320 0046 0365     		str	r3, [r0, #80]
 1321 0048 FFF7FEFF 		bl	HAL_DMA_Abort
 1322              	.L258:
 1323 004c 0023     		movs	r3, #0
 1324 004e 2022     		movs	r2, #32
 1325 0050 E384     		strh	r3, [r4, #38]	@ movhi
 1326 0052 1846     		mov	r0, r3
 1327 0054 E385     		strh	r3, [r4, #46]	@ movhi
 1328 0056 E363     		str	r3, [r4, #60]
 1329 0058 84F83A20 		strb	r2, [r4, #58]
 1330 005c 84F83920 		strb	r2, [r4, #57]
 1331 0060 10BD     		pop	{r4, pc}
 1333 0062 00BF     		.section	.text.HAL_UART_AbortTransmit,"ax",%progbits
 1334              		.align	1
 1335              		.p2align 2,,3
 1336              		.global	HAL_UART_AbortTransmit
 1337              		.syntax unified
 1338              		.thumb
 1339              		.thumb_func
 1340              		.fpu fpv4-sp-d16
 1342              	HAL_UART_AbortTransmit:
 1343              		@ args = 0, pretend = 0, frame = 0
 1344              		@ frame_needed = 0, uses_anonymous_args = 0
 1345 0000 0368     		ldr	r3, [r0]
 1346 0002 DA68     		ldr	r2, [r3, #12]
 1347 0004 22F0C002 		bic	r2, r2, #192
 1348 0008 10B5     		push	{r4, lr}
ARM GAS  /tmp/ccHdAuxH.s 			page 24


 1349 000a DA60     		str	r2, [r3, #12]
 1350 000c 5A69     		ldr	r2, [r3, #20]
 1351 000e 1206     		lsls	r2, r2, #24
 1352 0010 0446     		mov	r4, r0
 1353 0012 09D5     		bpl	.L272
 1354 0014 5A69     		ldr	r2, [r3, #20]
 1355 0016 006B     		ldr	r0, [r0, #48]
 1356 0018 22F08002 		bic	r2, r2, #128
 1357 001c 5A61     		str	r2, [r3, #20]
 1358 001e 18B1     		cbz	r0, .L272
 1359 0020 0023     		movs	r3, #0
 1360 0022 0365     		str	r3, [r0, #80]
 1361 0024 FFF7FEFF 		bl	HAL_DMA_Abort
 1362              	.L272:
 1363 0028 0020     		movs	r0, #0
 1364 002a 2023     		movs	r3, #32
 1365 002c E084     		strh	r0, [r4, #38]	@ movhi
 1366 002e 84F83930 		strb	r3, [r4, #57]
 1367 0032 10BD     		pop	{r4, pc}
 1369              		.section	.text.HAL_UART_AbortReceive,"ax",%progbits
 1370              		.align	1
 1371              		.p2align 2,,3
 1372              		.global	HAL_UART_AbortReceive
 1373              		.syntax unified
 1374              		.thumb
 1375              		.thumb_func
 1376              		.fpu fpv4-sp-d16
 1378              	HAL_UART_AbortReceive:
 1379              		@ args = 0, pretend = 0, frame = 0
 1380              		@ frame_needed = 0, uses_anonymous_args = 0
 1381 0000 0368     		ldr	r3, [r0]
 1382 0002 DA68     		ldr	r2, [r3, #12]
 1383 0004 22F49072 		bic	r2, r2, #288
 1384 0008 10B5     		push	{r4, lr}
 1385 000a DA60     		str	r2, [r3, #12]
 1386 000c 5A69     		ldr	r2, [r3, #20]
 1387 000e 22F00102 		bic	r2, r2, #1
 1388 0012 5A61     		str	r2, [r3, #20]
 1389 0014 5A69     		ldr	r2, [r3, #20]
 1390 0016 5206     		lsls	r2, r2, #25
 1391 0018 0446     		mov	r4, r0
 1392 001a 09D5     		bpl	.L280
 1393 001c 5A69     		ldr	r2, [r3, #20]
 1394 001e 406B     		ldr	r0, [r0, #52]
 1395 0020 22F04002 		bic	r2, r2, #64
 1396 0024 5A61     		str	r2, [r3, #20]
 1397 0026 18B1     		cbz	r0, .L280
 1398 0028 0023     		movs	r3, #0
 1399 002a 0365     		str	r3, [r0, #80]
 1400 002c FFF7FEFF 		bl	HAL_DMA_Abort
 1401              	.L280:
 1402 0030 0020     		movs	r0, #0
 1403 0032 2023     		movs	r3, #32
 1404 0034 E085     		strh	r0, [r4, #46]	@ movhi
 1405 0036 84F83A30 		strb	r3, [r4, #58]
 1406 003a 10BD     		pop	{r4, pc}
 1408              		.section	.text.HAL_UART_TxCpltCallback,"ax",%progbits
ARM GAS  /tmp/ccHdAuxH.s 			page 25


 1409              		.align	1
 1410              		.p2align 2,,3
 1411              		.weak	HAL_UART_TxCpltCallback
 1412              		.syntax unified
 1413              		.thumb
 1414              		.thumb_func
 1415              		.fpu fpv4-sp-d16
 1417              	HAL_UART_TxCpltCallback:
 1418              		@ args = 0, pretend = 0, frame = 0
 1419              		@ frame_needed = 0, uses_anonymous_args = 0
 1420              		@ link register save eliminated.
 1421 0000 7047     		bx	lr
 1423 0002 00BF     		.section	.text.UART_DMATransmitCplt,"ax",%progbits
 1424              		.align	1
 1425              		.p2align 2,,3
 1426              		.syntax unified
 1427              		.thumb
 1428              		.thumb_func
 1429              		.fpu fpv4-sp-d16
 1431              	UART_DMATransmitCplt:
 1432              		@ args = 0, pretend = 0, frame = 0
 1433              		@ frame_needed = 0, uses_anonymous_args = 0
 1434 0000 08B5     		push	{r3, lr}
 1435 0002 0368     		ldr	r3, [r0]
 1436 0004 806B     		ldr	r0, [r0, #56]
 1437 0006 1B68     		ldr	r3, [r3]
 1438 0008 13F48073 		ands	r3, r3, #256
 1439 000c 0AD1     		bne	.L288
 1440 000e 0268     		ldr	r2, [r0]
 1441 0010 C384     		strh	r3, [r0, #38]	@ movhi
 1442 0012 5369     		ldr	r3, [r2, #20]
 1443 0014 23F08003 		bic	r3, r3, #128
 1444 0018 5361     		str	r3, [r2, #20]
 1445 001a D368     		ldr	r3, [r2, #12]
 1446 001c 43F04003 		orr	r3, r3, #64
 1447 0020 D360     		str	r3, [r2, #12]
 1448 0022 08BD     		pop	{r3, pc}
 1449              	.L288:
 1450 0024 FFF7FEFF 		bl	HAL_UART_TxCpltCallback
 1451 0028 08BD     		pop	{r3, pc}
 1453 002a 00BF     		.section	.text.HAL_UART_TxHalfCpltCallback,"ax",%progbits
 1454              		.align	1
 1455              		.p2align 2,,3
 1456              		.weak	HAL_UART_TxHalfCpltCallback
 1457              		.syntax unified
 1458              		.thumb
 1459              		.thumb_func
 1460              		.fpu fpv4-sp-d16
 1462              	HAL_UART_TxHalfCpltCallback:
 1463              		@ args = 0, pretend = 0, frame = 0
 1464              		@ frame_needed = 0, uses_anonymous_args = 0
 1465              		@ link register save eliminated.
 1466 0000 7047     		bx	lr
 1468 0002 00BF     		.section	.text.UART_DMATxHalfCplt,"ax",%progbits
 1469              		.align	1
 1470              		.p2align 2,,3
 1471              		.syntax unified
ARM GAS  /tmp/ccHdAuxH.s 			page 26


 1472              		.thumb
 1473              		.thumb_func
 1474              		.fpu fpv4-sp-d16
 1476              	UART_DMATxHalfCplt:
 1477              		@ args = 0, pretend = 0, frame = 0
 1478              		@ frame_needed = 0, uses_anonymous_args = 0
 1479 0000 08B5     		push	{r3, lr}
 1480 0002 806B     		ldr	r0, [r0, #56]
 1481 0004 FFF7FEFF 		bl	HAL_UART_TxHalfCpltCallback
 1482 0008 08BD     		pop	{r3, pc}
 1484 000a 00BF     		.section	.text.HAL_UART_RxCpltCallback,"ax",%progbits
 1485              		.align	1
 1486              		.p2align 2,,3
 1487              		.weak	HAL_UART_RxCpltCallback
 1488              		.syntax unified
 1489              		.thumb
 1490              		.thumb_func
 1491              		.fpu fpv4-sp-d16
 1493              	HAL_UART_RxCpltCallback:
 1494              		@ args = 0, pretend = 0, frame = 0
 1495              		@ frame_needed = 0, uses_anonymous_args = 0
 1496              		@ link register save eliminated.
 1497 0000 7047     		bx	lr
 1499 0002 00BF     		.section	.text.UART_DMAReceiveCplt,"ax",%progbits
 1500              		.align	1
 1501              		.p2align 2,,3
 1502              		.syntax unified
 1503              		.thumb
 1504              		.thumb_func
 1505              		.fpu fpv4-sp-d16
 1507              	UART_DMAReceiveCplt:
 1508              		@ args = 0, pretend = 0, frame = 0
 1509              		@ frame_needed = 0, uses_anonymous_args = 0
 1510 0000 08B5     		push	{r3, lr}
 1511 0002 0368     		ldr	r3, [r0]
 1512 0004 806B     		ldr	r0, [r0, #56]
 1513 0006 1B68     		ldr	r3, [r3]
 1514 0008 13F48073 		ands	r3, r3, #256
 1515 000c 10D1     		bne	.L296
 1516 000e 0268     		ldr	r2, [r0]
 1517 0010 C385     		strh	r3, [r0, #46]	@ movhi
 1518 0012 D368     		ldr	r3, [r2, #12]
 1519 0014 23F48073 		bic	r3, r3, #256
 1520 0018 D360     		str	r3, [r2, #12]
 1521 001a 5369     		ldr	r3, [r2, #20]
 1522 001c 23F00103 		bic	r3, r3, #1
 1523 0020 5361     		str	r3, [r2, #20]
 1524 0022 5369     		ldr	r3, [r2, #20]
 1525 0024 2021     		movs	r1, #32
 1526 0026 23F04003 		bic	r3, r3, #64
 1527 002a 5361     		str	r3, [r2, #20]
 1528 002c 80F83A10 		strb	r1, [r0, #58]
 1529              	.L296:
 1530 0030 FFF7FEFF 		bl	HAL_UART_RxCpltCallback
 1531 0034 08BD     		pop	{r3, pc}
 1533 0036 00BF     		.section	.text.HAL_UART_RxHalfCpltCallback,"ax",%progbits
 1534              		.align	1
ARM GAS  /tmp/ccHdAuxH.s 			page 27


 1535              		.p2align 2,,3
 1536              		.weak	HAL_UART_RxHalfCpltCallback
 1537              		.syntax unified
 1538              		.thumb
 1539              		.thumb_func
 1540              		.fpu fpv4-sp-d16
 1542              	HAL_UART_RxHalfCpltCallback:
 1543              		@ args = 0, pretend = 0, frame = 0
 1544              		@ frame_needed = 0, uses_anonymous_args = 0
 1545              		@ link register save eliminated.
 1546 0000 7047     		bx	lr
 1548 0002 00BF     		.section	.text.UART_DMARxHalfCplt,"ax",%progbits
 1549              		.align	1
 1550              		.p2align 2,,3
 1551              		.syntax unified
 1552              		.thumb
 1553              		.thumb_func
 1554              		.fpu fpv4-sp-d16
 1556              	UART_DMARxHalfCplt:
 1557              		@ args = 0, pretend = 0, frame = 0
 1558              		@ frame_needed = 0, uses_anonymous_args = 0
 1559 0000 08B5     		push	{r3, lr}
 1560 0002 806B     		ldr	r0, [r0, #56]
 1561 0004 FFF7FEFF 		bl	HAL_UART_RxHalfCpltCallback
 1562 0008 08BD     		pop	{r3, pc}
 1564 000a 00BF     		.section	.text.HAL_UART_ErrorCallback,"ax",%progbits
 1565              		.align	1
 1566              		.p2align 2,,3
 1567              		.weak	HAL_UART_ErrorCallback
 1568              		.syntax unified
 1569              		.thumb
 1570              		.thumb_func
 1571              		.fpu fpv4-sp-d16
 1573              	HAL_UART_ErrorCallback:
 1574              		@ args = 0, pretend = 0, frame = 0
 1575              		@ frame_needed = 0, uses_anonymous_args = 0
 1576              		@ link register save eliminated.
 1577 0000 7047     		bx	lr
 1579 0002 00BF     		.section	.text.UART_DMAError,"ax",%progbits
 1580              		.align	1
 1581              		.p2align 2,,3
 1582              		.syntax unified
 1583              		.thumb
 1584              		.thumb_func
 1585              		.fpu fpv4-sp-d16
 1587              	UART_DMAError:
 1588              		@ args = 0, pretend = 0, frame = 0
 1589              		@ frame_needed = 0, uses_anonymous_args = 0
 1590 0000 806B     		ldr	r0, [r0, #56]
 1591 0002 08B5     		push	{r3, lr}
 1592 0004 0368     		ldr	r3, [r0]
 1593 0006 5969     		ldr	r1, [r3, #20]
 1594 0008 90F83920 		ldrb	r2, [r0, #57]	@ zero_extendqisi2
 1595 000c 212A     		cmp	r2, #33
 1596 000e 1BD0     		beq	.L312
 1597              	.L303:
 1598 0010 5969     		ldr	r1, [r3, #20]
ARM GAS  /tmp/ccHdAuxH.s 			page 28


 1599 0012 90F83A20 		ldrb	r2, [r0, #58]	@ zero_extendqisi2
 1600 0016 222A     		cmp	r2, #34
 1601 0018 06D0     		beq	.L313
 1602              	.L304:
 1603 001a C36B     		ldr	r3, [r0, #60]
 1604 001c 43F01003 		orr	r3, r3, #16
 1605 0020 C363     		str	r3, [r0, #60]
 1606 0022 FFF7FEFF 		bl	HAL_UART_ErrorCallback
 1607 0026 08BD     		pop	{r3, pc}
 1608              	.L313:
 1609 0028 4A06     		lsls	r2, r1, #25
 1610 002a F6D5     		bpl	.L304
 1611 002c 0022     		movs	r2, #0
 1612 002e C285     		strh	r2, [r0, #46]	@ movhi
 1613 0030 DA68     		ldr	r2, [r3, #12]
 1614 0032 22F49072 		bic	r2, r2, #288
 1615 0036 DA60     		str	r2, [r3, #12]
 1616 0038 5A69     		ldr	r2, [r3, #20]
 1617 003a 2021     		movs	r1, #32
 1618 003c 22F00102 		bic	r2, r2, #1
 1619 0040 5A61     		str	r2, [r3, #20]
 1620 0042 80F83A10 		strb	r1, [r0, #58]
 1621 0046 E8E7     		b	.L304
 1622              	.L312:
 1623 0048 0906     		lsls	r1, r1, #24
 1624 004a E1D5     		bpl	.L303
 1625 004c 0022     		movs	r2, #0
 1626 004e C284     		strh	r2, [r0, #38]	@ movhi
 1627 0050 DA68     		ldr	r2, [r3, #12]
 1628 0052 2021     		movs	r1, #32
 1629 0054 22F0C002 		bic	r2, r2, #192
 1630 0058 DA60     		str	r2, [r3, #12]
 1631 005a 80F83910 		strb	r1, [r0, #57]
 1632 005e D7E7     		b	.L303
 1634              		.section	.text.HAL_UART_IRQHandler,"ax",%progbits
 1635              		.align	1
 1636              		.p2align 2,,3
 1637              		.global	HAL_UART_IRQHandler
 1638              		.syntax unified
 1639              		.thumb
 1640              		.thumb_func
 1641              		.fpu fpv4-sp-d16
 1643              	HAL_UART_IRQHandler:
 1644              		@ args = 0, pretend = 0, frame = 0
 1645              		@ frame_needed = 0, uses_anonymous_args = 0
 1646 0000 0368     		ldr	r3, [r0]
 1647 0002 1A68     		ldr	r2, [r3]
 1648 0004 70B5     		push	{r4, r5, r6, lr}
 1649 0006 1507     		lsls	r5, r2, #28
 1650 0008 0446     		mov	r4, r0
 1651 000a D868     		ldr	r0, [r3, #12]
 1652 000c 5969     		ldr	r1, [r3, #20]
 1653 000e 4FD0     		beq	.L397
 1654 0010 11F00101 		ands	r1, r1, #1
 1655 0014 78D0     		beq	.L398
 1656              	.L324:
 1657 0016 D507     		lsls	r5, r2, #31
ARM GAS  /tmp/ccHdAuxH.s 			page 29


 1658 0018 05D5     		bpl	.L325
 1659 001a C605     		lsls	r6, r0, #23
 1660 001c 03D5     		bpl	.L325
 1661 001e E56B     		ldr	r5, [r4, #60]
 1662 0020 45F00105 		orr	r5, r5, #1
 1663 0024 E563     		str	r5, [r4, #60]
 1664              	.L325:
 1665 0026 5507     		lsls	r5, r2, #29
 1666 0028 40F1A080 		bpl	.L326
 1667 002c 0029     		cmp	r1, #0
 1668 002e 00F0AB80 		beq	.L327
 1669 0032 E16B     		ldr	r1, [r4, #60]
 1670 0034 41F00201 		orr	r1, r1, #2
 1671 0038 E163     		str	r1, [r4, #60]
 1672 003a 9107     		lsls	r1, r2, #30
 1673 003c 40F19C80 		bpl	.L328
 1674              	.L332:
 1675 0040 E16B     		ldr	r1, [r4, #60]
 1676 0042 1607     		lsls	r6, r2, #28
 1677 0044 41F00401 		orr	r1, r1, #4
 1678 0048 E163     		str	r1, [r4, #60]
 1679 004a 00F19880 		bmi	.L329
 1680              	.L333:
 1681 004e E16B     		ldr	r1, [r4, #60]
 1682 0050 0029     		cmp	r1, #0
 1683 0052 2CD0     		beq	.L314
 1684 0054 9506     		lsls	r5, r2, #26
 1685 0056 06D5     		bpl	.L335
 1686 0058 8106     		lsls	r1, r0, #26
 1687 005a 04D5     		bpl	.L335
 1688 005c 94F83A20 		ldrb	r2, [r4, #58]	@ zero_extendqisi2
 1689 0060 222A     		cmp	r2, #34
 1690 0062 00F0A480 		beq	.L399
 1691              	.L335:
 1692 0066 5D69     		ldr	r5, [r3, #20]
 1693 0068 E16B     		ldr	r1, [r4, #60]
 1694 006a 0A07     		lsls	r2, r1, #28
 1695 006c 03D4     		bmi	.L341
 1696 006e 15F04005 		ands	r5, r5, #64
 1697 0072 00F0C080 		beq	.L342
 1698              	.L341:
 1699 0076 DA68     		ldr	r2, [r3, #12]
 1700 0078 22F49072 		bic	r2, r2, #288
 1701 007c DA60     		str	r2, [r3, #12]
 1702 007e 5A69     		ldr	r2, [r3, #20]
 1703 0080 2021     		movs	r1, #32
 1704 0082 22F00102 		bic	r2, r2, #1
 1705 0086 5A61     		str	r2, [r3, #20]
 1706 0088 84F83A10 		strb	r1, [r4, #58]
 1707 008c 5A69     		ldr	r2, [r3, #20]
 1708 008e 5606     		lsls	r6, r2, #25
 1709 0090 40F18480 		bpl	.L343
 1710 0094 5A69     		ldr	r2, [r3, #20]
 1711 0096 606B     		ldr	r0, [r4, #52]
 1712 0098 22F04002 		bic	r2, r2, #64
 1713 009c 5A61     		str	r2, [r3, #20]
 1714 009e 0028     		cmp	r0, #0
ARM GAS  /tmp/ccHdAuxH.s 			page 30


 1715 00a0 7CD0     		beq	.L343
 1716 00a2 774B     		ldr	r3, .L405
 1717 00a4 0365     		str	r3, [r0, #80]
 1718 00a6 FFF7FEFF 		bl	HAL_DMA_Abort_IT
 1719 00aa 0028     		cmp	r0, #0
 1720 00ac 7AD1     		bne	.L400
 1721              	.L314:
 1722 00ae 70BD     		pop	{r4, r5, r6, pc}
 1723              	.L397:
 1724 00b0 9106     		lsls	r1, r2, #26
 1725 00b2 2CD5     		bpl	.L316
 1726 00b4 8606     		lsls	r6, r0, #26
 1727 00b6 2AD5     		bpl	.L316
 1728 00b8 94F83A20 		ldrb	r2, [r4, #58]	@ zero_extendqisi2
 1729 00bc 222A     		cmp	r2, #34
 1730 00be F6D1     		bne	.L314
 1731 00c0 A268     		ldr	r2, [r4, #8]
 1732 00c2 B2F5805F 		cmp	r2, #4096
 1733 00c6 00F0A380 		beq	.L401
 1734 00ca 2269     		ldr	r2, [r4, #16]
 1735 00cc 002A     		cmp	r2, #0
 1736 00ce 40F09780 		bne	.L322
 1737 00d2 A26A     		ldr	r2, [r4, #40]
 1738 00d4 5B68     		ldr	r3, [r3, #4]
 1739 00d6 511C     		adds	r1, r2, #1
 1740 00d8 A162     		str	r1, [r4, #40]
 1741 00da 1370     		strb	r3, [r2]
 1742              	.L321:
 1743 00dc E38D     		ldrh	r3, [r4, #46]
 1744 00de 013B     		subs	r3, r3, #1
 1745 00e0 9BB2     		uxth	r3, r3
 1746 00e2 E385     		strh	r3, [r4, #46]	@ movhi
 1747 00e4 002B     		cmp	r3, #0
 1748 00e6 E2D1     		bne	.L314
 1749 00e8 2368     		ldr	r3, [r4]
 1750 00ea DA68     		ldr	r2, [r3, #12]
 1751 00ec 22F49072 		bic	r2, r2, #288
 1752 00f0 DA60     		str	r2, [r3, #12]
 1753 00f2 5A69     		ldr	r2, [r3, #20]
 1754 00f4 2021     		movs	r1, #32
 1755 00f6 22F00102 		bic	r2, r2, #1
 1756 00fa 5A61     		str	r2, [r3, #20]
 1757 00fc 2046     		mov	r0, r4
 1758 00fe 84F83A10 		strb	r1, [r4, #58]
 1759 0102 FFF7FEFF 		bl	HAL_UART_RxCpltCallback
 1760 0106 70BD     		pop	{r4, r5, r6, pc}
 1761              	.L398:
 1762 0108 10F4907F 		tst	r0, #288
 1763 010c 83D1     		bne	.L324
 1764              	.L316:
 1765 010e 1506     		lsls	r5, r2, #24
 1766 0110 0ED4     		bmi	.L402
 1767              	.L344:
 1768 0112 5206     		lsls	r2, r2, #25
 1769 0114 CBD5     		bpl	.L314
 1770 0116 4606     		lsls	r6, r0, #25
 1771 0118 C9D5     		bpl	.L314
ARM GAS  /tmp/ccHdAuxH.s 			page 31


 1772 011a DA68     		ldr	r2, [r3, #12]
 1773 011c 2021     		movs	r1, #32
 1774 011e 22F04002 		bic	r2, r2, #64
 1775 0122 DA60     		str	r2, [r3, #12]
 1776 0124 2046     		mov	r0, r4
 1777 0126 84F83910 		strb	r1, [r4, #57]
 1778 012a FFF7FEFF 		bl	HAL_UART_TxCpltCallback
 1779 012e 70BD     		pop	{r4, r5, r6, pc}
 1780              	.L402:
 1781 0130 0106     		lsls	r1, r0, #24
 1782 0132 EED5     		bpl	.L344
 1783 0134 94F83920 		ldrb	r2, [r4, #57]	@ zero_extendqisi2
 1784 0138 212A     		cmp	r2, #33
 1785 013a B8D1     		bne	.L314
 1786 013c A268     		ldr	r2, [r4, #8]
 1787 013e B2F5805F 		cmp	r2, #4096
 1788 0142 226A     		ldr	r2, [r4, #32]
 1789 0144 6FD0     		beq	.L403
 1790 0146 511C     		adds	r1, r2, #1
 1791 0148 2162     		str	r1, [r4, #32]
 1792 014a 1278     		ldrb	r2, [r2]	@ zero_extendqisi2
 1793 014c 5A60     		str	r2, [r3, #4]
 1794              	.L347:
 1795 014e E28C     		ldrh	r2, [r4, #38]
 1796 0150 013A     		subs	r2, r2, #1
 1797 0152 92B2     		uxth	r2, r2
 1798 0154 E284     		strh	r2, [r4, #38]	@ movhi
 1799 0156 002A     		cmp	r2, #0
 1800 0158 A9D1     		bne	.L314
 1801 015a DA68     		ldr	r2, [r3, #12]
 1802 015c 22F08002 		bic	r2, r2, #128
 1803 0160 DA60     		str	r2, [r3, #12]
 1804 0162 DA68     		ldr	r2, [r3, #12]
 1805 0164 42F04002 		orr	r2, r2, #64
 1806 0168 DA60     		str	r2, [r3, #12]
 1807 016a 70BD     		pop	{r4, r5, r6, pc}
 1808              	.L326:
 1809 016c 9507     		lsls	r5, r2, #30
 1810 016e 0ED5     		bpl	.L331
 1811 0170 0029     		cmp	r1, #0
 1812 0172 7FF465AF 		bne	.L332
 1813 0176 6AE7     		b	.L333
 1814              	.L328:
 1815 0178 1107     		lsls	r1, r2, #28
 1816 017a 7FF568AF 		bpl	.L333
 1817              	.L329:
 1818 017e E16B     		ldr	r1, [r4, #60]
 1819 0180 41F00801 		orr	r1, r1, #8
 1820 0184 E163     		str	r1, [r4, #60]
 1821 0186 62E7     		b	.L333
 1822              	.L327:
 1823 0188 9507     		lsls	r5, r2, #30
 1824 018a 3FF560AF 		bmi	.L333
 1825              	.L331:
 1826 018e 1607     		lsls	r6, r2, #28
 1827 0190 7FF55DAF 		bpl	.L333
 1828 0194 0029     		cmp	r1, #0
ARM GAS  /tmp/ccHdAuxH.s 			page 32


 1829 0196 3FF45AAF 		beq	.L333
 1830 019a F0E7     		b	.L329
 1831              	.L343:
 1832 019c 2046     		mov	r0, r4
 1833 019e FFF7FEFF 		bl	HAL_UART_ErrorCallback
 1834 01a2 70BD     		pop	{r4, r5, r6, pc}
 1835              	.L400:
 1836 01a4 606B     		ldr	r0, [r4, #52]
 1837 01a6 BDE87040 		pop	{r4, r5, r6, lr}
 1838 01aa 036D     		ldr	r3, [r0, #80]
 1839 01ac 1847     		bx	r3	@ indirect register sibling call
 1840              	.L399:
 1841 01ae A268     		ldr	r2, [r4, #8]
 1842 01b0 B2F5805F 		cmp	r2, #4096
 1843 01b4 50D0     		beq	.L404
 1844 01b6 2269     		ldr	r2, [r4, #16]
 1845 01b8 002A     		cmp	r2, #0
 1846 01ba 3DD1     		bne	.L340
 1847 01bc A26A     		ldr	r2, [r4, #40]
 1848 01be 5B68     		ldr	r3, [r3, #4]
 1849 01c0 511C     		adds	r1, r2, #1
 1850 01c2 A162     		str	r1, [r4, #40]
 1851 01c4 1370     		strb	r3, [r2]
 1852 01c6 2368     		ldr	r3, [r4]
 1853              	.L339:
 1854 01c8 E28D     		ldrh	r2, [r4, #46]
 1855 01ca 013A     		subs	r2, r2, #1
 1856 01cc 92B2     		uxth	r2, r2
 1857 01ce E285     		strh	r2, [r4, #46]	@ movhi
 1858 01d0 002A     		cmp	r2, #0
 1859 01d2 7FF448AF 		bne	.L335
 1860 01d6 DA68     		ldr	r2, [r3, #12]
 1861 01d8 22F49072 		bic	r2, r2, #288
 1862 01dc DA60     		str	r2, [r3, #12]
 1863 01de 5A69     		ldr	r2, [r3, #20]
 1864 01e0 2021     		movs	r1, #32
 1865 01e2 22F00102 		bic	r2, r2, #1
 1866 01e6 5A61     		str	r2, [r3, #20]
 1867 01e8 2046     		mov	r0, r4
 1868 01ea 84F83A10 		strb	r1, [r4, #58]
 1869 01ee FFF7FEFF 		bl	HAL_UART_RxCpltCallback
 1870 01f2 2368     		ldr	r3, [r4]
 1871 01f4 37E7     		b	.L335
 1872              	.L342:
 1873 01f6 2046     		mov	r0, r4
 1874 01f8 FFF7FEFF 		bl	HAL_UART_ErrorCallback
 1875 01fc E563     		str	r5, [r4, #60]
 1876 01fe 70BD     		pop	{r4, r5, r6, pc}
 1877              	.L322:
 1878 0200 5B68     		ldr	r3, [r3, #4]
 1879 0202 A26A     		ldr	r2, [r4, #40]
 1880 0204 03F07F03 		and	r3, r3, #127
 1881 0208 511C     		adds	r1, r2, #1
 1882 020a A162     		str	r1, [r4, #40]
 1883 020c 1370     		strb	r3, [r2]
 1884 020e 65E7     		b	.L321
 1885              	.L401:
ARM GAS  /tmp/ccHdAuxH.s 			page 33


 1886 0210 2169     		ldr	r1, [r4, #16]
 1887 0212 A26A     		ldr	r2, [r4, #40]
 1888 0214 C9B9     		cbnz	r1, .L320
 1889 0216 5968     		ldr	r1, [r3, #4]
 1890 0218 1346     		mov	r3, r2
 1891 021a C1F30802 		ubfx	r2, r1, #0, #9
 1892 021e 23F8022B 		strh	r2, [r3], #2	@ movhi
 1893 0222 A362     		str	r3, [r4, #40]
 1894 0224 5AE7     		b	.L321
 1895              	.L403:
 1896 0226 1188     		ldrh	r1, [r2]
 1897 0228 2069     		ldr	r0, [r4, #16]
 1898 022a C1F30801 		ubfx	r1, r1, #0, #9
 1899 022e 5960     		str	r1, [r3, #4]
 1900 0230 E0B9     		cbnz	r0, .L346
 1901 0232 0232     		adds	r2, r2, #2
 1902 0234 2262     		str	r2, [r4, #32]
 1903 0236 8AE7     		b	.L347
 1904              	.L340:
 1905 0238 5B68     		ldr	r3, [r3, #4]
 1906 023a A26A     		ldr	r2, [r4, #40]
 1907 023c 03F07F03 		and	r3, r3, #127
 1908 0240 511C     		adds	r1, r2, #1
 1909 0242 A162     		str	r1, [r4, #40]
 1910 0244 1370     		strb	r3, [r2]
 1911 0246 2368     		ldr	r3, [r4]
 1912 0248 BEE7     		b	.L339
 1913              	.L320:
 1914 024a 5968     		ldr	r1, [r3, #4]
 1915 024c 1346     		mov	r3, r2
 1916 024e CAB2     		uxtb	r2, r1
 1917 0250 23F8012B 		strh	r2, [r3], #1	@ movhi
 1918 0254 A362     		str	r3, [r4, #40]
 1919 0256 41E7     		b	.L321
 1920              	.L404:
 1921 0258 2169     		ldr	r1, [r4, #16]
 1922 025a A26A     		ldr	r2, [r4, #40]
 1923 025c 49B9     		cbnz	r1, .L338
 1924 025e 5968     		ldr	r1, [r3, #4]
 1925 0260 C1F30801 		ubfx	r1, r1, #0, #9
 1926 0264 22F8021B 		strh	r1, [r2], #2	@ movhi
 1927 0268 A262     		str	r2, [r4, #40]
 1928 026a ADE7     		b	.L339
 1929              	.L346:
 1930 026c 0132     		adds	r2, r2, #1
 1931 026e 2262     		str	r2, [r4, #32]
 1932 0270 6DE7     		b	.L347
 1933              	.L338:
 1934 0272 5968     		ldr	r1, [r3, #4]
 1935 0274 C9B2     		uxtb	r1, r1
 1936 0276 22F8011B 		strh	r1, [r2], #1	@ movhi
 1937 027a A262     		str	r2, [r4, #40]
 1938 027c A4E7     		b	.L339
 1939              	.L406:
 1940 027e 00BF     		.align	2
 1941              	.L405:
 1942 0280 00000000 		.word	UART_DMAAbortOnError
ARM GAS  /tmp/ccHdAuxH.s 			page 34


 1944              		.section	.text.UART_DMAAbortOnError,"ax",%progbits
 1945              		.align	1
 1946              		.p2align 2,,3
 1947              		.syntax unified
 1948              		.thumb
 1949              		.thumb_func
 1950              		.fpu fpv4-sp-d16
 1952              	UART_DMAAbortOnError:
 1953              		@ args = 0, pretend = 0, frame = 0
 1954              		@ frame_needed = 0, uses_anonymous_args = 0
 1955 0000 08B5     		push	{r3, lr}
 1956 0002 836B     		ldr	r3, [r0, #56]
 1957 0004 0022     		movs	r2, #0
 1958 0006 DA85     		strh	r2, [r3, #46]	@ movhi
 1959 0008 1846     		mov	r0, r3
 1960 000a DA84     		strh	r2, [r3, #38]	@ movhi
 1961 000c FFF7FEFF 		bl	HAL_UART_ErrorCallback
 1962 0010 08BD     		pop	{r3, pc}
 1964 0012 00BF     		.section	.text.HAL_UART_AbortCpltCallback,"ax",%progbits
 1965              		.align	1
 1966              		.p2align 2,,3
 1967              		.weak	HAL_UART_AbortCpltCallback
 1968              		.syntax unified
 1969              		.thumb
 1970              		.thumb_func
 1971              		.fpu fpv4-sp-d16
 1973              	HAL_UART_AbortCpltCallback:
 1974              		@ args = 0, pretend = 0, frame = 0
 1975              		@ frame_needed = 0, uses_anonymous_args = 0
 1976              		@ link register save eliminated.
 1977 0000 7047     		bx	lr
 1979 0002 00BF     		.section	.text.HAL_UART_Abort_IT,"ax",%progbits
 1980              		.align	1
 1981              		.p2align 2,,3
 1982              		.global	HAL_UART_Abort_IT
 1983              		.syntax unified
 1984              		.thumb
 1985              		.thumb_func
 1986              		.fpu fpv4-sp-d16
 1988              	HAL_UART_Abort_IT:
 1989              		@ args = 0, pretend = 0, frame = 0
 1990              		@ frame_needed = 0, uses_anonymous_args = 0
 1991 0000 0368     		ldr	r3, [r0]
 1992 0002 DA68     		ldr	r2, [r3, #12]
 1993 0004 22F4F072 		bic	r2, r2, #480
 1994 0008 10B5     		push	{r4, lr}
 1995 000a 0446     		mov	r4, r0
 1996 000c 006B     		ldr	r0, [r0, #48]
 1997 000e DA60     		str	r2, [r3, #12]
 1998 0010 5A69     		ldr	r2, [r3, #20]
 1999 0012 22F00102 		bic	r2, r2, #1
 2000 0016 5A61     		str	r2, [r3, #20]
 2001 0018 28B1     		cbz	r0, .L411
 2002 001a 5A69     		ldr	r2, [r3, #20]
 2003 001c 12F08002 		ands	r2, r2, #128
 2004 0020 18BF     		it	ne
 2005 0022 214A     		ldrne	r2, .L440
ARM GAS  /tmp/ccHdAuxH.s 			page 35


 2006 0024 0265     		str	r2, [r0, #80]
 2007              	.L411:
 2008 0026 616B     		ldr	r1, [r4, #52]
 2009 0028 29B1     		cbz	r1, .L413
 2010 002a 5A69     		ldr	r2, [r3, #20]
 2011 002c 12F04002 		ands	r2, r2, #64
 2012 0030 18BF     		it	ne
 2013 0032 1E4A     		ldrne	r2, .L440+4
 2014 0034 0A65     		str	r2, [r1, #80]
 2015              	.L413:
 2016 0036 5A69     		ldr	r2, [r3, #20]
 2017 0038 1206     		lsls	r2, r2, #24
 2018 003a 0BD5     		bpl	.L415
 2019 003c 5A69     		ldr	r2, [r3, #20]
 2020 003e 22F08002 		bic	r2, r2, #128
 2021 0042 5A61     		str	r2, [r3, #20]
 2022 0044 30B1     		cbz	r0, .L415
 2023 0046 FFF7FEFF 		bl	HAL_DMA_Abort_IT
 2024 004a 00B3     		cbz	r0, .L416
 2025 004c 226B     		ldr	r2, [r4, #48]
 2026 004e 2368     		ldr	r3, [r4]
 2027 0050 0021     		movs	r1, #0
 2028 0052 1165     		str	r1, [r2, #80]
 2029              	.L415:
 2030 0054 5A69     		ldr	r2, [r3, #20]
 2031 0056 5106     		lsls	r1, r2, #25
 2032 0058 0BD5     		bpl	.L420
 2033 005a 5A69     		ldr	r2, [r3, #20]
 2034 005c 606B     		ldr	r0, [r4, #52]
 2035 005e 22F04002 		bic	r2, r2, #64
 2036 0062 5A61     		str	r2, [r3, #20]
 2037 0064 28B1     		cbz	r0, .L420
 2038              	.L423:
 2039 0066 FFF7FEFF 		bl	HAL_DMA_Abort_IT
 2040 006a 70B1     		cbz	r0, .L437
 2041 006c 636B     		ldr	r3, [r4, #52]
 2042 006e 0022     		movs	r2, #0
 2043 0070 1A65     		str	r2, [r3, #80]
 2044              	.L420:
 2045 0072 0023     		movs	r3, #0
 2046 0074 2022     		movs	r2, #32
 2047 0076 E384     		strh	r3, [r4, #38]	@ movhi
 2048 0078 2046     		mov	r0, r4
 2049 007a E385     		strh	r3, [r4, #46]	@ movhi
 2050 007c E363     		str	r3, [r4, #60]
 2051 007e 84F83920 		strb	r2, [r4, #57]
 2052 0082 84F83A20 		strb	r2, [r4, #58]
 2053 0086 FFF7FEFF 		bl	HAL_UART_AbortCpltCallback
 2054              	.L437:
 2055 008a 0020     		movs	r0, #0
 2056 008c 10BD     		pop	{r4, pc}
 2057              	.L416:
 2058 008e 2368     		ldr	r3, [r4]
 2059 0090 5A69     		ldr	r2, [r3, #20]
 2060 0092 5206     		lsls	r2, r2, #25
 2061 0094 F9D5     		bpl	.L437
 2062 0096 5A69     		ldr	r2, [r3, #20]
ARM GAS  /tmp/ccHdAuxH.s 			page 36


 2063 0098 606B     		ldr	r0, [r4, #52]
 2064 009a 22F04002 		bic	r2, r2, #64
 2065 009e 5A61     		str	r2, [r3, #20]
 2066 00a0 0028     		cmp	r0, #0
 2067 00a2 E0D1     		bne	.L423
 2068 00a4 F1E7     		b	.L437
 2069              	.L441:
 2070 00a6 00BF     		.align	2
 2071              	.L440:
 2072 00a8 00000000 		.word	UART_DMATxAbortCallback
 2073 00ac 00000000 		.word	UART_DMARxAbortCallback
 2075              		.section	.text.UART_DMARxAbortCallback,"ax",%progbits
 2076              		.align	1
 2077              		.p2align 2,,3
 2078              		.syntax unified
 2079              		.thumb
 2080              		.thumb_func
 2081              		.fpu fpv4-sp-d16
 2083              	UART_DMARxAbortCallback:
 2084              		@ args = 0, pretend = 0, frame = 0
 2085              		@ frame_needed = 0, uses_anonymous_args = 0
 2086 0000 08B5     		push	{r3, lr}
 2087 0002 836B     		ldr	r3, [r0, #56]
 2088 0004 596B     		ldr	r1, [r3, #52]
 2089 0006 1A6B     		ldr	r2, [r3, #48]
 2090 0008 0020     		movs	r0, #0
 2091 000a 0865     		str	r0, [r1, #80]
 2092 000c 12B1     		cbz	r2, .L443
 2093 000e 126D     		ldr	r2, [r2, #80]
 2094 0010 02B1     		cbz	r2, .L443
 2095 0012 08BD     		pop	{r3, pc}
 2096              	.L443:
 2097 0014 0022     		movs	r2, #0
 2098 0016 2021     		movs	r1, #32
 2099 0018 DA84     		strh	r2, [r3, #38]	@ movhi
 2100 001a 1846     		mov	r0, r3
 2101 001c DA85     		strh	r2, [r3, #46]	@ movhi
 2102 001e DA63     		str	r2, [r3, #60]
 2103 0020 83F83910 		strb	r1, [r3, #57]
 2104 0024 83F83A10 		strb	r1, [r3, #58]
 2105 0028 FFF7FEFF 		bl	HAL_UART_AbortCpltCallback
 2106 002c 08BD     		pop	{r3, pc}
 2108 002e 00BF     		.section	.text.UART_DMATxAbortCallback,"ax",%progbits
 2109              		.align	1
 2110              		.p2align 2,,3
 2111              		.syntax unified
 2112              		.thumb
 2113              		.thumb_func
 2114              		.fpu fpv4-sp-d16
 2116              	UART_DMATxAbortCallback:
 2117              		@ args = 0, pretend = 0, frame = 0
 2118              		@ frame_needed = 0, uses_anonymous_args = 0
 2119 0000 08B5     		push	{r3, lr}
 2120 0002 836B     		ldr	r3, [r0, #56]
 2121 0004 196B     		ldr	r1, [r3, #48]
 2122 0006 5A6B     		ldr	r2, [r3, #52]
 2123 0008 0020     		movs	r0, #0
ARM GAS  /tmp/ccHdAuxH.s 			page 37


 2124 000a 0865     		str	r0, [r1, #80]
 2125 000c 12B1     		cbz	r2, .L450
 2126 000e 126D     		ldr	r2, [r2, #80]
 2127 0010 02B1     		cbz	r2, .L450
 2128 0012 08BD     		pop	{r3, pc}
 2129              	.L450:
 2130 0014 0022     		movs	r2, #0
 2131 0016 2021     		movs	r1, #32
 2132 0018 DA84     		strh	r2, [r3, #38]	@ movhi
 2133 001a 1846     		mov	r0, r3
 2134 001c DA85     		strh	r2, [r3, #46]	@ movhi
 2135 001e DA63     		str	r2, [r3, #60]
 2136 0020 83F83910 		strb	r1, [r3, #57]
 2137 0024 83F83A10 		strb	r1, [r3, #58]
 2138 0028 FFF7FEFF 		bl	HAL_UART_AbortCpltCallback
 2139 002c 08BD     		pop	{r3, pc}
 2141 002e 00BF     		.section	.text.HAL_UART_AbortTransmitCpltCallback,"ax",%progbits
 2142              		.align	1
 2143              		.p2align 2,,3
 2144              		.weak	HAL_UART_AbortTransmitCpltCallback
 2145              		.syntax unified
 2146              		.thumb
 2147              		.thumb_func
 2148              		.fpu fpv4-sp-d16
 2150              	HAL_UART_AbortTransmitCpltCallback:
 2151              		@ args = 0, pretend = 0, frame = 0
 2152              		@ frame_needed = 0, uses_anonymous_args = 0
 2153              		@ link register save eliminated.
 2154 0000 7047     		bx	lr
 2156 0002 00BF     		.section	.text.HAL_UART_AbortTransmit_IT,"ax",%progbits
 2157              		.align	1
 2158              		.p2align 2,,3
 2159              		.global	HAL_UART_AbortTransmit_IT
 2160              		.syntax unified
 2161              		.thumb
 2162              		.thumb_func
 2163              		.fpu fpv4-sp-d16
 2165              	HAL_UART_AbortTransmit_IT:
 2166              		@ args = 0, pretend = 0, frame = 0
 2167              		@ frame_needed = 0, uses_anonymous_args = 0
 2168 0000 0368     		ldr	r3, [r0]
 2169 0002 DA68     		ldr	r2, [r3, #12]
 2170 0004 22F0C002 		bic	r2, r2, #192
 2171 0008 10B5     		push	{r4, lr}
 2172 000a DA60     		str	r2, [r3, #12]
 2173 000c 5A69     		ldr	r2, [r3, #20]
 2174 000e 12F08002 		ands	r2, r2, #128
 2175 0012 0446     		mov	r4, r0
 2176 0014 0DD0     		beq	.L458
 2177 0016 5A69     		ldr	r2, [r3, #20]
 2178 0018 016B     		ldr	r1, [r0, #48]
 2179 001a 22F08002 		bic	r2, r2, #128
 2180 001e 5A61     		str	r2, [r3, #20]
 2181 0020 A1B1     		cbz	r1, .L459
 2182 0022 0E4B     		ldr	r3, .L466
 2183 0024 0B65     		str	r3, [r1, #80]
 2184 0026 0846     		mov	r0, r1
ARM GAS  /tmp/ccHdAuxH.s 			page 38


 2185 0028 FFF7FEFF 		bl	HAL_DMA_Abort_IT
 2186 002c 48B9     		cbnz	r0, .L465
 2187              	.L460:
 2188 002e 0020     		movs	r0, #0
 2189 0030 10BD     		pop	{r4, pc}
 2190              	.L458:
 2191 0032 2023     		movs	r3, #32
 2192 0034 C284     		strh	r2, [r0, #38]	@ movhi
 2193 0036 80F83930 		strb	r3, [r0, #57]
 2194 003a FFF7FEFF 		bl	HAL_UART_AbortTransmitCpltCallback
 2195 003e 0020     		movs	r0, #0
 2196 0040 10BD     		pop	{r4, pc}
 2197              	.L465:
 2198 0042 206B     		ldr	r0, [r4, #48]
 2199 0044 036D     		ldr	r3, [r0, #80]
 2200 0046 9847     		blx	r3
 2201 0048 0020     		movs	r0, #0
 2202 004a 10BD     		pop	{r4, pc}
 2203              	.L459:
 2204 004c 2023     		movs	r3, #32
 2205 004e C184     		strh	r1, [r0, #38]	@ movhi
 2206 0050 80F83930 		strb	r3, [r0, #57]
 2207 0054 FFF7FEFF 		bl	HAL_UART_AbortTransmitCpltCallback
 2208 0058 E9E7     		b	.L460
 2209              	.L467:
 2210 005a 00BF     		.align	2
 2211              	.L466:
 2212 005c 00000000 		.word	UART_DMATxOnlyAbortCallback
 2214              		.section	.text.UART_DMATxOnlyAbortCallback,"ax",%progbits
 2215              		.align	1
 2216              		.p2align 2,,3
 2217              		.syntax unified
 2218              		.thumb
 2219              		.thumb_func
 2220              		.fpu fpv4-sp-d16
 2222              	UART_DMATxOnlyAbortCallback:
 2223              		@ args = 0, pretend = 0, frame = 0
 2224              		@ frame_needed = 0, uses_anonymous_args = 0
 2225 0000 08B5     		push	{r3, lr}
 2226 0002 836B     		ldr	r3, [r0, #56]
 2227 0004 0021     		movs	r1, #0
 2228 0006 2022     		movs	r2, #32
 2229 0008 D984     		strh	r1, [r3, #38]	@ movhi
 2230 000a 1846     		mov	r0, r3
 2231 000c 83F83920 		strb	r2, [r3, #57]
 2232 0010 FFF7FEFF 		bl	HAL_UART_AbortTransmitCpltCallback
 2233 0014 08BD     		pop	{r3, pc}
 2235 0016 00BF     		.section	.text.HAL_UART_AbortReceiveCpltCallback,"ax",%progbits
 2236              		.align	1
 2237              		.p2align 2,,3
 2238              		.weak	HAL_UART_AbortReceiveCpltCallback
 2239              		.syntax unified
 2240              		.thumb
 2241              		.thumb_func
 2242              		.fpu fpv4-sp-d16
 2244              	HAL_UART_AbortReceiveCpltCallback:
 2245              		@ args = 0, pretend = 0, frame = 0
ARM GAS  /tmp/ccHdAuxH.s 			page 39


 2246              		@ frame_needed = 0, uses_anonymous_args = 0
 2247              		@ link register save eliminated.
 2248 0000 7047     		bx	lr
 2250 0002 00BF     		.section	.text.HAL_UART_AbortReceive_IT,"ax",%progbits
 2251              		.align	1
 2252              		.p2align 2,,3
 2253              		.global	HAL_UART_AbortReceive_IT
 2254              		.syntax unified
 2255              		.thumb
 2256              		.thumb_func
 2257              		.fpu fpv4-sp-d16
 2259              	HAL_UART_AbortReceive_IT:
 2260              		@ args = 0, pretend = 0, frame = 0
 2261              		@ frame_needed = 0, uses_anonymous_args = 0
 2262 0000 0368     		ldr	r3, [r0]
 2263 0002 DA68     		ldr	r2, [r3, #12]
 2264 0004 22F49072 		bic	r2, r2, #288
 2265 0008 10B5     		push	{r4, lr}
 2266 000a DA60     		str	r2, [r3, #12]
 2267 000c 5A69     		ldr	r2, [r3, #20]
 2268 000e 22F00102 		bic	r2, r2, #1
 2269 0012 5A61     		str	r2, [r3, #20]
 2270 0014 5A69     		ldr	r2, [r3, #20]
 2271 0016 12F04002 		ands	r2, r2, #64
 2272 001a 0446     		mov	r4, r0
 2273 001c 0DD0     		beq	.L472
 2274 001e 5A69     		ldr	r2, [r3, #20]
 2275 0020 416B     		ldr	r1, [r0, #52]
 2276 0022 22F04002 		bic	r2, r2, #64
 2277 0026 5A61     		str	r2, [r3, #20]
 2278 0028 A1B1     		cbz	r1, .L473
 2279 002a 0E4B     		ldr	r3, .L480
 2280 002c 0B65     		str	r3, [r1, #80]
 2281 002e 0846     		mov	r0, r1
 2282 0030 FFF7FEFF 		bl	HAL_DMA_Abort_IT
 2283 0034 48B9     		cbnz	r0, .L479
 2284              	.L474:
 2285 0036 0020     		movs	r0, #0
 2286 0038 10BD     		pop	{r4, pc}
 2287              	.L472:
 2288 003a 2023     		movs	r3, #32
 2289 003c C285     		strh	r2, [r0, #46]	@ movhi
 2290 003e 80F83A30 		strb	r3, [r0, #58]
 2291 0042 FFF7FEFF 		bl	HAL_UART_AbortReceiveCpltCallback
 2292 0046 0020     		movs	r0, #0
 2293 0048 10BD     		pop	{r4, pc}
 2294              	.L479:
 2295 004a 606B     		ldr	r0, [r4, #52]
 2296 004c 036D     		ldr	r3, [r0, #80]
 2297 004e 9847     		blx	r3
 2298 0050 0020     		movs	r0, #0
 2299 0052 10BD     		pop	{r4, pc}
 2300              	.L473:
 2301 0054 2023     		movs	r3, #32
 2302 0056 C185     		strh	r1, [r0, #46]	@ movhi
 2303 0058 80F83A30 		strb	r3, [r0, #58]
 2304 005c FFF7FEFF 		bl	HAL_UART_AbortReceiveCpltCallback
ARM GAS  /tmp/ccHdAuxH.s 			page 40


 2305 0060 E9E7     		b	.L474
 2306              	.L481:
 2307 0062 00BF     		.align	2
 2308              	.L480:
 2309 0064 00000000 		.word	UART_DMARxOnlyAbortCallback
 2311              		.section	.text.UART_DMARxOnlyAbortCallback,"ax",%progbits
 2312              		.align	1
 2313              		.p2align 2,,3
 2314              		.syntax unified
 2315              		.thumb
 2316              		.thumb_func
 2317              		.fpu fpv4-sp-d16
 2319              	UART_DMARxOnlyAbortCallback:
 2320              		@ args = 0, pretend = 0, frame = 0
 2321              		@ frame_needed = 0, uses_anonymous_args = 0
 2322 0000 08B5     		push	{r3, lr}
 2323 0002 836B     		ldr	r3, [r0, #56]
 2324 0004 0021     		movs	r1, #0
 2325 0006 2022     		movs	r2, #32
 2326 0008 D985     		strh	r1, [r3, #46]	@ movhi
 2327 000a 1846     		mov	r0, r3
 2328 000c 83F83A20 		strb	r2, [r3, #58]
 2329 0010 FFF7FEFF 		bl	HAL_UART_AbortReceiveCpltCallback
 2330 0014 08BD     		pop	{r3, pc}
 2332 0016 00BF     		.section	.text.HAL_LIN_SendBreak,"ax",%progbits
 2333              		.align	1
 2334              		.p2align 2,,3
 2335              		.global	HAL_LIN_SendBreak
 2336              		.syntax unified
 2337              		.thumb
 2338              		.thumb_func
 2339              		.fpu fpv4-sp-d16
 2341              	HAL_LIN_SendBreak:
 2342              		@ args = 0, pretend = 0, frame = 0
 2343              		@ frame_needed = 0, uses_anonymous_args = 0
 2344              		@ link register save eliminated.
 2345 0000 90F83820 		ldrb	r2, [r0, #56]	@ zero_extendqisi2
 2346 0004 012A     		cmp	r2, #1
 2347 0006 13D0     		beq	.L486
 2348 0008 0346     		mov	r3, r0
 2349 000a 2422     		movs	r2, #36
 2350 000c 0068     		ldr	r0, [r0]
 2351 000e 10B4     		push	{r4}
 2352 0010 83F83920 		strb	r2, [r3, #57]
 2353 0014 C268     		ldr	r2, [r0, #12]
 2354 0016 2024     		movs	r4, #32
 2355 0018 0021     		movs	r1, #0
 2356 001a 42F00102 		orr	r2, r2, #1
 2357 001e C260     		str	r2, [r0, #12]
 2358 0020 0846     		mov	r0, r1
 2359 0022 83F83940 		strb	r4, [r3, #57]
 2360 0026 83F83810 		strb	r1, [r3, #56]
 2361 002a 5DF8044B 		ldr	r4, [sp], #4
 2362 002e 7047     		bx	lr
 2363              	.L486:
 2364 0030 0220     		movs	r0, #2
 2365 0032 7047     		bx	lr
ARM GAS  /tmp/ccHdAuxH.s 			page 41


 2367              		.section	.text.HAL_MultiProcessor_EnterMuteMode,"ax",%progbits
 2368              		.align	1
 2369              		.p2align 2,,3
 2370              		.global	HAL_MultiProcessor_EnterMuteMode
 2371              		.syntax unified
 2372              		.thumb
 2373              		.thumb_func
 2374              		.fpu fpv4-sp-d16
 2376              	HAL_MultiProcessor_EnterMuteMode:
 2377              		@ args = 0, pretend = 0, frame = 0
 2378              		@ frame_needed = 0, uses_anonymous_args = 0
 2379              		@ link register save eliminated.
 2380 0000 90F83820 		ldrb	r2, [r0, #56]	@ zero_extendqisi2
 2381 0004 012A     		cmp	r2, #1
 2382 0006 13D0     		beq	.L493
 2383 0008 0346     		mov	r3, r0
 2384 000a 2422     		movs	r2, #36
 2385 000c 0068     		ldr	r0, [r0]
 2386 000e 10B4     		push	{r4}
 2387 0010 83F83920 		strb	r2, [r3, #57]
 2388 0014 C268     		ldr	r2, [r0, #12]
 2389 0016 2024     		movs	r4, #32
 2390 0018 0021     		movs	r1, #0
 2391 001a 42F00202 		orr	r2, r2, #2
 2392 001e C260     		str	r2, [r0, #12]
 2393 0020 0846     		mov	r0, r1
 2394 0022 83F83940 		strb	r4, [r3, #57]
 2395 0026 83F83810 		strb	r1, [r3, #56]
 2396 002a 5DF8044B 		ldr	r4, [sp], #4
 2397 002e 7047     		bx	lr
 2398              	.L493:
 2399 0030 0220     		movs	r0, #2
 2400 0032 7047     		bx	lr
 2402              		.section	.text.HAL_MultiProcessor_ExitMuteMode,"ax",%progbits
 2403              		.align	1
 2404              		.p2align 2,,3
 2405              		.global	HAL_MultiProcessor_ExitMuteMode
 2406              		.syntax unified
 2407              		.thumb
 2408              		.thumb_func
 2409              		.fpu fpv4-sp-d16
 2411              	HAL_MultiProcessor_ExitMuteMode:
 2412              		@ args = 0, pretend = 0, frame = 0
 2413              		@ frame_needed = 0, uses_anonymous_args = 0
 2414              		@ link register save eliminated.
 2415 0000 90F83820 		ldrb	r2, [r0, #56]	@ zero_extendqisi2
 2416 0004 012A     		cmp	r2, #1
 2417 0006 13D0     		beq	.L500
 2418 0008 0346     		mov	r3, r0
 2419 000a 2422     		movs	r2, #36
 2420 000c 0068     		ldr	r0, [r0]
 2421 000e 10B4     		push	{r4}
 2422 0010 83F83920 		strb	r2, [r3, #57]
 2423 0014 C268     		ldr	r2, [r0, #12]
 2424 0016 2024     		movs	r4, #32
 2425 0018 0021     		movs	r1, #0
 2426 001a 22F00202 		bic	r2, r2, #2
ARM GAS  /tmp/ccHdAuxH.s 			page 42


 2427 001e C260     		str	r2, [r0, #12]
 2428 0020 0846     		mov	r0, r1
 2429 0022 83F83940 		strb	r4, [r3, #57]
 2430 0026 83F83810 		strb	r1, [r3, #56]
 2431 002a 5DF8044B 		ldr	r4, [sp], #4
 2432 002e 7047     		bx	lr
 2433              	.L500:
 2434 0030 0220     		movs	r0, #2
 2435 0032 7047     		bx	lr
 2437              		.section	.text.HAL_HalfDuplex_EnableTransmitter,"ax",%progbits
 2438              		.align	1
 2439              		.p2align 2,,3
 2440              		.global	HAL_HalfDuplex_EnableTransmitter
 2441              		.syntax unified
 2442              		.thumb
 2443              		.thumb_func
 2444              		.fpu fpv4-sp-d16
 2446              	HAL_HalfDuplex_EnableTransmitter:
 2447              		@ args = 0, pretend = 0, frame = 0
 2448              		@ frame_needed = 0, uses_anonymous_args = 0
 2449              		@ link register save eliminated.
 2450 0000 90F83820 		ldrb	r2, [r0, #56]	@ zero_extendqisi2
 2451 0004 012A     		cmp	r2, #1
 2452 0006 15D0     		beq	.L507
 2453 0008 0346     		mov	r3, r0
 2454 000a 2422     		movs	r2, #36
 2455 000c 0068     		ldr	r0, [r0]
 2456 000e 10B4     		push	{r4}
 2457 0010 83F83920 		strb	r2, [r3, #57]
 2458 0014 C268     		ldr	r2, [r0, #12]
 2459 0016 22F00C02 		bic	r2, r2, #12
 2460 001a 2024     		movs	r4, #32
 2461 001c 0021     		movs	r1, #0
 2462 001e 42F00802 		orr	r2, r2, #8
 2463 0022 C260     		str	r2, [r0, #12]
 2464 0024 0846     		mov	r0, r1
 2465 0026 83F83940 		strb	r4, [r3, #57]
 2466 002a 83F83810 		strb	r1, [r3, #56]
 2467 002e 5DF8044B 		ldr	r4, [sp], #4
 2468 0032 7047     		bx	lr
 2469              	.L507:
 2470 0034 0220     		movs	r0, #2
 2471 0036 7047     		bx	lr
 2473              		.section	.text.HAL_HalfDuplex_EnableReceiver,"ax",%progbits
 2474              		.align	1
 2475              		.p2align 2,,3
 2476              		.global	HAL_HalfDuplex_EnableReceiver
 2477              		.syntax unified
 2478              		.thumb
 2479              		.thumb_func
 2480              		.fpu fpv4-sp-d16
 2482              	HAL_HalfDuplex_EnableReceiver:
 2483              		@ args = 0, pretend = 0, frame = 0
 2484              		@ frame_needed = 0, uses_anonymous_args = 0
 2485              		@ link register save eliminated.
 2486 0000 90F83820 		ldrb	r2, [r0, #56]	@ zero_extendqisi2
 2487 0004 012A     		cmp	r2, #1
ARM GAS  /tmp/ccHdAuxH.s 			page 43


 2488 0006 15D0     		beq	.L514
 2489 0008 0346     		mov	r3, r0
 2490 000a 2422     		movs	r2, #36
 2491 000c 0068     		ldr	r0, [r0]
 2492 000e 10B4     		push	{r4}
 2493 0010 83F83920 		strb	r2, [r3, #57]
 2494 0014 C268     		ldr	r2, [r0, #12]
 2495 0016 22F00C02 		bic	r2, r2, #12
 2496 001a 2024     		movs	r4, #32
 2497 001c 0021     		movs	r1, #0
 2498 001e 42F00402 		orr	r2, r2, #4
 2499 0022 C260     		str	r2, [r0, #12]
 2500 0024 0846     		mov	r0, r1
 2501 0026 83F83940 		strb	r4, [r3, #57]
 2502 002a 83F83810 		strb	r1, [r3, #56]
 2503 002e 5DF8044B 		ldr	r4, [sp], #4
 2504 0032 7047     		bx	lr
 2505              	.L514:
 2506 0034 0220     		movs	r0, #2
 2507 0036 7047     		bx	lr
 2509              		.section	.text.HAL_UART_GetState,"ax",%progbits
 2510              		.align	1
 2511              		.p2align 2,,3
 2512              		.global	HAL_UART_GetState
 2513              		.syntax unified
 2514              		.thumb
 2515              		.thumb_func
 2516              		.fpu fpv4-sp-d16
 2518              	HAL_UART_GetState:
 2519              		@ args = 0, pretend = 0, frame = 0
 2520              		@ frame_needed = 0, uses_anonymous_args = 0
 2521              		@ link register save eliminated.
 2522 0000 90F83920 		ldrb	r2, [r0, #57]	@ zero_extendqisi2
 2523 0004 90F83A00 		ldrb	r0, [r0, #58]	@ zero_extendqisi2
 2524 0008 1043     		orrs	r0, r0, r2
 2525 000a 7047     		bx	lr
 2527              		.section	.text.HAL_UART_GetError,"ax",%progbits
 2528              		.align	1
 2529              		.p2align 2,,3
 2530              		.global	HAL_UART_GetError
 2531              		.syntax unified
 2532              		.thumb
 2533              		.thumb_func
 2534              		.fpu fpv4-sp-d16
 2536              	HAL_UART_GetError:
 2537              		@ args = 0, pretend = 0, frame = 0
 2538              		@ frame_needed = 0, uses_anonymous_args = 0
 2539              		@ link register save eliminated.
 2540 0000 C06B     		ldr	r0, [r0, #60]
 2541 0002 7047     		bx	lr
 2543              		.ident	"GCC: (Arch Repository) 6.3.0"
ARM GAS  /tmp/ccHdAuxH.s 			page 44

