ARM GAS  /tmp/ccPLJ0qY.s 			page 1


   1              		.cpu cortex-m4
   2              		.eabi_attribute 27, 1
   3              		.eabi_attribute 28, 1
   4              		.eabi_attribute 23, 1
   5              		.eabi_attribute 24, 1
   6              		.eabi_attribute 25, 1
   7              		.eabi_attribute 26, 1
   8              		.eabi_attribute 30, 2
   9              		.eabi_attribute 34, 1
  10              		.eabi_attribute 18, 4
  11              		.file	"stm32f4xx_hal_i2c_ex.c"
  12              		.section	.text.HAL_I2CEx_ConfigAnalogFilter,"ax",%progbits
  13              		.align	1
  14              		.p2align 2,,3
  15              		.global	HAL_I2CEx_ConfigAnalogFilter
  16              		.syntax unified
  17              		.thumb
  18              		.thumb_func
  19              		.fpu fpv4-sp-d16
  21              	HAL_I2CEx_ConfigAnalogFilter:
  22              		@ args = 0, pretend = 0, frame = 0
  23              		@ frame_needed = 0, uses_anonymous_args = 0
  24              		@ link register save eliminated.
  25 0000 90F83D30 		ldrb	r3, [r0, #61]	@ zero_extendqisi2
  26 0004 DBB2     		uxtb	r3, r3
  27 0006 202B     		cmp	r3, #32
  28 0008 01D0     		beq	.L9
  29 000a 0220     		movs	r0, #2
  30 000c 7047     		bx	lr
  31              	.L9:
  32 000e 0246     		mov	r2, r0
  33 0010 10B4     		push	{r4}
  34 0012 0068     		ldr	r0, [r0]
  35 0014 2424     		movs	r4, #36
  36 0016 82F83D40 		strb	r4, [r2, #61]
  37 001a 0468     		ldr	r4, [r0]
  38 001c 24F00104 		bic	r4, r4, #1
  39 0020 0460     		str	r4, [r0]
  40 0022 446A     		ldr	r4, [r0, #36]
  41 0024 24F01004 		bic	r4, r4, #16
  42 0028 4462     		str	r4, [r0, #36]
  43 002a 446A     		ldr	r4, [r0, #36]
  44 002c 2143     		orrs	r1, r1, r4
  45 002e 4162     		str	r1, [r0, #36]
  46 0030 0168     		ldr	r1, [r0]
  47 0032 5DF8044B 		ldr	r4, [sp], #4
  48 0036 41F00101 		orr	r1, r1, #1
  49 003a 0160     		str	r1, [r0]
  50 003c 0020     		movs	r0, #0
  51 003e 82F83D30 		strb	r3, [r2, #61]
  52 0042 7047     		bx	lr
  54              		.section	.text.HAL_I2CEx_ConfigDigitalFilter,"ax",%progbits
  55              		.align	1
  56              		.p2align 2,,3
  57              		.global	HAL_I2CEx_ConfigDigitalFilter
  58              		.syntax unified
  59              		.thumb
ARM GAS  /tmp/ccPLJ0qY.s 			page 2


  60              		.thumb_func
  61              		.fpu fpv4-sp-d16
  63              	HAL_I2CEx_ConfigDigitalFilter:
  64              		@ args = 0, pretend = 0, frame = 0
  65              		@ frame_needed = 0, uses_anonymous_args = 0
  66              		@ link register save eliminated.
  67 0000 90F83D30 		ldrb	r3, [r0, #61]	@ zero_extendqisi2
  68 0004 DBB2     		uxtb	r3, r3
  69 0006 202B     		cmp	r3, #32
  70 0008 01D0     		beq	.L17
  71 000a 0220     		movs	r0, #2
  72 000c 7047     		bx	lr
  73              	.L17:
  74 000e 0246     		mov	r2, r0
  75 0010 30B4     		push	{r4, r5}
  76 0012 2420     		movs	r0, #36
  77 0014 1468     		ldr	r4, [r2]
  78 0016 82F83D00 		strb	r0, [r2, #61]
  79 001a 2068     		ldr	r0, [r4]
  80 001c 20F00100 		bic	r0, r0, #1
  81 0020 2060     		str	r0, [r4]
  82 0022 656A     		ldr	r5, [r4, #36]
  83 0024 4FF6F070 		movw	r0, #65520
  84 0028 2840     		ands	r0, r0, r5
  85 002a 0843     		orrs	r0, r0, r1
  86 002c 80B2     		uxth	r0, r0
  87 002e 6062     		str	r0, [r4, #36]
  88 0030 2168     		ldr	r1, [r4]
  89 0032 41F00101 		orr	r1, r1, #1
  90 0036 2160     		str	r1, [r4]
  91 0038 0020     		movs	r0, #0
  92 003a 82F83D30 		strb	r3, [r2, #61]
  93 003e 30BC     		pop	{r4, r5}
  94 0040 7047     		bx	lr
  96 0042 00BF     		.ident	"GCC: (Arch Repository) 6.3.0"
ARM GAS  /tmp/ccPLJ0qY.s 			page 3


DEFINED SYMBOLS
                            *ABS*:0000000000000000 stm32f4xx_hal_i2c_ex.c
     /tmp/ccPLJ0qY.s:13     .text.HAL_I2CEx_ConfigAnalogFilter:0000000000000000 $t
     /tmp/ccPLJ0qY.s:21     .text.HAL_I2CEx_ConfigAnalogFilter:0000000000000000 HAL_I2CEx_ConfigAnalogFilter
     /tmp/ccPLJ0qY.s:55     .text.HAL_I2CEx_ConfigDigitalFilter:0000000000000000 $t
     /tmp/ccPLJ0qY.s:63     .text.HAL_I2CEx_ConfigDigitalFilter:0000000000000000 HAL_I2CEx_ConfigDigitalFilter

NO UNDEFINED SYMBOLS
