ARM GAS  /tmp/ccWcZohZ.s 			page 1


   1              		.cpu cortex-m4
   2              		.eabi_attribute 27, 1
   3              		.eabi_attribute 28, 1
   4              		.eabi_attribute 23, 1
   5              		.eabi_attribute 24, 1
   6              		.eabi_attribute 25, 1
   7              		.eabi_attribute 26, 1
   8              		.eabi_attribute 30, 2
   9              		.eabi_attribute 34, 1
  10              		.eabi_attribute 18, 4
  11              		.file	"stm32f4xx_hal_gpio.c"
  12              		.section	.text.HAL_GPIO_Init,"ax",%progbits
  13              		.align	1
  14              		.p2align 2,,3
  15              		.global	HAL_GPIO_Init
  16              		.syntax unified
  17              		.thumb
  18              		.thumb_func
  19              		.fpu fpv4-sp-d16
  21              	HAL_GPIO_Init:
  22              		@ args = 0, pretend = 0, frame = 8
  23              		@ frame_needed = 0, uses_anonymous_args = 0
  24 0000 2DE9F04F 		push	{r4, r5, r6, r7, r8, r9, r10, fp, lr}
  25 0004 D1F800C0 		ldr	ip, [r1]
  26 0008 DFF8CCE1 		ldr	lr, .L34+20
  27 000c 83B0     		sub	sp, sp, #12
  28 000e 0025     		movs	r5, #0
  29 0010 4FF00108 		mov	r8, #1
  30 0014 03E0     		b	.L21
  31              	.L3:
  32 0016 0135     		adds	r5, r5, #1
  33 0018 102D     		cmp	r5, #16
  34 001a 00F08780 		beq	.L29
  35              	.L21:
  36 001e 08FA05F3 		lsl	r3, r8, r5
  37 0022 03EA0C02 		and	r2, r3, ip
  38 0026 9342     		cmp	r3, r2
  39 0028 F5D1     		bne	.L3
  40 002a 4E68     		ldr	r6, [r1, #4]
  41 002c 26F0100A 		bic	r10, r6, #16
  42 0030 BAF1020F 		cmp	r10, #2
  43 0034 7DD0     		beq	.L30
  44 0036 4FEA4509 		lsl	r9, r5, #1
  45 003a 0324     		movs	r4, #3
  46 003c D0F800B0 		ldr	fp, [r0]
  47 0040 04FA09F4 		lsl	r4, r4, r9
  48 0044 E443     		mvns	r4, r4
  49 0046 06F00307 		and	r7, r6, #3
  50 004a 0BEA040B 		and	fp, fp, r4
  51 004e 07FA09F7 		lsl	r7, r7, r9
  52 0052 0AF1FF3A 		add	r10, r10, #-1
  53 0056 47EA0B07 		orr	r7, r7, fp
  54 005a BAF1010F 		cmp	r10, #1
  55 005e 0760     		str	r7, [r0]
  56 0060 40F28E80 		bls	.L5
  57              	.L6:
  58 0064 C768     		ldr	r7, [r0, #12]
ARM GAS  /tmp/ccWcZohZ.s 			page 2


  59 0066 8B68     		ldr	r3, [r1, #8]
  60 0068 3C40     		ands	r4, r4, r7
  61 006a 03FA09F3 		lsl	r3, r3, r9
  62 006e 2343     		orrs	r3, r3, r4
  63 0070 C360     		str	r3, [r0, #12]
  64 0072 F300     		lsls	r3, r6, #3
  65 0074 CFD5     		bpl	.L3
  66 0076 0023     		movs	r3, #0
  67 0078 0193     		str	r3, [sp, #4]
  68 007a 524B     		ldr	r3, .L34
  69 007c 514C     		ldr	r4, .L34
  70 007e 5B6C     		ldr	r3, [r3, #68]
  71 0080 43F48043 		orr	r3, r3, #16384
  72 0084 6364     		str	r3, [r4, #68]
  73 0086 636C     		ldr	r3, [r4, #68]
  74 0088 25F00307 		bic	r7, r5, #3
  75 008c 07F18047 		add	r7, r7, #1073741824
  76 0090 03F48043 		and	r3, r3, #16384
  77 0094 07F59C37 		add	r7, r7, #79872
  78 0098 0193     		str	r3, [sp, #4]
  79 009a 05F00303 		and	r3, r5, #3
  80 009e 019C     		ldr	r4, [sp, #4]
  81 00a0 D7F80890 		ldr	r9, [r7, #8]
  82 00a4 9B00     		lsls	r3, r3, #2
  83 00a6 0F24     		movs	r4, #15
  84 00a8 9C40     		lsls	r4, r4, r3
  85 00aa 29EA040A 		bic	r10, r9, r4
  86 00ae 464C     		ldr	r4, .L34+4
  87 00b0 A042     		cmp	r0, r4
  88 00b2 78D0     		beq	.L22
  89 00b4 04F58064 		add	r4, r4, #1024
  90 00b8 A042     		cmp	r0, r4
  91 00ba 76D0     		beq	.L31
  92 00bc 434C     		ldr	r4, .L34+8
  93 00be A042     		cmp	r0, r4
  94 00c0 76D0     		beq	.L32
  95 00c2 434C     		ldr	r4, .L34+12
  96 00c4 A042     		cmp	r0, r4
  97 00c6 78D0     		beq	.L33
  98 00c8 424C     		ldr	r4, .L34+16
  99 00ca A042     		cmp	r0, r4
 100 00cc 0CBF     		ite	eq
 101 00ce 4FF00409 		moveq	r9, #4
 102 00d2 4FF00709 		movne	r9, #7
 103 00d6 09FA03F3 		lsl	r3, r9, r3
 104              	.L8:
 105 00da 43EA0A03 		orr	r3, r3, r10
 106 00de BB60     		str	r3, [r7, #8]
 107 00e0 DEF80030 		ldr	r3, [lr]
 108 00e4 D443     		mvns	r4, r2
 109 00e6 F703     		lsls	r7, r6, #15
 110 00e8 54BF     		ite	pl
 111 00ea 2340     		andpl	r3, r3, r4
 112 00ec 1343     		orrmi	r3, r3, r2
 113 00ee CEF80030 		str	r3, [lr]
 114 00f2 DEF80430 		ldr	r3, [lr, #4]
 115 00f6 B703     		lsls	r7, r6, #14
ARM GAS  /tmp/ccWcZohZ.s 			page 3


 116 00f8 54BF     		ite	pl
 117 00fa 2340     		andpl	r3, r3, r4
 118 00fc 1343     		orrmi	r3, r3, r2
 119 00fe CEF80430 		str	r3, [lr, #4]
 120 0102 DEF80830 		ldr	r3, [lr, #8]
 121 0106 F702     		lsls	r7, r6, #11
 122 0108 54BF     		ite	pl
 123 010a 2340     		andpl	r3, r3, r4
 124 010c 1343     		orrmi	r3, r3, r2
 125 010e CEF80830 		str	r3, [lr, #8]
 126 0112 DEF80C30 		ldr	r3, [lr, #12]
 127 0116 B602     		lsls	r6, r6, #10
 128 0118 05F10105 		add	r5, r5, #1
 129 011c 54BF     		ite	pl
 130 011e 2340     		andpl	r3, r3, r4
 131 0120 1343     		orrmi	r3, r3, r2
 132 0122 102D     		cmp	r5, #16
 133 0124 CEF80C30 		str	r3, [lr, #12]
 134 0128 7FF479AF 		bne	.L21
 135              	.L29:
 136 012c 03B0     		add	sp, sp, #12
 137              		@ sp needed
 138 012e BDE8F08F 		pop	{r4, r5, r6, r7, r8, r9, r10, fp, pc}
 139              	.L30:
 140 0132 4FEAD509 		lsr	r9, r5, #3
 141 0136 00EB8909 		add	r9, r0, r9, lsl #2
 142 013a 05F00704 		and	r4, r5, #7
 143 013e D9F82070 		ldr	r7, [r9, #32]
 144 0142 A400     		lsls	r4, r4, #2
 145 0144 4FF00F0B 		mov	fp, #15
 146 0148 0BFA04FB 		lsl	fp, fp, r4
 147 014c 27EA0B0A 		bic	r10, r7, fp
 148 0150 0F69     		ldr	r7, [r1, #16]
 149 0152 07FA04F4 		lsl	r4, r7, r4
 150 0156 44EA0A04 		orr	r4, r4, r10
 151 015a C9F82040 		str	r4, [r9, #32]
 152 015e 4FEA4509 		lsl	r9, r5, #1
 153 0162 0324     		movs	r4, #3
 154 0164 D0F800A0 		ldr	r10, [r0]
 155 0168 04FA09F4 		lsl	r4, r4, r9
 156 016c E443     		mvns	r4, r4
 157 016e 06F00307 		and	r7, r6, #3
 158 0172 0AEA040A 		and	r10, r10, r4
 159 0176 07FA09F7 		lsl	r7, r7, r9
 160 017a 47EA0A07 		orr	r7, r7, r10
 161 017e 0760     		str	r7, [r0]
 162              	.L5:
 163 0180 8768     		ldr	r7, [r0, #8]
 164 0182 07EA040A 		and	r10, r7, r4
 165 0186 CF68     		ldr	r7, [r1, #12]
 166 0188 07FA09F7 		lsl	r7, r7, r9
 167 018c 47EA0A07 		orr	r7, r7, r10
 168 0190 8760     		str	r7, [r0, #8]
 169 0192 D0F804A0 		ldr	r10, [r0, #4]
 170 0196 C6F30017 		ubfx	r7, r6, #4, #1
 171 019a 2AEA0303 		bic	r3, r10, r3
 172 019e AF40     		lsls	r7, r7, r5
ARM GAS  /tmp/ccWcZohZ.s 			page 4


 173 01a0 1F43     		orrs	r7, r7, r3
 174 01a2 4760     		str	r7, [r0, #4]
 175 01a4 5EE7     		b	.L6
 176              	.L22:
 177 01a6 0023     		movs	r3, #0
 178 01a8 97E7     		b	.L8
 179              	.L31:
 180 01aa 08FA03F3 		lsl	r3, r8, r3
 181 01ae 94E7     		b	.L8
 182              	.L32:
 183 01b0 4FF00209 		mov	r9, #2
 184 01b4 09FA03F3 		lsl	r3, r9, r3
 185 01b8 8FE7     		b	.L8
 186              	.L33:
 187 01ba 4FF00309 		mov	r9, #3
 188 01be 09FA03F3 		lsl	r3, r9, r3
 189 01c2 8AE7     		b	.L8
 190              	.L35:
 191              		.align	2
 192              	.L34:
 193 01c4 00380240 		.word	1073887232
 194 01c8 00000240 		.word	1073872896
 195 01cc 00080240 		.word	1073874944
 196 01d0 000C0240 		.word	1073875968
 197 01d4 00100240 		.word	1073876992
 198 01d8 003C0140 		.word	1073822720
 200              		.section	.text.HAL_GPIO_DeInit,"ax",%progbits
 201              		.align	1
 202              		.p2align 2,,3
 203              		.global	HAL_GPIO_DeInit
 204              		.syntax unified
 205              		.thumb
 206              		.thumb_func
 207              		.fpu fpv4-sp-d16
 209              	HAL_GPIO_DeInit:
 210              		@ args = 0, pretend = 0, frame = 8
 211              		@ frame_needed = 0, uses_anonymous_args = 0
 212 0000 2DE9F04F 		push	{r4, r5, r6, r7, r8, r9, r10, fp, lr}
 213 0004 0023     		movs	r3, #0
 214 0006 83B0     		sub	sp, sp, #12
 215 0008 DFF81491 		ldr	r9, .L53+16
 216 000c DFF81481 		ldr	r8, .L53+20
 217 0010 4FF0010E 		mov	lr, #1
 218 0014 4FF0030B 		mov	fp, #3
 219 0018 4FF00F0A 		mov	r10, #15
 220 001c 02E0     		b	.L45
 221              	.L38:
 222 001e 0133     		adds	r3, r3, #1
 223 0020 102B     		cmp	r3, #16
 224 0022 61D0     		beq	.L49
 225              	.L45:
 226 0024 0EFA03F2 		lsl	r2, lr, r3
 227 0028 32EA0104 		bics	r4, r2, r1
 228 002c F7D1     		bne	.L38
 229 002e 5C00     		lsls	r4, r3, #1
 230 0030 0568     		ldr	r5, [r0]
 231 0032 0BFA04F4 		lsl	r4, fp, r4
ARM GAS  /tmp/ccWcZohZ.s 			page 5


 232 0036 E443     		mvns	r4, r4
 233 0038 DE08     		lsrs	r6, r3, #3
 234 003a 2540     		ands	r5, r5, r4
 235 003c 00EB8606 		add	r6, r0, r6, lsl #2
 236 0040 0560     		str	r5, [r0]
 237 0042 03F00705 		and	r5, r3, #7
 238 0046 376A     		ldr	r7, [r6, #32]
 239 0048 AD00     		lsls	r5, r5, #2
 240 004a 0AFA05F5 		lsl	r5, r10, r5
 241 004e 27EA0505 		bic	r5, r7, r5
 242 0052 3562     		str	r5, [r6, #32]
 243 0054 8568     		ldr	r5, [r0, #8]
 244 0056 2540     		ands	r5, r5, r4
 245 0058 8560     		str	r5, [r0, #8]
 246 005a 4568     		ldr	r5, [r0, #4]
 247 005c D243     		mvns	r2, r2
 248 005e 1540     		ands	r5, r5, r2
 249 0060 4560     		str	r5, [r0, #4]
 250 0062 C668     		ldr	r6, [r0, #12]
 251 0064 23F00305 		bic	r5, r3, #3
 252 0068 05F18045 		add	r5, r5, #1073741824
 253 006c 3440     		ands	r4, r4, r6
 254 006e 05F59C35 		add	r5, r5, #79872
 255 0072 C460     		str	r4, [r0, #12]
 256 0074 03F00304 		and	r4, r3, #3
 257 0078 AE68     		ldr	r6, [r5, #8]
 258 007a A400     		lsls	r4, r4, #2
 259 007c 0AFA04F7 		lsl	r7, r10, r4
 260 0080 3E40     		ands	r6, r6, r7
 261 0082 4845     		cmp	r0, r9
 262 0084 0196     		str	r6, [sp, #4]
 263 0086 32D0     		beq	.L46
 264 0088 214E     		ldr	r6, .L53
 265 008a B042     		cmp	r0, r6
 266 008c 31D0     		beq	.L50
 267 008e 214E     		ldr	r6, .L53+4
 268 0090 B042     		cmp	r0, r6
 269 0092 32D0     		beq	.L51
 270 0094 204E     		ldr	r6, .L53+8
 271 0096 B042     		cmp	r0, r6
 272 0098 35D0     		beq	.L52
 273 009a 204E     		ldr	r6, .L53+12
 274 009c B042     		cmp	r0, r6
 275 009e 0CBF     		ite	eq
 276 00a0 4FF0040C 		moveq	ip, #4
 277 00a4 4FF0070C 		movne	ip, #7
 278 00a8 019E     		ldr	r6, [sp, #4]
 279 00aa 0CFA04F4 		lsl	r4, ip, r4
 280              	.L39:
 281 00ae A642     		cmp	r6, r4
 282 00b0 B5D1     		bne	.L38
 283 00b2 AC68     		ldr	r4, [r5, #8]
 284 00b4 24EA0707 		bic	r7, r4, r7
 285 00b8 AF60     		str	r7, [r5, #8]
 286 00ba D8F80040 		ldr	r4, [r8]
 287 00be 1440     		ands	r4, r4, r2
 288 00c0 C8F80040 		str	r4, [r8]
ARM GAS  /tmp/ccWcZohZ.s 			page 6


 289 00c4 D8F80440 		ldr	r4, [r8, #4]
 290 00c8 1440     		ands	r4, r4, r2
 291 00ca C8F80440 		str	r4, [r8, #4]
 292 00ce D8F80840 		ldr	r4, [r8, #8]
 293 00d2 1440     		ands	r4, r4, r2
 294 00d4 C8F80840 		str	r4, [r8, #8]
 295 00d8 D8F80C40 		ldr	r4, [r8, #12]
 296 00dc 0133     		adds	r3, r3, #1
 297 00de 2240     		ands	r2, r2, r4
 298 00e0 102B     		cmp	r3, #16
 299 00e2 C8F80C20 		str	r2, [r8, #12]
 300 00e6 9DD1     		bne	.L45
 301              	.L49:
 302 00e8 03B0     		add	sp, sp, #12
 303              		@ sp needed
 304 00ea BDE8F08F 		pop	{r4, r5, r6, r7, r8, r9, r10, fp, pc}
 305              	.L46:
 306 00ee 0024     		movs	r4, #0
 307 00f0 DDE7     		b	.L39
 308              	.L50:
 309 00f2 0EFA04F4 		lsl	r4, lr, r4
 310 00f6 019E     		ldr	r6, [sp, #4]
 311 00f8 D9E7     		b	.L39
 312              	.L51:
 313 00fa 4FF0020C 		mov	ip, #2
 314 00fe 0CFA04F4 		lsl	r4, ip, r4
 315 0102 019E     		ldr	r6, [sp, #4]
 316 0104 D3E7     		b	.L39
 317              	.L52:
 318 0106 0BFA04F4 		lsl	r4, fp, r4
 319 010a 019E     		ldr	r6, [sp, #4]
 320 010c CFE7     		b	.L39
 321              	.L54:
 322 010e 00BF     		.align	2
 323              	.L53:
 324 0110 00040240 		.word	1073873920
 325 0114 00080240 		.word	1073874944
 326 0118 000C0240 		.word	1073875968
 327 011c 00100240 		.word	1073876992
 328 0120 00000240 		.word	1073872896
 329 0124 003C0140 		.word	1073822720
 331              		.section	.text.HAL_GPIO_ReadPin,"ax",%progbits
 332              		.align	1
 333              		.p2align 2,,3
 334              		.global	HAL_GPIO_ReadPin
 335              		.syntax unified
 336              		.thumb
 337              		.thumb_func
 338              		.fpu fpv4-sp-d16
 340              	HAL_GPIO_ReadPin:
 341              		@ args = 0, pretend = 0, frame = 0
 342              		@ frame_needed = 0, uses_anonymous_args = 0
 343              		@ link register save eliminated.
 344 0000 0369     		ldr	r3, [r0, #16]
 345 0002 1942     		tst	r1, r3
 346 0004 14BF     		ite	ne
 347 0006 0120     		movne	r0, #1
ARM GAS  /tmp/ccWcZohZ.s 			page 7


 348 0008 0020     		moveq	r0, #0
 349 000a 7047     		bx	lr
 351              		.section	.text.HAL_GPIO_WritePin,"ax",%progbits
 352              		.align	1
 353              		.p2align 2,,3
 354              		.global	HAL_GPIO_WritePin
 355              		.syntax unified
 356              		.thumb
 357              		.thumb_func
 358              		.fpu fpv4-sp-d16
 360              	HAL_GPIO_WritePin:
 361              		@ args = 0, pretend = 0, frame = 0
 362              		@ frame_needed = 0, uses_anonymous_args = 0
 363              		@ link register save eliminated.
 364 0000 02B9     		cbnz	r2, .L59
 365 0002 0904     		lsls	r1, r1, #16
 366              	.L59:
 367 0004 8161     		str	r1, [r0, #24]
 368 0006 7047     		bx	lr
 370              		.section	.text.HAL_GPIO_TogglePin,"ax",%progbits
 371              		.align	1
 372              		.p2align 2,,3
 373              		.global	HAL_GPIO_TogglePin
 374              		.syntax unified
 375              		.thumb
 376              		.thumb_func
 377              		.fpu fpv4-sp-d16
 379              	HAL_GPIO_TogglePin:
 380              		@ args = 0, pretend = 0, frame = 0
 381              		@ frame_needed = 0, uses_anonymous_args = 0
 382              		@ link register save eliminated.
 383 0000 4369     		ldr	r3, [r0, #20]
 384 0002 5940     		eors	r1, r1, r3
 385 0004 4161     		str	r1, [r0, #20]
 386 0006 7047     		bx	lr
 388              		.section	.text.HAL_GPIO_LockPin,"ax",%progbits
 389              		.align	1
 390              		.p2align 2,,3
 391              		.global	HAL_GPIO_LockPin
 392              		.syntax unified
 393              		.thumb
 394              		.thumb_func
 395              		.fpu fpv4-sp-d16
 397              	HAL_GPIO_LockPin:
 398              		@ args = 0, pretend = 0, frame = 8
 399              		@ frame_needed = 0, uses_anonymous_args = 0
 400              		@ link register save eliminated.
 401 0000 82B0     		sub	sp, sp, #8
 402 0002 4FF48033 		mov	r3, #65536
 403 0006 0193     		str	r3, [sp, #4]
 404 0008 019B     		ldr	r3, [sp, #4]
 405 000a 0B43     		orrs	r3, r3, r1
 406 000c 0193     		str	r3, [sp, #4]
 407 000e 019B     		ldr	r3, [sp, #4]
 408 0010 C361     		str	r3, [r0, #28]
 409 0012 C161     		str	r1, [r0, #28]
 410 0014 019B     		ldr	r3, [sp, #4]
ARM GAS  /tmp/ccWcZohZ.s 			page 8


 411 0016 C361     		str	r3, [r0, #28]
 412 0018 C369     		ldr	r3, [r0, #28]
 413 001a 0193     		str	r3, [sp, #4]
 414 001c C069     		ldr	r0, [r0, #28]
 415 001e 80F48030 		eor	r0, r0, #65536
 416 0022 C0F30040 		ubfx	r0, r0, #16, #1
 417 0026 02B0     		add	sp, sp, #8
 418              		@ sp needed
 419 0028 7047     		bx	lr
 421 002a 00BF     		.section	.text.HAL_GPIO_EXTI_Callback,"ax",%progbits
 422              		.align	1
 423              		.p2align 2,,3
 424              		.weak	HAL_GPIO_EXTI_Callback
 425              		.syntax unified
 426              		.thumb
 427              		.thumb_func
 428              		.fpu fpv4-sp-d16
 430              	HAL_GPIO_EXTI_Callback:
 431              		@ args = 0, pretend = 0, frame = 0
 432              		@ frame_needed = 0, uses_anonymous_args = 0
 433              		@ link register save eliminated.
 434 0000 7047     		bx	lr
 436 0002 00BF     		.section	.text.HAL_GPIO_EXTI_IRQHandler,"ax",%progbits
 437              		.align	1
 438              		.p2align 2,,3
 439              		.global	HAL_GPIO_EXTI_IRQHandler
 440              		.syntax unified
 441              		.thumb
 442              		.thumb_func
 443              		.fpu fpv4-sp-d16
 445              	HAL_GPIO_EXTI_IRQHandler:
 446              		@ args = 0, pretend = 0, frame = 0
 447              		@ frame_needed = 0, uses_anonymous_args = 0
 448 0000 044A     		ldr	r2, .L74
 449 0002 5169     		ldr	r1, [r2, #20]
 450 0004 0142     		tst	r1, r0
 451 0006 00D1     		bne	.L73
 452 0008 7047     		bx	lr
 453              	.L73:
 454 000a 08B5     		push	{r3, lr}
 455 000c 5061     		str	r0, [r2, #20]
 456 000e FFF7FEFF 		bl	HAL_GPIO_EXTI_Callback
 457 0012 08BD     		pop	{r3, pc}
 458              	.L75:
 459              		.align	2
 460              	.L74:
 461 0014 003C0140 		.word	1073822720
 463              		.ident	"GCC: (Arch Repository) 6.3.0"
ARM GAS  /tmp/ccWcZohZ.s 			page 9

