ARM GAS  /tmp/ccZJZx0l.s 			page 1


   1              		.cpu cortex-m4
   2              		.eabi_attribute 27, 1
   3              		.eabi_attribute 28, 1
   4              		.eabi_attribute 23, 1
   5              		.eabi_attribute 24, 1
   6              		.eabi_attribute 25, 1
   7              		.eabi_attribute 26, 1
   8              		.eabi_attribute 30, 2
   9              		.eabi_attribute 34, 1
  10              		.eabi_attribute 18, 4
  11              		.file	"stm32f4xx_hal_spi.c"
  12              		.section	.text.HAL_SPI_MspInit,"ax",%progbits
  13              		.align	1
  14              		.p2align 2,,3
  15              		.weak	HAL_SPI_MspInit
  16              		.syntax unified
  17              		.thumb
  18              		.thumb_func
  19              		.fpu fpv4-sp-d16
  21              	HAL_SPI_MspInit:
  22              		@ args = 0, pretend = 0, frame = 0
  23              		@ frame_needed = 0, uses_anonymous_args = 0
  24              		@ link register save eliminated.
  25 0000 7047     		bx	lr
  27 0002 00BF     		.section	.text.HAL_SPI_Init,"ax",%progbits
  28              		.align	1
  29              		.p2align 2,,3
  30              		.global	HAL_SPI_Init
  31              		.syntax unified
  32              		.thumb
  33              		.thumb_func
  34              		.fpu fpv4-sp-d16
  36              	HAL_SPI_Init:
  37              		@ args = 0, pretend = 0, frame = 0
  38              		@ frame_needed = 0, uses_anonymous_args = 0
  39 0000 0028     		cmp	r0, #0
  40 0002 3AD0     		beq	.L5
  41 0004 90F85120 		ldrb	r2, [r0, #81]	@ zero_extendqisi2
  42 0008 F8B5     		push	{r3, r4, r5, r6, r7, lr}
  43 000a 0025     		movs	r5, #0
  44 000c 0446     		mov	r4, r0
  45 000e 02F0FF01 		and	r1, r2, #255
  46 0012 8562     		str	r5, [r0, #40]
  47 0014 5AB3     		cbz	r2, .L12
  48              	.L4:
  49 0016 A768     		ldr	r7, [r4, #8]
  50 0018 6368     		ldr	r3, [r4, #4]
  51 001a E668     		ldr	r6, [r4, #12]
  52 001c 2069     		ldr	r0, [r4, #16]
  53 001e 6269     		ldr	r2, [r4, #20]
  54 0020 E169     		ldr	r1, [r4, #28]
  55 0022 3B43     		orrs	r3, r3, r7
  56 0024 3343     		orrs	r3, r3, r6
  57 0026 0343     		orrs	r3, r3, r0
  58 0028 1343     		orrs	r3, r3, r2
  59 002a 266A     		ldr	r6, [r4, #32]
  60 002c A069     		ldr	r0, [r4, #24]
ARM GAS  /tmp/ccZJZx0l.s 			page 2


  61 002e 2768     		ldr	r7, [r4]
  62 0030 626A     		ldr	r2, [r4, #36]
  63 0032 0B43     		orrs	r3, r3, r1
  64 0034 0221     		movs	r1, #2
  65 0036 84F85110 		strb	r1, [r4, #81]
  66 003a 3968     		ldr	r1, [r7]
  67 003c 3343     		orrs	r3, r3, r6
  68 003e 00F40076 		and	r6, r0, #512
  69 0042 000C     		lsrs	r0, r0, #16
  70 0044 3343     		orrs	r3, r3, r6
  71 0046 00F00400 		and	r0, r0, #4
  72 004a 2B43     		orrs	r3, r3, r5
  73 004c 0243     		orrs	r2, r2, r0
  74 004e 21F04001 		bic	r1, r1, #64
  75 0052 3960     		str	r1, [r7]
  76 0054 3B60     		str	r3, [r7]
  77 0056 7A60     		str	r2, [r7, #4]
  78 0058 FB69     		ldr	r3, [r7, #28]
  79 005a 0022     		movs	r2, #0
  80 005c 23F40063 		bic	r3, r3, #2048
  81 0060 0121     		movs	r1, #1
  82 0062 FB61     		str	r3, [r7, #28]
  83 0064 1046     		mov	r0, r2
  84 0066 6265     		str	r2, [r4, #84]
  85 0068 84F85110 		strb	r1, [r4, #81]
  86 006c F8BD     		pop	{r3, r4, r5, r6, r7, pc}
  87              	.L12:
  88 006e 80F85010 		strb	r1, [r0, #80]
  89 0072 FFF7FEFF 		bl	HAL_SPI_MspInit
  90 0076 A56A     		ldr	r5, [r4, #40]
  91 0078 CDE7     		b	.L4
  92              	.L5:
  93 007a 0120     		movs	r0, #1
  94 007c 7047     		bx	lr
  96 007e 00BF     		.section	.text.HAL_SPI_MspDeInit,"ax",%progbits
  97              		.align	1
  98              		.p2align 2,,3
  99              		.weak	HAL_SPI_MspDeInit
 100              		.syntax unified
 101              		.thumb
 102              		.thumb_func
 103              		.fpu fpv4-sp-d16
 105              	HAL_SPI_MspDeInit:
 106              		@ args = 0, pretend = 0, frame = 0
 107              		@ frame_needed = 0, uses_anonymous_args = 0
 108              		@ link register save eliminated.
 109 0000 7047     		bx	lr
 111 0002 00BF     		.section	.text.HAL_SPI_DeInit,"ax",%progbits
 112              		.align	1
 113              		.p2align 2,,3
 114              		.global	HAL_SPI_DeInit
 115              		.syntax unified
 116              		.thumb
 117              		.thumb_func
 118              		.fpu fpv4-sp-d16
 120              	HAL_SPI_DeInit:
 121              		@ args = 0, pretend = 0, frame = 0
ARM GAS  /tmp/ccZJZx0l.s 			page 3


 122              		@ frame_needed = 0, uses_anonymous_args = 0
 123 0000 90B1     		cbz	r0, .L16
 124 0002 0268     		ldr	r2, [r0]
 125 0004 0223     		movs	r3, #2
 126 0006 10B5     		push	{r4, lr}
 127 0008 80F85130 		strb	r3, [r0, #81]
 128 000c 1368     		ldr	r3, [r2]
 129 000e 23F04003 		bic	r3, r3, #64
 130 0012 0446     		mov	r4, r0
 131 0014 1360     		str	r3, [r2]
 132 0016 FFF7FEFF 		bl	HAL_SPI_MspDeInit
 133 001a 0020     		movs	r0, #0
 134 001c 6065     		str	r0, [r4, #84]
 135 001e 84F85000 		strb	r0, [r4, #80]
 136 0022 84F85100 		strb	r0, [r4, #81]
 137 0026 10BD     		pop	{r4, pc}
 138              	.L16:
 139 0028 0120     		movs	r0, #1
 140 002a 7047     		bx	lr
 142              		.section	.text.HAL_SPI_Transmit,"ax",%progbits
 143              		.align	1
 144              		.p2align 2,,3
 145              		.global	HAL_SPI_Transmit
 146              		.syntax unified
 147              		.thumb
 148              		.thumb_func
 149              		.fpu fpv4-sp-d16
 151              	HAL_SPI_Transmit:
 152              		@ args = 0, pretend = 0, frame = 8
 153              		@ frame_needed = 0, uses_anonymous_args = 0
 154 0000 2DE9F041 		push	{r4, r5, r6, r7, r8, lr}
 155 0004 0446     		mov	r4, r0
 156 0006 90F85000 		ldrb	r0, [r0, #80]	@ zero_extendqisi2
 157 000a 0128     		cmp	r0, #1
 158 000c 82B0     		sub	sp, sp, #8
 159 000e 03D1     		bne	.L128
 160 0010 0220     		movs	r0, #2
 161 0012 02B0     		add	sp, sp, #8
 162              		@ sp needed
 163 0014 BDE8F081 		pop	{r4, r5, r6, r7, r8, pc}
 164              	.L128:
 165 0018 1E46     		mov	r6, r3
 166 001a 0123     		movs	r3, #1
 167 001c 84F85030 		strb	r3, [r4, #80]
 168 0020 0D46     		mov	r5, r1
 169 0022 1746     		mov	r7, r2
 170 0024 FFF7FEFF 		bl	HAL_GetTick
 171 0028 8046     		mov	r8, r0
 172 002a 94F85100 		ldrb	r0, [r4, #81]	@ zero_extendqisi2
 173 002e C0B2     		uxtb	r0, r0
 174 0030 0128     		cmp	r0, #1
 175 0032 09D0     		beq	.L129
 176 0034 0220     		movs	r0, #2
 177              	.L23:
 178 0036 0122     		movs	r2, #1
 179 0038 0023     		movs	r3, #0
 180 003a 84F85120 		strb	r2, [r4, #81]
ARM GAS  /tmp/ccZJZx0l.s 			page 4


 181 003e 84F85030 		strb	r3, [r4, #80]
 182 0042 02B0     		add	sp, sp, #8
 183              		@ sp needed
 184 0044 BDE8F081 		pop	{r4, r5, r6, r7, r8, pc}
 185              	.L129:
 186 0048 002D     		cmp	r5, #0
 187 004a F4D0     		beq	.L23
 188 004c 002F     		cmp	r7, #0
 189 004e F2D0     		beq	.L23
 190 0050 A268     		ldr	r2, [r4, #8]
 191 0052 2563     		str	r5, [r4, #48]
 192 0054 0023     		movs	r3, #0
 193 0056 0321     		movs	r1, #3
 194 0058 B2F5004F 		cmp	r2, #32768
 195 005c 84F85110 		strb	r1, [r4, #81]
 196 0060 A786     		strh	r7, [r4, #52]	@ movhi
 197 0062 6365     		str	r3, [r4, #84]
 198 0064 A363     		str	r3, [r4, #56]
 199 0066 E786     		strh	r7, [r4, #54]	@ movhi
 200 0068 A387     		strh	r3, [r4, #60]	@ movhi
 201 006a 6364     		str	r3, [r4, #68]
 202 006c 2364     		str	r3, [r4, #64]
 203 006e E387     		strh	r3, [r4, #62]	@ movhi
 204 0070 2268     		ldr	r2, [r4]
 205 0072 00F01181 		beq	.L130
 206              	.L25:
 207 0076 1368     		ldr	r3, [r2]
 208 0078 5B06     		lsls	r3, r3, #25
 209 007a 03D4     		bmi	.L26
 210 007c 1368     		ldr	r3, [r2]
 211 007e 43F04003 		orr	r3, r3, #64
 212 0082 1360     		str	r3, [r2]
 213              	.L26:
 214 0084 E368     		ldr	r3, [r4, #12]
 215 0086 B3F5006F 		cmp	r3, #2048
 216 008a 6368     		ldr	r3, [r4, #4]
 217 008c 00F0B980 		beq	.L131
 218 0090 002B     		cmp	r3, #0
 219 0092 00F0AD80 		beq	.L41
 220 0096 E38E     		ldrh	r3, [r4, #54]
 221 0098 9BB2     		uxth	r3, r3
 222 009a 012B     		cmp	r3, #1
 223 009c 00F0A880 		beq	.L41
 224              	.L42:
 225 00a0 771C     		adds	r7, r6, #1
 226 00a2 27D0     		beq	.L44
 227 00a4 002E     		cmp	r6, #0
 228 00a6 41D0     		beq	.L46
 229              	.L50:
 230 00a8 E38E     		ldrh	r3, [r4, #54]
 231 00aa 9BB2     		uxth	r3, r3
 232 00ac 6BB1     		cbz	r3, .L58
 233              	.L132:
 234 00ae 9368     		ldr	r3, [r2, #8]
 235 00b0 9807     		lsls	r0, r3, #30
 236 00b2 44D4     		bmi	.L48
 237 00b4 FFF7FEFF 		bl	HAL_GetTick
ARM GAS  /tmp/ccZJZx0l.s 			page 5


 238 00b8 A0EB0800 		sub	r0, r0, r8
 239 00bc 8642     		cmp	r6, r0
 240 00be 3CD9     		bls	.L124
 241 00c0 E38E     		ldrh	r3, [r4, #54]
 242 00c2 2268     		ldr	r2, [r4]
 243 00c4 9BB2     		uxth	r3, r3
 244 00c6 002B     		cmp	r3, #0
 245 00c8 F1D1     		bne	.L132
 246              	.L58:
 247 00ca 771C     		adds	r7, r6, #1
 248 00cc 40D1     		bne	.L61
 249              	.L63:
 250 00ce 9368     		ldr	r3, [r2, #8]
 251 00d0 9D07     		lsls	r5, r3, #30
 252 00d2 FCD5     		bpl	.L63
 253              	.L106:
 254 00d4 9368     		ldr	r3, [r2, #8]
 255 00d6 1B06     		lsls	r3, r3, #24
 256 00d8 FCD4     		bmi	.L106
 257              	.L73:
 258 00da A368     		ldr	r3, [r4, #8]
 259 00dc 2BB9     		cbnz	r3, .L75
 260 00de 0193     		str	r3, [sp, #4]
 261 00e0 D368     		ldr	r3, [r2, #12]
 262 00e2 0193     		str	r3, [sp, #4]
 263 00e4 9368     		ldr	r3, [r2, #8]
 264 00e6 0193     		str	r3, [sp, #4]
 265 00e8 019B     		ldr	r3, [sp, #4]
 266              	.L75:
 267 00ea 606D     		ldr	r0, [r4, #84]
 268 00ec 0030     		adds	r0, r0, #0
 269 00ee 18BF     		it	ne
 270 00f0 0120     		movne	r0, #1
 271 00f2 A0E7     		b	.L23
 272              	.L44:
 273 00f4 E38E     		ldrh	r3, [r4, #54]
 274 00f6 9BB2     		uxth	r3, r3
 275 00f8 002B     		cmp	r3, #0
 276 00fa E6D0     		beq	.L58
 277              	.L133:
 278 00fc 9368     		ldr	r3, [r2, #8]
 279 00fe 9907     		lsls	r1, r3, #30
 280 0100 F8D5     		bpl	.L44
 281 0102 15F8013B 		ldrb	r3, [r5], #1	@ zero_extendqisi2
 282 0106 1373     		strb	r3, [r2, #12]
 283 0108 E38E     		ldrh	r3, [r4, #54]
 284 010a 2268     		ldr	r2, [r4]
 285 010c 013B     		subs	r3, r3, #1
 286 010e 9BB2     		uxth	r3, r3
 287 0110 E386     		strh	r3, [r4, #54]	@ movhi
 288 0112 E38E     		ldrh	r3, [r4, #54]
 289 0114 9BB2     		uxth	r3, r3
 290 0116 002B     		cmp	r3, #0
 291 0118 F0D1     		bne	.L133
 292 011a D6E7     		b	.L58
 293              	.L134:
 294 011c 15F8013B 		ldrb	r3, [r5], #1	@ zero_extendqisi2
ARM GAS  /tmp/ccZJZx0l.s 			page 6


 295 0120 1373     		strb	r3, [r2, #12]
 296 0122 E38E     		ldrh	r3, [r4, #54]
 297 0124 2268     		ldr	r2, [r4]
 298 0126 013B     		subs	r3, r3, #1
 299 0128 9BB2     		uxth	r3, r3
 300 012a E386     		strh	r3, [r4, #54]	@ movhi
 301              	.L46:
 302 012c E38E     		ldrh	r3, [r4, #54]
 303 012e 9BB2     		uxth	r3, r3
 304 0130 002B     		cmp	r3, #0
 305 0132 CAD0     		beq	.L58
 306 0134 9368     		ldr	r3, [r2, #8]
 307 0136 9B07     		lsls	r3, r3, #30
 308 0138 F0D4     		bmi	.L134
 309              	.L124:
 310 013a 0320     		movs	r0, #3
 311 013c 7BE7     		b	.L23
 312              	.L48:
 313 013e 15F8013B 		ldrb	r3, [r5], #1	@ zero_extendqisi2
 314 0142 1373     		strb	r3, [r2, #12]
 315 0144 E38E     		ldrh	r3, [r4, #54]
 316 0146 2268     		ldr	r2, [r4]
 317 0148 013B     		subs	r3, r3, #1
 318 014a 9BB2     		uxth	r3, r3
 319 014c E386     		strh	r3, [r4, #54]	@ movhi
 320 014e ABE7     		b	.L50
 321              	.L61:
 322 0150 9368     		ldr	r3, [r2, #8]
 323 0152 9807     		lsls	r0, r3, #30
 324 0154 28D4     		bmi	.L65
 325 0156 36B1     		cbz	r6, .L57
 326 0158 FFF7FEFF 		bl	HAL_GetTick
 327 015c A0EB0800 		sub	r0, r0, r8
 328 0160 8642     		cmp	r6, r0
 329 0162 2268     		ldr	r2, [r4]
 330 0164 B1D8     		bhi	.L58
 331              	.L57:
 332 0166 5368     		ldr	r3, [r2, #4]
 333 0168 6168     		ldr	r1, [r4, #4]
 334 016a 23F0E003 		bic	r3, r3, #224
 335 016e B1F5827F 		cmp	r1, #260
 336 0172 5360     		str	r3, [r2, #4]
 337 0174 00F09D80 		beq	.L135
 338              	.L56:
 339 0178 A36A     		ldr	r3, [r4, #40]
 340 017a B3F5005F 		cmp	r3, #8192
 341 017e 08D1     		bne	.L60
 342 0180 1368     		ldr	r3, [r2]
 343 0182 4DF6FF71 		movw	r1, #57343
 344 0186 0B40     		ands	r3, r3, r1
 345 0188 1360     		str	r3, [r2]
 346 018a 1368     		ldr	r3, [r2]
 347 018c 43F40053 		orr	r3, r3, #8192
 348 0190 1360     		str	r3, [r2]
 349              	.L60:
 350 0192 0123     		movs	r3, #1
 351 0194 84F85130 		strb	r3, [r4, #81]
ARM GAS  /tmp/ccZJZx0l.s 			page 7


 352 0198 CFE7     		b	.L124
 353              	.L66:
 354 019a FFF7FEFF 		bl	HAL_GetTick
 355 019e A0EB0800 		sub	r0, r0, r8
 356 01a2 8642     		cmp	r6, r0
 357 01a4 2268     		ldr	r2, [r4]
 358 01a6 04D9     		bls	.L69
 359              	.L65:
 360 01a8 9368     		ldr	r3, [r2, #8]
 361 01aa 1906     		lsls	r1, r3, #24
 362 01ac 95D5     		bpl	.L73
 363 01ae 002E     		cmp	r6, #0
 364 01b0 F3D1     		bne	.L66
 365              	.L69:
 366 01b2 5368     		ldr	r3, [r2, #4]
 367 01b4 6168     		ldr	r1, [r4, #4]
 368 01b6 23F0E003 		bic	r3, r3, #224
 369 01ba B1F5827F 		cmp	r1, #260
 370 01be 5360     		str	r3, [r2, #4]
 371 01c0 00F08480 		beq	.L136
 372              	.L68:
 373 01c4 A36A     		ldr	r3, [r4, #40]
 374 01c6 B3F5005F 		cmp	r3, #8192
 375 01ca 08D1     		bne	.L71
 376 01cc 1368     		ldr	r3, [r2]
 377 01ce 4DF6FF71 		movw	r1, #57343
 378 01d2 0B40     		ands	r3, r3, r1
 379 01d4 1360     		str	r3, [r2]
 380 01d6 1368     		ldr	r3, [r2]
 381 01d8 43F40053 		orr	r3, r3, #8192
 382 01dc 1360     		str	r3, [r2]
 383              	.L71:
 384 01de 0120     		movs	r0, #1
 385 01e0 84F85100 		strb	r0, [r4, #81]
 386 01e4 636D     		ldr	r3, [r4, #84]
 387 01e6 2022     		movs	r2, #32
 388 01e8 1343     		orrs	r3, r3, r2
 389 01ea 6365     		str	r3, [r4, #84]
 390 01ec 6265     		str	r2, [r4, #84]
 391 01ee 22E7     		b	.L23
 392              	.L41:
 393 01f0 15F8013B 		ldrb	r3, [r5], #1	@ zero_extendqisi2
 394 01f4 1373     		strb	r3, [r2, #12]
 395 01f6 E38E     		ldrh	r3, [r4, #54]
 396 01f8 2268     		ldr	r2, [r4]
 397 01fa 013B     		subs	r3, r3, #1
 398 01fc 9BB2     		uxth	r3, r3
 399 01fe E386     		strh	r3, [r4, #54]	@ movhi
 400 0200 4EE7     		b	.L42
 401              	.L131:
 402 0202 002B     		cmp	r3, #0
 403 0204 4DD0     		beq	.L28
 404 0206 E38E     		ldrh	r3, [r4, #54]
 405 0208 9BB2     		uxth	r3, r3
 406 020a 012B     		cmp	r3, #1
 407 020c 49D0     		beq	.L28
 408              	.L29:
ARM GAS  /tmp/ccZJZx0l.s 			page 8


 409 020e 771C     		adds	r7, r6, #1
 410 0210 15D0     		beq	.L31
 411 0212 002E     		cmp	r6, #0
 412 0214 2ED0     		beq	.L33
 413              	.L38:
 414 0216 E38E     		ldrh	r3, [r4, #54]
 415 0218 9BB2     		uxth	r3, r3
 416 021a 002B     		cmp	r3, #0
 417 021c 3FF455AF 		beq	.L58
 418              	.L137:
 419 0220 9368     		ldr	r3, [r2, #8]
 420 0222 9807     		lsls	r0, r3, #30
 421 0224 30D4     		bmi	.L35
 422 0226 FFF7FEFF 		bl	HAL_GetTick
 423 022a A0EB0800 		sub	r0, r0, r8
 424 022e 8642     		cmp	r6, r0
 425 0230 83D9     		bls	.L124
 426 0232 E38E     		ldrh	r3, [r4, #54]
 427 0234 2268     		ldr	r2, [r4]
 428 0236 9BB2     		uxth	r3, r3
 429 0238 002B     		cmp	r3, #0
 430 023a F1D1     		bne	.L137
 431 023c 45E7     		b	.L58
 432              	.L31:
 433 023e E38E     		ldrh	r3, [r4, #54]
 434 0240 9BB2     		uxth	r3, r3
 435 0242 002B     		cmp	r3, #0
 436 0244 3FF441AF 		beq	.L58
 437              	.L138:
 438 0248 9368     		ldr	r3, [r2, #8]
 439 024a 9907     		lsls	r1, r3, #30
 440 024c F7D5     		bpl	.L31
 441 024e 35F8023B 		ldrh	r3, [r5], #2
 442 0252 D360     		str	r3, [r2, #12]
 443 0254 E38E     		ldrh	r3, [r4, #54]
 444 0256 013B     		subs	r3, r3, #1
 445 0258 9BB2     		uxth	r3, r3
 446 025a E386     		strh	r3, [r4, #54]	@ movhi
 447 025c E38E     		ldrh	r3, [r4, #54]
 448 025e 9BB2     		uxth	r3, r3
 449 0260 002B     		cmp	r3, #0
 450 0262 F1D1     		bne	.L138
 451 0264 31E7     		b	.L58
 452              	.L139:
 453 0266 35F8023B 		ldrh	r3, [r5], #2
 454 026a D360     		str	r3, [r2, #12]
 455 026c E38E     		ldrh	r3, [r4, #54]
 456 026e 013B     		subs	r3, r3, #1
 457 0270 9BB2     		uxth	r3, r3
 458 0272 E386     		strh	r3, [r4, #54]	@ movhi
 459              	.L33:
 460 0274 E38E     		ldrh	r3, [r4, #54]
 461 0276 9BB2     		uxth	r3, r3
 462 0278 002B     		cmp	r3, #0
 463 027a 3FF426AF 		beq	.L58
 464 027e 9368     		ldr	r3, [r2, #8]
 465 0280 9B07     		lsls	r3, r3, #30
ARM GAS  /tmp/ccZJZx0l.s 			page 9


 466 0282 7FF55AAF 		bpl	.L124
 467 0286 EEE7     		b	.L139
 468              	.L35:
 469 0288 35F8023B 		ldrh	r3, [r5], #2
 470 028c D360     		str	r3, [r2, #12]
 471 028e E38E     		ldrh	r3, [r4, #54]
 472 0290 013B     		subs	r3, r3, #1
 473 0292 9BB2     		uxth	r3, r3
 474 0294 E386     		strh	r3, [r4, #54]	@ movhi
 475 0296 BEE7     		b	.L38
 476              	.L130:
 477 0298 1368     		ldr	r3, [r2]
 478 029a 43F48043 		orr	r3, r3, #16384
 479 029e 1360     		str	r3, [r2]
 480 02a0 E9E6     		b	.L25
 481              	.L28:
 482 02a2 35F8023B 		ldrh	r3, [r5], #2
 483 02a6 D360     		str	r3, [r2, #12]
 484 02a8 E38E     		ldrh	r3, [r4, #54]
 485 02aa 013B     		subs	r3, r3, #1
 486 02ac 9BB2     		uxth	r3, r3
 487 02ae E386     		strh	r3, [r4, #54]	@ movhi
 488 02b0 ADE7     		b	.L29
 489              	.L135:
 490 02b2 A368     		ldr	r3, [r4, #8]
 491 02b4 B3F5004F 		cmp	r3, #32768
 492 02b8 03D0     		beq	.L59
 493 02ba B3F5806F 		cmp	r3, #1024
 494 02be 7FF45BAF 		bne	.L56
 495              	.L59:
 496 02c2 1368     		ldr	r3, [r2]
 497 02c4 23F04003 		bic	r3, r3, #64
 498 02c8 1360     		str	r3, [r2]
 499 02ca 55E7     		b	.L56
 500              	.L136:
 501 02cc A368     		ldr	r3, [r4, #8]
 502 02ce B3F5004F 		cmp	r3, #32768
 503 02d2 03D0     		beq	.L70
 504 02d4 B3F5806F 		cmp	r3, #1024
 505 02d8 7FF474AF 		bne	.L68
 506              	.L70:
 507 02dc 1368     		ldr	r3, [r2]
 508 02de 23F04003 		bic	r3, r3, #64
 509 02e2 1360     		str	r3, [r2]
 510 02e4 6EE7     		b	.L68
 512 02e6 00BF     		.section	.text.HAL_SPI_Receive,"ax",%progbits
 513              		.align	1
 514              		.p2align 2,,3
 515              		.global	HAL_SPI_Receive
 516              		.syntax unified
 517              		.thumb
 518              		.thumb_func
 519              		.fpu fpv4-sp-d16
 521              	HAL_SPI_Receive:
 522              		@ args = 0, pretend = 0, frame = 8
 523              		@ frame_needed = 0, uses_anonymous_args = 0
 524 0000 2DE9F043 		push	{r4, r5, r6, r7, r8, r9, lr}
ARM GAS  /tmp/ccZJZx0l.s 			page 10


 525 0004 0446     		mov	r4, r0
 526 0006 4068     		ldr	r0, [r0, #4]
 527 0008 B0F5827F 		cmp	r0, #260
 528 000c 83B0     		sub	sp, sp, #12
 529 000e 0D46     		mov	r5, r1
 530 0010 1746     		mov	r7, r2
 531 0012 1E46     		mov	r6, r3
 532 0014 1DD0     		beq	.L359
 533              	.L141:
 534 0016 94F85010 		ldrb	r1, [r4, #80]	@ zero_extendqisi2
 535 001a 0129     		cmp	r1, #1
 536 001c 03D1     		bne	.L360
 537              	.L194:
 538 001e 0220     		movs	r0, #2
 539 0020 03B0     		add	sp, sp, #12
 540              		@ sp needed
 541 0022 BDE8F083 		pop	{r4, r5, r6, r7, r8, r9, pc}
 542              	.L360:
 543 0026 0123     		movs	r3, #1
 544 0028 84F85030 		strb	r3, [r4, #80]
 545 002c FFF7FEFF 		bl	HAL_GetTick
 546 0030 8046     		mov	r8, r0
 547 0032 94F85100 		ldrb	r0, [r4, #81]	@ zero_extendqisi2
 548 0036 C0B2     		uxtb	r0, r0
 549 0038 0128     		cmp	r0, #1
 550 003a 00F08380 		beq	.L361
 551              	.L232:
 552 003e 0220     		movs	r0, #2
 553              	.L195:
 554 0040 0122     		movs	r2, #1
 555 0042 0023     		movs	r3, #0
 556 0044 84F85120 		strb	r2, [r4, #81]
 557 0048 84F85030 		strb	r3, [r4, #80]
 558 004c 03B0     		add	sp, sp, #12
 559              		@ sp needed
 560 004e BDE8F083 		pop	{r4, r5, r6, r7, r8, r9, pc}
 561              	.L359:
 562 0052 A368     		ldr	r3, [r4, #8]
 563 0054 002B     		cmp	r3, #0
 564 0056 DED1     		bne	.L141
 565 0058 94F85030 		ldrb	r3, [r4, #80]	@ zero_extendqisi2
 566 005c 0422     		movs	r2, #4
 567 005e 012B     		cmp	r3, #1
 568 0060 84F85120 		strb	r2, [r4, #81]
 569 0064 DBD0     		beq	.L194
 570 0066 0123     		movs	r3, #1
 571 0068 84F85030 		strb	r3, [r4, #80]
 572 006c FFF7FEFF 		bl	HAL_GetTick
 573 0070 94F85130 		ldrb	r3, [r4, #81]	@ zero_extendqisi2
 574 0074 6168     		ldr	r1, [r4, #4]
 575 0076 DBB2     		uxtb	r3, r3
 576 0078 012B     		cmp	r3, #1
 577 007a 8046     		mov	r8, r0
 578 007c 07D0     		beq	.L144
 579 007e B1F5827F 		cmp	r1, #260
 580 0082 DCD1     		bne	.L232
 581 0084 A268     		ldr	r2, [r4, #8]
ARM GAS  /tmp/ccZJZx0l.s 			page 11


 582 0086 002A     		cmp	r2, #0
 583 0088 D9D1     		bne	.L232
 584 008a 042B     		cmp	r3, #4
 585 008c D7D1     		bne	.L232
 586              	.L144:
 587 008e 002D     		cmp	r5, #0
 588 0090 00F02781 		beq	.L229
 589 0094 002F     		cmp	r7, #0
 590 0096 00F02481 		beq	.L229
 591 009a 94F85130 		ldrb	r3, [r4, #81]	@ zero_extendqisi2
 592 009e 2268     		ldr	r2, [r4]
 593 00a0 012B     		cmp	r3, #1
 594 00a2 04BF     		itt	eq
 595 00a4 0523     		moveq	r3, #5
 596 00a6 84F85130 		strbeq	r3, [r4, #81]
 597 00aa 0023     		movs	r3, #0
 598 00ac 6365     		str	r3, [r4, #84]
 599 00ae E787     		strh	r7, [r4, #62]	@ movhi
 600 00b0 E786     		strh	r7, [r4, #54]	@ movhi
 601 00b2 1068     		ldr	r0, [r2]
 602 00b4 A563     		str	r5, [r4, #56]
 603 00b6 4006     		lsls	r0, r0, #25
 604 00b8 A787     		strh	r7, [r4, #60]	@ movhi
 605 00ba 2563     		str	r5, [r4, #48]
 606 00bc A786     		strh	r7, [r4, #52]	@ movhi
 607 00be 2364     		str	r3, [r4, #64]
 608 00c0 6364     		str	r3, [r4, #68]
 609 00c2 03D4     		bmi	.L147
 610 00c4 1368     		ldr	r3, [r2]
 611 00c6 43F04003 		orr	r3, r3, #64
 612 00ca 1360     		str	r3, [r2]
 613              	.L147:
 614 00cc E368     		ldr	r3, [r4, #12]
 615 00ce B3F5006F 		cmp	r3, #2048
 616 00d2 2F46     		mov	r7, r5
 617 00d4 00F09680 		beq	.L362
 618 00d8 0029     		cmp	r1, #0
 619 00da 00F01281 		beq	.L162
 620 00de E38E     		ldrh	r3, [r4, #54]
 621 00e0 9BB2     		uxth	r3, r3
 622 00e2 012B     		cmp	r3, #1
 623 00e4 00F00D81 		beq	.L162
 624              	.L163:
 625 00e8 731C     		adds	r3, r6, #1
 626 00ea 40F01281 		bne	.L164
 627 00ee 2268     		ldr	r2, [r4]
 628 00f0 0121     		movs	r1, #1
 629              	.L168:
 630 00f2 E38E     		ldrh	r3, [r4, #54]
 631 00f4 9BB2     		uxth	r3, r3
 632 00f6 23B9     		cbnz	r3, .L165
 633 00f8 E38F     		ldrh	r3, [r4, #62]
 634 00fa 9BB2     		uxth	r3, r3
 635 00fc 002B     		cmp	r3, #0
 636 00fe 00F09780 		beq	.L183
 637              	.L165:
 638 0102 71B1     		cbz	r1, .L166
ARM GAS  /tmp/ccZJZx0l.s 			page 12


 639 0104 E38E     		ldrh	r3, [r4, #54]
 640 0106 9BB2     		uxth	r3, r3
 641 0108 5BB1     		cbz	r3, .L166
 642 010a 9368     		ldr	r3, [r2, #8]
 643 010c 9E07     		lsls	r6, r3, #30
 644 010e 08D5     		bpl	.L166
 645 0110 3B78     		ldrb	r3, [r7]	@ zero_extendqisi2
 646 0112 1373     		strb	r3, [r2, #12]
 647 0114 E38E     		ldrh	r3, [r4, #54]
 648 0116 2268     		ldr	r2, [r4]
 649 0118 013B     		subs	r3, r3, #1
 650 011a 9BB2     		uxth	r3, r3
 651 011c 0137     		adds	r7, r7, #1
 652 011e E386     		strh	r3, [r4, #54]	@ movhi
 653 0120 0021     		movs	r1, #0
 654              	.L166:
 655 0122 E38F     		ldrh	r3, [r4, #62]
 656 0124 9BB2     		uxth	r3, r3
 657 0126 002B     		cmp	r3, #0
 658 0128 E3D0     		beq	.L168
 659 012a 9368     		ldr	r3, [r2, #8]
 660 012c D807     		lsls	r0, r3, #31
 661 012e E0D5     		bpl	.L168
 662 0130 D368     		ldr	r3, [r2, #12]
 663 0132 2B70     		strb	r3, [r5]
 664 0134 E38F     		ldrh	r3, [r4, #62]
 665 0136 2268     		ldr	r2, [r4]
 666 0138 013B     		subs	r3, r3, #1
 667 013a 9BB2     		uxth	r3, r3
 668 013c 0135     		adds	r5, r5, #1
 669 013e E387     		strh	r3, [r4, #62]	@ movhi
 670 0140 0121     		movs	r1, #1
 671 0142 D6E7     		b	.L168
 672              	.L361:
 673 0144 002D     		cmp	r5, #0
 674 0146 3FF47BAF 		beq	.L195
 675 014a 002F     		cmp	r7, #0
 676 014c 3FF478AF 		beq	.L195
 677 0150 A268     		ldr	r2, [r4, #8]
 678 0152 A563     		str	r5, [r4, #56]
 679 0154 0023     		movs	r3, #0
 680 0156 0421     		movs	r1, #4
 681 0158 B2F5004F 		cmp	r2, #32768
 682 015c 84F85110 		strb	r1, [r4, #81]
 683 0160 A787     		strh	r7, [r4, #60]	@ movhi
 684 0162 6365     		str	r3, [r4, #84]
 685 0164 2363     		str	r3, [r4, #48]
 686 0166 E787     		strh	r7, [r4, #62]	@ movhi
 687 0168 A386     		strh	r3, [r4, #52]	@ movhi
 688 016a 2364     		str	r3, [r4, #64]
 689 016c 6364     		str	r3, [r4, #68]
 690 016e E386     		strh	r3, [r4, #54]	@ movhi
 691 0170 2268     		ldr	r2, [r4]
 692 0172 00F0B180 		beq	.L363
 693              	.L197:
 694 0176 1368     		ldr	r3, [r2]
 695 0178 5806     		lsls	r0, r3, #25
ARM GAS  /tmp/ccZJZx0l.s 			page 13


 696 017a 03D4     		bmi	.L198
 697 017c 1368     		ldr	r3, [r2]
 698 017e 43F04003 		orr	r3, r3, #64
 699 0182 1360     		str	r3, [r2]
 700              	.L198:
 701 0184 E368     		ldr	r3, [r4, #12]
 702 0186 002B     		cmp	r3, #0
 703 0188 66D0     		beq	.L199
 704 018a 711C     		adds	r1, r6, #1
 705 018c 10D0     		beq	.L201
 706 018e 002E     		cmp	r6, #0
 707 0190 30D0     		beq	.L203
 708              	.L208:
 709 0192 E38F     		ldrh	r3, [r4, #62]
 710 0194 9BB2     		uxth	r3, r3
 711 0196 E3B1     		cbz	r3, .L204
 712 0198 2368     		ldr	r3, [r4]
 713 019a 9A68     		ldr	r2, [r3, #8]
 714 019c D207     		lsls	r2, r2, #31
 715 019e 53D4     		bmi	.L205
 716 01a0 FFF7FEFF 		bl	HAL_GetTick
 717 01a4 A0EB0800 		sub	r0, r0, r8
 718 01a8 8642     		cmp	r6, r0
 719 01aa F2D8     		bhi	.L208
 720              	.L354:
 721 01ac 0320     		movs	r0, #3
 722 01ae 47E7     		b	.L195
 723              	.L201:
 724 01b0 E38F     		ldrh	r3, [r4, #62]
 725 01b2 9BB2     		uxth	r3, r3
 726 01b4 6BB1     		cbz	r3, .L204
 727              	.L364:
 728 01b6 9368     		ldr	r3, [r2, #8]
 729 01b8 DB07     		lsls	r3, r3, #31
 730 01ba F9D5     		bpl	.L201
 731 01bc D368     		ldr	r3, [r2, #12]
 732 01be 25F8023B 		strh	r3, [r5], #2	@ movhi
 733 01c2 E38F     		ldrh	r3, [r4, #62]
 734 01c4 013B     		subs	r3, r3, #1
 735 01c6 9BB2     		uxth	r3, r3
 736 01c8 E387     		strh	r3, [r4, #62]	@ movhi
 737 01ca E38F     		ldrh	r3, [r4, #62]
 738 01cc 9BB2     		uxth	r3, r3
 739 01ce 002B     		cmp	r3, #0
 740 01d0 F1D1     		bne	.L364
 741              	.L204:
 742 01d2 6368     		ldr	r3, [r4, #4]
 743 01d4 B3F5827F 		cmp	r3, #260
 744 01d8 00F08580 		beq	.L365
 745              	.L220:
 746 01dc 606D     		ldr	r0, [r4, #84]
 747 01de 0030     		adds	r0, r0, #0
 748 01e0 18BF     		it	ne
 749 01e2 0120     		movne	r0, #1
 750 01e4 2CE7     		b	.L195
 751              	.L366:
 752 01e6 D368     		ldr	r3, [r2, #12]
ARM GAS  /tmp/ccZJZx0l.s 			page 14


 753 01e8 25F8023B 		strh	r3, [r5], #2	@ movhi
 754 01ec E38F     		ldrh	r3, [r4, #62]
 755 01ee 013B     		subs	r3, r3, #1
 756 01f0 9BB2     		uxth	r3, r3
 757 01f2 E387     		strh	r3, [r4, #62]	@ movhi
 758              	.L203:
 759 01f4 E38F     		ldrh	r3, [r4, #62]
 760 01f6 9BB2     		uxth	r3, r3
 761 01f8 002B     		cmp	r3, #0
 762 01fa EAD0     		beq	.L204
 763 01fc 9368     		ldr	r3, [r2, #8]
 764 01fe DB07     		lsls	r3, r3, #31
 765 0200 D4D5     		bpl	.L354
 766 0202 F0E7     		b	.L366
 767              	.L362:
 768 0204 0029     		cmp	r1, #0
 769 0206 00F03781 		beq	.L149
 770 020a E38E     		ldrh	r3, [r4, #54]
 771 020c 9BB2     		uxth	r3, r3
 772 020e 012B     		cmp	r3, #1
 773 0210 00F03281 		beq	.L149
 774              	.L150:
 775 0214 731C     		adds	r3, r6, #1
 776 0216 40F0AF80 		bne	.L151
 777 021a 0121     		movs	r1, #1
 778              	.L156:
 779 021c E38E     		ldrh	r3, [r4, #54]
 780 021e 9BB2     		uxth	r3, r3
 781 0220 002B     		cmp	r3, #0
 782 0222 40F00881 		bne	.L152
 783 0226 E38F     		ldrh	r3, [r4, #62]
 784 0228 9BB2     		uxth	r3, r3
 785 022a 002B     		cmp	r3, #0
 786 022c 40F00381 		bne	.L152
 787              	.L183:
 788 0230 9368     		ldr	r3, [r2, #8]
 789 0232 9907     		lsls	r1, r3, #30
 790 0234 FCD5     		bpl	.L183
 791              	.L311:
 792 0236 9368     		ldr	r3, [r2, #8]
 793 0238 1D06     		lsls	r5, r3, #24
 794 023a FCD4     		bmi	.L311
 795              	.L193:
 796 023c A068     		ldr	r0, [r4, #8]
 797 023e 0028     		cmp	r0, #0
 798 0240 00F04D81 		beq	.L223
 799 0244 0020     		movs	r0, #0
 800 0246 FBE6     		b	.L195
 801              	.L205:
 802 0248 DB68     		ldr	r3, [r3, #12]
 803 024a 25F8023B 		strh	r3, [r5], #2	@ movhi
 804 024e E38F     		ldrh	r3, [r4, #62]
 805 0250 013B     		subs	r3, r3, #1
 806 0252 9BB2     		uxth	r3, r3
 807 0254 E387     		strh	r3, [r4, #62]	@ movhi
 808 0256 9CE7     		b	.L208
 809              	.L199:
ARM GAS  /tmp/ccZJZx0l.s 			page 15


 810 0258 771C     		adds	r7, r6, #1
 811 025a 10D0     		beq	.L211
 812 025c 002E     		cmp	r6, #0
 813 025e 29D0     		beq	.L213
 814              	.L216:
 815 0260 E38F     		ldrh	r3, [r4, #62]
 816 0262 9BB2     		uxth	r3, r3
 817 0264 002B     		cmp	r3, #0
 818 0266 B4D0     		beq	.L204
 819 0268 2368     		ldr	r3, [r4]
 820 026a 9A68     		ldr	r2, [r3, #8]
 821 026c D007     		lsls	r0, r2, #31
 822 026e 2BD4     		bmi	.L214
 823 0270 FFF7FEFF 		bl	HAL_GetTick
 824 0274 A0EB0800 		sub	r0, r0, r8
 825 0278 8642     		cmp	r6, r0
 826 027a F1D8     		bhi	.L216
 827 027c 96E7     		b	.L354
 828              	.L211:
 829 027e E38F     		ldrh	r3, [r4, #62]
 830 0280 9BB2     		uxth	r3, r3
 831 0282 002B     		cmp	r3, #0
 832 0284 A5D0     		beq	.L204
 833              	.L367:
 834 0286 2368     		ldr	r3, [r4]
 835 0288 9A68     		ldr	r2, [r3, #8]
 836 028a D107     		lsls	r1, r2, #31
 837 028c F7D5     		bpl	.L211
 838 028e 1B7B     		ldrb	r3, [r3, #12]	@ zero_extendqisi2
 839 0290 05F8013B 		strb	r3, [r5], #1
 840 0294 E38F     		ldrh	r3, [r4, #62]
 841 0296 013B     		subs	r3, r3, #1
 842 0298 9BB2     		uxth	r3, r3
 843 029a E387     		strh	r3, [r4, #62]	@ movhi
 844 029c E38F     		ldrh	r3, [r4, #62]
 845 029e 9BB2     		uxth	r3, r3
 846 02a0 002B     		cmp	r3, #0
 847 02a2 F0D1     		bne	.L367
 848 02a4 95E7     		b	.L204
 849              	.L368:
 850 02a6 1B7B     		ldrb	r3, [r3, #12]	@ zero_extendqisi2
 851 02a8 05F8013B 		strb	r3, [r5], #1
 852 02ac E38F     		ldrh	r3, [r4, #62]
 853 02ae 013B     		subs	r3, r3, #1
 854 02b0 9BB2     		uxth	r3, r3
 855 02b2 E387     		strh	r3, [r4, #62]	@ movhi
 856              	.L213:
 857 02b4 E38F     		ldrh	r3, [r4, #62]
 858 02b6 9BB2     		uxth	r3, r3
 859 02b8 002B     		cmp	r3, #0
 860 02ba 8AD0     		beq	.L204
 861 02bc 2368     		ldr	r3, [r4]
 862 02be 9A68     		ldr	r2, [r3, #8]
 863 02c0 D207     		lsls	r2, r2, #31
 864 02c2 7FF573AF 		bpl	.L354
 865 02c6 EEE7     		b	.L368
 866              	.L214:
ARM GAS  /tmp/ccZJZx0l.s 			page 16


 867 02c8 1B7B     		ldrb	r3, [r3, #12]	@ zero_extendqisi2
 868 02ca 05F8013B 		strb	r3, [r5], #1
 869 02ce E38F     		ldrh	r3, [r4, #62]
 870 02d0 013B     		subs	r3, r3, #1
 871 02d2 9BB2     		uxth	r3, r3
 872 02d4 E387     		strh	r3, [r4, #62]	@ movhi
 873 02d6 C3E7     		b	.L216
 874              	.L363:
 875 02d8 1368     		ldr	r3, [r2]
 876 02da 23F48043 		bic	r3, r3, #16384
 877 02de 1360     		str	r3, [r2]
 878 02e0 49E7     		b	.L197
 879              	.L229:
 880              	.L145:
 881 02e2 0120     		movs	r0, #1
 882 02e4 ACE6     		b	.L195
 883              	.L365:
 884 02e6 A368     		ldr	r3, [r4, #8]
 885 02e8 B3F5004F 		cmp	r3, #32768
 886 02ec 03D0     		beq	.L222
 887 02ee B3F5806F 		cmp	r3, #1024
 888 02f2 7FF473AF 		bne	.L220
 889              	.L222:
 890 02f6 2268     		ldr	r2, [r4]
 891 02f8 1368     		ldr	r3, [r2]
 892 02fa 23F04003 		bic	r3, r3, #64
 893 02fe 1360     		str	r3, [r2]
 894 0300 6CE7     		b	.L220
 895              	.L162:
 896 0302 17F8013B 		ldrb	r3, [r7], #1	@ zero_extendqisi2
 897 0306 1373     		strb	r3, [r2, #12]
 898 0308 E38E     		ldrh	r3, [r4, #54]
 899 030a 013B     		subs	r3, r3, #1
 900 030c 9BB2     		uxth	r3, r3
 901 030e E386     		strh	r3, [r4, #54]	@ movhi
 902 0310 EAE6     		b	.L163
 903              	.L164:
 904 0312 4FF00109 		mov	r9, #1
 905              	.L172:
 906 0316 E38E     		ldrh	r3, [r4, #54]
 907 0318 9BB2     		uxth	r3, r3
 908 031a 1BB9     		cbnz	r3, .L173
 909 031c E38F     		ldrh	r3, [r4, #62]
 910 031e 9BB2     		uxth	r3, r3
 911 0320 002B     		cmp	r3, #0
 912 0322 34D0     		beq	.L178
 913              	.L173:
 914 0324 B9F1000F 		cmp	r9, #0
 915 0328 0FD0     		beq	.L169
 916 032a E38E     		ldrh	r3, [r4, #54]
 917 032c 9BB2     		uxth	r3, r3
 918 032e 63B1     		cbz	r3, .L169
 919 0330 2368     		ldr	r3, [r4]
 920 0332 9A68     		ldr	r2, [r3, #8]
 921 0334 9107     		lsls	r1, r2, #30
 922 0336 08D5     		bpl	.L169
 923 0338 3A78     		ldrb	r2, [r7]	@ zero_extendqisi2
ARM GAS  /tmp/ccZJZx0l.s 			page 17


 924 033a 1A73     		strb	r2, [r3, #12]
 925 033c E38E     		ldrh	r3, [r4, #54]
 926 033e 013B     		subs	r3, r3, #1
 927 0340 9BB2     		uxth	r3, r3
 928 0342 0137     		adds	r7, r7, #1
 929 0344 E386     		strh	r3, [r4, #54]	@ movhi
 930 0346 4FF00009 		mov	r9, #0
 931              	.L169:
 932 034a E38F     		ldrh	r3, [r4, #62]
 933 034c 9BB2     		uxth	r3, r3
 934 034e 63B1     		cbz	r3, .L170
 935 0350 2368     		ldr	r3, [r4]
 936 0352 9A68     		ldr	r2, [r3, #8]
 937 0354 D207     		lsls	r2, r2, #31
 938 0356 08D5     		bpl	.L170
 939 0358 DB68     		ldr	r3, [r3, #12]
 940 035a 2B70     		strb	r3, [r5]
 941 035c E38F     		ldrh	r3, [r4, #62]
 942 035e 013B     		subs	r3, r3, #1
 943 0360 9BB2     		uxth	r3, r3
 944 0362 0135     		adds	r5, r5, #1
 945 0364 E387     		strh	r3, [r4, #62]	@ movhi
 946 0366 4FF00109 		mov	r9, #1
 947              	.L170:
 948 036a FFF7FEFF 		bl	HAL_GetTick
 949 036e A0EB0800 		sub	r0, r0, r8
 950 0372 8642     		cmp	r6, r0
 951 0374 CFD8     		bhi	.L172
 952 0376 19E7     		b	.L354
 953              	.L151:
 954 0378 4FF00109 		mov	r9, #1
 955              	.L159:
 956 037c E38E     		ldrh	r3, [r4, #54]
 957 037e 9BB2     		uxth	r3, r3
 958 0380 002B     		cmp	r3, #0
 959 0382 40F08180 		bne	.L160
 960 0386 E38F     		ldrh	r3, [r4, #62]
 961 0388 9BB2     		uxth	r3, r3
 962 038a 002B     		cmp	r3, #0
 963 038c 7CD1     		bne	.L160
 964              	.L178:
 965 038e 701C     		adds	r0, r6, #1
 966 0390 2268     		ldr	r2, [r4]
 967 0392 3FF44DAF 		beq	.L183
 968 0396 9368     		ldr	r3, [r2, #8]
 969 0398 9B07     		lsls	r3, r3, #30
 970 039a 28D4     		bmi	.L185
 971 039c 36B1     		cbz	r6, .L177
 972 039e FFF7FEFF 		bl	HAL_GetTick
 973 03a2 A0EB0800 		sub	r0, r0, r8
 974 03a6 8642     		cmp	r6, r0
 975 03a8 F1D8     		bhi	.L178
 976 03aa 2268     		ldr	r2, [r4]
 977              	.L177:
 978 03ac 5368     		ldr	r3, [r2, #4]
 979 03ae 6168     		ldr	r1, [r4, #4]
 980 03b0 23F0E003 		bic	r3, r3, #224
ARM GAS  /tmp/ccZJZx0l.s 			page 18


 981 03b4 B1F5827F 		cmp	r1, #260
 982 03b8 5360     		str	r3, [r2, #4]
 983 03ba 00F09780 		beq	.L369
 984              	.L176:
 985 03be A36A     		ldr	r3, [r4, #40]
 986 03c0 B3F5005F 		cmp	r3, #8192
 987 03c4 08D1     		bne	.L180
 988 03c6 1368     		ldr	r3, [r2]
 989 03c8 4DF6FF71 		movw	r1, #57343
 990 03cc 0B40     		ands	r3, r3, r1
 991 03ce 1360     		str	r3, [r2]
 992 03d0 1368     		ldr	r3, [r2]
 993 03d2 43F40053 		orr	r3, r3, #8192
 994 03d6 1360     		str	r3, [r2]
 995              	.L180:
 996 03d8 0123     		movs	r3, #1
 997 03da 84F85130 		strb	r3, [r4, #81]
 998 03de E5E6     		b	.L354
 999              	.L186:
 1000 03e0 FFF7FEFF 		bl	HAL_GetTick
 1001 03e4 A0EB0800 		sub	r0, r0, r8
 1002 03e8 8642     		cmp	r6, r0
 1003 03ea 2268     		ldr	r2, [r4]
 1004 03ec 05D9     		bls	.L189
 1005              	.L185:
 1006 03ee 9368     		ldr	r3, [r2, #8]
 1007 03f0 1F06     		lsls	r7, r3, #24
 1008 03f2 7FF523AF 		bpl	.L193
 1009 03f6 002E     		cmp	r6, #0
 1010 03f8 F2D1     		bne	.L186
 1011              	.L189:
 1012 03fa 5368     		ldr	r3, [r2, #4]
 1013 03fc 6168     		ldr	r1, [r4, #4]
 1014 03fe 23F0E003 		bic	r3, r3, #224
 1015 0402 B1F5827F 		cmp	r1, #260
 1016 0406 5360     		str	r3, [r2, #4]
 1017 0408 7DD0     		beq	.L370
 1018              	.L188:
 1019 040a A36A     		ldr	r3, [r4, #40]
 1020 040c B3F5005F 		cmp	r3, #8192
 1021 0410 08D1     		bne	.L191
 1022 0412 1368     		ldr	r3, [r2]
 1023 0414 4DF6FF71 		movw	r1, #57343
 1024 0418 0B40     		ands	r3, r3, r1
 1025 041a 1360     		str	r3, [r2]
 1026 041c 1368     		ldr	r3, [r2]
 1027 041e 43F40053 		orr	r3, r3, #8192
 1028 0422 1360     		str	r3, [r2]
 1029              	.L191:
 1030 0424 0120     		movs	r0, #1
 1031 0426 84F85100 		strb	r0, [r4, #81]
 1032 042a 636D     		ldr	r3, [r4, #84]
 1033 042c 2022     		movs	r2, #32
 1034 042e 1343     		orrs	r3, r3, r2
 1035 0430 6365     		str	r3, [r4, #84]
 1036 0432 6265     		str	r2, [r4, #84]
 1037 0434 04E6     		b	.L195
ARM GAS  /tmp/ccZJZx0l.s 			page 19


 1038              	.L152:
 1039 0436 69B1     		cbz	r1, .L154
 1040 0438 E38E     		ldrh	r3, [r4, #54]
 1041 043a 9BB2     		uxth	r3, r3
 1042 043c 53B1     		cbz	r3, .L154
 1043 043e 9368     		ldr	r3, [r2, #8]
 1044 0440 9E07     		lsls	r6, r3, #30
 1045 0442 07D5     		bpl	.L154
 1046 0444 37F8023B 		ldrh	r3, [r7], #2
 1047 0448 D360     		str	r3, [r2, #12]
 1048 044a E38E     		ldrh	r3, [r4, #54]
 1049 044c 013B     		subs	r3, r3, #1
 1050 044e 9BB2     		uxth	r3, r3
 1051 0450 E386     		strh	r3, [r4, #54]	@ movhi
 1052 0452 0021     		movs	r1, #0
 1053              	.L154:
 1054 0454 E38F     		ldrh	r3, [r4, #62]
 1055 0456 9BB2     		uxth	r3, r3
 1056 0458 002B     		cmp	r3, #0
 1057 045a 3FF4DFAE 		beq	.L156
 1058 045e 9368     		ldr	r3, [r2, #8]
 1059 0460 D807     		lsls	r0, r3, #31
 1060 0462 7FF5DBAE 		bpl	.L156
 1061 0466 D368     		ldr	r3, [r2, #12]
 1062 0468 25F8023B 		strh	r3, [r5], #2	@ movhi
 1063 046c E38F     		ldrh	r3, [r4, #62]
 1064 046e 013B     		subs	r3, r3, #1
 1065 0470 9BB2     		uxth	r3, r3
 1066 0472 E387     		strh	r3, [r4, #62]	@ movhi
 1067 0474 0121     		movs	r1, #1
 1068 0476 D1E6     		b	.L156
 1069              	.L149:
 1070 0478 37F8023B 		ldrh	r3, [r7], #2
 1071 047c D360     		str	r3, [r2, #12]
 1072 047e E38E     		ldrh	r3, [r4, #54]
 1073 0480 013B     		subs	r3, r3, #1
 1074 0482 9BB2     		uxth	r3, r3
 1075 0484 E386     		strh	r3, [r4, #54]	@ movhi
 1076 0486 C5E6     		b	.L150
 1077              	.L160:
 1078 0488 B9F1000F 		cmp	r9, #0
 1079 048c 0FD0     		beq	.L157
 1080 048e E38E     		ldrh	r3, [r4, #54]
 1081 0490 9BB2     		uxth	r3, r3
 1082 0492 63B1     		cbz	r3, .L157
 1083 0494 2368     		ldr	r3, [r4]
 1084 0496 9A68     		ldr	r2, [r3, #8]
 1085 0498 9107     		lsls	r1, r2, #30
 1086 049a 08D5     		bpl	.L157
 1087 049c 37F8022B 		ldrh	r2, [r7], #2
 1088 04a0 DA60     		str	r2, [r3, #12]
 1089 04a2 E38E     		ldrh	r3, [r4, #54]
 1090 04a4 013B     		subs	r3, r3, #1
 1091 04a6 9BB2     		uxth	r3, r3
 1092 04a8 E386     		strh	r3, [r4, #54]	@ movhi
 1093 04aa 4FF00009 		mov	r9, #0
 1094              	.L157:
ARM GAS  /tmp/ccZJZx0l.s 			page 20


 1095 04ae E38F     		ldrh	r3, [r4, #62]
 1096 04b0 9BB2     		uxth	r3, r3
 1097 04b2 63B1     		cbz	r3, .L158
 1098 04b4 2368     		ldr	r3, [r4]
 1099 04b6 9A68     		ldr	r2, [r3, #8]
 1100 04b8 D207     		lsls	r2, r2, #31
 1101 04ba 08D5     		bpl	.L158
 1102 04bc DB68     		ldr	r3, [r3, #12]
 1103 04be 25F8023B 		strh	r3, [r5], #2	@ movhi
 1104 04c2 E38F     		ldrh	r3, [r4, #62]
 1105 04c4 013B     		subs	r3, r3, #1
 1106 04c6 9BB2     		uxth	r3, r3
 1107 04c8 E387     		strh	r3, [r4, #62]	@ movhi
 1108 04ca 4FF00109 		mov	r9, #1
 1109              	.L158:
 1110 04ce FFF7FEFF 		bl	HAL_GetTick
 1111 04d2 A0EB0800 		sub	r0, r0, r8
 1112 04d6 8642     		cmp	r6, r0
 1113 04d8 3FF650AF 		bhi	.L159
 1114 04dc 66E6     		b	.L354
 1115              	.L223:
 1116 04de 0190     		str	r0, [sp, #4]
 1117 04e0 D368     		ldr	r3, [r2, #12]
 1118 04e2 0193     		str	r3, [sp, #4]
 1119 04e4 9368     		ldr	r3, [r2, #8]
 1120 04e6 0193     		str	r3, [sp, #4]
 1121 04e8 019B     		ldr	r3, [sp, #4]
 1122 04ea A9E5     		b	.L195
 1123              	.L369:
 1124 04ec A368     		ldr	r3, [r4, #8]
 1125 04ee B3F5004F 		cmp	r3, #32768
 1126 04f2 03D0     		beq	.L179
 1127 04f4 B3F5806F 		cmp	r3, #1024
 1128 04f8 7FF461AF 		bne	.L176
 1129              	.L179:
 1130 04fc 1368     		ldr	r3, [r2]
 1131 04fe 23F04003 		bic	r3, r3, #64
 1132 0502 1360     		str	r3, [r2]
 1133 0504 5BE7     		b	.L176
 1134              	.L370:
 1135 0506 A368     		ldr	r3, [r4, #8]
 1136 0508 B3F5004F 		cmp	r3, #32768
 1137 050c 03D0     		beq	.L190
 1138 050e B3F5806F 		cmp	r3, #1024
 1139 0512 7FF47AAF 		bne	.L188
 1140              	.L190:
 1141 0516 1368     		ldr	r3, [r2]
 1142 0518 23F04003 		bic	r3, r3, #64
 1143 051c 1360     		str	r3, [r2]
 1144 051e 74E7     		b	.L188
 1146              		.section	.text.HAL_SPI_TransmitReceive,"ax",%progbits
 1147              		.align	1
 1148              		.p2align 2,,3
 1149              		.global	HAL_SPI_TransmitReceive
 1150              		.syntax unified
 1151              		.thumb
 1152              		.thumb_func
ARM GAS  /tmp/ccZJZx0l.s 			page 21


 1153              		.fpu fpv4-sp-d16
 1155              	HAL_SPI_TransmitReceive:
 1156              		@ args = 4, pretend = 0, frame = 8
 1157              		@ frame_needed = 0, uses_anonymous_args = 0
 1158 0000 2DE9F041 		push	{r4, r5, r6, r7, r8, lr}
 1159 0004 0446     		mov	r4, r0
 1160 0006 90F85000 		ldrb	r0, [r0, #80]	@ zero_extendqisi2
 1161 000a 0128     		cmp	r0, #1
 1162 000c 82B0     		sub	sp, sp, #8
 1163 000e 03D1     		bne	.L526
 1164 0010 0220     		movs	r0, #2
 1165 0012 02B0     		add	sp, sp, #8
 1166              		@ sp needed
 1167 0014 BDE8F081 		pop	{r4, r5, r6, r7, r8, pc}
 1168              	.L526:
 1169 0018 9846     		mov	r8, r3
 1170 001a 0123     		movs	r3, #1
 1171 001c 84F85030 		strb	r3, [r4, #80]
 1172 0020 1546     		mov	r5, r2
 1173 0022 0E46     		mov	r6, r1
 1174 0024 FFF7FEFF 		bl	HAL_GetTick
 1175 0028 94F85120 		ldrb	r2, [r4, #81]	@ zero_extendqisi2
 1176 002c 6368     		ldr	r3, [r4, #4]
 1177 002e D2B2     		uxtb	r2, r2
 1178 0030 012A     		cmp	r2, #1
 1179 0032 0746     		mov	r7, r0
 1180 0034 11D0     		beq	.L373
 1181 0036 B3F5827F 		cmp	r3, #260
 1182 003a 09D0     		beq	.L527
 1183              	.L428:
 1184 003c 0220     		movs	r0, #2
 1185              	.L374:
 1186 003e 0122     		movs	r2, #1
 1187 0040 0023     		movs	r3, #0
 1188 0042 84F85120 		strb	r2, [r4, #81]
 1189 0046 84F85030 		strb	r3, [r4, #80]
 1190 004a 02B0     		add	sp, sp, #8
 1191              		@ sp needed
 1192 004c BDE8F081 		pop	{r4, r5, r6, r7, r8, pc}
 1193              	.L527:
 1194 0050 A168     		ldr	r1, [r4, #8]
 1195 0052 0029     		cmp	r1, #0
 1196 0054 F2D1     		bne	.L428
 1197 0056 042A     		cmp	r2, #4
 1198 0058 F0D1     		bne	.L428
 1199              	.L373:
 1200 005a 002E     		cmp	r6, #0
 1201 005c 58D0     		beq	.L431
 1202 005e 002D     		cmp	r5, #0
 1203 0060 56D0     		beq	.L431
 1204 0062 B8F1000F 		cmp	r8, #0
 1205 0066 53D0     		beq	.L431
 1206 0068 94F85120 		ldrb	r2, [r4, #81]	@ zero_extendqisi2
 1207 006c 012A     		cmp	r2, #1
 1208 006e 04BF     		itt	eq
 1209 0070 0522     		moveq	r2, #5
 1210 0072 84F85120 		strbeq	r2, [r4, #81]
ARM GAS  /tmp/ccZJZx0l.s 			page 22


 1211 0076 0021     		movs	r1, #0
 1212 0078 2268     		ldr	r2, [r4]
 1213 007a 6165     		str	r1, [r4, #84]
 1214 007c A4F83E80 		strh	r8, [r4, #62]	@ movhi
 1215 0080 A4F83680 		strh	r8, [r4, #54]	@ movhi
 1216 0084 1068     		ldr	r0, [r2]
 1217 0086 2164     		str	r1, [r4, #64]
 1218 0088 6164     		str	r1, [r4, #68]
 1219 008a 4106     		lsls	r1, r0, #25
 1220 008c A563     		str	r5, [r4, #56]
 1221 008e A4F83C80 		strh	r8, [r4, #60]	@ movhi
 1222 0092 2663     		str	r6, [r4, #48]
 1223 0094 A4F83480 		strh	r8, [r4, #52]	@ movhi
 1224 0098 03D4     		bmi	.L376
 1225 009a 1168     		ldr	r1, [r2]
 1226 009c 41F04001 		orr	r1, r1, #64
 1227 00a0 1160     		str	r1, [r2]
 1228              	.L376:
 1229 00a2 E168     		ldr	r1, [r4, #12]
 1230 00a4 B1F5006F 		cmp	r1, #2048
 1231 00a8 34D0     		beq	.L528
 1232 00aa 002B     		cmp	r3, #0
 1233 00ac 54D0     		beq	.L391
 1234 00ae E38E     		ldrh	r3, [r4, #54]
 1235 00b0 9BB2     		uxth	r3, r3
 1236 00b2 012B     		cmp	r3, #1
 1237 00b4 50D0     		beq	.L391
 1238              	.L392:
 1239 00b6 089B     		ldr	r3, [sp, #32]
 1240 00b8 0133     		adds	r3, r3, #1
 1241 00ba 55D1     		bne	.L393
 1242 00bc 2268     		ldr	r2, [r4]
 1243 00be 0121     		movs	r1, #1
 1244              	.L397:
 1245 00c0 E38E     		ldrh	r3, [r4, #54]
 1246 00c2 9BB2     		uxth	r3, r3
 1247 00c4 1BB9     		cbnz	r3, .L394
 1248 00c6 E38F     		ldrh	r3, [r4, #62]
 1249 00c8 9BB2     		uxth	r3, r3
 1250 00ca 002B     		cmp	r3, #0
 1251 00cc 38D0     		beq	.L412
 1252              	.L394:
 1253 00ce 71B1     		cbz	r1, .L395
 1254 00d0 E38E     		ldrh	r3, [r4, #54]
 1255 00d2 9BB2     		uxth	r3, r3
 1256 00d4 5BB1     		cbz	r3, .L395
 1257 00d6 9368     		ldr	r3, [r2, #8]
 1258 00d8 9F07     		lsls	r7, r3, #30
 1259 00da 08D5     		bpl	.L395
 1260 00dc 3378     		ldrb	r3, [r6]	@ zero_extendqisi2
 1261 00de 1373     		strb	r3, [r2, #12]
 1262 00e0 E38E     		ldrh	r3, [r4, #54]
 1263 00e2 2268     		ldr	r2, [r4]
 1264 00e4 013B     		subs	r3, r3, #1
 1265 00e6 9BB2     		uxth	r3, r3
 1266 00e8 0136     		adds	r6, r6, #1
 1267 00ea E386     		strh	r3, [r4, #54]	@ movhi
ARM GAS  /tmp/ccZJZx0l.s 			page 23


 1268 00ec 0021     		movs	r1, #0
 1269              	.L395:
 1270 00ee E38F     		ldrh	r3, [r4, #62]
 1271 00f0 9BB2     		uxth	r3, r3
 1272 00f2 002B     		cmp	r3, #0
 1273 00f4 E4D0     		beq	.L397
 1274 00f6 9368     		ldr	r3, [r2, #8]
 1275 00f8 D807     		lsls	r0, r3, #31
 1276 00fa E1D5     		bpl	.L397
 1277 00fc D368     		ldr	r3, [r2, #12]
 1278 00fe 2B70     		strb	r3, [r5]
 1279 0100 E38F     		ldrh	r3, [r4, #62]
 1280 0102 2268     		ldr	r2, [r4]
 1281 0104 013B     		subs	r3, r3, #1
 1282 0106 9BB2     		uxth	r3, r3
 1283 0108 0135     		adds	r5, r5, #1
 1284 010a E387     		strh	r3, [r4, #62]	@ movhi
 1285 010c 0121     		movs	r1, #1
 1286 010e D7E7     		b	.L397
 1287              	.L431:
 1288 0110 0120     		movs	r0, #1
 1289 0112 94E7     		b	.L374
 1290              	.L528:
 1291 0114 002B     		cmp	r3, #0
 1292 0116 00F0DD80 		beq	.L378
 1293 011a E38E     		ldrh	r3, [r4, #54]
 1294 011c 9BB2     		uxth	r3, r3
 1295 011e 012B     		cmp	r3, #1
 1296 0120 00F0D880 		beq	.L378
 1297              	.L379:
 1298 0124 089B     		ldr	r3, [sp, #32]
 1299 0126 0133     		adds	r3, r3, #1
 1300 0128 52D1     		bne	.L380
 1301 012a 0121     		movs	r1, #1
 1302              	.L385:
 1303 012c E38E     		ldrh	r3, [r4, #54]
 1304 012e 9BB2     		uxth	r3, r3
 1305 0130 002B     		cmp	r3, #0
 1306 0132 40F0AE80 		bne	.L381
 1307 0136 E38F     		ldrh	r3, [r4, #62]
 1308 0138 9BB2     		uxth	r3, r3
 1309 013a 002B     		cmp	r3, #0
 1310 013c 40F0A980 		bne	.L381
 1311              	.L412:
 1312 0140 9368     		ldr	r3, [r2, #8]
 1313 0142 9D07     		lsls	r5, r3, #30
 1314 0144 FCD5     		bpl	.L412
 1315              	.L488:
 1316 0146 9368     		ldr	r3, [r2, #8]
 1317 0148 1B06     		lsls	r3, r3, #24
 1318 014a FCD4     		bmi	.L488
 1319              	.L422:
 1320 014c A068     		ldr	r0, [r4, #8]
 1321 014e 0028     		cmp	r0, #0
 1322 0150 00F0F380 		beq	.L423
 1323 0154 0020     		movs	r0, #0
 1324 0156 72E7     		b	.L374
ARM GAS  /tmp/ccZJZx0l.s 			page 24


 1325              	.L391:
 1326 0158 16F8013B 		ldrb	r3, [r6], #1	@ zero_extendqisi2
 1327 015c 1373     		strb	r3, [r2, #12]
 1328 015e E38E     		ldrh	r3, [r4, #54]
 1329 0160 013B     		subs	r3, r3, #1
 1330 0162 9BB2     		uxth	r3, r3
 1331 0164 E386     		strh	r3, [r4, #54]	@ movhi
 1332 0166 A6E7     		b	.L392
 1333              	.L393:
 1334 0168 4FF00108 		mov	r8, #1
 1335              	.L401:
 1336 016c E38E     		ldrh	r3, [r4, #54]
 1337 016e 9BB2     		uxth	r3, r3
 1338 0170 1BB9     		cbnz	r3, .L402
 1339 0172 E38F     		ldrh	r3, [r4, #62]
 1340 0174 9BB2     		uxth	r3, r3
 1341 0176 002B     		cmp	r3, #0
 1342 0178 35D0     		beq	.L521
 1343              	.L402:
 1344 017a B8F1000F 		cmp	r8, #0
 1345 017e 0FD0     		beq	.L398
 1346 0180 E38E     		ldrh	r3, [r4, #54]
 1347 0182 9BB2     		uxth	r3, r3
 1348 0184 63B1     		cbz	r3, .L398
 1349 0186 2368     		ldr	r3, [r4]
 1350 0188 9A68     		ldr	r2, [r3, #8]
 1351 018a 9107     		lsls	r1, r2, #30
 1352 018c 08D5     		bpl	.L398
 1353 018e 3278     		ldrb	r2, [r6]	@ zero_extendqisi2
 1354 0190 1A73     		strb	r2, [r3, #12]
 1355 0192 E38E     		ldrh	r3, [r4, #54]
 1356 0194 013B     		subs	r3, r3, #1
 1357 0196 9BB2     		uxth	r3, r3
 1358 0198 0136     		adds	r6, r6, #1
 1359 019a E386     		strh	r3, [r4, #54]	@ movhi
 1360 019c 4FF00008 		mov	r8, #0
 1361              	.L398:
 1362 01a0 E38F     		ldrh	r3, [r4, #62]
 1363 01a2 9BB2     		uxth	r3, r3
 1364 01a4 63B1     		cbz	r3, .L399
 1365 01a6 2368     		ldr	r3, [r4]
 1366 01a8 9A68     		ldr	r2, [r3, #8]
 1367 01aa D207     		lsls	r2, r2, #31
 1368 01ac 08D5     		bpl	.L399
 1369 01ae DB68     		ldr	r3, [r3, #12]
 1370 01b0 2B70     		strb	r3, [r5]
 1371 01b2 E38F     		ldrh	r3, [r4, #62]
 1372 01b4 013B     		subs	r3, r3, #1
 1373 01b6 9BB2     		uxth	r3, r3
 1374 01b8 0135     		adds	r5, r5, #1
 1375 01ba E387     		strh	r3, [r4, #62]	@ movhi
 1376 01bc 4FF00108 		mov	r8, #1
 1377              	.L399:
 1378 01c0 FFF7FEFF 		bl	HAL_GetTick
 1379 01c4 089B     		ldr	r3, [sp, #32]
 1380 01c6 C01B     		subs	r0, r0, r7
 1381 01c8 8342     		cmp	r3, r0
ARM GAS  /tmp/ccZJZx0l.s 			page 25


 1382 01ca CFD8     		bhi	.L401
 1383              	.L522:
 1384 01cc 0320     		movs	r0, #3
 1385 01ce 36E7     		b	.L374
 1386              	.L380:
 1387 01d0 4FF00108 		mov	r8, #1
 1388              	.L388:
 1389 01d4 E38E     		ldrh	r3, [r4, #54]
 1390 01d6 9BB2     		uxth	r3, r3
 1391 01d8 002B     		cmp	r3, #0
 1392 01da 40F08380 		bne	.L389
 1393 01de E38F     		ldrh	r3, [r4, #62]
 1394 01e0 9BB2     		uxth	r3, r3
 1395 01e2 002B     		cmp	r3, #0
 1396 01e4 7ED1     		bne	.L389
 1397              	.L521:
 1398 01e6 089B     		ldr	r3, [sp, #32]
 1399              	.L407:
 1400 01e8 2268     		ldr	r2, [r4]
 1401 01ea 0133     		adds	r3, r3, #1
 1402 01ec A8D0     		beq	.L412
 1403 01ee 9368     		ldr	r3, [r2, #8]
 1404 01f0 9807     		lsls	r0, r3, #30
 1405 01f2 29D4     		bmi	.L414
 1406 01f4 089B     		ldr	r3, [sp, #32]
 1407 01f6 33B1     		cbz	r3, .L406
 1408 01f8 FFF7FEFF 		bl	HAL_GetTick
 1409 01fc 089B     		ldr	r3, [sp, #32]
 1410 01fe C01B     		subs	r0, r0, r7
 1411 0200 8342     		cmp	r3, r0
 1412 0202 F1D8     		bhi	.L407
 1413 0204 2268     		ldr	r2, [r4]
 1414              	.L406:
 1415 0206 5368     		ldr	r3, [r2, #4]
 1416 0208 6168     		ldr	r1, [r4, #4]
 1417 020a 23F0E003 		bic	r3, r3, #224
 1418 020e B1F5827F 		cmp	r1, #260
 1419 0212 5360     		str	r3, [r2, #4]
 1420 0214 00F09880 		beq	.L529
 1421              	.L405:
 1422 0218 A36A     		ldr	r3, [r4, #40]
 1423 021a B3F5005F 		cmp	r3, #8192
 1424 021e 08D1     		bne	.L409
 1425 0220 1368     		ldr	r3, [r2]
 1426 0222 4DF6FF71 		movw	r1, #57343
 1427 0226 0B40     		ands	r3, r3, r1
 1428 0228 1360     		str	r3, [r2]
 1429 022a 1368     		ldr	r3, [r2]
 1430 022c 43F40053 		orr	r3, r3, #8192
 1431 0230 1360     		str	r3, [r2]
 1432              	.L409:
 1433 0232 0123     		movs	r3, #1
 1434 0234 84F85130 		strb	r3, [r4, #81]
 1435 0238 C8E7     		b	.L522
 1436              	.L415:
 1437 023a FFF7FEFF 		bl	HAL_GetTick
 1438 023e 089B     		ldr	r3, [sp, #32]
ARM GAS  /tmp/ccZJZx0l.s 			page 26


 1439 0240 2268     		ldr	r2, [r4]
 1440 0242 C01B     		subs	r0, r0, r7
 1441 0244 8342     		cmp	r3, r0
 1442 0246 06D9     		bls	.L418
 1443              	.L414:
 1444 0248 9368     		ldr	r3, [r2, #8]
 1445 024a 1906     		lsls	r1, r3, #24
 1446 024c 7FF57EAF 		bpl	.L422
 1447 0250 089B     		ldr	r3, [sp, #32]
 1448 0252 002B     		cmp	r3, #0
 1449 0254 F1D1     		bne	.L415
 1450              	.L418:
 1451 0256 5368     		ldr	r3, [r2, #4]
 1452 0258 6168     		ldr	r1, [r4, #4]
 1453 025a 23F0E003 		bic	r3, r3, #224
 1454 025e B1F5827F 		cmp	r1, #260
 1455 0262 5360     		str	r3, [r2, #4]
 1456 0264 7DD0     		beq	.L530
 1457              	.L417:
 1458 0266 A36A     		ldr	r3, [r4, #40]
 1459 0268 B3F5005F 		cmp	r3, #8192
 1460 026c 08D1     		bne	.L420
 1461 026e 1368     		ldr	r3, [r2]
 1462 0270 4DF6FF71 		movw	r1, #57343
 1463 0274 0B40     		ands	r3, r3, r1
 1464 0276 1360     		str	r3, [r2]
 1465 0278 1368     		ldr	r3, [r2]
 1466 027a 43F40053 		orr	r3, r3, #8192
 1467 027e 1360     		str	r3, [r2]
 1468              	.L420:
 1469 0280 0120     		movs	r0, #1
 1470 0282 84F85100 		strb	r0, [r4, #81]
 1471 0286 636D     		ldr	r3, [r4, #84]
 1472 0288 2022     		movs	r2, #32
 1473 028a 1343     		orrs	r3, r3, r2
 1474 028c 6365     		str	r3, [r4, #84]
 1475 028e 6265     		str	r2, [r4, #84]
 1476 0290 D5E6     		b	.L374
 1477              	.L381:
 1478 0292 69B1     		cbz	r1, .L383
 1479 0294 E38E     		ldrh	r3, [r4, #54]
 1480 0296 9BB2     		uxth	r3, r3
 1481 0298 53B1     		cbz	r3, .L383
 1482 029a 9368     		ldr	r3, [r2, #8]
 1483 029c 9F07     		lsls	r7, r3, #30
 1484 029e 07D5     		bpl	.L383
 1485 02a0 36F8023B 		ldrh	r3, [r6], #2
 1486 02a4 D360     		str	r3, [r2, #12]
 1487 02a6 E38E     		ldrh	r3, [r4, #54]
 1488 02a8 013B     		subs	r3, r3, #1
 1489 02aa 9BB2     		uxth	r3, r3
 1490 02ac E386     		strh	r3, [r4, #54]	@ movhi
 1491 02ae 0021     		movs	r1, #0
 1492              	.L383:
 1493 02b0 E38F     		ldrh	r3, [r4, #62]
 1494 02b2 9BB2     		uxth	r3, r3
 1495 02b4 002B     		cmp	r3, #0
ARM GAS  /tmp/ccZJZx0l.s 			page 27


 1496 02b6 3FF439AF 		beq	.L385
 1497 02ba 9368     		ldr	r3, [r2, #8]
 1498 02bc D807     		lsls	r0, r3, #31
 1499 02be 7FF535AF 		bpl	.L385
 1500 02c2 D368     		ldr	r3, [r2, #12]
 1501 02c4 25F8023B 		strh	r3, [r5], #2	@ movhi
 1502 02c8 E38F     		ldrh	r3, [r4, #62]
 1503 02ca 013B     		subs	r3, r3, #1
 1504 02cc 9BB2     		uxth	r3, r3
 1505 02ce E387     		strh	r3, [r4, #62]	@ movhi
 1506 02d0 0121     		movs	r1, #1
 1507 02d2 2BE7     		b	.L385
 1508              	.L378:
 1509 02d4 36F8023B 		ldrh	r3, [r6], #2
 1510 02d8 D360     		str	r3, [r2, #12]
 1511 02da E38E     		ldrh	r3, [r4, #54]
 1512 02dc 013B     		subs	r3, r3, #1
 1513 02de 9BB2     		uxth	r3, r3
 1514 02e0 E386     		strh	r3, [r4, #54]	@ movhi
 1515 02e2 1FE7     		b	.L379
 1516              	.L389:
 1517 02e4 B8F1000F 		cmp	r8, #0
 1518 02e8 0FD0     		beq	.L386
 1519 02ea E38E     		ldrh	r3, [r4, #54]
 1520 02ec 9BB2     		uxth	r3, r3
 1521 02ee 63B1     		cbz	r3, .L386
 1522 02f0 2368     		ldr	r3, [r4]
 1523 02f2 9A68     		ldr	r2, [r3, #8]
 1524 02f4 9107     		lsls	r1, r2, #30
 1525 02f6 08D5     		bpl	.L386
 1526 02f8 36F8022B 		ldrh	r2, [r6], #2
 1527 02fc DA60     		str	r2, [r3, #12]
 1528 02fe E38E     		ldrh	r3, [r4, #54]
 1529 0300 013B     		subs	r3, r3, #1
 1530 0302 9BB2     		uxth	r3, r3
 1531 0304 E386     		strh	r3, [r4, #54]	@ movhi
 1532 0306 4FF00008 		mov	r8, #0
 1533              	.L386:
 1534 030a E38F     		ldrh	r3, [r4, #62]
 1535 030c 9BB2     		uxth	r3, r3
 1536 030e 63B1     		cbz	r3, .L387
 1537 0310 2368     		ldr	r3, [r4]
 1538 0312 9A68     		ldr	r2, [r3, #8]
 1539 0314 D207     		lsls	r2, r2, #31
 1540 0316 08D5     		bpl	.L387
 1541 0318 DB68     		ldr	r3, [r3, #12]
 1542 031a 25F8023B 		strh	r3, [r5], #2	@ movhi
 1543 031e E38F     		ldrh	r3, [r4, #62]
 1544 0320 013B     		subs	r3, r3, #1
 1545 0322 9BB2     		uxth	r3, r3
 1546 0324 E387     		strh	r3, [r4, #62]	@ movhi
 1547 0326 4FF00108 		mov	r8, #1
 1548              	.L387:
 1549 032a FFF7FEFF 		bl	HAL_GetTick
 1550 032e 089B     		ldr	r3, [sp, #32]
 1551 0330 C01B     		subs	r0, r0, r7
 1552 0332 8342     		cmp	r3, r0
ARM GAS  /tmp/ccZJZx0l.s 			page 28


 1553 0334 3FF64EAF 		bhi	.L388
 1554 0338 48E7     		b	.L522
 1555              	.L423:
 1556 033a 0190     		str	r0, [sp, #4]
 1557 033c D368     		ldr	r3, [r2, #12]
 1558 033e 0193     		str	r3, [sp, #4]
 1559 0340 9368     		ldr	r3, [r2, #8]
 1560 0342 0193     		str	r3, [sp, #4]
 1561 0344 019B     		ldr	r3, [sp, #4]
 1562 0346 7AE6     		b	.L374
 1563              	.L529:
 1564 0348 A368     		ldr	r3, [r4, #8]
 1565 034a B3F5004F 		cmp	r3, #32768
 1566 034e 03D0     		beq	.L408
 1567 0350 B3F5806F 		cmp	r3, #1024
 1568 0354 7FF460AF 		bne	.L405
 1569              	.L408:
 1570 0358 1368     		ldr	r3, [r2]
 1571 035a 23F04003 		bic	r3, r3, #64
 1572 035e 1360     		str	r3, [r2]
 1573 0360 5AE7     		b	.L405
 1574              	.L530:
 1575 0362 A368     		ldr	r3, [r4, #8]
 1576 0364 B3F5004F 		cmp	r3, #32768
 1577 0368 03D0     		beq	.L419
 1578 036a B3F5806F 		cmp	r3, #1024
 1579 036e 7FF47AAF 		bne	.L417
 1580              	.L419:
 1581 0372 1368     		ldr	r3, [r2]
 1582 0374 23F04003 		bic	r3, r3, #64
 1583 0378 1360     		str	r3, [r2]
 1584 037a 74E7     		b	.L417
 1586              		.section	.text.HAL_SPI_Transmit_IT,"ax",%progbits
 1587              		.align	1
 1588              		.p2align 2,,3
 1589              		.global	HAL_SPI_Transmit_IT
 1590              		.syntax unified
 1591              		.thumb
 1592              		.thumb_func
 1593              		.fpu fpv4-sp-d16
 1595              	HAL_SPI_Transmit_IT:
 1596              		@ args = 0, pretend = 0, frame = 0
 1597              		@ frame_needed = 0, uses_anonymous_args = 0
 1598              		@ link register save eliminated.
 1599 0000 0346     		mov	r3, r0
 1600 0002 90F85000 		ldrb	r0, [r0, #80]	@ zero_extendqisi2
 1601 0006 0128     		cmp	r0, #1
 1602 0008 0DD0     		beq	.L539
 1603 000a 0120     		movs	r0, #1
 1604 000c 83F85000 		strb	r0, [r3, #80]
 1605 0010 29B1     		cbz	r1, .L546
 1606 0012 22B1     		cbz	r2, .L546
 1607 0014 93F85100 		ldrb	r0, [r3, #81]	@ zero_extendqisi2
 1608 0018 0128     		cmp	r0, #1
 1609 001a 06D0     		beq	.L550
 1610 001c 0220     		movs	r0, #2
 1611              	.L546:
ARM GAS  /tmp/ccZJZx0l.s 			page 29


 1612 001e 0022     		movs	r2, #0
 1613 0020 83F85020 		strb	r2, [r3, #80]
 1614 0024 7047     		bx	lr
 1615              	.L539:
 1616 0026 0220     		movs	r0, #2
 1617 0028 7047     		bx	lr
 1618              	.L550:
 1619 002a F0B4     		push	{r4, r5, r6, r7}
 1620 002c 1A48     		ldr	r0, .L552
 1621 002e DF68     		ldr	r7, [r3, #12]
 1622 0030 1A4E     		ldr	r6, .L552+4
 1623 0032 9C68     		ldr	r4, [r3, #8]
 1624 0034 1963     		str	r1, [r3, #48]
 1625 0036 002F     		cmp	r7, #0
 1626 0038 18BF     		it	ne
 1627 003a 3046     		movne	r0, r6
 1628 003c 0021     		movs	r1, #0
 1629 003e 0325     		movs	r5, #3
 1630 0040 B4F5004F 		cmp	r4, #32768
 1631 0044 83F85150 		strb	r5, [r3, #81]
 1632 0048 9A86     		strh	r2, [r3, #52]	@ movhi
 1633 004a 5965     		str	r1, [r3, #84]
 1634 004c 9963     		str	r1, [r3, #56]
 1635 004e DA86     		strh	r2, [r3, #54]	@ movhi
 1636 0050 9987     		strh	r1, [r3, #60]	@ movhi
 1637 0052 1964     		str	r1, [r3, #64]
 1638 0054 5864     		str	r0, [r3, #68]
 1639 0056 D987     		strh	r1, [r3, #62]	@ movhi
 1640 0058 1A68     		ldr	r2, [r3]
 1641 005a 11D0     		beq	.L551
 1642 005c A4B9     		cbnz	r4, .L536
 1643 005e 5168     		ldr	r1, [r2, #4]
 1644 0060 41F08001 		orr	r1, r1, #128
 1645 0064 5160     		str	r1, [r2, #4]
 1646              	.L538:
 1647 0066 1068     		ldr	r0, [r2]
 1648 0068 10F04000 		ands	r0, r0, #64
 1649 006c 11D1     		bne	.L544
 1650 006e 1168     		ldr	r1, [r2]
 1651 0070 41F04001 		orr	r1, r1, #64
 1652 0074 1160     		str	r1, [r2]
 1653              	.L533:
 1654 0076 0022     		movs	r2, #0
 1655 0078 83F85020 		strb	r2, [r3, #80]
 1656 007c F0BC     		pop	{r4, r5, r6, r7}
 1657 007e 7047     		bx	lr
 1658              	.L551:
 1659 0080 1168     		ldr	r1, [r2]
 1660 0082 41F48041 		orr	r1, r1, #16384
 1661 0086 1160     		str	r1, [r2]
 1662              	.L536:
 1663 0088 5168     		ldr	r1, [r2, #4]
 1664 008a 41F0A001 		orr	r1, r1, #160
 1665 008e 5160     		str	r1, [r2, #4]
 1666 0090 E9E7     		b	.L538
 1667              	.L544:
 1668 0092 0020     		movs	r0, #0
ARM GAS  /tmp/ccZJZx0l.s 			page 30


 1669 0094 EFE7     		b	.L533
 1670              	.L553:
 1671 0096 00BF     		.align	2
 1672              	.L552:
 1673 0098 00000000 		.word	SPI_TxISR_8BIT
 1674 009c 00000000 		.word	SPI_TxISR_16BIT
 1676              		.section	.text.HAL_SPI_Receive_IT,"ax",%progbits
 1677              		.align	1
 1678              		.p2align 2,,3
 1679              		.global	HAL_SPI_Receive_IT
 1680              		.syntax unified
 1681              		.thumb
 1682              		.thumb_func
 1683              		.fpu fpv4-sp-d16
 1685              	HAL_SPI_Receive_IT:
 1686              		@ args = 0, pretend = 0, frame = 0
 1687              		@ frame_needed = 0, uses_anonymous_args = 0
 1688 0000 F0B5     		push	{r4, r5, r6, r7, lr}
 1689 0002 8468     		ldr	r4, [r0, #8]
 1690 0004 0346     		mov	r3, r0
 1691 0006 1CB9     		cbnz	r4, .L555
 1692 0008 4068     		ldr	r0, [r0, #4]
 1693 000a B0F5827F 		cmp	r0, #260
 1694 000e 10D0     		beq	.L584
 1695              	.L555:
 1696 0010 93F85000 		ldrb	r0, [r3, #80]	@ zero_extendqisi2
 1697 0014 0128     		cmp	r0, #1
 1698 0016 13D0     		beq	.L562
 1699 0018 93F85100 		ldrb	r0, [r3, #81]	@ zero_extendqisi2
 1700 001c 0125     		movs	r5, #1
 1701 001e C0B2     		uxtb	r0, r0
 1702 0020 A842     		cmp	r0, r5
 1703 0022 83F85050 		strb	r5, [r3, #80]
 1704 0026 0DD0     		beq	.L585
 1705              	.L572:
 1706 0028 0220     		movs	r0, #2
 1707              	.L563:
 1708 002a 0022     		movs	r2, #0
 1709 002c 83F85020 		strb	r2, [r3, #80]
 1710 0030 F0BD     		pop	{r4, r5, r6, r7, pc}
 1711              	.L584:
 1712 0032 93F85000 		ldrb	r0, [r3, #80]	@ zero_extendqisi2
 1713 0036 0424     		movs	r4, #4
 1714 0038 0128     		cmp	r0, #1
 1715 003a 83F85140 		strb	r4, [r3, #81]
 1716 003e 29D1     		bne	.L556
 1717              	.L562:
 1718 0040 0220     		movs	r0, #2
 1719 0042 F0BD     		pop	{r4, r5, r6, r7, pc}
 1720              	.L585:
 1721 0044 0029     		cmp	r1, #0
 1722 0046 F0D0     		beq	.L563
 1723 0048 002A     		cmp	r2, #0
 1724 004a EED0     		beq	.L563
 1725 004c DF68     		ldr	r7, [r3, #12]
 1726 004e 3348     		ldr	r0, .L587
 1727 0050 334E     		ldr	r6, .L587+4
ARM GAS  /tmp/ccZJZx0l.s 			page 31


 1728 0052 9963     		str	r1, [r3, #56]
 1729 0054 002F     		cmp	r7, #0
 1730 0056 18BF     		it	ne
 1731 0058 3046     		movne	r0, r6
 1732 005a 0021     		movs	r1, #0
 1733 005c 0425     		movs	r5, #4
 1734 005e B4F5004F 		cmp	r4, #32768
 1735 0062 83F85150 		strb	r5, [r3, #81]
 1736 0066 9A87     		strh	r2, [r3, #60]	@ movhi
 1737 0068 5965     		str	r1, [r3, #84]
 1738 006a 1963     		str	r1, [r3, #48]
 1739 006c DA87     		strh	r2, [r3, #62]	@ movhi
 1740 006e 9986     		strh	r1, [r3, #52]	@ movhi
 1741 0070 5964     		str	r1, [r3, #68]
 1742 0072 1864     		str	r0, [r3, #64]
 1743 0074 D986     		strh	r1, [r3, #54]	@ movhi
 1744 0076 1A68     		ldr	r2, [r3]
 1745 0078 48D0     		beq	.L586
 1746              	.L566:
 1747 007a 5168     		ldr	r1, [r2, #4]
 1748 007c 41F06001 		orr	r1, r1, #96
 1749 0080 5160     		str	r1, [r2, #4]
 1750 0082 1068     		ldr	r0, [r2]
 1751 0084 10F04000 		ands	r0, r0, #64
 1752 0088 3ED1     		bne	.L576
 1753 008a 1168     		ldr	r1, [r2]
 1754 008c 41F04001 		orr	r1, r1, #64
 1755 0090 1160     		str	r1, [r2]
 1756 0092 CAE7     		b	.L563
 1757              	.L556:
 1758 0094 93F85100 		ldrb	r0, [r3, #81]	@ zero_extendqisi2
 1759 0098 0124     		movs	r4, #1
 1760 009a C0B2     		uxtb	r0, r0
 1761 009c A042     		cmp	r0, r4
 1762 009e 83F85040 		strb	r4, [r3, #80]
 1763 00a2 01D0     		beq	.L558
 1764 00a4 0428     		cmp	r0, #4
 1765 00a6 BFD1     		bne	.L572
 1766              	.L558:
 1767 00a8 0029     		cmp	r1, #0
 1768 00aa 34D0     		beq	.L569
 1769 00ac 002A     		cmp	r2, #0
 1770 00ae 32D0     		beq	.L569
 1771 00b0 93F85100 		ldrb	r0, [r3, #81]	@ zero_extendqisi2
 1772 00b4 DE68     		ldr	r6, [r3, #12]
 1773 00b6 1C68     		ldr	r4, [r3]
 1774 00b8 DFF870E0 		ldr	lr, .L587+16
 1775 00bc 194F     		ldr	r7, .L587+8
 1776 00be 0128     		cmp	r0, #1
 1777 00c0 04BF     		itt	eq
 1778 00c2 0520     		moveq	r0, #5
 1779 00c4 83F85100 		strbeq	r0, [r3, #81]
 1780 00c8 0020     		movs	r0, #0
 1781 00ca 5865     		str	r0, [r3, #84]
 1782 00cc 8642     		cmp	r6, r0
 1783 00ce DA86     		strh	r2, [r3, #54]	@ movhi
 1784 00d0 DA87     		strh	r2, [r3, #62]	@ movhi
ARM GAS  /tmp/ccZJZx0l.s 			page 32


 1785 00d2 6568     		ldr	r5, [r4, #4]
 1786 00d4 144E     		ldr	r6, .L587+12
 1787 00d6 9A86     		strh	r2, [r3, #52]	@ movhi
 1788 00d8 18BF     		it	ne
 1789 00da 7746     		movne	r7, lr
 1790 00dc DFF850E0 		ldr	lr, .L587+20
 1791 00e0 9A87     		strh	r2, [r3, #60]	@ movhi
 1792 00e2 18BF     		it	ne
 1793 00e4 7646     		movne	r6, lr
 1794 00e6 45F0E005 		orr	r5, r5, #224
 1795 00ea 1963     		str	r1, [r3, #48]
 1796 00ec 9963     		str	r1, [r3, #56]
 1797 00ee 5F64     		str	r7, [r3, #68]
 1798 00f0 1E64     		str	r6, [r3, #64]
 1799 00f2 6560     		str	r5, [r4, #4]
 1800 00f4 2268     		ldr	r2, [r4]
 1801 00f6 12F04002 		ands	r2, r2, #64
 1802 00fa 96D1     		bne	.L563
 1803 00fc 2168     		ldr	r1, [r4]
 1804 00fe 41F04001 		orr	r1, r1, #64
 1805 0102 1046     		mov	r0, r2
 1806 0104 2160     		str	r1, [r4]
 1807 0106 90E7     		b	.L563
 1808              	.L576:
 1809 0108 0020     		movs	r0, #0
 1810 010a 8EE7     		b	.L563
 1811              	.L586:
 1812 010c 1168     		ldr	r1, [r2]
 1813 010e 21F48041 		bic	r1, r1, #16384
 1814 0112 1160     		str	r1, [r2]
 1815 0114 B1E7     		b	.L566
 1816              	.L569:
 1817              	.L559:
 1818 0116 0120     		movs	r0, #1
 1819 0118 87E7     		b	.L563
 1820              	.L588:
 1821 011a 00BF     		.align	2
 1822              	.L587:
 1823 011c 00000000 		.word	SPI_RxISR_8BIT
 1824 0120 00000000 		.word	SPI_RxISR_16BIT
 1825 0124 00000000 		.word	SPI_2linesTxISR_8BIT
 1826 0128 00000000 		.word	SPI_2linesRxISR_8BIT
 1827 012c 00000000 		.word	SPI_2linesTxISR_16BIT
 1828 0130 00000000 		.word	SPI_2linesRxISR_16BIT
 1830              		.section	.text.HAL_SPI_TransmitReceive_IT,"ax",%progbits
 1831              		.align	1
 1832              		.p2align 2,,3
 1833              		.global	HAL_SPI_TransmitReceive_IT
 1834              		.syntax unified
 1835              		.thumb
 1836              		.thumb_func
 1837              		.fpu fpv4-sp-d16
 1839              	HAL_SPI_TransmitReceive_IT:
 1840              		@ args = 0, pretend = 0, frame = 0
 1841              		@ frame_needed = 0, uses_anonymous_args = 0
 1842 0000 F0B5     		push	{r4, r5, r6, r7, lr}
 1843 0002 0446     		mov	r4, r0
ARM GAS  /tmp/ccZJZx0l.s 			page 33


 1844 0004 90F85000 		ldrb	r0, [r0, #80]	@ zero_extendqisi2
 1845 0008 0128     		cmp	r0, #1
 1846 000a 10D0     		beq	.L595
 1847 000c 94F85100 		ldrb	r0, [r4, #81]	@ zero_extendqisi2
 1848 0010 0125     		movs	r5, #1
 1849 0012 C0B2     		uxtb	r0, r0
 1850 0014 A842     		cmp	r0, r5
 1851 0016 84F85050 		strb	r5, [r4, #80]
 1852 001a 0FD0     		beq	.L591
 1853 001c 6568     		ldr	r5, [r4, #4]
 1854 001e B5F5827F 		cmp	r5, #260
 1855 0022 06D0     		beq	.L608
 1856              	.L598:
 1857 0024 0220     		movs	r0, #2
 1858              	.L592:
 1859 0026 0023     		movs	r3, #0
 1860 0028 84F85030 		strb	r3, [r4, #80]
 1861 002c F0BD     		pop	{r4, r5, r6, r7, pc}
 1862              	.L595:
 1863 002e 0220     		movs	r0, #2
 1864 0030 F0BD     		pop	{r4, r5, r6, r7, pc}
 1865              	.L608:
 1866 0032 A568     		ldr	r5, [r4, #8]
 1867 0034 002D     		cmp	r5, #0
 1868 0036 F5D1     		bne	.L598
 1869 0038 0428     		cmp	r0, #4
 1870 003a F3D1     		bne	.L598
 1871              	.L591:
 1872 003c 0029     		cmp	r1, #0
 1873 003e 2FD0     		beq	.L601
 1874 0040 002A     		cmp	r2, #0
 1875 0042 2DD0     		beq	.L601
 1876 0044 002B     		cmp	r3, #0
 1877 0046 2BD0     		beq	.L601
 1878 0048 94F85100 		ldrb	r0, [r4, #81]	@ zero_extendqisi2
 1879 004c 2568     		ldr	r5, [r4]
 1880 004e E768     		ldr	r7, [r4, #12]
 1881 0050 DFF864E0 		ldr	lr, .L609+12
 1882 0054 0128     		cmp	r0, #1
 1883 0056 04BF     		itt	eq
 1884 0058 0520     		moveq	r0, #5
 1885 005a 84F85100 		strbeq	r0, [r4, #81]
 1886 005e 0020     		movs	r0, #0
 1887 0060 6065     		str	r0, [r4, #84]
 1888 0062 E386     		strh	r3, [r4, #54]	@ movhi
 1889 0064 E387     		strh	r3, [r4, #62]	@ movhi
 1890 0066 6E68     		ldr	r6, [r5, #4]
 1891 0068 A263     		str	r2, [r4, #56]
 1892 006a 8742     		cmp	r7, r0
 1893 006c 0F4F     		ldr	r7, .L609
 1894 006e 2163     		str	r1, [r4, #48]
 1895 0070 46F0E002 		orr	r2, r6, #224
 1896 0074 08BF     		it	eq
 1897 0076 3E46     		moveq	r6, r7
 1898 0078 0D4F     		ldr	r7, .L609+4
 1899 007a 0E49     		ldr	r1, .L609+8
 1900 007c A386     		strh	r3, [r4, #52]	@ movhi
ARM GAS  /tmp/ccZJZx0l.s 			page 34


 1901 007e 14BF     		ite	ne
 1902 0080 7646     		movne	r6, lr
 1903 0082 3946     		moveq	r1, r7
 1904 0084 A387     		strh	r3, [r4, #60]	@ movhi
 1905 0086 6664     		str	r6, [r4, #68]
 1906 0088 2164     		str	r1, [r4, #64]
 1907 008a 6A60     		str	r2, [r5, #4]
 1908 008c 2B68     		ldr	r3, [r5]
 1909 008e 13F04003 		ands	r3, r3, #64
 1910 0092 C8D1     		bne	.L592
 1911 0094 2A68     		ldr	r2, [r5]
 1912 0096 42F04002 		orr	r2, r2, #64
 1913 009a 1846     		mov	r0, r3
 1914 009c 2A60     		str	r2, [r5]
 1915 009e C2E7     		b	.L592
 1916              	.L601:
 1917 00a0 0023     		movs	r3, #0
 1918 00a2 0120     		movs	r0, #1
 1919 00a4 84F85030 		strb	r3, [r4, #80]
 1920 00a8 F0BD     		pop	{r4, r5, r6, r7, pc}
 1921              	.L610:
 1922 00aa 00BF     		.align	2
 1923              	.L609:
 1924 00ac 00000000 		.word	SPI_2linesTxISR_8BIT
 1925 00b0 00000000 		.word	SPI_2linesRxISR_8BIT
 1926 00b4 00000000 		.word	SPI_2linesRxISR_16BIT
 1927 00b8 00000000 		.word	SPI_2linesTxISR_16BIT
 1929              		.section	.text.HAL_SPI_Transmit_DMA,"ax",%progbits
 1930              		.align	1
 1931              		.p2align 2,,3
 1932              		.global	HAL_SPI_Transmit_DMA
 1933              		.syntax unified
 1934              		.thumb
 1935              		.thumb_func
 1936              		.fpu fpv4-sp-d16
 1938              	HAL_SPI_Transmit_DMA:
 1939              		@ args = 0, pretend = 0, frame = 0
 1940              		@ frame_needed = 0, uses_anonymous_args = 0
 1941 0000 F8B5     		push	{r3, r4, r5, r6, r7, lr}
 1942 0002 90F85030 		ldrb	r3, [r0, #80]	@ zero_extendqisi2
 1943 0006 012B     		cmp	r3, #1
 1944 0008 0DD0     		beq	.L617
 1945 000a 0446     		mov	r4, r0
 1946 000c 90F85100 		ldrb	r0, [r0, #81]	@ zero_extendqisi2
 1947 0010 0123     		movs	r3, #1
 1948 0012 C0B2     		uxtb	r0, r0
 1949 0014 9842     		cmp	r0, r3
 1950 0016 84F85030 		strb	r3, [r4, #80]
 1951 001a 06D0     		beq	.L622
 1952 001c 0220     		movs	r0, #2
 1953              	.L613:
 1954 001e 0023     		movs	r3, #0
 1955 0020 84F85030 		strb	r3, [r4, #80]
 1956 0024 F8BD     		pop	{r3, r4, r5, r6, r7, pc}
 1957              	.L617:
 1958 0026 0220     		movs	r0, #2
 1959 0028 F8BD     		pop	{r3, r4, r5, r6, r7, pc}
ARM GAS  /tmp/ccZJZx0l.s 			page 35


 1960              	.L622:
 1961 002a 0029     		cmp	r1, #0
 1962 002c F7D0     		beq	.L613
 1963 002e 002A     		cmp	r2, #0
 1964 0030 F5D0     		beq	.L613
 1965 0032 A068     		ldr	r0, [r4, #8]
 1966 0034 A286     		strh	r2, [r4, #52]	@ movhi
 1967 0036 0023     		movs	r3, #0
 1968 0038 0325     		movs	r5, #3
 1969 003a B0F5004F 		cmp	r0, #32768
 1970 003e 84F85150 		strb	r5, [r4, #81]
 1971 0042 2163     		str	r1, [r4, #48]
 1972 0044 6365     		str	r3, [r4, #84]
 1973 0046 A363     		str	r3, [r4, #56]
 1974 0048 E286     		strh	r2, [r4, #54]	@ movhi
 1975 004a 6364     		str	r3, [r4, #68]
 1976 004c 2364     		str	r3, [r4, #64]
 1977 004e A387     		strh	r3, [r4, #60]	@ movhi
 1978 0050 E387     		strh	r3, [r4, #62]	@ movhi
 1979 0052 2268     		ldr	r2, [r4]
 1980 0054 1FD0     		beq	.L623
 1981              	.L615:
 1982 0056 A06C     		ldr	r0, [r4, #72]
 1983 0058 E38E     		ldrh	r3, [r4, #54]
 1984 005a 114D     		ldr	r5, .L624
 1985 005c 0564     		str	r5, [r0, #64]
 1986 005e 114F     		ldr	r7, .L624+4
 1987 0060 114E     		ldr	r6, .L624+8
 1988 0062 C763     		str	r7, [r0, #60]
 1989 0064 0025     		movs	r5, #0
 1990 0066 0C32     		adds	r2, r2, #12
 1991 0068 9BB2     		uxth	r3, r3
 1992 006a C664     		str	r6, [r0, #76]
 1993 006c 0565     		str	r5, [r0, #80]
 1994 006e FFF7FEFF 		bl	HAL_DMA_Start_IT
 1995 0072 2368     		ldr	r3, [r4]
 1996 0074 1A68     		ldr	r2, [r3]
 1997 0076 5206     		lsls	r2, r2, #25
 1998 0078 03D4     		bmi	.L616
 1999 007a 1A68     		ldr	r2, [r3]
 2000 007c 42F04002 		orr	r2, r2, #64
 2001 0080 1A60     		str	r2, [r3]
 2002              	.L616:
 2003 0082 5A68     		ldr	r2, [r3, #4]
 2004 0084 42F02002 		orr	r2, r2, #32
 2005 0088 5A60     		str	r2, [r3, #4]
 2006 008a 5A68     		ldr	r2, [r3, #4]
 2007 008c 42F00202 		orr	r2, r2, #2
 2008 0090 5A60     		str	r2, [r3, #4]
 2009 0092 0020     		movs	r0, #0
 2010 0094 C3E7     		b	.L613
 2011              	.L623:
 2012 0096 1368     		ldr	r3, [r2]
 2013 0098 43F48043 		orr	r3, r3, #16384
 2014 009c 1360     		str	r3, [r2]
 2015 009e DAE7     		b	.L615
 2016              	.L625:
ARM GAS  /tmp/ccZJZx0l.s 			page 36


 2017              		.align	2
 2018              	.L624:
 2019 00a0 00000000 		.word	SPI_DMAHalfTransmitCplt
 2020 00a4 00000000 		.word	SPI_DMATransmitCplt
 2021 00a8 00000000 		.word	SPI_DMAError
 2023              		.section	.text.HAL_SPI_Receive_DMA,"ax",%progbits
 2024              		.align	1
 2025              		.p2align 2,,3
 2026              		.global	HAL_SPI_Receive_DMA
 2027              		.syntax unified
 2028              		.thumb
 2029              		.thumb_func
 2030              		.fpu fpv4-sp-d16
 2032              	HAL_SPI_Receive_DMA:
 2033              		@ args = 0, pretend = 0, frame = 0
 2034              		@ frame_needed = 0, uses_anonymous_args = 0
 2035 0000 F8B5     		push	{r3, r4, r5, r6, r7, lr}
 2036 0002 8368     		ldr	r3, [r0, #8]
 2037 0004 0446     		mov	r4, r0
 2038 0006 1BB9     		cbnz	r3, .L627
 2039 0008 4068     		ldr	r0, [r0, #4]
 2040 000a B0F5827F 		cmp	r0, #260
 2041 000e 10D0     		beq	.L654
 2042              	.L627:
 2043 0010 94F85000 		ldrb	r0, [r4, #80]	@ zero_extendqisi2
 2044 0014 0128     		cmp	r0, #1
 2045 0016 13D0     		beq	.L636
 2046 0018 94F85100 		ldrb	r0, [r4, #81]	@ zero_extendqisi2
 2047 001c 0125     		movs	r5, #1
 2048 001e C0B2     		uxtb	r0, r0
 2049 0020 A842     		cmp	r0, r5
 2050 0022 84F85050 		strb	r5, [r4, #80]
 2051 0026 0DD0     		beq	.L655
 2052              	.L644:
 2053 0028 0220     		movs	r0, #2
 2054              	.L637:
 2055 002a 0023     		movs	r3, #0
 2056 002c 84F85030 		strb	r3, [r4, #80]
 2057 0030 F8BD     		pop	{r3, r4, r5, r6, r7, pc}
 2058              	.L654:
 2059 0032 94F85030 		ldrb	r3, [r4, #80]	@ zero_extendqisi2
 2060 0036 0420     		movs	r0, #4
 2061 0038 012B     		cmp	r3, #1
 2062 003a 84F85100 		strb	r0, [r4, #81]
 2063 003e 39D1     		bne	.L628
 2064              	.L636:
 2065 0040 0220     		movs	r0, #2
 2066 0042 F8BD     		pop	{r3, r4, r5, r6, r7, pc}
 2067              	.L655:
 2068 0044 0029     		cmp	r1, #0
 2069 0046 F0D0     		beq	.L637
 2070 0048 002A     		cmp	r2, #0
 2071 004a EED0     		beq	.L637
 2072 004c 0020     		movs	r0, #0
 2073 004e 0425     		movs	r5, #4
 2074 0050 B3F5004F 		cmp	r3, #32768
 2075 0054 84F85150 		strb	r5, [r4, #81]
ARM GAS  /tmp/ccZJZx0l.s 			page 37


 2076 0058 A163     		str	r1, [r4, #56]
 2077 005a 6065     		str	r0, [r4, #84]
 2078 005c A287     		strh	r2, [r4, #60]	@ movhi
 2079 005e E287     		strh	r2, [r4, #62]	@ movhi
 2080 0060 2064     		str	r0, [r4, #64]
 2081 0062 6064     		str	r0, [r4, #68]
 2082 0064 A086     		strh	r0, [r4, #52]	@ movhi
 2083 0066 E086     		strh	r0, [r4, #54]	@ movhi
 2084 0068 2568     		ldr	r5, [r4]
 2085 006a 7CD0     		beq	.L656
 2086              	.L639:
 2087 006c E38F     		ldrh	r3, [r4, #62]
 2088 006e E06C     		ldr	r0, [r4, #76]
 2089 0070 404A     		ldr	r2, .L657
 2090 0072 DFF808E1 		ldr	lr, .L657+8
 2091 0076 404F     		ldr	r7, .L657+4
 2092 0078 0264     		str	r2, [r0, #64]
 2093 007a 0026     		movs	r6, #0
 2094 007c 0A46     		mov	r2, r1
 2095 007e 9BB2     		uxth	r3, r3
 2096 0080 05F10C01 		add	r1, r5, #12
 2097 0084 C0F83CE0 		str	lr, [r0, #60]
 2098 0088 C764     		str	r7, [r0, #76]
 2099 008a 0665     		str	r6, [r0, #80]
 2100 008c FFF7FEFF 		bl	HAL_DMA_Start_IT
 2101 0090 2368     		ldr	r3, [r4]
 2102 0092 1A68     		ldr	r2, [r3]
 2103 0094 5206     		lsls	r2, r2, #25
 2104 0096 03D4     		bmi	.L640
 2105 0098 1A68     		ldr	r2, [r3]
 2106 009a 42F04002 		orr	r2, r2, #64
 2107 009e 1A60     		str	r2, [r3]
 2108              	.L640:
 2109 00a0 5A68     		ldr	r2, [r3, #4]
 2110 00a2 42F02002 		orr	r2, r2, #32
 2111 00a6 5A60     		str	r2, [r3, #4]
 2112 00a8 5A68     		ldr	r2, [r3, #4]
 2113 00aa 42F00102 		orr	r2, r2, #1
 2114 00ae 5A60     		str	r2, [r3, #4]
 2115 00b0 0020     		movs	r0, #0
 2116 00b2 BAE7     		b	.L637
 2117              	.L628:
 2118 00b4 94F85130 		ldrb	r3, [r4, #81]	@ zero_extendqisi2
 2119 00b8 0120     		movs	r0, #1
 2120 00ba DBB2     		uxtb	r3, r3
 2121 00bc 8342     		cmp	r3, r0
 2122 00be 84F85000 		strb	r0, [r4, #80]
 2123 00c2 01D0     		beq	.L630
 2124 00c4 042B     		cmp	r3, #4
 2125 00c6 AFD1     		bne	.L644
 2126              	.L630:
 2127 00c8 0029     		cmp	r1, #0
 2128 00ca 51D0     		beq	.L643
 2129 00cc 002A     		cmp	r2, #0
 2130 00ce 4FD0     		beq	.L643
 2131 00d0 94F85130 		ldrb	r3, [r4, #81]	@ zero_extendqisi2
 2132 00d4 A286     		strh	r2, [r4, #52]	@ movhi
ARM GAS  /tmp/ccZJZx0l.s 			page 38


 2133 00d6 012B     		cmp	r3, #1
 2134 00d8 04BF     		itt	eq
 2135 00da 0523     		moveq	r3, #5
 2136 00dc 84F85130 		strbeq	r3, [r4, #81]
 2137 00e0 0023     		movs	r3, #0
 2138 00e2 6365     		str	r3, [r4, #84]
 2139 00e4 E286     		strh	r2, [r4, #54]	@ movhi
 2140 00e6 E287     		strh	r2, [r4, #62]	@ movhi
 2141 00e8 94F85100 		ldrb	r0, [r4, #81]	@ zero_extendqisi2
 2142 00ec 2364     		str	r3, [r4, #64]
 2143 00ee 0428     		cmp	r0, #4
 2144 00f0 E06C     		ldr	r0, [r4, #76]
 2145 00f2 6364     		str	r3, [r4, #68]
 2146 00f4 0CBF     		ite	eq
 2147 00f6 214B     		ldreq	r3, .L657+8
 2148 00f8 214B     		ldrne	r3, .L657+12
 2149 00fa A287     		strh	r2, [r4, #60]	@ movhi
 2150 00fc 2163     		str	r1, [r4, #48]
 2151 00fe A163     		str	r1, [r4, #56]
 2152 0100 0CBF     		ite	eq
 2153 0102 1C4A     		ldreq	r2, .L657
 2154 0104 1F4A     		ldrne	r2, .L657+16
 2155 0106 2668     		ldr	r6, [r4]
 2156 0108 C363     		str	r3, [r0, #60]
 2157 010a E38F     		ldrh	r3, [r4, #62]
 2158 010c 0264     		str	r2, [r0, #64]
 2159 010e 0025     		movs	r5, #0
 2160 0110 194A     		ldr	r2, .L657+4
 2161 0112 C264     		str	r2, [r0, #76]
 2162 0114 9BB2     		uxth	r3, r3
 2163 0116 0A46     		mov	r2, r1
 2164 0118 0565     		str	r5, [r0, #80]
 2165 011a 06F10C01 		add	r1, r6, #12
 2166 011e FFF7FEFF 		bl	HAL_DMA_Start_IT
 2167 0122 2268     		ldr	r2, [r4]
 2168 0124 216B     		ldr	r1, [r4, #48]
 2169 0126 5368     		ldr	r3, [r2, #4]
 2170 0128 A06C     		ldr	r0, [r4, #72]
 2171 012a 43F00103 		orr	r3, r3, #1
 2172 012e 5360     		str	r3, [r2, #4]
 2173 0130 E38E     		ldrh	r3, [r4, #54]
 2174 0132 0564     		str	r5, [r0, #64]
 2175 0134 0C32     		adds	r2, r2, #12
 2176 0136 9BB2     		uxth	r3, r3
 2177 0138 C563     		str	r5, [r0, #60]
 2178 013a C564     		str	r5, [r0, #76]
 2179 013c 0565     		str	r5, [r0, #80]
 2180 013e FFF7FEFF 		bl	HAL_DMA_Start_IT
 2181 0142 2368     		ldr	r3, [r4]
 2182 0144 1A68     		ldr	r2, [r3]
 2183 0146 5106     		lsls	r1, r2, #25
 2184 0148 03D4     		bmi	.L635
 2185 014a 1A68     		ldr	r2, [r3]
 2186 014c 42F04002 		orr	r2, r2, #64
 2187 0150 1A60     		str	r2, [r3]
 2188              	.L635:
 2189 0152 5A68     		ldr	r2, [r3, #4]
ARM GAS  /tmp/ccZJZx0l.s 			page 39


 2190 0154 42F02002 		orr	r2, r2, #32
 2191 0158 5A60     		str	r2, [r3, #4]
 2192 015a 5A68     		ldr	r2, [r3, #4]
 2193 015c 42F00202 		orr	r2, r2, #2
 2194 0160 5A60     		str	r2, [r3, #4]
 2195 0162 0020     		movs	r0, #0
 2196 0164 61E7     		b	.L637
 2197              	.L656:
 2198 0166 2B68     		ldr	r3, [r5]
 2199 0168 23F48043 		bic	r3, r3, #16384
 2200 016c 2B60     		str	r3, [r5]
 2201 016e 7DE7     		b	.L639
 2202              	.L643:
 2203              	.L631:
 2204 0170 0120     		movs	r0, #1
 2205 0172 5AE7     		b	.L637
 2206              	.L658:
 2207              		.align	2
 2208              	.L657:
 2209 0174 00000000 		.word	SPI_DMAHalfReceiveCplt
 2210 0178 00000000 		.word	SPI_DMAError
 2211 017c 00000000 		.word	SPI_DMAReceiveCplt
 2212 0180 00000000 		.word	SPI_DMATransmitReceiveCplt
 2213 0184 00000000 		.word	SPI_DMAHalfTransmitReceiveCplt
 2215              		.section	.text.HAL_SPI_TransmitReceive_DMA,"ax",%progbits
 2216              		.align	1
 2217              		.p2align 2,,3
 2218              		.global	HAL_SPI_TransmitReceive_DMA
 2219              		.syntax unified
 2220              		.thumb
 2221              		.thumb_func
 2222              		.fpu fpv4-sp-d16
 2224              	HAL_SPI_TransmitReceive_DMA:
 2225              		@ args = 0, pretend = 0, frame = 0
 2226              		@ frame_needed = 0, uses_anonymous_args = 0
 2227 0000 38B5     		push	{r3, r4, r5, lr}
 2228 0002 90F85040 		ldrb	r4, [r0, #80]	@ zero_extendqisi2
 2229 0006 012C     		cmp	r4, #1
 2230 0008 11D0     		beq	.L667
 2231 000a 0446     		mov	r4, r0
 2232 000c 90F85100 		ldrb	r0, [r0, #81]	@ zero_extendqisi2
 2233 0010 0125     		movs	r5, #1
 2234 0012 C0B2     		uxtb	r0, r0
 2235 0014 A842     		cmp	r0, r5
 2236 0016 84F85050 		strb	r5, [r4, #80]
 2237 001a 0FD0     		beq	.L661
 2238 001c 6568     		ldr	r5, [r4, #4]
 2239 001e B5F5827F 		cmp	r5, #260
 2240 0022 06D0     		beq	.L678
 2241              	.L670:
 2242 0024 0220     		movs	r0, #2
 2243              	.L662:
 2244 0026 0023     		movs	r3, #0
 2245 0028 84F85030 		strb	r3, [r4, #80]
 2246 002c 38BD     		pop	{r3, r4, r5, pc}
 2247              	.L667:
 2248 002e 0220     		movs	r0, #2
ARM GAS  /tmp/ccZJZx0l.s 			page 40


 2249 0030 38BD     		pop	{r3, r4, r5, pc}
 2250              	.L678:
 2251 0032 A568     		ldr	r5, [r4, #8]
 2252 0034 002D     		cmp	r5, #0
 2253 0036 F5D1     		bne	.L670
 2254 0038 0428     		cmp	r0, #4
 2255 003a F3D1     		bne	.L670
 2256              	.L661:
 2257 003c 0029     		cmp	r1, #0
 2258 003e 4BD0     		beq	.L673
 2259 0040 002A     		cmp	r2, #0
 2260 0042 49D0     		beq	.L673
 2261 0044 002B     		cmp	r3, #0
 2262 0046 47D0     		beq	.L673
 2263 0048 94F85100 		ldrb	r0, [r4, #81]	@ zero_extendqisi2
 2264 004c 2163     		str	r1, [r4, #48]
 2265 004e 0128     		cmp	r0, #1
 2266 0050 04BF     		itt	eq
 2267 0052 0520     		moveq	r0, #5
 2268 0054 84F85100 		strbeq	r0, [r4, #81]
 2269 0058 0020     		movs	r0, #0
 2270 005a 6065     		str	r0, [r4, #84]
 2271 005c E386     		strh	r3, [r4, #54]	@ movhi
 2272 005e E387     		strh	r3, [r4, #62]	@ movhi
 2273 0060 94F85150 		ldrb	r5, [r4, #81]	@ zero_extendqisi2
 2274 0064 2064     		str	r0, [r4, #64]
 2275 0066 042D     		cmp	r5, #4
 2276 0068 6064     		str	r0, [r4, #68]
 2277 006a E06C     		ldr	r0, [r4, #76]
 2278 006c A386     		strh	r3, [r4, #52]	@ movhi
 2279 006e A387     		strh	r3, [r4, #60]	@ movhi
 2280 0070 07BF     		ittee	eq
 2281 0072 1C49     		ldreq	r1, .L679
 2282 0074 1C4B     		ldreq	r3, .L679+4
 2283 0076 1D49     		ldrne	r1, .L679+8
 2284 0078 1D4B     		ldrne	r3, .L679+12
 2285 007a A263     		str	r2, [r4, #56]
 2286 007c 1D4D     		ldr	r5, .L679+16
 2287 007e 0164     		str	r1, [r0, #64]
 2288 0080 C363     		str	r3, [r0, #60]
 2289 0082 2168     		ldr	r1, [r4]
 2290 0084 E38F     		ldrh	r3, [r4, #62]
 2291 0086 C564     		str	r5, [r0, #76]
 2292 0088 0025     		movs	r5, #0
 2293 008a 9BB2     		uxth	r3, r3
 2294 008c 0C31     		adds	r1, r1, #12
 2295 008e 0565     		str	r5, [r0, #80]
 2296 0090 FFF7FEFF 		bl	HAL_DMA_Start_IT
 2297 0094 2268     		ldr	r2, [r4]
 2298 0096 A06C     		ldr	r0, [r4, #72]
 2299 0098 5368     		ldr	r3, [r2, #4]
 2300 009a 216B     		ldr	r1, [r4, #48]
 2301 009c 43F00103 		orr	r3, r3, #1
 2302 00a0 5360     		str	r3, [r2, #4]
 2303 00a2 E38E     		ldrh	r3, [r4, #54]
 2304 00a4 0564     		str	r5, [r0, #64]
 2305 00a6 0C32     		adds	r2, r2, #12
ARM GAS  /tmp/ccZJZx0l.s 			page 41


 2306 00a8 9BB2     		uxth	r3, r3
 2307 00aa C563     		str	r5, [r0, #60]
 2308 00ac C564     		str	r5, [r0, #76]
 2309 00ae 0565     		str	r5, [r0, #80]
 2310 00b0 FFF7FEFF 		bl	HAL_DMA_Start_IT
 2311 00b4 2368     		ldr	r3, [r4]
 2312 00b6 1A68     		ldr	r2, [r3]
 2313 00b8 5206     		lsls	r2, r2, #25
 2314 00ba 03D4     		bmi	.L666
 2315 00bc 1A68     		ldr	r2, [r3]
 2316 00be 42F04002 		orr	r2, r2, #64
 2317 00c2 1A60     		str	r2, [r3]
 2318              	.L666:
 2319 00c4 5A68     		ldr	r2, [r3, #4]
 2320 00c6 42F02002 		orr	r2, r2, #32
 2321 00ca 5A60     		str	r2, [r3, #4]
 2322 00cc 5A68     		ldr	r2, [r3, #4]
 2323 00ce 42F00202 		orr	r2, r2, #2
 2324 00d2 5A60     		str	r2, [r3, #4]
 2325 00d4 0020     		movs	r0, #0
 2326 00d6 A6E7     		b	.L662
 2327              	.L673:
 2328 00d8 0023     		movs	r3, #0
 2329 00da 0120     		movs	r0, #1
 2330 00dc 84F85030 		strb	r3, [r4, #80]
 2331 00e0 38BD     		pop	{r3, r4, r5, pc}
 2332              	.L680:
 2333 00e2 00BF     		.align	2
 2334              	.L679:
 2335 00e4 00000000 		.word	SPI_DMAHalfReceiveCplt
 2336 00e8 00000000 		.word	SPI_DMAReceiveCplt
 2337 00ec 00000000 		.word	SPI_DMAHalfTransmitReceiveCplt
 2338 00f0 00000000 		.word	SPI_DMATransmitReceiveCplt
 2339 00f4 00000000 		.word	SPI_DMAError
 2341              		.section	.text.HAL_SPI_DMAPause,"ax",%progbits
 2342              		.align	1
 2343              		.p2align 2,,3
 2344              		.global	HAL_SPI_DMAPause
 2345              		.syntax unified
 2346              		.thumb
 2347              		.thumb_func
 2348              		.fpu fpv4-sp-d16
 2350              	HAL_SPI_DMAPause:
 2351              		@ args = 0, pretend = 0, frame = 0
 2352              		@ frame_needed = 0, uses_anonymous_args = 0
 2353              		@ link register save eliminated.
 2354 0000 90F85020 		ldrb	r2, [r0, #80]	@ zero_extendqisi2
 2355 0004 012A     		cmp	r2, #1
 2356 0006 0346     		mov	r3, r0
 2357 0008 09D0     		beq	.L683
 2358 000a 0068     		ldr	r0, [r0]
 2359 000c 4268     		ldr	r2, [r0, #4]
 2360 000e 0021     		movs	r1, #0
 2361 0010 22F00302 		bic	r2, r2, #3
 2362 0014 4260     		str	r2, [r0, #4]
 2363 0016 0846     		mov	r0, r1
 2364 0018 83F85010 		strb	r1, [r3, #80]
ARM GAS  /tmp/ccZJZx0l.s 			page 42


 2365 001c 7047     		bx	lr
 2366              	.L683:
 2367 001e 0220     		movs	r0, #2
 2368 0020 7047     		bx	lr
 2370 0022 00BF     		.section	.text.HAL_SPI_DMAResume,"ax",%progbits
 2371              		.align	1
 2372              		.p2align 2,,3
 2373              		.global	HAL_SPI_DMAResume
 2374              		.syntax unified
 2375              		.thumb
 2376              		.thumb_func
 2377              		.fpu fpv4-sp-d16
 2379              	HAL_SPI_DMAResume:
 2380              		@ args = 0, pretend = 0, frame = 0
 2381              		@ frame_needed = 0, uses_anonymous_args = 0
 2382              		@ link register save eliminated.
 2383 0000 90F85020 		ldrb	r2, [r0, #80]	@ zero_extendqisi2
 2384 0004 012A     		cmp	r2, #1
 2385 0006 0346     		mov	r3, r0
 2386 0008 09D0     		beq	.L686
 2387 000a 0068     		ldr	r0, [r0]
 2388 000c 4268     		ldr	r2, [r0, #4]
 2389 000e 0021     		movs	r1, #0
 2390 0010 42F00302 		orr	r2, r2, #3
 2391 0014 4260     		str	r2, [r0, #4]
 2392 0016 0846     		mov	r0, r1
 2393 0018 83F85010 		strb	r1, [r3, #80]
 2394 001c 7047     		bx	lr
 2395              	.L686:
 2396 001e 0220     		movs	r0, #2
 2397 0020 7047     		bx	lr
 2399 0022 00BF     		.section	.text.HAL_SPI_DMAStop,"ax",%progbits
 2400              		.align	1
 2401              		.p2align 2,,3
 2402              		.global	HAL_SPI_DMAStop
 2403              		.syntax unified
 2404              		.thumb
 2405              		.thumb_func
 2406              		.fpu fpv4-sp-d16
 2408              	HAL_SPI_DMAStop:
 2409              		@ args = 0, pretend = 0, frame = 0
 2410              		@ frame_needed = 0, uses_anonymous_args = 0
 2411 0000 10B5     		push	{r4, lr}
 2412 0002 0446     		mov	r4, r0
 2413 0004 806C     		ldr	r0, [r0, #72]
 2414 0006 08B1     		cbz	r0, .L688
 2415 0008 FFF7FEFF 		bl	HAL_DMA_Abort
 2416              	.L688:
 2417 000c E06C     		ldr	r0, [r4, #76]
 2418 000e 08B1     		cbz	r0, .L689
 2419 0010 FFF7FEFF 		bl	HAL_DMA_Abort
 2420              	.L689:
 2421 0014 2268     		ldr	r2, [r4]
 2422 0016 5368     		ldr	r3, [r2, #4]
 2423 0018 0121     		movs	r1, #1
 2424 001a 23F00303 		bic	r3, r3, #3
 2425 001e 5360     		str	r3, [r2, #4]
ARM GAS  /tmp/ccZJZx0l.s 			page 43


 2426 0020 0020     		movs	r0, #0
 2427 0022 84F85110 		strb	r1, [r4, #81]
 2428 0026 10BD     		pop	{r4, pc}
 2430              		.section	.text.HAL_SPI_TxCpltCallback,"ax",%progbits
 2431              		.align	1
 2432              		.p2align 2,,3
 2433              		.weak	HAL_SPI_TxCpltCallback
 2434              		.syntax unified
 2435              		.thumb
 2436              		.thumb_func
 2437              		.fpu fpv4-sp-d16
 2439              	HAL_SPI_TxCpltCallback:
 2440              		@ args = 0, pretend = 0, frame = 0
 2441              		@ frame_needed = 0, uses_anonymous_args = 0
 2442              		@ link register save eliminated.
 2443 0000 7047     		bx	lr
 2445 0002 00BF     		.section	.text.HAL_SPI_RxCpltCallback,"ax",%progbits
 2446              		.align	1
 2447              		.p2align 2,,3
 2448              		.weak	HAL_SPI_RxCpltCallback
 2449              		.syntax unified
 2450              		.thumb
 2451              		.thumb_func
 2452              		.fpu fpv4-sp-d16
 2454              	HAL_SPI_RxCpltCallback:
 2455              		@ args = 0, pretend = 0, frame = 0
 2456              		@ frame_needed = 0, uses_anonymous_args = 0
 2457              		@ link register save eliminated.
 2458 0000 7047     		bx	lr
 2460 0002 00BF     		.section	.text.HAL_SPI_TxRxCpltCallback,"ax",%progbits
 2461              		.align	1
 2462              		.p2align 2,,3
 2463              		.weak	HAL_SPI_TxRxCpltCallback
 2464              		.syntax unified
 2465              		.thumb
 2466              		.thumb_func
 2467              		.fpu fpv4-sp-d16
 2469              	HAL_SPI_TxRxCpltCallback:
 2470              		@ args = 0, pretend = 0, frame = 0
 2471              		@ frame_needed = 0, uses_anonymous_args = 0
 2472              		@ link register save eliminated.
 2473 0000 7047     		bx	lr
 2475 0002 00BF     		.section	.text.HAL_SPI_TxHalfCpltCallback,"ax",%progbits
 2476              		.align	1
 2477              		.p2align 2,,3
 2478              		.weak	HAL_SPI_TxHalfCpltCallback
 2479              		.syntax unified
 2480              		.thumb
 2481              		.thumb_func
 2482              		.fpu fpv4-sp-d16
 2484              	HAL_SPI_TxHalfCpltCallback:
 2485              		@ args = 0, pretend = 0, frame = 0
 2486              		@ frame_needed = 0, uses_anonymous_args = 0
 2487              		@ link register save eliminated.
 2488 0000 7047     		bx	lr
 2490 0002 00BF     		.section	.text.SPI_DMAHalfTransmitCplt,"ax",%progbits
 2491              		.align	1
ARM GAS  /tmp/ccZJZx0l.s 			page 44


 2492              		.p2align 2,,3
 2493              		.syntax unified
 2494              		.thumb
 2495              		.thumb_func
 2496              		.fpu fpv4-sp-d16
 2498              	SPI_DMAHalfTransmitCplt:
 2499              		@ args = 0, pretend = 0, frame = 0
 2500              		@ frame_needed = 0, uses_anonymous_args = 0
 2501 0000 08B5     		push	{r3, lr}
 2502 0002 806B     		ldr	r0, [r0, #56]
 2503 0004 FFF7FEFF 		bl	HAL_SPI_TxHalfCpltCallback
 2504 0008 08BD     		pop	{r3, pc}
 2506 000a 00BF     		.section	.text.HAL_SPI_RxHalfCpltCallback,"ax",%progbits
 2507              		.align	1
 2508              		.p2align 2,,3
 2509              		.weak	HAL_SPI_RxHalfCpltCallback
 2510              		.syntax unified
 2511              		.thumb
 2512              		.thumb_func
 2513              		.fpu fpv4-sp-d16
 2515              	HAL_SPI_RxHalfCpltCallback:
 2516              		@ args = 0, pretend = 0, frame = 0
 2517              		@ frame_needed = 0, uses_anonymous_args = 0
 2518              		@ link register save eliminated.
 2519 0000 7047     		bx	lr
 2521 0002 00BF     		.section	.text.SPI_DMAHalfReceiveCplt,"ax",%progbits
 2522              		.align	1
 2523              		.p2align 2,,3
 2524              		.syntax unified
 2525              		.thumb
 2526              		.thumb_func
 2527              		.fpu fpv4-sp-d16
 2529              	SPI_DMAHalfReceiveCplt:
 2530              		@ args = 0, pretend = 0, frame = 0
 2531              		@ frame_needed = 0, uses_anonymous_args = 0
 2532 0000 08B5     		push	{r3, lr}
 2533 0002 806B     		ldr	r0, [r0, #56]
 2534 0004 FFF7FEFF 		bl	HAL_SPI_RxHalfCpltCallback
 2535 0008 08BD     		pop	{r3, pc}
 2537 000a 00BF     		.section	.text.HAL_SPI_TxRxHalfCpltCallback,"ax",%progbits
 2538              		.align	1
 2539              		.p2align 2,,3
 2540              		.weak	HAL_SPI_TxRxHalfCpltCallback
 2541              		.syntax unified
 2542              		.thumb
 2543              		.thumb_func
 2544              		.fpu fpv4-sp-d16
 2546              	HAL_SPI_TxRxHalfCpltCallback:
 2547              		@ args = 0, pretend = 0, frame = 0
 2548              		@ frame_needed = 0, uses_anonymous_args = 0
 2549              		@ link register save eliminated.
 2550 0000 7047     		bx	lr
 2552 0002 00BF     		.section	.text.SPI_DMAHalfTransmitReceiveCplt,"ax",%progbits
 2553              		.align	1
 2554              		.p2align 2,,3
 2555              		.syntax unified
 2556              		.thumb
ARM GAS  /tmp/ccZJZx0l.s 			page 45


 2557              		.thumb_func
 2558              		.fpu fpv4-sp-d16
 2560              	SPI_DMAHalfTransmitReceiveCplt:
 2561              		@ args = 0, pretend = 0, frame = 0
 2562              		@ frame_needed = 0, uses_anonymous_args = 0
 2563 0000 08B5     		push	{r3, lr}
 2564 0002 806B     		ldr	r0, [r0, #56]
 2565 0004 FFF7FEFF 		bl	HAL_SPI_TxRxHalfCpltCallback
 2566 0008 08BD     		pop	{r3, pc}
 2568 000a 00BF     		.section	.text.HAL_SPI_ErrorCallback,"ax",%progbits
 2569              		.align	1
 2570              		.p2align 2,,3
 2571              		.weak	HAL_SPI_ErrorCallback
 2572              		.syntax unified
 2573              		.thumb
 2574              		.thumb_func
 2575              		.fpu fpv4-sp-d16
 2577              	HAL_SPI_ErrorCallback:
 2578              		@ args = 0, pretend = 0, frame = 0
 2579              		@ frame_needed = 0, uses_anonymous_args = 0
 2580              		@ link register save eliminated.
 2581 0000 7047     		bx	lr
 2583 0002 00BF     		.section	.text.SPI_CloseTx_ISR,"ax",%progbits
 2584              		.align	1
 2585              		.p2align 2,,3
 2586              		.syntax unified
 2587              		.thumb
 2588              		.thumb_func
 2589              		.fpu fpv4-sp-d16
 2591              	SPI_CloseTx_ISR:
 2592              		@ args = 0, pretend = 0, frame = 8
 2593              		@ frame_needed = 0, uses_anonymous_args = 0
 2594 0000 30B5     		push	{r4, r5, lr}
 2595 0002 394B     		ldr	r3, .L738
 2596 0004 394A     		ldr	r2, .L738+4
 2597 0006 1B68     		ldr	r3, [r3]
 2598 0008 A2FB0323 		umull	r2, r3, r2, r3
 2599 000c 83B0     		sub	sp, sp, #12
 2600 000e 6422     		movs	r2, #100
 2601 0010 5B0A     		lsrs	r3, r3, #9
 2602 0012 02FB03F3 		mul	r3, r2, r3
 2603 0016 0446     		mov	r4, r0
 2604 0018 0093     		str	r3, [sp]
 2605 001a FFF7FEFF 		bl	HAL_GetTick
 2606 001e 2368     		ldr	r3, [r4]
 2607 0020 0546     		mov	r5, r0
 2608 0022 02E0     		b	.L713
 2609              	.L711:
 2610 0024 9A68     		ldr	r2, [r3, #8]
 2611 0026 9107     		lsls	r1, r2, #30
 2612 0028 08D4     		bmi	.L712
 2613              	.L713:
 2614 002a 009A     		ldr	r2, [sp]
 2615 002c 511E     		subs	r1, r2, #1
 2616 002e 0091     		str	r1, [sp]
 2617 0030 002A     		cmp	r2, #0
 2618 0032 F7D1     		bne	.L711
ARM GAS  /tmp/ccZJZx0l.s 			page 46


 2619 0034 626D     		ldr	r2, [r4, #84]
 2620 0036 42F02002 		orr	r2, r2, #32
 2621 003a 6265     		str	r2, [r4, #84]
 2622              	.L712:
 2623 003c 5A68     		ldr	r2, [r3, #4]
 2624 003e 22F0A002 		bic	r2, r2, #160
 2625 0042 5A60     		str	r2, [r3, #4]
 2626              	.L714:
 2627 0044 9A68     		ldr	r2, [r3, #8]
 2628 0046 1206     		lsls	r2, r2, #24
 2629 0048 11D4     		bmi	.L734
 2630 004a A268     		ldr	r2, [r4, #8]
 2631              	.L719:
 2632 004c 2AB9     		cbnz	r2, .L723
 2633 004e 0192     		str	r2, [sp, #4]
 2634 0050 DA68     		ldr	r2, [r3, #12]
 2635 0052 0192     		str	r2, [sp, #4]
 2636 0054 9B68     		ldr	r3, [r3, #8]
 2637 0056 0193     		str	r3, [sp, #4]
 2638 0058 019B     		ldr	r3, [sp, #4]
 2639              	.L723:
 2640 005a 0123     		movs	r3, #1
 2641 005c 84F85130 		strb	r3, [r4, #81]
 2642 0060 636D     		ldr	r3, [r4, #84]
 2643 0062 2046     		mov	r0, r4
 2644 0064 53B9     		cbnz	r3, .L735
 2645 0066 FFF7FEFF 		bl	HAL_SPI_TxCpltCallback
 2646 006a 03B0     		add	sp, sp, #12
 2647              		@ sp needed
 2648 006c 30BD     		pop	{r4, r5, pc}
 2649              	.L734:
 2650 006e FFF7FEFF 		bl	HAL_GetTick
 2651 0072 401B     		subs	r0, r0, r5
 2652 0074 6328     		cmp	r0, #99
 2653 0076 05D8     		bhi	.L736
 2654 0078 2368     		ldr	r3, [r4]
 2655 007a E3E7     		b	.L714
 2656              	.L735:
 2657 007c FFF7FEFF 		bl	HAL_SPI_ErrorCallback
 2658 0080 03B0     		add	sp, sp, #12
 2659              		@ sp needed
 2660 0082 30BD     		pop	{r4, r5, pc}
 2661              	.L736:
 2662 0084 2368     		ldr	r3, [r4]
 2663 0086 6168     		ldr	r1, [r4, #4]
 2664 0088 5A68     		ldr	r2, [r3, #4]
 2665 008a B1F5827F 		cmp	r1, #260
 2666 008e 22F0E002 		bic	r2, r2, #224
 2667 0092 5A60     		str	r2, [r3, #4]
 2668 0094 A268     		ldr	r2, [r4, #8]
 2669 0096 1BD0     		beq	.L737
 2670              	.L716:
 2671 0098 A16A     		ldr	r1, [r4, #40]
 2672 009a B1F5005F 		cmp	r1, #8192
 2673 009e 08D1     		bne	.L718
 2674 00a0 1968     		ldr	r1, [r3]
 2675 00a2 4DF6FF70 		movw	r0, #57343
ARM GAS  /tmp/ccZJZx0l.s 			page 47


 2676 00a6 0140     		ands	r1, r1, r0
 2677 00a8 1960     		str	r1, [r3]
 2678 00aa 1968     		ldr	r1, [r3]
 2679 00ac 41F40051 		orr	r1, r1, #8192
 2680 00b0 1960     		str	r1, [r3]
 2681              	.L718:
 2682 00b2 0121     		movs	r1, #1
 2683 00b4 84F85110 		strb	r1, [r4, #81]
 2684 00b8 616D     		ldr	r1, [r4, #84]
 2685 00ba 41F02001 		orr	r1, r1, #32
 2686 00be 6165     		str	r1, [r4, #84]
 2687 00c0 616D     		ldr	r1, [r4, #84]
 2688 00c2 0020     		movs	r0, #0
 2689 00c4 41F02001 		orr	r1, r1, #32
 2690 00c8 6165     		str	r1, [r4, #84]
 2691 00ca 84F85000 		strb	r0, [r4, #80]
 2692 00ce BDE7     		b	.L719
 2693              	.L737:
 2694 00d0 B2F5004F 		cmp	r2, #32768
 2695 00d4 02D0     		beq	.L717
 2696 00d6 B2F5806F 		cmp	r2, #1024
 2697 00da DDD1     		bne	.L716
 2698              	.L717:
 2699 00dc 1968     		ldr	r1, [r3]
 2700 00de 21F04001 		bic	r1, r1, #64
 2701 00e2 1960     		str	r1, [r3]
 2702 00e4 D8E7     		b	.L716
 2703              	.L739:
 2704 00e6 00BF     		.align	2
 2705              	.L738:
 2706 00e8 00000000 		.word	SystemCoreClock
 2707 00ec F1197605 		.word	91625969
 2709              		.section	.text.SPI_TxISR_8BIT,"ax",%progbits
 2710              		.align	1
 2711              		.p2align 2,,3
 2712              		.syntax unified
 2713              		.thumb
 2714              		.thumb_func
 2715              		.fpu fpv4-sp-d16
 2717              	SPI_TxISR_8BIT:
 2718              		@ args = 0, pretend = 0, frame = 0
 2719              		@ frame_needed = 0, uses_anonymous_args = 0
 2720              		@ link register save eliminated.
 2721 0000 10B4     		push	{r4}
 2722 0002 026B     		ldr	r2, [r0, #48]
 2723 0004 0168     		ldr	r1, [r0]
 2724 0006 541C     		adds	r4, r2, #1
 2725 0008 0463     		str	r4, [r0, #48]
 2726 000a 1278     		ldrb	r2, [r2]	@ zero_extendqisi2
 2727 000c 0A73     		strb	r2, [r1, #12]
 2728 000e C28E     		ldrh	r2, [r0, #54]
 2729 0010 013A     		subs	r2, r2, #1
 2730 0012 92B2     		uxth	r2, r2
 2731 0014 C286     		strh	r2, [r0, #54]	@ movhi
 2732 0016 C38E     		ldrh	r3, [r0, #54]
 2733 0018 9BB2     		uxth	r3, r3
 2734 001a 13B1     		cbz	r3, .L743
ARM GAS  /tmp/ccZJZx0l.s 			page 48


 2735 001c 5DF8044B 		ldr	r4, [sp], #4
 2736 0020 7047     		bx	lr
 2737              	.L743:
 2738 0022 5DF8044B 		ldr	r4, [sp], #4
 2739 0026 FFF7FEBF 		b	SPI_CloseTx_ISR
 2741 002a 00BF     		.section	.text.SPI_TxISR_16BIT,"ax",%progbits
 2742              		.align	1
 2743              		.p2align 2,,3
 2744              		.syntax unified
 2745              		.thumb
 2746              		.thumb_func
 2747              		.fpu fpv4-sp-d16
 2749              	SPI_TxISR_16BIT:
 2750              		@ args = 0, pretend = 0, frame = 0
 2751              		@ frame_needed = 0, uses_anonymous_args = 0
 2752              		@ link register save eliminated.
 2753 0000 016B     		ldr	r1, [r0, #48]
 2754 0002 0268     		ldr	r2, [r0]
 2755 0004 10B4     		push	{r4}
 2756 0006 31F8024B 		ldrh	r4, [r1], #2
 2757 000a D460     		str	r4, [r2, #12]
 2758 000c C28E     		ldrh	r2, [r0, #54]
 2759 000e 0163     		str	r1, [r0, #48]
 2760 0010 013A     		subs	r2, r2, #1
 2761 0012 92B2     		uxth	r2, r2
 2762 0014 C286     		strh	r2, [r0, #54]	@ movhi
 2763 0016 C38E     		ldrh	r3, [r0, #54]
 2764 0018 9BB2     		uxth	r3, r3
 2765 001a 13B1     		cbz	r3, .L747
 2766 001c 5DF8044B 		ldr	r4, [sp], #4
 2767 0020 7047     		bx	lr
 2768              	.L747:
 2769 0022 5DF8044B 		ldr	r4, [sp], #4
 2770 0026 FFF7FEBF 		b	SPI_CloseTx_ISR
 2772 002a 00BF     		.section	.text.SPI_RxISR_8BIT,"ax",%progbits
 2773              		.align	1
 2774              		.p2align 2,,3
 2775              		.syntax unified
 2776              		.thumb
 2777              		.thumb_func
 2778              		.fpu fpv4-sp-d16
 2780              	SPI_RxISR_8BIT:
 2781              		@ args = 0, pretend = 0, frame = 8
 2782              		@ frame_needed = 0, uses_anonymous_args = 0
 2783 0000 836B     		ldr	r3, [r0, #56]
 2784 0002 0268     		ldr	r2, [r0]
 2785 0004 591C     		adds	r1, r3, #1
 2786 0006 8163     		str	r1, [r0, #56]
 2787 0008 127B     		ldrb	r2, [r2, #12]	@ zero_extendqisi2
 2788 000a 1A70     		strb	r2, [r3]
 2789 000c C38F     		ldrh	r3, [r0, #62]
 2790 000e 013B     		subs	r3, r3, #1
 2791 0010 9BB2     		uxth	r3, r3
 2792 0012 C387     		strh	r3, [r0, #62]	@ movhi
 2793 0014 C38F     		ldrh	r3, [r0, #62]
 2794 0016 9BB2     		uxth	r3, r3
 2795 0018 03B1     		cbz	r3, .L762
ARM GAS  /tmp/ccZJZx0l.s 			page 49


 2796 001a 7047     		bx	lr
 2797              	.L762:
 2798 001c 00B5     		push	{lr}
 2799 001e 0368     		ldr	r3, [r0]
 2800 0020 4168     		ldr	r1, [r0, #4]
 2801 0022 5A68     		ldr	r2, [r3, #4]
 2802 0024 B1F5827F 		cmp	r1, #260
 2803 0028 22F06002 		bic	r2, r2, #96
 2804 002c 5A60     		str	r2, [r3, #4]
 2805 002e 83B0     		sub	sp, sp, #12
 2806 0030 8268     		ldr	r2, [r0, #8]
 2807 0032 1BD0     		beq	.L763
 2808              	.L751:
 2809 0034 4AB1     		cbz	r2, .L764
 2810              	.L753:
 2811 0036 0123     		movs	r3, #1
 2812 0038 80F85130 		strb	r3, [r0, #81]
 2813 003c 436D     		ldr	r3, [r0, #84]
 2814 003e 83B1     		cbz	r3, .L765
 2815              	.L754:
 2816 0040 FFF7FEFF 		bl	HAL_SPI_ErrorCallback
 2817 0044 03B0     		add	sp, sp, #12
 2818              		@ sp needed
 2819 0046 5DF804FB 		ldr	pc, [sp], #4
 2820              	.L764:
 2821 004a 0192     		str	r2, [sp, #4]
 2822 004c DA68     		ldr	r2, [r3, #12]
 2823 004e 0192     		str	r2, [sp, #4]
 2824 0050 9B68     		ldr	r3, [r3, #8]
 2825 0052 0193     		str	r3, [sp, #4]
 2826 0054 019B     		ldr	r3, [sp, #4]
 2827 0056 0123     		movs	r3, #1
 2828 0058 80F85130 		strb	r3, [r0, #81]
 2829 005c 436D     		ldr	r3, [r0, #84]
 2830 005e 002B     		cmp	r3, #0
 2831 0060 EED1     		bne	.L754
 2832              	.L765:
 2833 0062 FFF7FEFF 		bl	HAL_SPI_RxCpltCallback
 2834 0066 03B0     		add	sp, sp, #12
 2835              		@ sp needed
 2836 0068 5DF804FB 		ldr	pc, [sp], #4
 2837              	.L763:
 2838 006c B2F5004F 		cmp	r2, #32768
 2839 0070 02D0     		beq	.L752
 2840 0072 B2F5806F 		cmp	r2, #1024
 2841 0076 DDD1     		bne	.L751
 2842              	.L752:
 2843 0078 1968     		ldr	r1, [r3]
 2844 007a 21F04001 		bic	r1, r1, #64
 2845 007e 1960     		str	r1, [r3]
 2846 0080 002A     		cmp	r2, #0
 2847 0082 D8D1     		bne	.L753
 2848 0084 E1E7     		b	.L764
 2850 0086 00BF     		.section	.text.SPI_CloseRxTx_ISR,"ax",%progbits
 2851              		.align	1
 2852              		.p2align 2,,3
 2853              		.syntax unified
ARM GAS  /tmp/ccZJZx0l.s 			page 50


 2854              		.thumb
 2855              		.thumb_func
 2856              		.fpu fpv4-sp-d16
 2858              	SPI_CloseRxTx_ISR:
 2859              		@ args = 0, pretend = 0, frame = 8
 2860              		@ frame_needed = 0, uses_anonymous_args = 0
 2861 0000 30B5     		push	{r4, r5, lr}
 2862 0002 3F4B     		ldr	r3, .L791
 2863 0004 3F4A     		ldr	r2, .L791+4
 2864 0006 1B68     		ldr	r3, [r3]
 2865 0008 A2FB0323 		umull	r2, r3, r2, r3
 2866 000c 83B0     		sub	sp, sp, #12
 2867 000e 6422     		movs	r2, #100
 2868 0010 0446     		mov	r4, r0
 2869 0012 5B0A     		lsrs	r3, r3, #9
 2870 0014 02FB03F3 		mul	r3, r2, r3
 2871 0018 0093     		str	r3, [sp]
 2872 001a FFF7FEFF 		bl	HAL_GetTick
 2873 001e 2368     		ldr	r3, [r4]
 2874 0020 5A68     		ldr	r2, [r3, #4]
 2875 0022 22F02002 		bic	r2, r2, #32
 2876 0026 0546     		mov	r5, r0
 2877 0028 5A60     		str	r2, [r3, #4]
 2878 002a 02E0     		b	.L769
 2879              	.L767:
 2880 002c 9A68     		ldr	r2, [r3, #8]
 2881 002e 9107     		lsls	r1, r2, #30
 2882 0030 08D4     		bmi	.L777
 2883              	.L769:
 2884 0032 009A     		ldr	r2, [sp]
 2885 0034 511E     		subs	r1, r2, #1
 2886 0036 0091     		str	r1, [sp]
 2887 0038 002A     		cmp	r2, #0
 2888 003a F7D1     		bne	.L767
 2889 003c 626D     		ldr	r2, [r4, #84]
 2890 003e 42F02002 		orr	r2, r2, #32
 2891 0042 6265     		str	r2, [r4, #84]
 2892              	.L777:
 2893 0044 9A68     		ldr	r2, [r3, #8]
 2894 0046 1206     		lsls	r2, r2, #24
 2895 0048 17D4     		bmi	.L788
 2896 004a A268     		ldr	r2, [r4, #8]
 2897              	.L774:
 2898 004c 2AB9     		cbnz	r2, .L778
 2899 004e 0192     		str	r2, [sp, #4]
 2900 0050 DA68     		ldr	r2, [r3, #12]
 2901 0052 0192     		str	r2, [sp, #4]
 2902 0054 9B68     		ldr	r3, [r3, #8]
 2903 0056 0193     		str	r3, [sp, #4]
 2904 0058 019B     		ldr	r3, [sp, #4]
 2905              	.L778:
 2906 005a 636D     		ldr	r3, [r4, #84]
 2907 005c 002B     		cmp	r3, #0
 2908 005e 37D1     		bne	.L779
 2909 0060 94F85130 		ldrb	r3, [r4, #81]	@ zero_extendqisi2
 2910 0064 042B     		cmp	r3, #4
 2911 0066 4FF00103 		mov	r3, #1
ARM GAS  /tmp/ccZJZx0l.s 			page 51


 2912 006a 84F85130 		strb	r3, [r4, #81]
 2913 006e 2046     		mov	r0, r4
 2914 0070 36D0     		beq	.L789
 2915 0072 FFF7FEFF 		bl	HAL_SPI_TxRxCpltCallback
 2916 0076 03B0     		add	sp, sp, #12
 2917              		@ sp needed
 2918 0078 30BD     		pop	{r4, r5, pc}
 2919              	.L788:
 2920 007a FFF7FEFF 		bl	HAL_GetTick
 2921 007e 401B     		subs	r0, r0, r5
 2922 0080 6328     		cmp	r0, #99
 2923 0082 2368     		ldr	r3, [r4]
 2924 0084 DED9     		bls	.L777
 2925 0086 6168     		ldr	r1, [r4, #4]
 2926 0088 5A68     		ldr	r2, [r3, #4]
 2927 008a B1F5827F 		cmp	r1, #260
 2928 008e 22F0E002 		bic	r2, r2, #224
 2929 0092 5A60     		str	r2, [r3, #4]
 2930 0094 A268     		ldr	r2, [r4, #8]
 2931 0096 27D0     		beq	.L790
 2932              	.L771:
 2933 0098 A16A     		ldr	r1, [r4, #40]
 2934 009a B1F5005F 		cmp	r1, #8192
 2935 009e 08D1     		bne	.L773
 2936 00a0 1968     		ldr	r1, [r3]
 2937 00a2 4DF6FF70 		movw	r0, #57343
 2938 00a6 0140     		ands	r1, r1, r0
 2939 00a8 1960     		str	r1, [r3]
 2940 00aa 1968     		ldr	r1, [r3]
 2941 00ac 41F40051 		orr	r1, r1, #8192
 2942 00b0 1960     		str	r1, [r3]
 2943              	.L773:
 2944 00b2 0121     		movs	r1, #1
 2945 00b4 84F85110 		strb	r1, [r4, #81]
 2946 00b8 616D     		ldr	r1, [r4, #84]
 2947 00ba 41F02001 		orr	r1, r1, #32
 2948 00be 6165     		str	r1, [r4, #84]
 2949 00c0 616D     		ldr	r1, [r4, #84]
 2950 00c2 0020     		movs	r0, #0
 2951 00c4 41F02001 		orr	r1, r1, #32
 2952 00c8 6165     		str	r1, [r4, #84]
 2953 00ca 84F85000 		strb	r0, [r4, #80]
 2954 00ce BDE7     		b	.L774
 2955              	.L779:
 2956 00d0 0123     		movs	r3, #1
 2957 00d2 84F85130 		strb	r3, [r4, #81]
 2958 00d6 2046     		mov	r0, r4
 2959 00d8 FFF7FEFF 		bl	HAL_SPI_ErrorCallback
 2960 00dc 03B0     		add	sp, sp, #12
 2961              		@ sp needed
 2962 00de 30BD     		pop	{r4, r5, pc}
 2963              	.L789:
 2964 00e0 FFF7FEFF 		bl	HAL_SPI_RxCpltCallback
 2965 00e4 03B0     		add	sp, sp, #12
 2966              		@ sp needed
 2967 00e6 30BD     		pop	{r4, r5, pc}
 2968              	.L790:
ARM GAS  /tmp/ccZJZx0l.s 			page 52


 2969 00e8 B2F5004F 		cmp	r2, #32768
 2970 00ec 02D0     		beq	.L772
 2971 00ee B2F5806F 		cmp	r2, #1024
 2972 00f2 D1D1     		bne	.L771
 2973              	.L772:
 2974 00f4 1968     		ldr	r1, [r3]
 2975 00f6 21F04001 		bic	r1, r1, #64
 2976 00fa 1960     		str	r1, [r3]
 2977 00fc CCE7     		b	.L771
 2978              	.L792:
 2979 00fe 00BF     		.align	2
 2980              	.L791:
 2981 0100 00000000 		.word	SystemCoreClock
 2982 0104 F1197605 		.word	91625969
 2984              		.section	.text.SPI_2linesTxISR_8BIT,"ax",%progbits
 2985              		.align	1
 2986              		.p2align 2,,3
 2987              		.syntax unified
 2988              		.thumb
 2989              		.thumb_func
 2990              		.fpu fpv4-sp-d16
 2992              	SPI_2linesTxISR_8BIT:
 2993              		@ args = 0, pretend = 0, frame = 0
 2994              		@ frame_needed = 0, uses_anonymous_args = 0
 2995              		@ link register save eliminated.
 2996 0000 10B4     		push	{r4}
 2997 0002 026B     		ldr	r2, [r0, #48]
 2998 0004 0168     		ldr	r1, [r0]
 2999 0006 541C     		adds	r4, r2, #1
 3000 0008 0463     		str	r4, [r0, #48]
 3001 000a 1278     		ldrb	r2, [r2]	@ zero_extendqisi2
 3002 000c 0A73     		strb	r2, [r1, #12]
 3003 000e C28E     		ldrh	r2, [r0, #54]
 3004 0010 013A     		subs	r2, r2, #1
 3005 0012 92B2     		uxth	r2, r2
 3006 0014 C286     		strh	r2, [r0, #54]	@ movhi
 3007 0016 C28E     		ldrh	r2, [r0, #54]
 3008 0018 92B2     		uxth	r2, r2
 3009 001a 3AB9     		cbnz	r2, .L793
 3010 001c 0168     		ldr	r1, [r0]
 3011 001e 4A68     		ldr	r2, [r1, #4]
 3012 0020 22F08002 		bic	r2, r2, #128
 3013 0024 4A60     		str	r2, [r1, #4]
 3014 0026 C38F     		ldrh	r3, [r0, #62]
 3015 0028 9BB2     		uxth	r3, r3
 3016 002a 13B1     		cbz	r3, .L798
 3017              	.L793:
 3018 002c 5DF8044B 		ldr	r4, [sp], #4
 3019 0030 7047     		bx	lr
 3020              	.L798:
 3021 0032 5DF8044B 		ldr	r4, [sp], #4
 3022 0036 FFF7FEBF 		b	SPI_CloseRxTx_ISR
 3024 003a 00BF     		.section	.text.SPI_2linesRxISR_8BIT,"ax",%progbits
 3025              		.align	1
 3026              		.p2align 2,,3
 3027              		.syntax unified
 3028              		.thumb
ARM GAS  /tmp/ccZJZx0l.s 			page 53


 3029              		.thumb_func
 3030              		.fpu fpv4-sp-d16
 3032              	SPI_2linesRxISR_8BIT:
 3033              		@ args = 0, pretend = 0, frame = 0
 3034              		@ frame_needed = 0, uses_anonymous_args = 0
 3035              		@ link register save eliminated.
 3036 0000 10B4     		push	{r4}
 3037 0002 826B     		ldr	r2, [r0, #56]
 3038 0004 0168     		ldr	r1, [r0]
 3039 0006 541C     		adds	r4, r2, #1
 3040 0008 8463     		str	r4, [r0, #56]
 3041 000a 097B     		ldrb	r1, [r1, #12]	@ zero_extendqisi2
 3042 000c 1170     		strb	r1, [r2]
 3043 000e C28F     		ldrh	r2, [r0, #62]
 3044 0010 013A     		subs	r2, r2, #1
 3045 0012 92B2     		uxth	r2, r2
 3046 0014 C287     		strh	r2, [r0, #62]	@ movhi
 3047 0016 C28F     		ldrh	r2, [r0, #62]
 3048 0018 92B2     		uxth	r2, r2
 3049 001a 3AB9     		cbnz	r2, .L799
 3050 001c 0168     		ldr	r1, [r0]
 3051 001e 4A68     		ldr	r2, [r1, #4]
 3052 0020 22F06002 		bic	r2, r2, #96
 3053 0024 4A60     		str	r2, [r1, #4]
 3054 0026 C38E     		ldrh	r3, [r0, #54]
 3055 0028 9BB2     		uxth	r3, r3
 3056 002a 13B1     		cbz	r3, .L804
 3057              	.L799:
 3058 002c 5DF8044B 		ldr	r4, [sp], #4
 3059 0030 7047     		bx	lr
 3060              	.L804:
 3061 0032 5DF8044B 		ldr	r4, [sp], #4
 3062 0036 FFF7FEBF 		b	SPI_CloseRxTx_ISR
 3064 003a 00BF     		.section	.text.SPI_2linesTxISR_16BIT,"ax",%progbits
 3065              		.align	1
 3066              		.p2align 2,,3
 3067              		.syntax unified
 3068              		.thumb
 3069              		.thumb_func
 3070              		.fpu fpv4-sp-d16
 3072              	SPI_2linesTxISR_16BIT:
 3073              		@ args = 0, pretend = 0, frame = 0
 3074              		@ frame_needed = 0, uses_anonymous_args = 0
 3075              		@ link register save eliminated.
 3076 0000 016B     		ldr	r1, [r0, #48]
 3077 0002 10B4     		push	{r4}
 3078 0004 0468     		ldr	r4, [r0]
 3079 0006 31F8022B 		ldrh	r2, [r1], #2
 3080 000a E260     		str	r2, [r4, #12]
 3081 000c C28E     		ldrh	r2, [r0, #54]
 3082 000e 0163     		str	r1, [r0, #48]
 3083 0010 013A     		subs	r2, r2, #1
 3084 0012 92B2     		uxth	r2, r2
 3085 0014 C286     		strh	r2, [r0, #54]	@ movhi
 3086 0016 C28E     		ldrh	r2, [r0, #54]
 3087 0018 92B2     		uxth	r2, r2
 3088 001a 32B9     		cbnz	r2, .L805
ARM GAS  /tmp/ccZJZx0l.s 			page 54


 3089 001c 6268     		ldr	r2, [r4, #4]
 3090 001e 22F08002 		bic	r2, r2, #128
 3091 0022 6260     		str	r2, [r4, #4]
 3092 0024 C38F     		ldrh	r3, [r0, #62]
 3093 0026 9BB2     		uxth	r3, r3
 3094 0028 13B1     		cbz	r3, .L810
 3095              	.L805:
 3096 002a 5DF8044B 		ldr	r4, [sp], #4
 3097 002e 7047     		bx	lr
 3098              	.L810:
 3099 0030 5DF8044B 		ldr	r4, [sp], #4
 3100 0034 FFF7FEBF 		b	SPI_CloseRxTx_ISR
 3102              		.section	.text.SPI_2linesRxISR_16BIT,"ax",%progbits
 3103              		.align	1
 3104              		.p2align 2,,3
 3105              		.syntax unified
 3106              		.thumb
 3107              		.thumb_func
 3108              		.fpu fpv4-sp-d16
 3110              	SPI_2linesRxISR_16BIT:
 3111              		@ args = 0, pretend = 0, frame = 0
 3112              		@ frame_needed = 0, uses_anonymous_args = 0
 3113              		@ link register save eliminated.
 3114 0000 10B4     		push	{r4}
 3115 0002 0468     		ldr	r4, [r0]
 3116 0004 816B     		ldr	r1, [r0, #56]
 3117 0006 E268     		ldr	r2, [r4, #12]
 3118 0008 21F8022B 		strh	r2, [r1], #2	@ movhi
 3119 000c C28F     		ldrh	r2, [r0, #62]
 3120 000e 8163     		str	r1, [r0, #56]
 3121 0010 013A     		subs	r2, r2, #1
 3122 0012 92B2     		uxth	r2, r2
 3123 0014 C287     		strh	r2, [r0, #62]	@ movhi
 3124 0016 C28F     		ldrh	r2, [r0, #62]
 3125 0018 92B2     		uxth	r2, r2
 3126 001a 32B9     		cbnz	r2, .L811
 3127 001c 6268     		ldr	r2, [r4, #4]
 3128 001e 22F04002 		bic	r2, r2, #64
 3129 0022 6260     		str	r2, [r4, #4]
 3130 0024 C38E     		ldrh	r3, [r0, #54]
 3131 0026 9BB2     		uxth	r3, r3
 3132 0028 13B1     		cbz	r3, .L816
 3133              	.L811:
 3134 002a 5DF8044B 		ldr	r4, [sp], #4
 3135 002e 7047     		bx	lr
 3136              	.L816:
 3137 0030 5DF8044B 		ldr	r4, [sp], #4
 3138 0034 FFF7FEBF 		b	SPI_CloseRxTx_ISR
 3140              		.section	.text.SPI_DMAError,"ax",%progbits
 3141              		.align	1
 3142              		.p2align 2,,3
 3143              		.syntax unified
 3144              		.thumb
 3145              		.thumb_func
 3146              		.fpu fpv4-sp-d16
 3148              	SPI_DMAError:
 3149              		@ args = 0, pretend = 0, frame = 0
ARM GAS  /tmp/ccZJZx0l.s 			page 55


 3150              		@ frame_needed = 0, uses_anonymous_args = 0
 3151 0000 08B5     		push	{r3, lr}
 3152 0002 836B     		ldr	r3, [r0, #56]
 3153 0004 1968     		ldr	r1, [r3]
 3154 0006 4A68     		ldr	r2, [r1, #4]
 3155 0008 22F00302 		bic	r2, r2, #3
 3156 000c 4A60     		str	r2, [r1, #4]
 3157 000e 5A6D     		ldr	r2, [r3, #84]
 3158 0010 0121     		movs	r1, #1
 3159 0012 42F01002 		orr	r2, r2, #16
 3160 0016 5A65     		str	r2, [r3, #84]
 3161 0018 1846     		mov	r0, r3
 3162 001a 83F85110 		strb	r1, [r3, #81]
 3163 001e FFF7FEFF 		bl	HAL_SPI_ErrorCallback
 3164 0022 08BD     		pop	{r3, pc}
 3166              		.section	.text.SPI_DMATransmitCplt,"ax",%progbits
 3167              		.align	1
 3168              		.p2align 2,,3
 3169              		.syntax unified
 3170              		.thumb
 3171              		.thumb_func
 3172              		.fpu fpv4-sp-d16
 3174              	SPI_DMATransmitCplt:
 3175              		@ args = 0, pretend = 0, frame = 8
 3176              		@ frame_needed = 0, uses_anonymous_args = 0
 3177 0000 70B5     		push	{r4, r5, r6, lr}
 3178 0002 0646     		mov	r6, r0
 3179 0004 82B0     		sub	sp, sp, #8
 3180 0006 846B     		ldr	r4, [r0, #56]
 3181 0008 FFF7FEFF 		bl	HAL_GetTick
 3182 000c 3368     		ldr	r3, [r6]
 3183 000e 1B68     		ldr	r3, [r3]
 3184 0010 D905     		lsls	r1, r3, #23
 3185 0012 17D4     		bmi	.L820
 3186 0014 2368     		ldr	r3, [r4]
 3187 0016 5A68     		ldr	r2, [r3, #4]
 3188 0018 22F00202 		bic	r2, r2, #2
 3189 001c 0546     		mov	r5, r0
 3190 001e 5A60     		str	r2, [r3, #4]
 3191              	.L821:
 3192 0020 9A68     		ldr	r2, [r3, #8]
 3193 0022 1206     		lsls	r2, r2, #24
 3194 0024 13D4     		bmi	.L841
 3195 0026 A268     		ldr	r2, [r4, #8]
 3196 0028 2AB9     		cbnz	r2, .L830
 3197              	.L845:
 3198 002a 0192     		str	r2, [sp, #4]
 3199 002c DA68     		ldr	r2, [r3, #12]
 3200 002e 0192     		str	r2, [sp, #4]
 3201 0030 9B68     		ldr	r3, [r3, #8]
 3202 0032 0193     		str	r3, [sp, #4]
 3203 0034 019B     		ldr	r3, [sp, #4]
 3204              	.L830:
 3205 0036 0123     		movs	r3, #1
 3206 0038 0022     		movs	r2, #0
 3207 003a E286     		strh	r2, [r4, #54]	@ movhi
 3208 003c 84F85130 		strb	r3, [r4, #81]
ARM GAS  /tmp/ccZJZx0l.s 			page 56


 3209 0040 636D     		ldr	r3, [r4, #84]
 3210 0042 5BB9     		cbnz	r3, .L842
 3211              	.L820:
 3212 0044 2046     		mov	r0, r4
 3213 0046 FFF7FEFF 		bl	HAL_SPI_TxCpltCallback
 3214 004a 02B0     		add	sp, sp, #8
 3215              		@ sp needed
 3216 004c 70BD     		pop	{r4, r5, r6, pc}
 3217              	.L841:
 3218 004e FFF7FEFF 		bl	HAL_GetTick
 3219 0052 401B     		subs	r0, r0, r5
 3220 0054 6328     		cmp	r0, #99
 3221 0056 06D8     		bhi	.L843
 3222 0058 2368     		ldr	r3, [r4]
 3223 005a E1E7     		b	.L821
 3224              	.L842:
 3225 005c 2046     		mov	r0, r4
 3226 005e FFF7FEFF 		bl	HAL_SPI_ErrorCallback
 3227 0062 02B0     		add	sp, sp, #8
 3228              		@ sp needed
 3229 0064 70BD     		pop	{r4, r5, r6, pc}
 3230              	.L843:
 3231 0066 2368     		ldr	r3, [r4]
 3232 0068 6168     		ldr	r1, [r4, #4]
 3233 006a 5A68     		ldr	r2, [r3, #4]
 3234 006c B1F5827F 		cmp	r1, #260
 3235 0070 22F0E002 		bic	r2, r2, #224
 3236 0074 5A60     		str	r2, [r3, #4]
 3237 0076 A268     		ldr	r2, [r4, #8]
 3238 0078 1DD0     		beq	.L844
 3239              	.L823:
 3240 007a A16A     		ldr	r1, [r4, #40]
 3241 007c B1F5005F 		cmp	r1, #8192
 3242 0080 08D1     		bne	.L825
 3243 0082 1968     		ldr	r1, [r3]
 3244 0084 4DF6FF70 		movw	r0, #57343
 3245 0088 0140     		ands	r1, r1, r0
 3246 008a 1960     		str	r1, [r3]
 3247 008c 1968     		ldr	r1, [r3]
 3248 008e 41F40051 		orr	r1, r1, #8192
 3249 0092 1960     		str	r1, [r3]
 3250              	.L825:
 3251 0094 0121     		movs	r1, #1
 3252 0096 84F85110 		strb	r1, [r4, #81]
 3253 009a 616D     		ldr	r1, [r4, #84]
 3254 009c 41F02001 		orr	r1, r1, #32
 3255 00a0 6165     		str	r1, [r4, #84]
 3256 00a2 616D     		ldr	r1, [r4, #84]
 3257 00a4 0020     		movs	r0, #0
 3258 00a6 41F02001 		orr	r1, r1, #32
 3259 00aa 6165     		str	r1, [r4, #84]
 3260 00ac 84F85000 		strb	r0, [r4, #80]
 3261 00b0 002A     		cmp	r2, #0
 3262 00b2 C0D1     		bne	.L830
 3263 00b4 B9E7     		b	.L845
 3264              	.L844:
 3265 00b6 B2F5004F 		cmp	r2, #32768
ARM GAS  /tmp/ccZJZx0l.s 			page 57


 3266 00ba 02D0     		beq	.L824
 3267 00bc B2F5806F 		cmp	r2, #1024
 3268 00c0 DBD1     		bne	.L823
 3269              	.L824:
 3270 00c2 1968     		ldr	r1, [r3]
 3271 00c4 21F04001 		bic	r1, r1, #64
 3272 00c8 1960     		str	r1, [r3]
 3273 00ca D6E7     		b	.L823
 3275              		.section	.text.SPI_DMAReceiveCplt,"ax",%progbits
 3276              		.align	1
 3277              		.p2align 2,,3
 3278              		.syntax unified
 3279              		.thumb
 3280              		.thumb_func
 3281              		.fpu fpv4-sp-d16
 3283              	SPI_DMAReceiveCplt:
 3284              		@ args = 0, pretend = 0, frame = 0
 3285              		@ frame_needed = 0, uses_anonymous_args = 0
 3286 0000 08B5     		push	{r3, lr}
 3287 0002 0368     		ldr	r3, [r0]
 3288 0004 806B     		ldr	r0, [r0, #56]
 3289 0006 1B68     		ldr	r3, [r3]
 3290 0008 DB05     		lsls	r3, r3, #23
 3291 000a 0FD4     		bmi	.L847
 3292 000c 0268     		ldr	r2, [r0]
 3293 000e 4168     		ldr	r1, [r0, #4]
 3294 0010 5368     		ldr	r3, [r2, #4]
 3295 0012 B1F5827F 		cmp	r1, #260
 3296 0016 23F00303 		bic	r3, r3, #3
 3297 001a 5360     		str	r3, [r2, #4]
 3298 001c 09D0     		beq	.L858
 3299              	.L848:
 3300 001e 0123     		movs	r3, #1
 3301 0020 0022     		movs	r2, #0
 3302 0022 C287     		strh	r2, [r0, #62]	@ movhi
 3303 0024 80F85130 		strb	r3, [r0, #81]
 3304 0028 436D     		ldr	r3, [r0, #84]
 3305 002a 73B9     		cbnz	r3, .L859
 3306              	.L847:
 3307 002c FFF7FEFF 		bl	HAL_SPI_RxCpltCallback
 3308 0030 08BD     		pop	{r3, pc}
 3309              	.L858:
 3310 0032 8368     		ldr	r3, [r0, #8]
 3311 0034 B3F5004F 		cmp	r3, #32768
 3312 0038 02D0     		beq	.L849
 3313 003a B3F5806F 		cmp	r3, #1024
 3314 003e EED1     		bne	.L848
 3315              	.L849:
 3316 0040 1368     		ldr	r3, [r2]
 3317 0042 23F04003 		bic	r3, r3, #64
 3318 0046 1360     		str	r3, [r2]
 3319 0048 E9E7     		b	.L848
 3320              	.L859:
 3321 004a FFF7FEFF 		bl	HAL_SPI_ErrorCallback
 3322 004e 08BD     		pop	{r3, pc}
 3324              		.section	.text.SPI_DMATransmitReceiveCplt,"ax",%progbits
 3325              		.align	1
ARM GAS  /tmp/ccZJZx0l.s 			page 58


 3326              		.p2align 2,,3
 3327              		.syntax unified
 3328              		.thumb
 3329              		.thumb_func
 3330              		.fpu fpv4-sp-d16
 3332              	SPI_DMATransmitReceiveCplt:
 3333              		@ args = 0, pretend = 0, frame = 0
 3334              		@ frame_needed = 0, uses_anonymous_args = 0
 3335 0000 70B5     		push	{r4, r5, r6, lr}
 3336 0002 0646     		mov	r6, r0
 3337 0004 846B     		ldr	r4, [r0, #56]
 3338 0006 FFF7FEFF 		bl	HAL_GetTick
 3339 000a 3368     		ldr	r3, [r6]
 3340 000c 1B68     		ldr	r3, [r3]
 3341 000e D905     		lsls	r1, r3, #23
 3342 0010 10D4     		bmi	.L862
 3343 0012 0546     		mov	r5, r0
 3344              	.L861:
 3345 0014 2368     		ldr	r3, [r4]
 3346 0016 9A68     		ldr	r2, [r3, #8]
 3347 0018 1206     		lsls	r2, r2, #24
 3348 001a 0FD4     		bmi	.L883
 3349              	.L866:
 3350 001c 5A68     		ldr	r2, [r3, #4]
 3351 001e 0021     		movs	r1, #0
 3352 0020 22F00302 		bic	r2, r2, #3
 3353 0024 0120     		movs	r0, #1
 3354 0026 5A60     		str	r2, [r3, #4]
 3355 0028 E186     		strh	r1, [r4, #54]	@ movhi
 3356 002a E187     		strh	r1, [r4, #62]	@ movhi
 3357 002c 84F85100 		strb	r0, [r4, #81]
 3358 0030 636D     		ldr	r3, [r4, #84]
 3359 0032 6BBB     		cbnz	r3, .L884
 3360              	.L862:
 3361 0034 2046     		mov	r0, r4
 3362 0036 FFF7FEFF 		bl	HAL_SPI_TxRxCpltCallback
 3363 003a 70BD     		pop	{r4, r5, r6, pc}
 3364              	.L883:
 3365 003c FFF7FEFF 		bl	HAL_GetTick
 3366 0040 401B     		subs	r0, r0, r5
 3367 0042 6328     		cmp	r0, #99
 3368 0044 E6D9     		bls	.L861
 3369 0046 2368     		ldr	r3, [r4]
 3370 0048 6168     		ldr	r1, [r4, #4]
 3371 004a 5A68     		ldr	r2, [r3, #4]
 3372 004c B1F5827F 		cmp	r1, #260
 3373 0050 22F0E002 		bic	r2, r2, #224
 3374 0054 5A60     		str	r2, [r3, #4]
 3375 0056 1FD0     		beq	.L885
 3376              	.L863:
 3377 0058 A26A     		ldr	r2, [r4, #40]
 3378 005a B2F5005F 		cmp	r2, #8192
 3379 005e 08D1     		bne	.L865
 3380 0060 1A68     		ldr	r2, [r3]
 3381 0062 4DF6FF71 		movw	r1, #57343
 3382 0066 0A40     		ands	r2, r2, r1
 3383 0068 1A60     		str	r2, [r3]
ARM GAS  /tmp/ccZJZx0l.s 			page 59


 3384 006a 1A68     		ldr	r2, [r3]
 3385 006c 42F40052 		orr	r2, r2, #8192
 3386 0070 1A60     		str	r2, [r3]
 3387              	.L865:
 3388 0072 0122     		movs	r2, #1
 3389 0074 84F85120 		strb	r2, [r4, #81]
 3390 0078 626D     		ldr	r2, [r4, #84]
 3391 007a 42F02002 		orr	r2, r2, #32
 3392 007e 6265     		str	r2, [r4, #84]
 3393 0080 626D     		ldr	r2, [r4, #84]
 3394 0082 0021     		movs	r1, #0
 3395 0084 42F02002 		orr	r2, r2, #32
 3396 0088 6265     		str	r2, [r4, #84]
 3397 008a 84F85010 		strb	r1, [r4, #80]
 3398 008e C5E7     		b	.L866
 3399              	.L884:
 3400 0090 2046     		mov	r0, r4
 3401 0092 FFF7FEFF 		bl	HAL_SPI_ErrorCallback
 3402 0096 70BD     		pop	{r4, r5, r6, pc}
 3403              	.L885:
 3404 0098 A268     		ldr	r2, [r4, #8]
 3405 009a B2F5004F 		cmp	r2, #32768
 3406 009e 02D0     		beq	.L864
 3407 00a0 B2F5806F 		cmp	r2, #1024
 3408 00a4 D8D1     		bne	.L863
 3409              	.L864:
 3410 00a6 1A68     		ldr	r2, [r3]
 3411 00a8 22F04002 		bic	r2, r2, #64
 3412 00ac 1A60     		str	r2, [r3]
 3413 00ae D3E7     		b	.L863
 3415              		.section	.text.HAL_SPI_IRQHandler,"ax",%progbits
 3416              		.align	1
 3417              		.p2align 2,,3
 3418              		.global	HAL_SPI_IRQHandler
 3419              		.syntax unified
 3420              		.thumb
 3421              		.thumb_func
 3422              		.fpu fpv4-sp-d16
 3424              	HAL_SPI_IRQHandler:
 3425              		@ args = 0, pretend = 0, frame = 16
 3426              		@ frame_needed = 0, uses_anonymous_args = 0
 3427 0000 0268     		ldr	r2, [r0]
 3428 0002 30B5     		push	{r4, r5, lr}
 3429 0004 5168     		ldr	r1, [r2, #4]
 3430 0006 9368     		ldr	r3, [r2, #8]
 3431 0008 03F04105 		and	r5, r3, #65
 3432 000c 012D     		cmp	r5, #1
 3433 000e 85B0     		sub	sp, sp, #20
 3434 0010 0446     		mov	r4, r0
 3435 0012 54D0     		beq	.L929
 3436              	.L887:
 3437 0014 9D07     		lsls	r5, r3, #30
 3438 0016 4CD4     		bmi	.L930
 3439              	.L889:
 3440 0018 13F4B07F 		tst	r3, #352
 3441 001c 47D0     		beq	.L886
 3442 001e 8D06     		lsls	r5, r1, #26
ARM GAS  /tmp/ccZJZx0l.s 			page 60


 3443 0020 45D5     		bpl	.L886
 3444 0022 5806     		lsls	r0, r3, #25
 3445 0024 0ED5     		bpl	.L892
 3446 0026 94F85100 		ldrb	r0, [r4, #81]	@ zero_extendqisi2
 3447 002a 0328     		cmp	r0, #3
 3448 002c 50D0     		beq	.L893
 3449 002e 606D     		ldr	r0, [r4, #84]
 3450 0030 0025     		movs	r5, #0
 3451 0032 40F00400 		orr	r0, r0, #4
 3452 0036 6065     		str	r0, [r4, #84]
 3453 0038 0095     		str	r5, [sp]
 3454 003a D068     		ldr	r0, [r2, #12]
 3455 003c 0090     		str	r0, [sp]
 3456 003e 9068     		ldr	r0, [r2, #8]
 3457 0040 0090     		str	r0, [sp]
 3458 0042 0098     		ldr	r0, [sp]
 3459              	.L892:
 3460 0044 9D06     		lsls	r5, r3, #26
 3461 0046 0CD5     		bpl	.L894
 3462 0048 606D     		ldr	r0, [r4, #84]
 3463 004a 0025     		movs	r5, #0
 3464 004c 40F00100 		orr	r0, r0, #1
 3465 0050 6065     		str	r0, [r4, #84]
 3466 0052 0295     		str	r5, [sp, #8]
 3467 0054 9068     		ldr	r0, [r2, #8]
 3468 0056 0290     		str	r0, [sp, #8]
 3469 0058 1068     		ldr	r0, [r2]
 3470 005a 20F04000 		bic	r0, r0, #64
 3471 005e 1060     		str	r0, [r2]
 3472 0060 0298     		ldr	r0, [sp, #8]
 3473              	.L894:
 3474 0062 D805     		lsls	r0, r3, #23
 3475 0064 08D5     		bpl	.L895
 3476 0066 636D     		ldr	r3, [r4, #84]
 3477 0068 0020     		movs	r0, #0
 3478 006a 43F00803 		orr	r3, r3, #8
 3479 006e 6365     		str	r3, [r4, #84]
 3480 0070 0390     		str	r0, [sp, #12]
 3481 0072 9368     		ldr	r3, [r2, #8]
 3482 0074 0393     		str	r3, [sp, #12]
 3483 0076 039B     		ldr	r3, [sp, #12]
 3484              	.L895:
 3485 0078 636D     		ldr	r3, [r4, #84]
 3486 007a C3B1     		cbz	r3, .L886
 3487 007c 5368     		ldr	r3, [r2, #4]
 3488 007e 23F0E003 		bic	r3, r3, #224
 3489 0082 5360     		str	r3, [r2, #4]
 3490 0084 0120     		movs	r0, #1
 3491 0086 8B07     		lsls	r3, r1, #30
 3492 0088 84F85100 		strb	r0, [r4, #81]
 3493 008c 1CD0     		beq	.L896
 3494 008e 5368     		ldr	r3, [r2, #4]
 3495 0090 E06C     		ldr	r0, [r4, #76]
 3496 0092 23F00303 		bic	r3, r3, #3
 3497 0096 5360     		str	r3, [r2, #4]
 3498 0098 18B1     		cbz	r0, .L897
 3499 009a 114B     		ldr	r3, .L931
ARM GAS  /tmp/ccZJZx0l.s 			page 61


 3500 009c 0365     		str	r3, [r0, #80]
 3501 009e FFF7FEFF 		bl	HAL_DMA_Abort_IT
 3502              	.L897:
 3503 00a2 A06C     		ldr	r0, [r4, #72]
 3504 00a4 18B1     		cbz	r0, .L886
 3505 00a6 0E4B     		ldr	r3, .L931
 3506 00a8 0365     		str	r3, [r0, #80]
 3507 00aa FFF7FEFF 		bl	HAL_DMA_Abort_IT
 3508              	.L886:
 3509 00ae 05B0     		add	sp, sp, #20
 3510              		@ sp needed
 3511 00b0 30BD     		pop	{r4, r5, pc}
 3512              	.L930:
 3513 00b2 0806     		lsls	r0, r1, #24
 3514 00b4 B0D5     		bpl	.L889
 3515 00b6 636C     		ldr	r3, [r4, #68]
 3516 00b8 2046     		mov	r0, r4
 3517 00ba 9847     		blx	r3
 3518 00bc F7E7     		b	.L886
 3519              	.L929:
 3520 00be 4D06     		lsls	r5, r1, #25
 3521 00c0 A8D5     		bpl	.L887
 3522 00c2 036C     		ldr	r3, [r0, #64]
 3523 00c4 9847     		blx	r3
 3524 00c6 F2E7     		b	.L886
 3525              	.L896:
 3526 00c8 2046     		mov	r0, r4
 3527 00ca FFF7FEFF 		bl	HAL_SPI_ErrorCallback
 3528 00ce EEE7     		b	.L886
 3529              	.L893:
 3530 00d0 0023     		movs	r3, #0
 3531 00d2 0193     		str	r3, [sp, #4]
 3532 00d4 D368     		ldr	r3, [r2, #12]
 3533 00d6 0193     		str	r3, [sp, #4]
 3534 00d8 9368     		ldr	r3, [r2, #8]
 3535 00da 0193     		str	r3, [sp, #4]
 3536 00dc 019B     		ldr	r3, [sp, #4]
 3537 00de E6E7     		b	.L886
 3538              	.L932:
 3539              		.align	2
 3540              	.L931:
 3541 00e0 00000000 		.word	SPI_DMAAbortOnError
 3543              		.section	.text.SPI_DMAAbortOnError,"ax",%progbits
 3544              		.align	1
 3545              		.p2align 2,,3
 3546              		.syntax unified
 3547              		.thumb
 3548              		.thumb_func
 3549              		.fpu fpv4-sp-d16
 3551              	SPI_DMAAbortOnError:
 3552              		@ args = 0, pretend = 0, frame = 0
 3553              		@ frame_needed = 0, uses_anonymous_args = 0
 3554 0000 08B5     		push	{r3, lr}
 3555 0002 836B     		ldr	r3, [r0, #56]
 3556 0004 0022     		movs	r2, #0
 3557 0006 DA87     		strh	r2, [r3, #62]	@ movhi
 3558 0008 1846     		mov	r0, r3
ARM GAS  /tmp/ccZJZx0l.s 			page 62


 3559 000a DA86     		strh	r2, [r3, #54]	@ movhi
 3560 000c FFF7FEFF 		bl	HAL_SPI_ErrorCallback
 3561 0010 08BD     		pop	{r3, pc}
 3563 0012 00BF     		.section	.text.SPI_RxISR_16BIT,"ax",%progbits
 3564              		.align	1
 3565              		.p2align 2,,3
 3566              		.syntax unified
 3567              		.thumb
 3568              		.thumb_func
 3569              		.fpu fpv4-sp-d16
 3571              	SPI_RxISR_16BIT:
 3572              		@ args = 0, pretend = 0, frame = 8
 3573              		@ frame_needed = 0, uses_anonymous_args = 0
 3574 0000 0168     		ldr	r1, [r0]
 3575 0002 826B     		ldr	r2, [r0, #56]
 3576 0004 CB68     		ldr	r3, [r1, #12]
 3577 0006 22F8023B 		strh	r3, [r2], #2	@ movhi
 3578 000a C38F     		ldrh	r3, [r0, #62]
 3579 000c 8263     		str	r2, [r0, #56]
 3580 000e 013B     		subs	r3, r3, #1
 3581 0010 9BB2     		uxth	r3, r3
 3582 0012 C387     		strh	r3, [r0, #62]	@ movhi
 3583 0014 C38F     		ldrh	r3, [r0, #62]
 3584 0016 9BB2     		uxth	r3, r3
 3585 0018 03B1     		cbz	r3, .L949
 3586 001a 7047     		bx	lr
 3587              	.L949:
 3588 001c 00B5     		push	{lr}
 3589 001e 4B68     		ldr	r3, [r1, #4]
 3590 0020 4268     		ldr	r2, [r0, #4]
 3591 0022 23F06003 		bic	r3, r3, #96
 3592 0026 B2F5827F 		cmp	r2, #260
 3593 002a 4B60     		str	r3, [r1, #4]
 3594 002c 83B0     		sub	sp, sp, #12
 3595 002e 8368     		ldr	r3, [r0, #8]
 3596 0030 1BD0     		beq	.L950
 3597              	.L938:
 3598 0032 4BB1     		cbz	r3, .L951
 3599              	.L940:
 3600 0034 0123     		movs	r3, #1
 3601 0036 80F85130 		strb	r3, [r0, #81]
 3602 003a 436D     		ldr	r3, [r0, #84]
 3603 003c 83B1     		cbz	r3, .L952
 3604              	.L941:
 3605 003e FFF7FEFF 		bl	HAL_SPI_ErrorCallback
 3606 0042 03B0     		add	sp, sp, #12
 3607              		@ sp needed
 3608 0044 5DF804FB 		ldr	pc, [sp], #4
 3609              	.L951:
 3610 0048 0193     		str	r3, [sp, #4]
 3611 004a CB68     		ldr	r3, [r1, #12]
 3612 004c 0193     		str	r3, [sp, #4]
 3613 004e 8B68     		ldr	r3, [r1, #8]
 3614 0050 0193     		str	r3, [sp, #4]
 3615 0052 019B     		ldr	r3, [sp, #4]
 3616 0054 0123     		movs	r3, #1
 3617 0056 80F85130 		strb	r3, [r0, #81]
ARM GAS  /tmp/ccZJZx0l.s 			page 63


 3618 005a 436D     		ldr	r3, [r0, #84]
 3619 005c 002B     		cmp	r3, #0
 3620 005e EED1     		bne	.L941
 3621              	.L952:
 3622 0060 FFF7FEFF 		bl	HAL_SPI_RxCpltCallback
 3623 0064 03B0     		add	sp, sp, #12
 3624              		@ sp needed
 3625 0066 5DF804FB 		ldr	pc, [sp], #4
 3626              	.L950:
 3627 006a B3F5004F 		cmp	r3, #32768
 3628 006e 02D0     		beq	.L939
 3629 0070 B3F5806F 		cmp	r3, #1024
 3630 0074 DDD1     		bne	.L938
 3631              	.L939:
 3632 0076 0A68     		ldr	r2, [r1]
 3633 0078 22F04002 		bic	r2, r2, #64
 3634 007c 0A60     		str	r2, [r1]
 3635 007e 002B     		cmp	r3, #0
 3636 0080 D8D1     		bne	.L940
 3637 0082 E1E7     		b	.L951
 3639              		.section	.text.HAL_SPI_GetState,"ax",%progbits
 3640              		.align	1
 3641              		.p2align 2,,3
 3642              		.global	HAL_SPI_GetState
 3643              		.syntax unified
 3644              		.thumb
 3645              		.thumb_func
 3646              		.fpu fpv4-sp-d16
 3648              	HAL_SPI_GetState:
 3649              		@ args = 0, pretend = 0, frame = 0
 3650              		@ frame_needed = 0, uses_anonymous_args = 0
 3651              		@ link register save eliminated.
 3652 0000 90F85100 		ldrb	r0, [r0, #81]	@ zero_extendqisi2
 3653 0004 7047     		bx	lr
 3655 0006 00BF     		.section	.text.HAL_SPI_GetError,"ax",%progbits
 3656              		.align	1
 3657              		.p2align 2,,3
 3658              		.global	HAL_SPI_GetError
 3659              		.syntax unified
 3660              		.thumb
 3661              		.thumb_func
 3662              		.fpu fpv4-sp-d16
 3664              	HAL_SPI_GetError:
 3665              		@ args = 0, pretend = 0, frame = 0
 3666              		@ frame_needed = 0, uses_anonymous_args = 0
 3667              		@ link register save eliminated.
 3668 0000 406D     		ldr	r0, [r0, #84]
 3669 0002 7047     		bx	lr
 3671              		.ident	"GCC: (Arch Repository) 6.3.0"
ARM GAS  /tmp/ccZJZx0l.s 			page 64

