ARM GAS  /tmp/cc6xfLaq.s 			page 1


   1              		.cpu cortex-m4
   2              		.eabi_attribute 27, 1
   3              		.eabi_attribute 28, 1
   4              		.eabi_attribute 23, 1
   5              		.eabi_attribute 24, 1
   6              		.eabi_attribute 25, 1
   7              		.eabi_attribute 26, 1
   8              		.eabi_attribute 30, 2
   9              		.eabi_attribute 34, 1
  10              		.eabi_attribute 18, 4
  11              		.file	"stm32f4xx_hal_rcc.c"
  12              		.section	.text.HAL_RCC_DeInit,"ax",%progbits
  13              		.align	1
  14              		.p2align 2,,3
  15              		.weak	HAL_RCC_DeInit
  16              		.syntax unified
  17              		.thumb
  18              		.thumb_func
  19              		.fpu fpv4-sp-d16
  21              	HAL_RCC_DeInit:
  22              		@ args = 0, pretend = 0, frame = 0
  23              		@ frame_needed = 0, uses_anonymous_args = 0
  24              		@ link register save eliminated.
  25 0000 7047     		bx	lr
  27 0002 00BF     		.section	.text.HAL_RCC_OscConfig,"ax",%progbits
  28              		.align	1
  29              		.p2align 2,,3
  30              		.weak	HAL_RCC_OscConfig
  31              		.syntax unified
  32              		.thumb
  33              		.thumb_func
  34              		.fpu fpv4-sp-d16
  36              	HAL_RCC_OscConfig:
  37              		@ args = 0, pretend = 0, frame = 8
  38              		@ frame_needed = 0, uses_anonymous_args = 0
  39 0000 F0B5     		push	{r4, r5, r6, r7, lr}
  40 0002 0368     		ldr	r3, [r0]
  41 0004 DD07     		lsls	r5, r3, #31
  42 0006 83B0     		sub	sp, sp, #12
  43 0008 0446     		mov	r4, r0
  44 000a 2FD5     		bpl	.L3
  45 000c A349     		ldr	r1, .L96
  46 000e 8A68     		ldr	r2, [r1, #8]
  47 0010 02F00C02 		and	r2, r2, #12
  48 0014 042A     		cmp	r2, #4
  49 0016 00F0F480 		beq	.L4
  50 001a 8A68     		ldr	r2, [r1, #8]
  51 001c 02F00C02 		and	r2, r2, #12
  52 0020 082A     		cmp	r2, #8
  53 0022 00F0EA80 		beq	.L88
  54              	.L5:
  55 0026 6368     		ldr	r3, [r4, #4]
  56 0028 B3F5803F 		cmp	r3, #65536
  57 002c 00F02C81 		beq	.L89
  58 0030 B3F5A02F 		cmp	r3, #327680
  59 0034 00F00081 		beq	.L90
  60 0038 984D     		ldr	r5, .L96
ARM GAS  /tmp/cc6xfLaq.s 			page 2


  61 003a 2A68     		ldr	r2, [r5]
  62 003c 22F48032 		bic	r2, r2, #65536
  63 0040 2A60     		str	r2, [r5]
  64 0042 2A68     		ldr	r2, [r5]
  65 0044 22F48022 		bic	r2, r2, #262144
  66 0048 2A60     		str	r2, [r5]
  67 004a 002B     		cmp	r3, #0
  68 004c 40F0FD80 		bne	.L8
  69 0050 FFF7FEFF 		bl	HAL_GetTick
  70 0054 0646     		mov	r6, r0
  71 0056 05E0     		b	.L13
  72              	.L15:
  73 0058 FFF7FEFF 		bl	HAL_GetTick
  74 005c 801B     		subs	r0, r0, r6
  75 005e 6428     		cmp	r0, #100
  76 0060 00F2AA80 		bhi	.L14
  77              	.L13:
  78 0064 2B68     		ldr	r3, [r5]
  79 0066 9B03     		lsls	r3, r3, #14
  80 0068 F6D4     		bmi	.L15
  81              	.L85:
  82 006a 2368     		ldr	r3, [r4]
  83              	.L3:
  84 006c 9F07     		lsls	r7, r3, #30
  85 006e 2DD5     		bpl	.L16
  86 0070 8A4A     		ldr	r2, .L96
  87 0072 9168     		ldr	r1, [r2, #8]
  88 0074 11F00C0F 		tst	r1, #12
  89 0078 00F0A580 		beq	.L17
  90 007c 9168     		ldr	r1, [r2, #8]
  91 007e 01F00C01 		and	r1, r1, #12
  92 0082 0829     		cmp	r1, #8
  93 0084 00F09B80 		beq	.L91
  94              	.L18:
  95 0088 E368     		ldr	r3, [r4, #12]
  96 008a 002B     		cmp	r3, #0
  97 008c 00F0EB80 		beq	.L21
  98 0090 834B     		ldr	r3, .L96+4
  99 0092 824D     		ldr	r5, .L96
 100 0094 0122     		movs	r2, #1
 101 0096 1A60     		str	r2, [r3]
 102 0098 FFF7FEFF 		bl	HAL_GetTick
 103 009c 0646     		mov	r6, r0
 104 009e 05E0     		b	.L22
 105              	.L23:
 106 00a0 FFF7FEFF 		bl	HAL_GetTick
 107 00a4 801B     		subs	r0, r0, r6
 108 00a6 0228     		cmp	r0, #2
 109 00a8 00F28680 		bhi	.L14
 110              	.L22:
 111 00ac 2B68     		ldr	r3, [r5]
 112 00ae 9807     		lsls	r0, r3, #30
 113 00b0 F6D5     		bpl	.L23
 114 00b2 2968     		ldr	r1, [r5]
 115 00b4 F822     		movs	r2, #248
 116              		.syntax unified
 117              	@ 531 "Drivers/CMSIS/Include/cmsis_gcc.h" 1
ARM GAS  /tmp/cc6xfLaq.s 			page 3


 118 00b6 92FAA2F2 		rbit r2, r2
 119              	@ 0 "" 2
 120              		.thumb
 121              		.syntax unified
 122 00ba 2369     		ldr	r3, [r4, #16]
 123 00bc B2FA82F2 		clz	r2, r2
 124 00c0 21F0F801 		bic	r1, r1, #248
 125 00c4 9340     		lsls	r3, r3, r2
 126 00c6 0B43     		orrs	r3, r3, r1
 127 00c8 2B60     		str	r3, [r5]
 128 00ca 2368     		ldr	r3, [r4]
 129              	.L16:
 130 00cc 1A07     		lsls	r2, r3, #28
 131 00ce 20D4     		bmi	.L92
 132              	.L26:
 133 00d0 5907     		lsls	r1, r3, #29
 134 00d2 34D4     		bmi	.L32
 135              	.L42:
 136 00d4 A369     		ldr	r3, [r4, #24]
 137 00d6 CBB1     		cbz	r3, .L34
 138 00d8 704D     		ldr	r5, .L96
 139 00da AA68     		ldr	r2, [r5, #8]
 140 00dc 02F00C02 		and	r2, r2, #12
 141 00e0 082A     		cmp	r2, #8
 142 00e2 77D0     		beq	.L20
 143 00e4 022B     		cmp	r3, #2
 144 00e6 6F4B     		ldr	r3, .L96+8
 145 00e8 4FF00002 		mov	r2, #0
 146 00ec 1A60     		str	r2, [r3]
 147 00ee 00F0D180 		beq	.L93
 148 00f2 FFF7FEFF 		bl	HAL_GetTick
 149 00f6 2C46     		mov	r4, r5
 150 00f8 0546     		mov	r5, r0
 151 00fa 04E0     		b	.L50
 152              	.L51:
 153 00fc FFF7FEFF 		bl	HAL_GetTick
 154 0100 401B     		subs	r0, r0, r5
 155 0102 0228     		cmp	r0, #2
 156 0104 58D8     		bhi	.L14
 157              	.L50:
 158 0106 2368     		ldr	r3, [r4]
 159 0108 9B01     		lsls	r3, r3, #6
 160 010a F7D4     		bmi	.L51
 161              	.L34:
 162 010c 0020     		movs	r0, #0
 163 010e 03B0     		add	sp, sp, #12
 164              		@ sp needed
 165 0110 F0BD     		pop	{r4, r5, r6, r7, pc}
 166              	.L92:
 167 0112 6369     		ldr	r3, [r4, #20]
 168 0114 002B     		cmp	r3, #0
 169 0116 60D0     		beq	.L27
 170 0118 634B     		ldr	r3, .L96+12
 171 011a 604D     		ldr	r5, .L96
 172 011c 0122     		movs	r2, #1
 173 011e 1A60     		str	r2, [r3]
 174 0120 FFF7FEFF 		bl	HAL_GetTick
ARM GAS  /tmp/cc6xfLaq.s 			page 4


 175 0124 0646     		mov	r6, r0
 176 0126 04E0     		b	.L28
 177              	.L29:
 178 0128 FFF7FEFF 		bl	HAL_GetTick
 179 012c 801B     		subs	r0, r0, r6
 180 012e 0228     		cmp	r0, #2
 181 0130 42D8     		bhi	.L14
 182              	.L28:
 183 0132 6B6F     		ldr	r3, [r5, #116]
 184 0134 9F07     		lsls	r7, r3, #30
 185 0136 F7D5     		bpl	.L29
 186              	.L86:
 187 0138 2368     		ldr	r3, [r4]
 188 013a 5907     		lsls	r1, r3, #29
 189 013c CAD5     		bpl	.L42
 190              	.L32:
 191 013e 574B     		ldr	r3, .L96
 192 0140 5A4D     		ldr	r5, .L96+16
 193 0142 0022     		movs	r2, #0
 194 0144 0192     		str	r2, [sp, #4]
 195 0146 1A6C     		ldr	r2, [r3, #64]
 196 0148 42F08052 		orr	r2, r2, #268435456
 197 014c 1A64     		str	r2, [r3, #64]
 198 014e 1B6C     		ldr	r3, [r3, #64]
 199 0150 03F08053 		and	r3, r3, #268435456
 200 0154 0193     		str	r3, [sp, #4]
 201 0156 019B     		ldr	r3, [sp, #4]
 202 0158 2B68     		ldr	r3, [r5]
 203 015a 43F48073 		orr	r3, r3, #256
 204 015e 2B60     		str	r3, [r5]
 205 0160 FFF7FEFF 		bl	HAL_GetTick
 206 0164 0646     		mov	r6, r0
 207 0166 04E0     		b	.L35
 208              	.L36:
 209 0168 FFF7FEFF 		bl	HAL_GetTick
 210 016c 801B     		subs	r0, r0, r6
 211 016e 0228     		cmp	r0, #2
 212 0170 22D8     		bhi	.L14
 213              	.L35:
 214 0172 2B68     		ldr	r3, [r5]
 215 0174 DA05     		lsls	r2, r3, #23
 216 0176 F7D5     		bpl	.L36
 217 0178 A368     		ldr	r3, [r4, #8]
 218 017a 012B     		cmp	r3, #1
 219 017c 00F0F180 		beq	.L94
 220 0180 052B     		cmp	r3, #5
 221 0182 00F0D580 		beq	.L95
 222 0186 454D     		ldr	r5, .L96
 223 0188 2A6F     		ldr	r2, [r5, #112]
 224 018a 22F00102 		bic	r2, r2, #1
 225 018e 2A67     		str	r2, [r5, #112]
 226 0190 2A6F     		ldr	r2, [r5, #112]
 227 0192 22F00402 		bic	r2, r2, #4
 228 0196 2A67     		str	r2, [r5, #112]
 229 0198 002B     		cmp	r3, #0
 230 019a 40F0D280 		bne	.L38
 231 019e FFF7FEFF 		bl	HAL_GetTick
ARM GAS  /tmp/cc6xfLaq.s 			page 5


 232 01a2 41F28836 		movw	r6, #5000
 233 01a6 0746     		mov	r7, r0
 234              	.L43:
 235 01a8 2B6F     		ldr	r3, [r5, #112]
 236 01aa 9807     		lsls	r0, r3, #30
 237 01ac 92D5     		bpl	.L42
 238 01ae FFF7FEFF 		bl	HAL_GetTick
 239 01b2 C01B     		subs	r0, r0, r7
 240 01b4 B042     		cmp	r0, r6
 241 01b6 F7D9     		bls	.L43
 242              	.L14:
 243 01b8 0320     		movs	r0, #3
 244 01ba 03B0     		add	sp, sp, #12
 245              		@ sp needed
 246 01bc F0BD     		pop	{r4, r5, r6, r7, pc}
 247              	.L91:
 248 01be 5268     		ldr	r2, [r2, #4]
 249 01c0 5602     		lsls	r6, r2, #9
 250 01c2 3FF561AF 		bmi	.L18
 251              	.L17:
 252 01c6 354A     		ldr	r2, .L96
 253 01c8 1268     		ldr	r2, [r2]
 254 01ca 9507     		lsls	r5, r2, #30
 255 01cc 23D5     		bpl	.L19
 256 01ce E268     		ldr	r2, [r4, #12]
 257 01d0 012A     		cmp	r2, #1
 258 01d2 20D0     		beq	.L19
 259              	.L20:
 260 01d4 0120     		movs	r0, #1
 261 01d6 03B0     		add	sp, sp, #12
 262              		@ sp needed
 263 01d8 F0BD     		pop	{r4, r5, r6, r7, pc}
 264              	.L27:
 265 01da 334A     		ldr	r2, .L96+12
 266 01dc 2F4D     		ldr	r5, .L96
 267 01de 1360     		str	r3, [r2]
 268 01e0 FFF7FEFF 		bl	HAL_GetTick
 269 01e4 0646     		mov	r6, r0
 270 01e6 04E0     		b	.L30
 271              	.L31:
 272 01e8 FFF7FEFF 		bl	HAL_GetTick
 273 01ec 801B     		subs	r0, r0, r6
 274 01ee 0228     		cmp	r0, #2
 275 01f0 E2D8     		bhi	.L14
 276              	.L30:
 277 01f2 6B6F     		ldr	r3, [r5, #116]
 278 01f4 9807     		lsls	r0, r3, #30
 279 01f6 F7D4     		bmi	.L31
 280 01f8 9EE7     		b	.L86
 281              	.L88:
 282 01fa 4A68     		ldr	r2, [r1, #4]
 283 01fc 5002     		lsls	r0, r2, #9
 284 01fe 7FF512AF 		bpl	.L5
 285              	.L4:
 286 0202 264A     		ldr	r2, .L96
 287 0204 1268     		ldr	r2, [r2]
 288 0206 9103     		lsls	r1, r2, #14
ARM GAS  /tmp/cc6xfLaq.s 			page 6


 289 0208 7FF530AF 		bpl	.L3
 290 020c 6268     		ldr	r2, [r4, #4]
 291 020e 002A     		cmp	r2, #0
 292 0210 7FF42CAF 		bne	.L3
 293 0214 DEE7     		b	.L20
 294              	.L19:
 295 0216 214D     		ldr	r5, .L96
 296 0218 F821     		movs	r1, #248
 297 021a 2868     		ldr	r0, [r5]
 298              		.syntax unified
 299              	@ 531 "Drivers/CMSIS/Include/cmsis_gcc.h" 1
 300 021c 91FAA1F1 		rbit r1, r1
 301              	@ 0 "" 2
 302              		.thumb
 303              		.syntax unified
 304 0220 2269     		ldr	r2, [r4, #16]
 305 0222 B1FA81F1 		clz	r1, r1
 306 0226 20F0F800 		bic	r0, r0, #248
 307 022a 8A40     		lsls	r2, r2, r1
 308 022c 0243     		orrs	r2, r2, r0
 309 022e 2A60     		str	r2, [r5]
 310 0230 1A07     		lsls	r2, r3, #28
 311 0232 7FF54DAF 		bpl	.L26
 312 0236 6CE7     		b	.L92
 313              	.L90:
 314 0238 184B     		ldr	r3, .L96
 315 023a 1A68     		ldr	r2, [r3]
 316 023c 42F48022 		orr	r2, r2, #262144
 317 0240 1A60     		str	r2, [r3]
 318 0242 1A68     		ldr	r2, [r3]
 319 0244 42F48032 		orr	r2, r2, #65536
 320 0248 1A60     		str	r2, [r3]
 321              	.L8:
 322 024a FFF7FEFF 		bl	HAL_GetTick
 323 024e 134D     		ldr	r5, .L96
 324 0250 0646     		mov	r6, r0
 325 0252 04E0     		b	.L11
 326              	.L12:
 327 0254 FFF7FEFF 		bl	HAL_GetTick
 328 0258 801B     		subs	r0, r0, r6
 329 025a 6428     		cmp	r0, #100
 330 025c ACD8     		bhi	.L14
 331              	.L11:
 332 025e 2B68     		ldr	r3, [r5]
 333 0260 9A03     		lsls	r2, r3, #14
 334 0262 F7D5     		bpl	.L12
 335 0264 01E7     		b	.L85
 336              	.L21:
 337 0266 0E4A     		ldr	r2, .L96+4
 338 0268 0C4D     		ldr	r5, .L96
 339 026a 1360     		str	r3, [r2]
 340 026c FFF7FEFF 		bl	HAL_GetTick
 341 0270 0646     		mov	r6, r0
 342 0272 04E0     		b	.L24
 343              	.L25:
 344 0274 FFF7FEFF 		bl	HAL_GetTick
 345 0278 801B     		subs	r0, r0, r6
ARM GAS  /tmp/cc6xfLaq.s 			page 7


 346 027a 0228     		cmp	r0, #2
 347 027c 9CD8     		bhi	.L14
 348              	.L24:
 349 027e 2B68     		ldr	r3, [r5]
 350 0280 9907     		lsls	r1, r3, #30
 351 0282 F7D4     		bmi	.L25
 352 0284 2368     		ldr	r3, [r4]
 353 0286 21E7     		b	.L16
 354              	.L89:
 355 0288 044A     		ldr	r2, .L96
 356 028a 1368     		ldr	r3, [r2]
 357 028c 43F48033 		orr	r3, r3, #65536
 358 0290 1360     		str	r3, [r2]
 359 0292 DAE7     		b	.L8
 360              	.L93:
 361 0294 FFF7FEFF 		bl	HAL_GetTick
 362 0298 0646     		mov	r6, r0
 363 029a 0FE0     		b	.L46
 364              	.L97:
 365              		.align	2
 366              	.L96:
 367 029c 00380240 		.word	1073887232
 368 02a0 00004742 		.word	1111949312
 369 02a4 60004742 		.word	1111949408
 370 02a8 800E4742 		.word	1111953024
 371 02ac 00700040 		.word	1073770496
 372              	.L47:
 373 02b0 FFF7FEFF 		bl	HAL_GetTick
 374 02b4 801B     		subs	r0, r0, r6
 375 02b6 0228     		cmp	r0, #2
 376 02b8 3FF67EAF 		bhi	.L14
 377              	.L46:
 378 02bc 2B68     		ldr	r3, [r5]
 379 02be 9901     		lsls	r1, r3, #6
 380 02c0 F6D4     		bmi	.L47
 381 02c2 47F6C076 		movw	r6, #32704
 382              		.syntax unified
 383              	@ 531 "Drivers/CMSIS/Include/cmsis_gcc.h" 1
 384 02c6 96FAA6F6 		rbit r6, r6
 385              	@ 0 "" 2
 386              		.thumb
 387              		.syntax unified
 388 02ca 4FF44032 		mov	r2, #196608
 389 02ce B6FA86F6 		clz	r6, r6
 390              		.syntax unified
 391              	@ 531 "Drivers/CMSIS/Include/cmsis_gcc.h" 1
 392 02d2 92FAA2F2 		rbit r2, r2
 393              	@ 0 "" 2
 394              		.thumb
 395              		.syntax unified
 396 02d6 4FF07061 		mov	r1, #251658240
 397 02da B2FA82F0 		clz	r0, r2
 398              		.syntax unified
 399              	@ 531 "Drivers/CMSIS/Include/cmsis_gcc.h" 1
 400 02de 91FAA1F1 		rbit r1, r1
 401              	@ 0 "" 2
 402              		.thumb
ARM GAS  /tmp/cc6xfLaq.s 			page 8


 403              		.syntax unified
 404 02e2 A26A     		ldr	r2, [r4, #40]
 405 02e4 676A     		ldr	r7, [r4, #36]
 406 02e6 E369     		ldr	r3, [r4, #28]
 407 02e8 D4F820E0 		ldr	lr, [r4, #32]
 408 02ec E46A     		ldr	r4, [r4, #44]
 409 02ee 5208     		lsrs	r2, r2, #1
 410 02f0 43EA0E03 		orr	r3, r3, lr
 411 02f4 07FA06F6 		lsl	r6, r7, r6
 412 02f8 013A     		subs	r2, r2, #1
 413 02fa 8240     		lsls	r2, r2, r0
 414 02fc B1FA81F1 		clz	r1, r1
 415 0300 3343     		orrs	r3, r3, r6
 416 0302 04FA01F1 		lsl	r1, r4, r1
 417 0306 1343     		orrs	r3, r3, r2
 418 0308 194A     		ldr	r2, .L98
 419 030a 1A4C     		ldr	r4, .L98+4
 420 030c 0B43     		orrs	r3, r3, r1
 421 030e 0121     		movs	r1, #1
 422 0310 6B60     		str	r3, [r5, #4]
 423 0312 1160     		str	r1, [r2]
 424 0314 FFF7FEFF 		bl	HAL_GetTick
 425 0318 0546     		mov	r5, r0
 426 031a 05E0     		b	.L48
 427              	.L49:
 428 031c FFF7FEFF 		bl	HAL_GetTick
 429 0320 401B     		subs	r0, r0, r5
 430 0322 0228     		cmp	r0, #2
 431 0324 3FF648AF 		bhi	.L14
 432              	.L48:
 433 0328 2368     		ldr	r3, [r4]
 434 032a 9A01     		lsls	r2, r3, #6
 435 032c F6D5     		bpl	.L49
 436 032e EDE6     		b	.L34
 437              	.L95:
 438 0330 104B     		ldr	r3, .L98+4
 439 0332 1A6F     		ldr	r2, [r3, #112]
 440 0334 42F00402 		orr	r2, r2, #4
 441 0338 1A67     		str	r2, [r3, #112]
 442 033a 1A6F     		ldr	r2, [r3, #112]
 443 033c 42F00102 		orr	r2, r2, #1
 444 0340 1A67     		str	r2, [r3, #112]
 445              	.L38:
 446 0342 FFF7FEFF 		bl	HAL_GetTick
 447 0346 0B4D     		ldr	r5, .L98+4
 448 0348 0746     		mov	r7, r0
 449 034a 41F28836 		movw	r6, #5000
 450              	.L52:
 451 034e 2B6F     		ldr	r3, [r5, #112]
 452 0350 9B07     		lsls	r3, r3, #30
 453 0352 3FF5BFAE 		bmi	.L42
 454 0356 FFF7FEFF 		bl	HAL_GetTick
 455 035a C01B     		subs	r0, r0, r7
 456 035c B042     		cmp	r0, r6
 457 035e F6D9     		bls	.L52
 458 0360 2AE7     		b	.L14
 459              	.L94:
ARM GAS  /tmp/cc6xfLaq.s 			page 9


 460 0362 044A     		ldr	r2, .L98+4
 461 0364 136F     		ldr	r3, [r2, #112]
 462 0366 43F00103 		orr	r3, r3, #1
 463 036a 1367     		str	r3, [r2, #112]
 464 036c E9E7     		b	.L38
 465              	.L99:
 466 036e 00BF     		.align	2
 467              	.L98:
 468 0370 60004742 		.word	1111949408
 469 0374 00380240 		.word	1073887232
 471              		.section	.text.HAL_RCC_MCOConfig,"ax",%progbits
 472              		.align	1
 473              		.p2align 2,,3
 474              		.global	HAL_RCC_MCOConfig
 475              		.syntax unified
 476              		.thumb
 477              		.thumb_func
 478              		.fpu fpv4-sp-d16
 480              	HAL_RCC_MCOConfig:
 481              		@ args = 0, pretend = 0, frame = 32
 482              		@ frame_needed = 0, uses_anonymous_args = 0
 483 0000 F0B5     		push	{r4, r5, r6, r7, lr}
 484 0002 0C46     		mov	r4, r1
 485 0004 89B0     		sub	sp, sp, #36
 486 0006 1646     		mov	r6, r2
 487 0008 10B3     		cbz	r0, .L104
 488 000a 234D     		ldr	r5, .L105
 489 000c 2348     		ldr	r0, .L105+4
 490 000e 0023     		movs	r3, #0
 491 0010 0293     		str	r3, [sp, #8]
 492 0012 2A6B     		ldr	r2, [r5, #48]
 493 0014 42F00402 		orr	r2, r2, #4
 494 0018 2A63     		str	r2, [r5, #48]
 495 001a 296B     		ldr	r1, [r5, #48]
 496 001c 0593     		str	r3, [sp, #20]
 497 001e 01F00401 		and	r1, r1, #4
 498 0022 0291     		str	r1, [sp, #8]
 499 0024 4FF4007E 		mov	lr, #512
 500 0028 0322     		movs	r2, #3
 501 002a 0299     		ldr	r1, [sp, #8]
 502 002c 0692     		str	r2, [sp, #24]
 503 002e 0227     		movs	r7, #2
 504 0030 03A9     		add	r1, sp, #12
 505 0032 0793     		str	r3, [sp, #28]
 506 0034 CDF80CE0 		str	lr, [sp, #12]
 507 0038 0497     		str	r7, [sp, #16]
 508 003a FFF7FEFF 		bl	HAL_GPIO_Init
 509 003e AA68     		ldr	r2, [r5, #8]
 510 0040 44EAC604 		orr	r4, r4, r6, lsl #3
 511 0044 22F07842 		bic	r2, r2, #-134217728
 512 0048 1443     		orrs	r4, r4, r2
 513 004a AC60     		str	r4, [r5, #8]
 514 004c 09B0     		add	sp, sp, #36
 515              		@ sp needed
 516 004e F0BD     		pop	{r4, r5, r6, r7, pc}
 517              	.L104:
 518 0050 114D     		ldr	r5, .L105
ARM GAS  /tmp/cc6xfLaq.s 			page 10


 519 0052 0190     		str	r0, [sp, #4]
 520 0054 2A6B     		ldr	r2, [r5, #48]
 521 0056 42F00102 		orr	r2, r2, #1
 522 005a 2A63     		str	r2, [r5, #48]
 523 005c 2A6B     		ldr	r2, [r5, #48]
 524 005e 02F00102 		and	r2, r2, #1
 525 0062 0192     		str	r2, [sp, #4]
 526 0064 0346     		mov	r3, r0
 527 0066 4FF4807E 		mov	lr, #256
 528 006a 0322     		movs	r2, #3
 529 006c 0199     		ldr	r1, [sp, #4]
 530 006e 0C48     		ldr	r0, .L105+8
 531 0070 0593     		str	r3, [sp, #20]
 532 0072 0227     		movs	r7, #2
 533 0074 03A9     		add	r1, sp, #12
 534 0076 0793     		str	r3, [sp, #28]
 535 0078 0692     		str	r2, [sp, #24]
 536 007a CDF80CE0 		str	lr, [sp, #12]
 537 007e 0497     		str	r7, [sp, #16]
 538 0080 FFF7FEFF 		bl	HAL_GPIO_Init
 539 0084 AB68     		ldr	r3, [r5, #8]
 540 0086 23F0EC63 		bic	r3, r3, #123731968
 541 008a 43EA0602 		orr	r2, r3, r6
 542 008e 1443     		orrs	r4, r4, r2
 543 0090 AC60     		str	r4, [r5, #8]
 544 0092 09B0     		add	sp, sp, #36
 545              		@ sp needed
 546 0094 F0BD     		pop	{r4, r5, r6, r7, pc}
 547              	.L106:
 548 0096 00BF     		.align	2
 549              	.L105:
 550 0098 00380240 		.word	1073887232
 551 009c 00080240 		.word	1073874944
 552 00a0 00000240 		.word	1073872896
 554              		.section	.text.HAL_RCC_EnableCSS,"ax",%progbits
 555              		.align	1
 556              		.p2align 2,,3
 557              		.global	HAL_RCC_EnableCSS
 558              		.syntax unified
 559              		.thumb
 560              		.thumb_func
 561              		.fpu fpv4-sp-d16
 563              	HAL_RCC_EnableCSS:
 564              		@ args = 0, pretend = 0, frame = 0
 565              		@ frame_needed = 0, uses_anonymous_args = 0
 566              		@ link register save eliminated.
 567 0000 014B     		ldr	r3, .L108
 568 0002 0122     		movs	r2, #1
 569 0004 1A60     		str	r2, [r3]
 570 0006 7047     		bx	lr
 571              	.L109:
 572              		.align	2
 573              	.L108:
 574 0008 4C004742 		.word	1111949388
 576              		.section	.text.HAL_RCC_DisableCSS,"ax",%progbits
 577              		.align	1
 578              		.p2align 2,,3
ARM GAS  /tmp/cc6xfLaq.s 			page 11


 579              		.global	HAL_RCC_DisableCSS
 580              		.syntax unified
 581              		.thumb
 582              		.thumb_func
 583              		.fpu fpv4-sp-d16
 585              	HAL_RCC_DisableCSS:
 586              		@ args = 0, pretend = 0, frame = 0
 587              		@ frame_needed = 0, uses_anonymous_args = 0
 588              		@ link register save eliminated.
 589 0000 014B     		ldr	r3, .L111
 590 0002 0022     		movs	r2, #0
 591 0004 1A60     		str	r2, [r3]
 592 0006 7047     		bx	lr
 593              	.L112:
 594              		.align	2
 595              	.L111:
 596 0008 4C004742 		.word	1111949388
 598              		.section	.text.HAL_RCC_GetSysClockFreq,"ax",%progbits
 599              		.align	1
 600              		.p2align 2,,3
 601              		.weak	HAL_RCC_GetSysClockFreq
 602              		.syntax unified
 603              		.thumb
 604              		.thumb_func
 605              		.fpu fpv4-sp-d16
 607              	HAL_RCC_GetSysClockFreq:
 608              		@ args = 0, pretend = 0, frame = 0
 609              		@ frame_needed = 0, uses_anonymous_args = 0
 610              		@ link register save eliminated.
 611 0000 194A     		ldr	r2, .L123
 612 0002 9368     		ldr	r3, [r2, #8]
 613 0004 03F00C03 		and	r3, r3, #12
 614 0008 042B     		cmp	r3, #4
 615 000a 2BD0     		beq	.L115
 616 000c 082B     		cmp	r3, #8
 617 000e 27D1     		bne	.L122
 618 0010 5168     		ldr	r1, [r2, #4]
 619 0012 5368     		ldr	r3, [r2, #4]
 620 0014 01F03F01 		and	r1, r1, #63
 621 0018 13F4800F 		tst	r3, #4194304
 622 001c 5368     		ldr	r3, [r2, #4]
 623 001e 47F6C072 		movw	r2, #32704
 624              		.syntax unified
 625              	@ 531 "Drivers/CMSIS/Include/cmsis_gcc.h" 1
 626 0022 92FAA2F0 		rbit r0, r2
 627              	@ 0 "" 2
 628              		.thumb
 629              		.syntax unified
 630 0026 B0FA80F0 		clz	r0, r0
 631 002a 03EA0203 		and	r3, r3, r2
 632 002e 23FA00F3 		lsr	r3, r3, r0
 633 0032 14BF     		ite	ne
 634 0034 0D48     		ldrne	r0, .L123+4
 635 0036 0E48     		ldreq	r0, .L123+8
 636 0038 B0FBF1F0 		udiv	r0, r0, r1
 637 003c 00FB03F0 		mul	r0, r0, r3
 638 0040 094B     		ldr	r3, .L123
ARM GAS  /tmp/cc6xfLaq.s 			page 12


 639 0042 4FF44032 		mov	r2, #196608
 640 0046 5B68     		ldr	r3, [r3, #4]
 641              		.syntax unified
 642              	@ 531 "Drivers/CMSIS/Include/cmsis_gcc.h" 1
 643 0048 92FAA2F2 		rbit r2, r2
 644              	@ 0 "" 2
 645              		.thumb
 646              		.syntax unified
 647 004c B2FA82F2 		clz	r2, r2
 648 0050 03F44033 		and	r3, r3, #196608
 649 0054 D340     		lsrs	r3, r3, r2
 650 0056 0133     		adds	r3, r3, #1
 651 0058 5B00     		lsls	r3, r3, #1
 652 005a B0FBF3F0 		udiv	r0, r0, r3
 653 005e 7047     		bx	lr
 654              	.L122:
 655 0060 0348     		ldr	r0, .L123+8
 656 0062 7047     		bx	lr
 657              	.L115:
 658 0064 0148     		ldr	r0, .L123+4
 659 0066 7047     		bx	lr
 660              	.L124:
 661              		.align	2
 662              	.L123:
 663 0068 00380240 		.word	1073887232
 664 006c 00127A00 		.word	8000000
 665 0070 0024F400 		.word	16000000
 667              		.section	.text.HAL_RCC_ClockConfig,"ax",%progbits
 668              		.align	1
 669              		.p2align 2,,3
 670              		.global	HAL_RCC_ClockConfig
 671              		.syntax unified
 672              		.thumb
 673              		.thumb_func
 674              		.fpu fpv4-sp-d16
 676              	HAL_RCC_ClockConfig:
 677              		@ args = 0, pretend = 0, frame = 0
 678              		@ frame_needed = 0, uses_anonymous_args = 0
 679 0000 574A     		ldr	r2, .L178
 680 0002 1368     		ldr	r3, [r2]
 681 0004 03F00F03 		and	r3, r3, #15
 682 0008 8B42     		cmp	r3, r1
 683 000a 08D2     		bcs	.L129
 684 000c CBB2     		uxtb	r3, r1
 685 000e 1370     		strb	r3, [r2]
 686 0010 1368     		ldr	r3, [r2]
 687 0012 03F00F03 		and	r3, r3, #15
 688 0016 9942     		cmp	r1, r3
 689 0018 01D0     		beq	.L129
 690 001a 0120     		movs	r0, #1
 691 001c 7047     		bx	lr
 692              	.L129:
 693 001e 0368     		ldr	r3, [r0]
 694 0020 9A07     		lsls	r2, r3, #30
 695 0022 2DE9F041 		push	{r4, r5, r6, r7, r8, lr}
 696 0026 06D5     		bpl	.L128
 697 0028 4E4C     		ldr	r4, .L178+4
ARM GAS  /tmp/cc6xfLaq.s 			page 13


 698 002a 8568     		ldr	r5, [r0, #8]
 699 002c A268     		ldr	r2, [r4, #8]
 700 002e 22F0F002 		bic	r2, r2, #240
 701 0032 2A43     		orrs	r2, r2, r5
 702 0034 A260     		str	r2, [r4, #8]
 703              	.L128:
 704 0036 DF07     		lsls	r7, r3, #31
 705 0038 0646     		mov	r6, r0
 706 003a 0C46     		mov	r4, r1
 707 003c 26D5     		bpl	.L141
 708 003e 4268     		ldr	r2, [r0, #4]
 709 0040 012A     		cmp	r2, #1
 710 0042 00F08780 		beq	.L176
 711 0046 931E     		subs	r3, r2, #2
 712 0048 012B     		cmp	r3, #1
 713 004a 464B     		ldr	r3, .L178+4
 714 004c 1B68     		ldr	r3, [r3]
 715 004e 7BD9     		bls	.L177
 716 0050 9907     		lsls	r1, r3, #30
 717 0052 28D5     		bpl	.L135
 718              	.L136:
 719 0054 434D     		ldr	r5, .L178+4
 720 0056 AB68     		ldr	r3, [r5, #8]
 721 0058 23F00303 		bic	r3, r3, #3
 722 005c 1343     		orrs	r3, r3, r2
 723 005e AB60     		str	r3, [r5, #8]
 724 0060 FFF7FEFF 		bl	HAL_GetTick
 725 0064 7368     		ldr	r3, [r6, #4]
 726 0066 012B     		cmp	r3, #1
 727 0068 0746     		mov	r7, r0
 728 006a 41F28838 		movw	r8, #5000
 729 006e 4FD0     		beq	.L138
 730 0070 022B     		cmp	r3, #2
 731 0072 58D0     		beq	.L142
 732 0074 032B     		cmp	r3, #3
 733 0076 05D1     		bne	.L147
 734 0078 60E0     		b	.L146
 735              	.L149:
 736 007a FFF7FEFF 		bl	HAL_GetTick
 737 007e C01B     		subs	r0, r0, r7
 738 0080 4045     		cmp	r0, r8
 739 0082 64D8     		bhi	.L144
 740              	.L147:
 741 0084 AB68     		ldr	r3, [r5, #8]
 742 0086 13F00C0F 		tst	r3, #12
 743 008a F6D1     		bne	.L149
 744              	.L141:
 745 008c 344A     		ldr	r2, .L178
 746 008e 1368     		ldr	r3, [r2]
 747 0090 03F00F03 		and	r3, r3, #15
 748 0094 9C42     		cmp	r4, r3
 749 0096 09D2     		bcs	.L133
 750 0098 E3B2     		uxtb	r3, r4
 751 009a 1370     		strb	r3, [r2]
 752 009c 1368     		ldr	r3, [r2]
 753 009e 03F00F03 		and	r3, r3, #15
 754 00a2 9C42     		cmp	r4, r3
ARM GAS  /tmp/cc6xfLaq.s 			page 14


 755 00a4 02D0     		beq	.L133
 756              	.L135:
 757 00a6 0120     		movs	r0, #1
 758 00a8 BDE8F081 		pop	{r4, r5, r6, r7, r8, pc}
 759              	.L133:
 760 00ac 3368     		ldr	r3, [r6]
 761 00ae 5A07     		lsls	r2, r3, #29
 762 00b0 06D5     		bpl	.L151
 763 00b2 2C49     		ldr	r1, .L178+4
 764 00b4 F068     		ldr	r0, [r6, #12]
 765 00b6 8A68     		ldr	r2, [r1, #8]
 766 00b8 22F4E052 		bic	r2, r2, #7168
 767 00bc 0243     		orrs	r2, r2, r0
 768 00be 8A60     		str	r2, [r1, #8]
 769              	.L151:
 770 00c0 1B07     		lsls	r3, r3, #28
 771 00c2 07D5     		bpl	.L152
 772 00c4 274A     		ldr	r2, .L178+4
 773 00c6 3169     		ldr	r1, [r6, #16]
 774 00c8 9368     		ldr	r3, [r2, #8]
 775 00ca 23F46043 		bic	r3, r3, #57344
 776 00ce 43EAC103 		orr	r3, r3, r1, lsl #3
 777 00d2 9360     		str	r3, [r2, #8]
 778              	.L152:
 779 00d4 FFF7FEFF 		bl	HAL_RCC_GetSysClockFreq
 780 00d8 224B     		ldr	r3, .L178+4
 781 00da 0146     		mov	r1, r0
 782 00dc F022     		movs	r2, #240
 783 00de 9B68     		ldr	r3, [r3, #8]
 784              		.syntax unified
 785              	@ 531 "Drivers/CMSIS/Include/cmsis_gcc.h" 1
 786 00e0 92FAA2F2 		rbit r2, r2
 787              	@ 0 "" 2
 788              		.thumb
 789              		.syntax unified
 790 00e4 B2FA82F2 		clz	r2, r2
 791 00e8 03F0F003 		and	r3, r3, #240
 792 00ec D340     		lsrs	r3, r3, r2
 793 00ee 1E48     		ldr	r0, .L178+8
 794 00f0 1E4A     		ldr	r2, .L178+12
 795 00f2 C35C     		ldrb	r3, [r0, r3]	@ zero_extendqisi2
 796 00f4 0020     		movs	r0, #0
 797 00f6 21FA03F3 		lsr	r3, r1, r3
 798 00fa 1360     		str	r3, [r2]
 799 00fc FFF7FEFF 		bl	HAL_InitTick
 800 0100 0020     		movs	r0, #0
 801 0102 BDE8F081 		pop	{r4, r5, r6, r7, r8, pc}
 802              	.L140:
 803 0106 FFF7FEFF 		bl	HAL_GetTick
 804 010a C01B     		subs	r0, r0, r7
 805 010c 4045     		cmp	r0, r8
 806 010e 1ED8     		bhi	.L144
 807              	.L138:
 808 0110 AB68     		ldr	r3, [r5, #8]
 809 0112 03F00C03 		and	r3, r3, #12
 810 0116 042B     		cmp	r3, #4
 811 0118 F5D1     		bne	.L140
ARM GAS  /tmp/cc6xfLaq.s 			page 15


 812 011a B7E7     		b	.L141
 813              	.L145:
 814 011c FFF7FEFF 		bl	HAL_GetTick
 815 0120 C01B     		subs	r0, r0, r7
 816 0122 4045     		cmp	r0, r8
 817 0124 13D8     		bhi	.L144
 818              	.L142:
 819 0126 AB68     		ldr	r3, [r5, #8]
 820 0128 03F00C03 		and	r3, r3, #12
 821 012c 082B     		cmp	r3, #8
 822 012e F5D1     		bne	.L145
 823 0130 ACE7     		b	.L141
 824              	.L148:
 825 0132 FFF7FEFF 		bl	HAL_GetTick
 826 0136 C01B     		subs	r0, r0, r7
 827 0138 4045     		cmp	r0, r8
 828 013a 08D8     		bhi	.L144
 829              	.L146:
 830 013c AB68     		ldr	r3, [r5, #8]
 831 013e 03F00C03 		and	r3, r3, #12
 832 0142 0C2B     		cmp	r3, #12
 833 0144 F5D1     		bne	.L148
 834 0146 A1E7     		b	.L141
 835              	.L177:
 836 0148 9801     		lsls	r0, r3, #6
 837 014a 83D4     		bmi	.L136
 838 014c ABE7     		b	.L135
 839              	.L144:
 840 014e 0320     		movs	r0, #3
 841 0150 BDE8F081 		pop	{r4, r5, r6, r7, r8, pc}
 842              	.L176:
 843 0154 034B     		ldr	r3, .L178+4
 844 0156 1B68     		ldr	r3, [r3]
 845 0158 9D03     		lsls	r5, r3, #14
 846 015a 3FF57BAF 		bmi	.L136
 847 015e A2E7     		b	.L135
 848              	.L179:
 849              		.align	2
 850              	.L178:
 851 0160 003C0240 		.word	1073888256
 852 0164 00380240 		.word	1073887232
 853 0168 00000000 		.word	.LANCHOR0
 854 016c 00000000 		.word	SystemCoreClock
 856              		.section	.text.HAL_RCC_GetHCLKFreq,"ax",%progbits
 857              		.align	1
 858              		.p2align 2,,3
 859              		.global	HAL_RCC_GetHCLKFreq
 860              		.syntax unified
 861              		.thumb
 862              		.thumb_func
 863              		.fpu fpv4-sp-d16
 865              	HAL_RCC_GetHCLKFreq:
 866              		@ args = 0, pretend = 0, frame = 0
 867              		@ frame_needed = 0, uses_anonymous_args = 0
 868              		@ link register save eliminated.
 869 0000 014B     		ldr	r3, .L181
 870 0002 1868     		ldr	r0, [r3]
ARM GAS  /tmp/cc6xfLaq.s 			page 16


 871 0004 7047     		bx	lr
 872              	.L182:
 873 0006 00BF     		.align	2
 874              	.L181:
 875 0008 00000000 		.word	SystemCoreClock
 877              		.section	.text.HAL_RCC_GetPCLK1Freq,"ax",%progbits
 878              		.align	1
 879              		.p2align 2,,3
 880              		.global	HAL_RCC_GetPCLK1Freq
 881              		.syntax unified
 882              		.thumb
 883              		.thumb_func
 884              		.fpu fpv4-sp-d16
 886              	HAL_RCC_GetPCLK1Freq:
 887              		@ args = 0, pretend = 0, frame = 0
 888              		@ frame_needed = 0, uses_anonymous_args = 0
 889              		@ link register save eliminated.
 890 0000 084B     		ldr	r3, .L184
 891 0002 4FF4E052 		mov	r2, #7168
 892 0006 9B68     		ldr	r3, [r3, #8]
 893              		.syntax unified
 894              	@ 531 "Drivers/CMSIS/Include/cmsis_gcc.h" 1
 895 0008 92FAA2F2 		rbit r2, r2
 896              	@ 0 "" 2
 897              		.thumb
 898              		.syntax unified
 899 000c B2FA82F2 		clz	r2, r2
 900 0010 03F4E053 		and	r3, r3, #7168
 901 0014 D340     		lsrs	r3, r3, r2
 902 0016 0449     		ldr	r1, .L184+4
 903 0018 044A     		ldr	r2, .L184+8
 904 001a CB5C     		ldrb	r3, [r1, r3]	@ zero_extendqisi2
 905 001c 1068     		ldr	r0, [r2]
 906 001e D840     		lsrs	r0, r0, r3
 907 0020 7047     		bx	lr
 908              	.L185:
 909 0022 00BF     		.align	2
 910              	.L184:
 911 0024 00380240 		.word	1073887232
 912 0028 00000000 		.word	.LANCHOR0
 913 002c 00000000 		.word	SystemCoreClock
 915              		.section	.text.HAL_RCC_GetPCLK2Freq,"ax",%progbits
 916              		.align	1
 917              		.p2align 2,,3
 918              		.global	HAL_RCC_GetPCLK2Freq
 919              		.syntax unified
 920              		.thumb
 921              		.thumb_func
 922              		.fpu fpv4-sp-d16
 924              	HAL_RCC_GetPCLK2Freq:
 925              		@ args = 0, pretend = 0, frame = 0
 926              		@ frame_needed = 0, uses_anonymous_args = 0
 927              		@ link register save eliminated.
 928 0000 084B     		ldr	r3, .L187
 929 0002 4FF46042 		mov	r2, #57344
 930 0006 9B68     		ldr	r3, [r3, #8]
 931              		.syntax unified
ARM GAS  /tmp/cc6xfLaq.s 			page 17


 932              	@ 531 "Drivers/CMSIS/Include/cmsis_gcc.h" 1
 933 0008 92FAA2F2 		rbit r2, r2
 934              	@ 0 "" 2
 935              		.thumb
 936              		.syntax unified
 937 000c B2FA82F2 		clz	r2, r2
 938 0010 03F46043 		and	r3, r3, #57344
 939 0014 D340     		lsrs	r3, r3, r2
 940 0016 0449     		ldr	r1, .L187+4
 941 0018 044A     		ldr	r2, .L187+8
 942 001a CB5C     		ldrb	r3, [r1, r3]	@ zero_extendqisi2
 943 001c 1068     		ldr	r0, [r2]
 944 001e D840     		lsrs	r0, r0, r3
 945 0020 7047     		bx	lr
 946              	.L188:
 947 0022 00BF     		.align	2
 948              	.L187:
 949 0024 00380240 		.word	1073887232
 950 0028 00000000 		.word	.LANCHOR0
 951 002c 00000000 		.word	SystemCoreClock
 953              		.section	.text.HAL_RCC_GetOscConfig,"ax",%progbits
 954              		.align	1
 955              		.p2align 2,,3
 956              		.weak	HAL_RCC_GetOscConfig
 957              		.syntax unified
 958              		.thumb
 959              		.thumb_func
 960              		.fpu fpv4-sp-d16
 962              	HAL_RCC_GetOscConfig:
 963              		@ args = 0, pretend = 0, frame = 0
 964              		@ frame_needed = 0, uses_anonymous_args = 0
 965              		@ link register save eliminated.
 966 0000 0F22     		movs	r2, #15
 967 0002 334B     		ldr	r3, .L199
 968 0004 0260     		str	r2, [r0]
 969 0006 1A68     		ldr	r2, [r3]
 970 0008 5203     		lsls	r2, r2, #13
 971 000a 10B4     		push	{r4}
 972 000c 50D5     		bpl	.L190
 973 000e 4FF4A023 		mov	r3, #327680
 974 0012 4360     		str	r3, [r0, #4]
 975              	.L191:
 976 0014 2E49     		ldr	r1, .L199
 977 0016 0B68     		ldr	r3, [r1]
 978 0018 03F00103 		and	r3, r3, #1
 979 001c C360     		str	r3, [r0, #12]
 980 001e 0B68     		ldr	r3, [r1]
 981 0020 F822     		movs	r2, #248
 982              		.syntax unified
 983              	@ 531 "Drivers/CMSIS/Include/cmsis_gcc.h" 1
 984 0022 92FAA2F2 		rbit r2, r2
 985              	@ 0 "" 2
 986              		.thumb
 987              		.syntax unified
 988 0026 B2FA82F2 		clz	r2, r2
 989 002a 03F0F803 		and	r3, r3, #248
 990 002e D340     		lsrs	r3, r3, r2
ARM GAS  /tmp/cc6xfLaq.s 			page 18


 991 0030 0361     		str	r3, [r0, #16]
 992 0032 0B6F     		ldr	r3, [r1, #112]
 993 0034 5B07     		lsls	r3, r3, #29
 994 0036 43D5     		bpl	.L193
 995 0038 0523     		movs	r3, #5
 996 003a 8360     		str	r3, [r0, #8]
 997              	.L194:
 998 003c 244A     		ldr	r2, .L199
 999 003e 536F     		ldr	r3, [r2, #116]
 1000 0040 03F00103 		and	r3, r3, #1
 1001 0044 4361     		str	r3, [r0, #20]
 1002 0046 1368     		ldr	r3, [r2]
 1003 0048 13F0807F 		tst	r3, #16777216
 1004 004c 14BF     		ite	ne
 1005 004e 0223     		movne	r3, #2
 1006 0050 0123     		moveq	r3, #1
 1007 0052 8361     		str	r3, [r0, #24]
 1008 0054 5368     		ldr	r3, [r2, #4]
 1009 0056 03F48003 		and	r3, r3, #4194304
 1010 005a C361     		str	r3, [r0, #28]
 1011 005c 5368     		ldr	r3, [r2, #4]
 1012 005e 03F03F03 		and	r3, r3, #63
 1013 0062 0362     		str	r3, [r0, #32]
 1014 0064 5368     		ldr	r3, [r2, #4]
 1015 0066 47F6C074 		movw	r4, #32704
 1016              		.syntax unified
 1017              	@ 531 "Drivers/CMSIS/Include/cmsis_gcc.h" 1
 1018 006a 94FAA4F1 		rbit r1, r4
 1019              	@ 0 "" 2
 1020              		.thumb
 1021              		.syntax unified
 1022 006e B1FA81F1 		clz	r1, r1
 1023 0072 2340     		ands	r3, r3, r4
 1024 0074 CB40     		lsrs	r3, r3, r1
 1025 0076 4362     		str	r3, [r0, #36]
 1026 0078 5368     		ldr	r3, [r2, #4]
 1027 007a 4FF44031 		mov	r1, #196608
 1028              		.syntax unified
 1029              	@ 531 "Drivers/CMSIS/Include/cmsis_gcc.h" 1
 1030 007e 91FAA1F1 		rbit r1, r1
 1031              	@ 0 "" 2
 1032              		.thumb
 1033              		.syntax unified
 1034 0082 03F44033 		and	r3, r3, #196608
 1035 0086 03F58033 		add	r3, r3, #65536
 1036 008a B1FA81F1 		clz	r1, r1
 1037 008e 5B00     		lsls	r3, r3, #1
 1038 0090 CB40     		lsrs	r3, r3, r1
 1039 0092 8362     		str	r3, [r0, #40]
 1040 0094 5368     		ldr	r3, [r2, #4]
 1041 0096 4FF07062 		mov	r2, #251658240
 1042              		.syntax unified
 1043              	@ 531 "Drivers/CMSIS/Include/cmsis_gcc.h" 1
 1044 009a 92FAA2F2 		rbit r2, r2
 1045              	@ 0 "" 2
 1046              		.thumb
 1047              		.syntax unified
ARM GAS  /tmp/cc6xfLaq.s 			page 19


 1048 009e B2FA82F2 		clz	r2, r2
 1049 00a2 03F07063 		and	r3, r3, #251658240
 1050 00a6 D340     		lsrs	r3, r3, r2
 1051 00a8 C362     		str	r3, [r0, #44]
 1052 00aa 5DF8044B 		ldr	r4, [sp], #4
 1053 00ae 7047     		bx	lr
 1054              	.L190:
 1055 00b0 1B68     		ldr	r3, [r3]
 1056 00b2 13F48033 		ands	r3, r3, #65536
 1057 00b6 18BF     		it	ne
 1058 00b8 4FF48033 		movne	r3, #65536
 1059 00bc 4360     		str	r3, [r0, #4]
 1060 00be A9E7     		b	.L191
 1061              	.L193:
 1062 00c0 0B6F     		ldr	r3, [r1, #112]
 1063 00c2 13F00103 		ands	r3, r3, #1
 1064 00c6 18BF     		it	ne
 1065 00c8 0123     		movne	r3, #1
 1066 00ca 8360     		str	r3, [r0, #8]
 1067 00cc B6E7     		b	.L194
 1068              	.L200:
 1069 00ce 00BF     		.align	2
 1070              	.L199:
 1071 00d0 00380240 		.word	1073887232
 1073              		.section	.text.HAL_RCC_GetClockConfig,"ax",%progbits
 1074              		.align	1
 1075              		.p2align 2,,3
 1076              		.global	HAL_RCC_GetClockConfig
 1077              		.syntax unified
 1078              		.thumb
 1079              		.thumb_func
 1080              		.fpu fpv4-sp-d16
 1082              	HAL_RCC_GetClockConfig:
 1083              		@ args = 0, pretend = 0, frame = 0
 1084              		@ frame_needed = 0, uses_anonymous_args = 0
 1085              		@ link register save eliminated.
 1086 0000 0E4B     		ldr	r3, .L203
 1087 0002 0F22     		movs	r2, #15
 1088 0004 0260     		str	r2, [r0]
 1089 0006 9A68     		ldr	r2, [r3, #8]
 1090 0008 02F00302 		and	r2, r2, #3
 1091 000c 4260     		str	r2, [r0, #4]
 1092 000e 9A68     		ldr	r2, [r3, #8]
 1093 0010 02F0F002 		and	r2, r2, #240
 1094 0014 8260     		str	r2, [r0, #8]
 1095 0016 9A68     		ldr	r2, [r3, #8]
 1096 0018 02F4E052 		and	r2, r2, #7168
 1097 001c C260     		str	r2, [r0, #12]
 1098 001e 9B68     		ldr	r3, [r3, #8]
 1099 0020 DB08     		lsrs	r3, r3, #3
 1100 0022 10B4     		push	{r4}
 1101 0024 03F4E053 		and	r3, r3, #7168
 1102 0028 054C     		ldr	r4, .L203+4
 1103 002a 0361     		str	r3, [r0, #16]
 1104 002c 2368     		ldr	r3, [r4]
 1105 002e 5DF8044B 		ldr	r4, [sp], #4
 1106 0032 03F00F03 		and	r3, r3, #15
ARM GAS  /tmp/cc6xfLaq.s 			page 20


 1107 0036 0B60     		str	r3, [r1]
 1108 0038 7047     		bx	lr
 1109              	.L204:
 1110 003a 00BF     		.align	2
 1111              	.L203:
 1112 003c 00380240 		.word	1073887232
 1113 0040 003C0240 		.word	1073888256
 1115              		.section	.text.HAL_RCC_CSSCallback,"ax",%progbits
 1116              		.align	1
 1117              		.p2align 2,,3
 1118              		.weak	HAL_RCC_CSSCallback
 1119              		.syntax unified
 1120              		.thumb
 1121              		.thumb_func
 1122              		.fpu fpv4-sp-d16
 1124              	HAL_RCC_CSSCallback:
 1125              		@ args = 0, pretend = 0, frame = 0
 1126              		@ frame_needed = 0, uses_anonymous_args = 0
 1127              		@ link register save eliminated.
 1128 0000 7047     		bx	lr
 1130 0002 00BF     		.section	.text.HAL_RCC_NMI_IRQHandler,"ax",%progbits
 1131              		.align	1
 1132              		.p2align 2,,3
 1133              		.global	HAL_RCC_NMI_IRQHandler
 1134              		.syntax unified
 1135              		.thumb
 1136              		.thumb_func
 1137              		.fpu fpv4-sp-d16
 1139              	HAL_RCC_NMI_IRQHandler:
 1140              		@ args = 0, pretend = 0, frame = 0
 1141              		@ frame_needed = 0, uses_anonymous_args = 0
 1142 0000 08B5     		push	{r3, lr}
 1143 0002 054B     		ldr	r3, .L212
 1144 0004 DB68     		ldr	r3, [r3, #12]
 1145 0006 1B06     		lsls	r3, r3, #24
 1146 0008 04D5     		bpl	.L206
 1147 000a FFF7FEFF 		bl	HAL_RCC_CSSCallback
 1148 000e 034B     		ldr	r3, .L212+4
 1149 0010 8022     		movs	r2, #128
 1150 0012 1A70     		strb	r2, [r3]
 1151              	.L206:
 1152 0014 08BD     		pop	{r3, pc}
 1153              	.L213:
 1154 0016 00BF     		.align	2
 1155              	.L212:
 1156 0018 00380240 		.word	1073887232
 1157 001c 0E380240 		.word	1073887246
 1159              		.global	APBAHBPrescTable
 1160              		.section	.rodata.APBAHBPrescTable,"a",%progbits
 1161              		.align	2
 1162              		.set	.LANCHOR0,. + 0
 1165              	APBAHBPrescTable:
 1166 0000 00       		.byte	0
 1167 0001 00       		.byte	0
 1168 0002 00       		.byte	0
 1169 0003 00       		.byte	0
 1170 0004 01       		.byte	1
ARM GAS  /tmp/cc6xfLaq.s 			page 21


 1171 0005 02       		.byte	2
 1172 0006 03       		.byte	3
 1173 0007 04       		.byte	4
 1174 0008 01       		.byte	1
 1175 0009 02       		.byte	2
 1176 000a 03       		.byte	3
 1177 000b 04       		.byte	4
 1178 000c 06       		.byte	6
 1179 000d 07       		.byte	7
 1180 000e 08       		.byte	8
 1181 000f 09       		.byte	9
 1182              		.ident	"GCC: (Arch Repository) 6.3.0"
ARM GAS  /tmp/cc6xfLaq.s 			page 22

