ARM GAS  /tmp/ccJf0m7E.s 			page 1


   1              		.cpu cortex-m4
   2              		.eabi_attribute 27, 1
   3              		.eabi_attribute 28, 1
   4              		.eabi_attribute 23, 1
   5              		.eabi_attribute 24, 1
   6              		.eabi_attribute 25, 1
   7              		.eabi_attribute 26, 1
   8              		.eabi_attribute 30, 2
   9              		.eabi_attribute 34, 1
  10              		.eabi_attribute 18, 4
  11              		.file	"stm32f4xx_hal_rcc_ex.c"
  12              		.section	.text.HAL_RCC_DeInit,"ax",%progbits
  13              		.align	1
  14              		.p2align 2,,3
  15              		.global	HAL_RCC_DeInit
  16              		.syntax unified
  17              		.thumb
  18              		.thumb_func
  19              		.fpu fpv4-sp-d16
  21              	HAL_RCC_DeInit:
  22              		@ args = 0, pretend = 0, frame = 0
  23              		@ frame_needed = 0, uses_anonymous_args = 0
  24              		@ link register save eliminated.
  25 0000 134B     		ldr	r3, .L3
  26 0002 1448     		ldr	r0, .L3+4
  27 0004 1A68     		ldr	r2, [r3]
  28 0006 0021     		movs	r1, #0
  29 0008 42F08102 		orr	r2, r2, #129
  30 000c 30B4     		push	{r4, r5}
  31 000e 1A60     		str	r2, [r3]
  32 0010 9960     		str	r1, [r3, #8]
  33 0012 1A68     		ldr	r2, [r3]
  34 0014 104C     		ldr	r4, .L3+8
  35 0016 114D     		ldr	r5, .L3+12
  36 0018 22F0A162 		bic	r2, r2, #84410368
  37 001c 22F48032 		bic	r2, r2, #65536
  38 0020 1A60     		str	r2, [r3]
  39 0022 5960     		str	r1, [r3, #4]
  40 0024 5A68     		ldr	r2, [r3, #4]
  41 0026 1043     		orrs	r0, r0, r2
  42 0028 5860     		str	r0, [r3, #4]
  43 002a C3F88410 		str	r1, [r3, #132]
  44 002e D3F88420 		ldr	r2, [r3, #132]
  45 0032 42F00052 		orr	r2, r2, #536870912
  46 0036 42F44052 		orr	r2, r2, #12288
  47 003a C3F88420 		str	r2, [r3, #132]
  48 003e 1A68     		ldr	r2, [r3]
  49 0040 22F48022 		bic	r2, r2, #262144
  50 0044 1A60     		str	r2, [r3]
  51 0046 D960     		str	r1, [r3, #12]
  52 0048 2560     		str	r5, [r4]
  53 004a 30BC     		pop	{r4, r5}
  54 004c 7047     		bx	lr
  55              	.L4:
  56 004e 00BF     		.align	2
  57              	.L3:
  58 0050 00380240 		.word	1073887232
ARM GAS  /tmp/ccJf0m7E.s 			page 2


  59 0054 10300004 		.word	67121168
  60 0058 00000000 		.word	SystemCoreClock
  61 005c 0024F400 		.word	16000000
  63              		.section	.text.HAL_RCCEx_PeriphCLKConfig,"ax",%progbits
  64              		.align	1
  65              		.p2align 2,,3
  66              		.global	HAL_RCCEx_PeriphCLKConfig
  67              		.syntax unified
  68              		.thumb
  69              		.thumb_func
  70              		.fpu fpv4-sp-d16
  72              	HAL_RCCEx_PeriphCLKConfig:
  73              		@ args = 0, pretend = 0, frame = 8
  74              		@ frame_needed = 0, uses_anonymous_args = 0
  75 0000 F0B5     		push	{r4, r5, r6, r7, lr}
  76 0002 0546     		mov	r5, r0
  77 0004 0068     		ldr	r0, [r0]
  78 0006 C207     		lsls	r2, r0, #31
  79 0008 83B0     		sub	sp, sp, #12
  80 000a 0AD4     		bmi	.L34
  81              	.L6:
  82 000c 8407     		lsls	r4, r0, #30
  83 000e 4FD4     		bmi	.L35
  84              	.L13:
  85 0010 10F00800 		ands	r0, r0, #8
  86 0014 03D0     		beq	.L8
  87 0016 4F4B     		ldr	r3, .L38
  88 0018 2A7C     		ldrb	r2, [r5, #16]	@ zero_extendqisi2
  89 001a 1A60     		str	r2, [r3]
  90 001c 0020     		movs	r0, #0
  91              	.L8:
  92 001e 03B0     		add	sp, sp, #12
  93              		@ sp needed
  94 0020 F0BD     		pop	{r4, r5, r6, r7, pc}
  95              	.L34:
  96 0022 4D4B     		ldr	r3, .L38+4
  97 0024 4D4C     		ldr	r4, .L38+8
  98 0026 0022     		movs	r2, #0
  99 0028 1A60     		str	r2, [r3]
 100 002a FFF7FEFF 		bl	HAL_GetTick
 101 002e 0646     		mov	r6, r0
 102 0030 04E0     		b	.L7
 103              	.L9:
 104 0032 FFF7FEFF 		bl	HAL_GetTick
 105 0036 801B     		subs	r0, r0, r6
 106 0038 0228     		cmp	r0, #2
 107 003a 36D8     		bhi	.L11
 108              	.L7:
 109 003c 2368     		ldr	r3, [r4]
 110 003e 1B01     		lsls	r3, r3, #4
 111 0040 F7D4     		bmi	.L9
 112 0042 47F6C073 		movw	r3, #32704
 113              		.syntax unified
 114              	@ 531 "Drivers/CMSIS/Include/cmsis_gcc.h" 1
 115 0046 93FAA3F3 		rbit r3, r3
 116              	@ 0 "" 2
 117              		.thumb
ARM GAS  /tmp/ccJf0m7E.s 			page 3


 118              		.syntax unified
 119 004a 4FF0E041 		mov	r1, #1879048192
 120 004e B3FA83F2 		clz	r2, r3
 121              		.syntax unified
 122              	@ 531 "Drivers/CMSIS/Include/cmsis_gcc.h" 1
 123 0052 91FAA1F1 		rbit r1, r1
 124              	@ 0 "" 2
 125              		.thumb
 126              		.syntax unified
 127 0056 A868     		ldr	r0, [r5, #8]
 128 0058 6B68     		ldr	r3, [r5, #4]
 129 005a 3F4F     		ldr	r7, .L38+4
 130 005c 3F4E     		ldr	r6, .L38+8
 131 005e B1FA81F1 		clz	r1, r1
 132 0062 00FA01F1 		lsl	r1, r0, r1
 133 0066 9340     		lsls	r3, r3, r2
 134 0068 0B43     		orrs	r3, r3, r1
 135 006a 0122     		movs	r2, #1
 136 006c C4F88430 		str	r3, [r4, #132]
 137 0070 3A60     		str	r2, [r7]
 138 0072 FFF7FEFF 		bl	HAL_GetTick
 139 0076 0446     		mov	r4, r0
 140 0078 04E0     		b	.L10
 141              	.L12:
 142 007a FFF7FEFF 		bl	HAL_GetTick
 143 007e 001B     		subs	r0, r0, r4
 144 0080 0228     		cmp	r0, #2
 145 0082 12D8     		bhi	.L11
 146              	.L10:
 147 0084 3368     		ldr	r3, [r6]
 148 0086 1F01     		lsls	r7, r3, #4
 149 0088 F7D5     		bpl	.L12
 150 008a 2868     		ldr	r0, [r5]
 151 008c BEE7     		b	.L6
 152              	.L36:
 153 008e 0C46     		mov	r4, r1
 154 0090 FFF7FEFF 		bl	HAL_GetTick
 155 0094 41F28836 		movw	r6, #5000
 156 0098 0746     		mov	r7, r0
 157              	.L19:
 158 009a 236F     		ldr	r3, [r4, #112]
 159 009c 9B07     		lsls	r3, r3, #30
 160 009e 3AD4     		bmi	.L32
 161 00a0 FFF7FEFF 		bl	HAL_GetTick
 162 00a4 C01B     		subs	r0, r0, r7
 163 00a6 B042     		cmp	r0, r6
 164 00a8 F7D9     		bls	.L19
 165              	.L11:
 166 00aa 0320     		movs	r0, #3
 167 00ac 03B0     		add	sp, sp, #12
 168              		@ sp needed
 169 00ae F0BD     		pop	{r4, r5, r6, r7, pc}
 170              	.L35:
 171 00b0 2A4B     		ldr	r3, .L38+8
 172 00b2 2B4C     		ldr	r4, .L38+12
 173 00b4 0022     		movs	r2, #0
 174 00b6 0192     		str	r2, [sp, #4]
ARM GAS  /tmp/ccJf0m7E.s 			page 4


 175 00b8 1A6C     		ldr	r2, [r3, #64]
 176 00ba 42F08052 		orr	r2, r2, #268435456
 177 00be 1A64     		str	r2, [r3, #64]
 178 00c0 1B6C     		ldr	r3, [r3, #64]
 179 00c2 03F08053 		and	r3, r3, #268435456
 180 00c6 0193     		str	r3, [sp, #4]
 181 00c8 019B     		ldr	r3, [sp, #4]
 182 00ca 2368     		ldr	r3, [r4]
 183 00cc 43F48073 		orr	r3, r3, #256
 184 00d0 2360     		str	r3, [r4]
 185 00d2 FFF7FEFF 		bl	HAL_GetTick
 186 00d6 0646     		mov	r6, r0
 187 00d8 04E0     		b	.L14
 188              	.L15:
 189 00da FFF7FEFF 		bl	HAL_GetTick
 190 00de 801B     		subs	r0, r0, r6
 191 00e0 0228     		cmp	r0, #2
 192 00e2 E2D8     		bhi	.L11
 193              	.L14:
 194 00e4 2368     		ldr	r3, [r4]
 195 00e6 D905     		lsls	r1, r3, #23
 196 00e8 F7D5     		bpl	.L15
 197 00ea 1C49     		ldr	r1, .L38+8
 198 00ec EB68     		ldr	r3, [r5, #12]
 199 00ee 0A6F     		ldr	r2, [r1, #112]
 200 00f0 12F44072 		ands	r2, r2, #768
 201 00f4 03F44070 		and	r0, r3, #768
 202 00f8 10D0     		beq	.L17
 203 00fa 8242     		cmp	r2, r0
 204 00fc 0ED0     		beq	.L17
 205 00fe 0B6F     		ldr	r3, [r1, #112]
 206 0100 184A     		ldr	r2, .L38+16
 207 0102 23F44073 		bic	r3, r3, #768
 208 0106 0124     		movs	r4, #1
 209 0108 0020     		movs	r0, #0
 210 010a 1460     		str	r4, [r2]
 211 010c 1060     		str	r0, [r2]
 212 010e 0B67     		str	r3, [r1, #112]
 213 0110 0B6F     		ldr	r3, [r1, #112]
 214 0112 DA07     		lsls	r2, r3, #31
 215 0114 BBD4     		bmi	.L36
 216              	.L32:
 217 0116 EB68     		ldr	r3, [r5, #12]
 218 0118 03F44070 		and	r0, r3, #768
 219              	.L17:
 220 011c B0F5407F 		cmp	r0, #768
 221 0120 0CD0     		beq	.L37
 222 0122 0E49     		ldr	r1, .L38+8
 223 0124 8A68     		ldr	r2, [r1, #8]
 224 0126 22F4F812 		bic	r2, r2, #2031616
 225 012a 8A60     		str	r2, [r1, #8]
 226              	.L22:
 227 012c 0B4A     		ldr	r2, .L38+8
 228 012e 116F     		ldr	r1, [r2, #112]
 229 0130 C3F30B03 		ubfx	r3, r3, #0, #12
 230 0134 0B43     		orrs	r3, r3, r1
 231 0136 1367     		str	r3, [r2, #112]
ARM GAS  /tmp/ccJf0m7E.s 			page 5


 232 0138 2868     		ldr	r0, [r5]
 233 013a 69E7     		b	.L13
 234              	.L37:
 235 013c 0748     		ldr	r0, .L38+8
 236 013e 8268     		ldr	r2, [r0, #8]
 237 0140 23F07041 		bic	r1, r3, #-268435456
 238 0144 22F4F812 		bic	r2, r2, #2031616
 239 0148 21F44071 		bic	r1, r1, #768
 240 014c 0A43     		orrs	r2, r2, r1
 241 014e 8260     		str	r2, [r0, #8]
 242 0150 ECE7     		b	.L22
 243              	.L39:
 244 0152 00BF     		.align	2
 245              	.L38:
 246 0154 E0114742 		.word	1111953888
 247 0158 68004742 		.word	1111949416
 248 015c 00380240 		.word	1073887232
 249 0160 00700040 		.word	1073770496
 250 0164 400E4742 		.word	1111952960
 252              		.section	.text.HAL_RCCEx_GetPeriphCLKConfig,"ax",%progbits
 253              		.align	1
 254              		.p2align 2,,3
 255              		.global	HAL_RCCEx_GetPeriphCLKConfig
 256              		.syntax unified
 257              		.thumb
 258              		.thumb_func
 259              		.fpu fpv4-sp-d16
 261              	HAL_RCCEx_GetPeriphCLKConfig:
 262              		@ args = 0, pretend = 0, frame = 0
 263              		@ frame_needed = 0, uses_anonymous_args = 0
 264              		@ link register save eliminated.
 265 0000 0322     		movs	r2, #3
 266 0002 154B     		ldr	r3, .L42
 267 0004 0260     		str	r2, [r0]
 268 0006 10B4     		push	{r4}
 269 0008 D3F88420 		ldr	r2, [r3, #132]
 270 000c 47F6C074 		movw	r4, #32704
 271              		.syntax unified
 272              	@ 531 "Drivers/CMSIS/Include/cmsis_gcc.h" 1
 273 0010 94FAA4F1 		rbit r1, r4
 274              	@ 0 "" 2
 275              		.thumb
 276              		.syntax unified
 277 0014 B1FA81F1 		clz	r1, r1
 278 0018 2240     		ands	r2, r2, r4
 279 001a CA40     		lsrs	r2, r2, r1
 280 001c 4260     		str	r2, [r0, #4]
 281 001e D3F88420 		ldr	r2, [r3, #132]
 282 0022 4FF0E041 		mov	r1, #1879048192
 283              		.syntax unified
 284              	@ 531 "Drivers/CMSIS/Include/cmsis_gcc.h" 1
 285 0026 91FAA1F1 		rbit r1, r1
 286              	@ 0 "" 2
 287              		.thumb
 288              		.syntax unified
 289 002a B1FA81F1 		clz	r1, r1
 290 002e 02F0E042 		and	r2, r2, #1879048192
ARM GAS  /tmp/ccJf0m7E.s 			page 6


 291 0032 CA40     		lsrs	r2, r2, r1
 292 0034 8260     		str	r2, [r0, #8]
 293 0036 9A68     		ldr	r2, [r3, #8]
 294 0038 196F     		ldr	r1, [r3, #112]
 295 003a 5DF8044B 		ldr	r4, [sp], #4
 296 003e 02F4F812 		and	r2, r2, #2031616
 297 0042 01F44071 		and	r1, r1, #768
 298 0046 0A43     		orrs	r2, r2, r1
 299 0048 C260     		str	r2, [r0, #12]
 300 004a D3F88C30 		ldr	r3, [r3, #140]
 301 004e C3F30063 		ubfx	r3, r3, #24, #1
 302 0052 0374     		strb	r3, [r0, #16]
 303 0054 7047     		bx	lr
 304              	.L43:
 305 0056 00BF     		.align	2
 306              	.L42:
 307 0058 00380240 		.word	1073887232
 309              		.ident	"GCC: (Arch Repository) 6.3.0"
ARM GAS  /tmp/ccJf0m7E.s 			page 7

