ARM GAS  /tmp/ccZCXmgY.s 			page 1


   1              		.cpu cortex-m4
   2              		.eabi_attribute 27, 1
   3              		.eabi_attribute 28, 1
   4              		.eabi_attribute 23, 1
   5              		.eabi_attribute 24, 1
   6              		.eabi_attribute 25, 1
   7              		.eabi_attribute 26, 1
   8              		.eabi_attribute 30, 2
   9              		.eabi_attribute 34, 1
  10              		.eabi_attribute 18, 4
  11              		.file	"stm32f4xx_ll_sdmmc.c"
  12              		.section	.text.SDIO_Init,"ax",%progbits
  13              		.align	1
  14              		.p2align 2,,3
  15              		.global	SDIO_Init
  16              		.syntax unified
  17              		.thumb
  18              		.thumb_func
  19              		.fpu fpv4-sp-d16
  21              	SDIO_Init:
  22              		@ args = 28, pretend = 16, frame = 0
  23              		@ frame_needed = 0, uses_anonymous_args = 0
  24              		@ link register save eliminated.
  25 0000 84B0     		sub	sp, sp, #16
  26 0002 70B4     		push	{r4, r5, r6}
  27 0004 04AC     		add	r4, sp, #16
  28 0006 84E80E00 		stm	r4, {r1, r2, r3}
  29 000a 059E     		ldr	r6, [sp, #20]
  30 000c 069A     		ldr	r2, [sp, #24]
  31 000e 079D     		ldr	r5, [sp, #28]
  32 0010 089C     		ldr	r4, [sp, #32]
  33 0012 0B46     		mov	r3, r1
  34 0014 3343     		orrs	r3, r3, r6
  35 0016 1343     		orrs	r3, r3, r2
  36 0018 2B43     		orrs	r3, r3, r5
  37 001a 4268     		ldr	r2, [r0, #4]
  38 001c 0999     		ldr	r1, [sp, #36]
  39 001e 2343     		orrs	r3, r3, r4
  40 0020 70BC     		pop	{r4, r5, r6}
  41 0022 22F4FD42 		bic	r2, r2, #32384
  42 0026 0B43     		orrs	r3, r3, r1
  43 0028 22F07F02 		bic	r2, r2, #127
  44 002c 1343     		orrs	r3, r3, r2
  45 002e 4360     		str	r3, [r0, #4]
  46 0030 04B0     		add	sp, sp, #16
  47 0032 0020     		movs	r0, #0
  48 0034 7047     		bx	lr
  50 0036 00BF     		.section	.text.SDIO_ReadFIFO,"ax",%progbits
  51              		.align	1
  52              		.p2align 2,,3
  53              		.global	SDIO_ReadFIFO
  54              		.syntax unified
  55              		.thumb
  56              		.thumb_func
  57              		.fpu fpv4-sp-d16
  59              	SDIO_ReadFIFO:
  60              		@ args = 0, pretend = 0, frame = 0
ARM GAS  /tmp/ccZCXmgY.s 			page 2


  61              		@ frame_needed = 0, uses_anonymous_args = 0
  62              		@ link register save eliminated.
  63 0000 D0F88000 		ldr	r0, [r0, #128]
  64 0004 7047     		bx	lr
  66 0006 00BF     		.section	.text.SDIO_WriteFIFO,"ax",%progbits
  67              		.align	1
  68              		.p2align 2,,3
  69              		.global	SDIO_WriteFIFO
  70              		.syntax unified
  71              		.thumb
  72              		.thumb_func
  73              		.fpu fpv4-sp-d16
  75              	SDIO_WriteFIFO:
  76              		@ args = 0, pretend = 0, frame = 0
  77              		@ frame_needed = 0, uses_anonymous_args = 0
  78              		@ link register save eliminated.
  79 0000 0B68     		ldr	r3, [r1]
  80 0002 C0F88030 		str	r3, [r0, #128]
  81 0006 0020     		movs	r0, #0
  82 0008 7047     		bx	lr
  84 000a 00BF     		.section	.text.SDIO_PowerState_ON,"ax",%progbits
  85              		.align	1
  86              		.p2align 2,,3
  87              		.global	SDIO_PowerState_ON
  88              		.syntax unified
  89              		.thumb
  90              		.thumb_func
  91              		.fpu fpv4-sp-d16
  93              	SDIO_PowerState_ON:
  94              		@ args = 0, pretend = 0, frame = 0
  95              		@ frame_needed = 0, uses_anonymous_args = 0
  96              		@ link register save eliminated.
  97 0000 0323     		movs	r3, #3
  98 0002 0360     		str	r3, [r0]
  99 0004 0020     		movs	r0, #0
 100 0006 7047     		bx	lr
 102              		.section	.text.SDIO_PowerState_OFF,"ax",%progbits
 103              		.align	1
 104              		.p2align 2,,3
 105              		.global	SDIO_PowerState_OFF
 106              		.syntax unified
 107              		.thumb
 108              		.thumb_func
 109              		.fpu fpv4-sp-d16
 111              	SDIO_PowerState_OFF:
 112              		@ args = 0, pretend = 0, frame = 0
 113              		@ frame_needed = 0, uses_anonymous_args = 0
 114              		@ link register save eliminated.
 115 0000 0023     		movs	r3, #0
 116 0002 0360     		str	r3, [r0]
 117 0004 1846     		mov	r0, r3
 118 0006 7047     		bx	lr
 120              		.section	.text.SDIO_GetPowerState,"ax",%progbits
 121              		.align	1
 122              		.p2align 2,,3
 123              		.global	SDIO_GetPowerState
 124              		.syntax unified
ARM GAS  /tmp/ccZCXmgY.s 			page 3


 125              		.thumb
 126              		.thumb_func
 127              		.fpu fpv4-sp-d16
 129              	SDIO_GetPowerState:
 130              		@ args = 0, pretend = 0, frame = 0
 131              		@ frame_needed = 0, uses_anonymous_args = 0
 132              		@ link register save eliminated.
 133 0000 0068     		ldr	r0, [r0]
 134 0002 00F00300 		and	r0, r0, #3
 135 0006 7047     		bx	lr
 137              		.section	.text.SDIO_SendCommand,"ax",%progbits
 138              		.align	1
 139              		.p2align 2,,3
 140              		.global	SDIO_SendCommand
 141              		.syntax unified
 142              		.thumb
 143              		.thumb_func
 144              		.fpu fpv4-sp-d16
 146              	SDIO_SendCommand:
 147              		@ args = 0, pretend = 0, frame = 0
 148              		@ frame_needed = 0, uses_anonymous_args = 0
 149              		@ link register save eliminated.
 150 0000 0B68     		ldr	r3, [r1]
 151 0002 30B4     		push	{r4, r5}
 152 0004 8360     		str	r3, [r0, #8]
 153 0006 8D68     		ldr	r5, [r1, #8]
 154 0008 4B68     		ldr	r3, [r1, #4]
 155 000a CC68     		ldr	r4, [r1, #12]
 156 000c C268     		ldr	r2, [r0, #12]
 157 000e 0969     		ldr	r1, [r1, #16]
 158 0010 2B43     		orrs	r3, r3, r5
 159 0012 2343     		orrs	r3, r3, r4
 160 0014 22F47F62 		bic	r2, r2, #4080
 161 0018 22F00F02 		bic	r2, r2, #15
 162 001c 0B43     		orrs	r3, r3, r1
 163 001e 1343     		orrs	r3, r3, r2
 164 0020 C360     		str	r3, [r0, #12]
 165 0022 30BC     		pop	{r4, r5}
 166 0024 0020     		movs	r0, #0
 167 0026 7047     		bx	lr
 169              		.section	.text.SDIO_GetCommandResponse,"ax",%progbits
 170              		.align	1
 171              		.p2align 2,,3
 172              		.global	SDIO_GetCommandResponse
 173              		.syntax unified
 174              		.thumb
 175              		.thumb_func
 176              		.fpu fpv4-sp-d16
 178              	SDIO_GetCommandResponse:
 179              		@ args = 0, pretend = 0, frame = 0
 180              		@ frame_needed = 0, uses_anonymous_args = 0
 181              		@ link register save eliminated.
 182 0000 0069     		ldr	r0, [r0, #16]
 183 0002 C0B2     		uxtb	r0, r0
 184 0004 7047     		bx	lr
 186 0006 00BF     		.section	.text.SDIO_GetResponse,"ax",%progbits
 187              		.align	1
ARM GAS  /tmp/ccZCXmgY.s 			page 4


 188              		.p2align 2,,3
 189              		.global	SDIO_GetResponse
 190              		.syntax unified
 191              		.thumb
 192              		.thumb_func
 193              		.fpu fpv4-sp-d16
 195              	SDIO_GetResponse:
 196              		@ args = 0, pretend = 0, frame = 8
 197              		@ frame_needed = 0, uses_anonymous_args = 0
 198              		@ link register save eliminated.
 199 0000 044B     		ldr	r3, .L13
 200 0002 82B0     		sub	sp, sp, #8
 201 0004 0344     		add	r3, r3, r0
 202 0006 0022     		movs	r2, #0
 203 0008 0192     		str	r2, [sp, #4]
 204 000a 0193     		str	r3, [sp, #4]
 205 000c 019B     		ldr	r3, [sp, #4]
 206 000e 1868     		ldr	r0, [r3]
 207 0010 02B0     		add	sp, sp, #8
 208              		@ sp needed
 209 0012 7047     		bx	lr
 210              	.L14:
 211              		.align	2
 212              	.L13:
 213 0014 142C0140 		.word	1073818644
 215              		.section	.text.SDIO_DataConfig,"ax",%progbits
 216              		.align	1
 217              		.p2align 2,,3
 218              		.global	SDIO_DataConfig
 219              		.syntax unified
 220              		.thumb
 221              		.thumb_func
 222              		.fpu fpv4-sp-d16
 224              	SDIO_DataConfig:
 225              		@ args = 0, pretend = 0, frame = 0
 226              		@ frame_needed = 0, uses_anonymous_args = 0
 227              		@ link register save eliminated.
 228 0000 0A1D     		adds	r2, r1, #4
 229 0002 30B4     		push	{r4, r5}
 230 0004 2CCA     		ldm	r2, {r2, r3, r5}
 231 0006 0C68     		ldr	r4, [r1]
 232 0008 4462     		str	r4, [r0, #36]
 233 000a 0C69     		ldr	r4, [r1, #16]
 234 000c 8262     		str	r2, [r0, #40]
 235 000e C26A     		ldr	r2, [r0, #44]
 236 0010 4969     		ldr	r1, [r1, #20]
 237 0012 2B43     		orrs	r3, r3, r5
 238 0014 2343     		orrs	r3, r3, r4
 239 0016 22F0F702 		bic	r2, r2, #247
 240 001a 0B43     		orrs	r3, r3, r1
 241 001c 1343     		orrs	r3, r3, r2
 242 001e C362     		str	r3, [r0, #44]
 243 0020 30BC     		pop	{r4, r5}
 244 0022 0020     		movs	r0, #0
 245 0024 7047     		bx	lr
 247 0026 00BF     		.section	.text.SDIO_GetDataCounter,"ax",%progbits
 248              		.align	1
ARM GAS  /tmp/ccZCXmgY.s 			page 5


 249              		.p2align 2,,3
 250              		.global	SDIO_GetDataCounter
 251              		.syntax unified
 252              		.thumb
 253              		.thumb_func
 254              		.fpu fpv4-sp-d16
 256              	SDIO_GetDataCounter:
 257              		@ args = 0, pretend = 0, frame = 0
 258              		@ frame_needed = 0, uses_anonymous_args = 0
 259              		@ link register save eliminated.
 260 0000 006B     		ldr	r0, [r0, #48]
 261 0002 7047     		bx	lr
 263              		.section	.text.SDIO_GetFIFOCount,"ax",%progbits
 264              		.align	1
 265              		.p2align 2,,3
 266              		.global	SDIO_GetFIFOCount
 267              		.syntax unified
 268              		.thumb
 269              		.thumb_func
 270              		.fpu fpv4-sp-d16
 272              	SDIO_GetFIFOCount:
 273              		@ args = 0, pretend = 0, frame = 0
 274              		@ frame_needed = 0, uses_anonymous_args = 0
 275              		@ link register save eliminated.
 276 0000 D0F88000 		ldr	r0, [r0, #128]
 277 0004 7047     		bx	lr
 279 0006 00BF     		.section	.text.SDIO_SetSDIOReadWaitMode,"ax",%progbits
 280              		.align	1
 281              		.p2align 2,,3
 282              		.global	SDIO_SetSDIOReadWaitMode
 283              		.syntax unified
 284              		.thumb
 285              		.thumb_func
 286              		.fpu fpv4-sp-d16
 288              	SDIO_SetSDIOReadWaitMode:
 289              		@ args = 0, pretend = 0, frame = 0
 290              		@ frame_needed = 0, uses_anonymous_args = 0
 291              		@ link register save eliminated.
 292 0000 014B     		ldr	r3, .L20
 293 0002 1860     		str	r0, [r3]
 294 0004 0020     		movs	r0, #0
 295 0006 7047     		bx	lr
 296              	.L21:
 297              		.align	2
 298              	.L20:
 299 0008 A8852542 		.word	1109755304
 301              		.ident	"GCC: (Arch Repository) 6.3.0"
ARM GAS  /tmp/ccZCXmgY.s 			page 6

