ARM GAS  /tmp/cc0JErtg.s 			page 1


   1              		.cpu cortex-m4
   2              		.eabi_attribute 27, 1
   3              		.eabi_attribute 28, 1
   4              		.eabi_attribute 23, 1
   5              		.eabi_attribute 24, 1
   6              		.eabi_attribute 25, 1
   7              		.eabi_attribute 26, 1
   8              		.eabi_attribute 30, 2
   9              		.eabi_attribute 34, 1
  10              		.eabi_attribute 18, 4
  11              		.file	"stm32f4xx_hal_pwr_ex.c"
  12              		.section	.text.HAL_PWREx_EnableBkUpReg,"ax",%progbits
  13              		.align	1
  14              		.p2align 2,,3
  15              		.global	HAL_PWREx_EnableBkUpReg
  16              		.syntax unified
  17              		.thumb
  18              		.thumb_func
  19              		.fpu fpv4-sp-d16
  21              	HAL_PWREx_EnableBkUpReg:
  22              		@ args = 0, pretend = 0, frame = 0
  23              		@ frame_needed = 0, uses_anonymous_args = 0
  24 0000 38B5     		push	{r3, r4, r5, lr}
  25 0002 4FF40072 		mov	r2, #512
  26              		.syntax unified
  27              	@ 531 "Drivers/CMSIS/Include/cmsis_gcc.h" 1
  28 0006 92FAA2F2 		rbit r2, r2
  29              	@ 0 "" 2
  30              		.thumb
  31              		.syntax unified
  32 000a 0C4B     		ldr	r3, .L8
  33 000c 0C4C     		ldr	r4, .L8+4
  34 000e B2FA82F2 		clz	r2, r2
  35 0012 1344     		add	r3, r3, r2
  36 0014 9B00     		lsls	r3, r3, #2
  37 0016 0122     		movs	r2, #1
  38 0018 1A60     		str	r2, [r3]
  39 001a FFF7FEFF 		bl	HAL_GetTick
  40 001e 0546     		mov	r5, r0
  41 0020 05E0     		b	.L2
  42              	.L4:
  43 0022 FFF7FEFF 		bl	HAL_GetTick
  44 0026 401B     		subs	r0, r0, r5
  45 0028 B0F57A7F 		cmp	r0, #1000
  46 002c 04D8     		bhi	.L5
  47              	.L2:
  48 002e 6368     		ldr	r3, [r4, #4]
  49 0030 1B07     		lsls	r3, r3, #28
  50 0032 F6D5     		bpl	.L4
  51 0034 0020     		movs	r0, #0
  52 0036 38BD     		pop	{r3, r4, r5, pc}
  53              	.L5:
  54 0038 0320     		movs	r0, #3
  55 003a 38BD     		pop	{r3, r4, r5, pc}
  56              	.L9:
  57              		.align	2
  58              	.L8:
ARM GAS  /tmp/cc0JErtg.s 			page 2


  59 003c 20808310 		.word	277053472
  60 0040 00700040 		.word	1073770496
  62              		.section	.text.HAL_PWREx_DisableBkUpReg,"ax",%progbits
  63              		.align	1
  64              		.p2align 2,,3
  65              		.global	HAL_PWREx_DisableBkUpReg
  66              		.syntax unified
  67              		.thumb
  68              		.thumb_func
  69              		.fpu fpv4-sp-d16
  71              	HAL_PWREx_DisableBkUpReg:
  72              		@ args = 0, pretend = 0, frame = 0
  73              		@ frame_needed = 0, uses_anonymous_args = 0
  74 0000 38B5     		push	{r3, r4, r5, lr}
  75 0002 4FF40072 		mov	r2, #512
  76              		.syntax unified
  77              	@ 531 "Drivers/CMSIS/Include/cmsis_gcc.h" 1
  78 0006 92FAA2F2 		rbit r2, r2
  79              	@ 0 "" 2
  80              		.thumb
  81              		.syntax unified
  82 000a 0C4B     		ldr	r3, .L16
  83 000c 0C4C     		ldr	r4, .L16+4
  84 000e B2FA82F2 		clz	r2, r2
  85 0012 1344     		add	r3, r3, r2
  86 0014 9B00     		lsls	r3, r3, #2
  87 0016 0022     		movs	r2, #0
  88 0018 1A60     		str	r2, [r3]
  89 001a FFF7FEFF 		bl	HAL_GetTick
  90 001e 0546     		mov	r5, r0
  91 0020 05E0     		b	.L11
  92              	.L13:
  93 0022 FFF7FEFF 		bl	HAL_GetTick
  94 0026 401B     		subs	r0, r0, r5
  95 0028 B0F57A7F 		cmp	r0, #1000
  96 002c 04D8     		bhi	.L14
  97              	.L11:
  98 002e 6068     		ldr	r0, [r4, #4]
  99 0030 10F00800 		ands	r0, r0, #8
 100 0034 F5D1     		bne	.L13
 101 0036 38BD     		pop	{r3, r4, r5, pc}
 102              	.L14:
 103 0038 0320     		movs	r0, #3
 104 003a 38BD     		pop	{r3, r4, r5, pc}
 105              	.L17:
 106              		.align	2
 107              	.L16:
 108 003c 20808310 		.word	277053472
 109 0040 00700040 		.word	1073770496
 111              		.section	.text.HAL_PWREx_EnableFlashPowerDown,"ax",%progbits
 112              		.align	1
 113              		.p2align 2,,3
 114              		.global	HAL_PWREx_EnableFlashPowerDown
 115              		.syntax unified
 116              		.thumb
 117              		.thumb_func
 118              		.fpu fpv4-sp-d16
ARM GAS  /tmp/cc0JErtg.s 			page 3


 120              	HAL_PWREx_EnableFlashPowerDown:
 121              		@ args = 0, pretend = 0, frame = 0
 122              		@ frame_needed = 0, uses_anonymous_args = 0
 123              		@ link register save eliminated.
 124 0000 4FF40073 		mov	r3, #512
 125              		.syntax unified
 126              	@ 531 "Drivers/CMSIS/Include/cmsis_gcc.h" 1
 127 0004 93FAA3F3 		rbit r3, r3
 128              	@ 0 "" 2
 129              		.thumb
 130              		.syntax unified
 131 0008 B3FA83F3 		clz	r3, r3
 132 000c 03F18453 		add	r3, r3, #276824064
 133 0010 03F56033 		add	r3, r3, #229376
 134 0014 9B00     		lsls	r3, r3, #2
 135 0016 0122     		movs	r2, #1
 136 0018 1A60     		str	r2, [r3]
 137 001a 7047     		bx	lr
 139              		.section	.text.HAL_PWREx_DisableFlashPowerDown,"ax",%progbits
 140              		.align	1
 141              		.p2align 2,,3
 142              		.global	HAL_PWREx_DisableFlashPowerDown
 143              		.syntax unified
 144              		.thumb
 145              		.thumb_func
 146              		.fpu fpv4-sp-d16
 148              	HAL_PWREx_DisableFlashPowerDown:
 149              		@ args = 0, pretend = 0, frame = 0
 150              		@ frame_needed = 0, uses_anonymous_args = 0
 151              		@ link register save eliminated.
 152 0000 4FF40073 		mov	r3, #512
 153              		.syntax unified
 154              	@ 531 "Drivers/CMSIS/Include/cmsis_gcc.h" 1
 155 0004 93FAA3F3 		rbit r3, r3
 156              	@ 0 "" 2
 157              		.thumb
 158              		.syntax unified
 159 0008 B3FA83F3 		clz	r3, r3
 160 000c 03F18453 		add	r3, r3, #276824064
 161 0010 03F56033 		add	r3, r3, #229376
 162 0014 9B00     		lsls	r3, r3, #2
 163 0016 0022     		movs	r2, #0
 164 0018 1A60     		str	r2, [r3]
 165 001a 7047     		bx	lr
 167              		.section	.text.HAL_PWREx_GetVoltageRange,"ax",%progbits
 168              		.align	1
 169              		.p2align 2,,3
 170              		.global	HAL_PWREx_GetVoltageRange
 171              		.syntax unified
 172              		.thumb
 173              		.thumb_func
 174              		.fpu fpv4-sp-d16
 176              	HAL_PWREx_GetVoltageRange:
 177              		@ args = 0, pretend = 0, frame = 0
 178              		@ frame_needed = 0, uses_anonymous_args = 0
 179              		@ link register save eliminated.
 180 0000 024B     		ldr	r3, .L21
ARM GAS  /tmp/cc0JErtg.s 			page 4


 181 0002 1868     		ldr	r0, [r3]
 182 0004 00F44040 		and	r0, r0, #49152
 183 0008 7047     		bx	lr
 184              	.L22:
 185 000a 00BF     		.align	2
 186              	.L21:
 187 000c 00700040 		.word	1073770496
 189              		.section	.text.HAL_PWREx_ControlVoltageScaling,"ax",%progbits
 190              		.align	1
 191              		.p2align 2,,3
 192              		.global	HAL_PWREx_ControlVoltageScaling
 193              		.syntax unified
 194              		.thumb
 195              		.thumb_func
 196              		.fpu fpv4-sp-d16
 198              	HAL_PWREx_ControlVoltageScaling:
 199              		@ args = 0, pretend = 0, frame = 8
 200              		@ frame_needed = 0, uses_anonymous_args = 0
 201 0000 70B5     		push	{r4, r5, r6, lr}
 202 0002 82B0     		sub	sp, sp, #8
 203 0004 294C     		ldr	r4, .L35
 204 0006 0022     		movs	r2, #0
 205 0008 0092     		str	r2, [sp]
 206 000a 236C     		ldr	r3, [r4, #64]
 207 000c 43F08053 		orr	r3, r3, #268435456
 208 0010 2364     		str	r3, [r4, #64]
 209 0012 236C     		ldr	r3, [r4, #64]
 210 0014 03F08053 		and	r3, r3, #268435456
 211 0018 0093     		str	r3, [sp]
 212 001a 009B     		ldr	r3, [sp]
 213 001c A368     		ldr	r3, [r4, #8]
 214 001e 03F00C03 		and	r3, r3, #12
 215 0022 082B     		cmp	r3, #8
 216 0024 3ED0     		beq	.L32
 217 0026 224B     		ldr	r3, .L35+4
 218 0028 1A60     		str	r2, [r3]
 219 002a 0646     		mov	r6, r0
 220 002c FFF7FEFF 		bl	HAL_GetTick
 221 0030 0546     		mov	r5, r0
 222 0032 04E0     		b	.L25
 223              	.L26:
 224 0034 FFF7FEFF 		bl	HAL_GetTick
 225 0038 401B     		subs	r0, r0, r5
 226 003a 0228     		cmp	r0, #2
 227 003c 2FD8     		bhi	.L28
 228              	.L25:
 229 003e 2368     		ldr	r3, [r4]
 230 0040 13F00073 		ands	r3, r3, #33554432
 231 0044 F6D1     		bne	.L26
 232 0046 1B4A     		ldr	r2, .L35+8
 233 0048 0193     		str	r3, [sp, #4]
 234 004a 1368     		ldr	r3, [r2]
 235 004c 1849     		ldr	r1, .L35+4
 236 004e 174C     		ldr	r4, .L35
 237 0050 23F44043 		bic	r3, r3, #49152
 238 0054 1E43     		orrs	r6, r6, r3
 239 0056 1660     		str	r6, [r2]
ARM GAS  /tmp/cc0JErtg.s 			page 5


 240 0058 1368     		ldr	r3, [r2]
 241 005a 03F44043 		and	r3, r3, #49152
 242 005e 0193     		str	r3, [sp, #4]
 243 0060 0123     		movs	r3, #1
 244 0062 019A     		ldr	r2, [sp, #4]
 245 0064 0B60     		str	r3, [r1]
 246 0066 FFF7FEFF 		bl	HAL_GetTick
 247 006a 0546     		mov	r5, r0
 248 006c 04E0     		b	.L27
 249              	.L29:
 250 006e FFF7FEFF 		bl	HAL_GetTick
 251 0072 401B     		subs	r0, r0, r5
 252 0074 0228     		cmp	r0, #2
 253 0076 12D8     		bhi	.L28
 254              	.L27:
 255 0078 2368     		ldr	r3, [r4]
 256 007a 9A01     		lsls	r2, r3, #6
 257 007c F7D5     		bpl	.L29
 258 007e FFF7FEFF 		bl	HAL_GetTick
 259 0082 0C4C     		ldr	r4, .L35+8
 260 0084 0546     		mov	r5, r0
 261 0086 05E0     		b	.L30
 262              	.L31:
 263 0088 FFF7FEFF 		bl	HAL_GetTick
 264 008c 401B     		subs	r0, r0, r5
 265 008e B0F57A7F 		cmp	r0, #1000
 266 0092 04D8     		bhi	.L28
 267              	.L30:
 268 0094 6368     		ldr	r3, [r4, #4]
 269 0096 5B04     		lsls	r3, r3, #17
 270 0098 F6D5     		bpl	.L31
 271 009a 0020     		movs	r0, #0
 272 009c 00E0     		b	.L24
 273              	.L28:
 274 009e 0320     		movs	r0, #3
 275              	.L24:
 276 00a0 02B0     		add	sp, sp, #8
 277              		@ sp needed
 278 00a2 70BD     		pop	{r4, r5, r6, pc}
 279              	.L32:
 280 00a4 0120     		movs	r0, #1
 281 00a6 02B0     		add	sp, sp, #8
 282              		@ sp needed
 283 00a8 70BD     		pop	{r4, r5, r6, pc}
 284              	.L36:
 285 00aa 00BF     		.align	2
 286              	.L35:
 287 00ac 00380240 		.word	1073887232
 288 00b0 60004742 		.word	1111949408
 289 00b4 00700040 		.word	1073770496
 291              		.section	.text.HAL_PWREx_EnableMainRegulatorLowVoltage,"ax",%progbits
 292              		.align	1
 293              		.p2align 2,,3
 294              		.global	HAL_PWREx_EnableMainRegulatorLowVoltage
 295              		.syntax unified
 296              		.thumb
 297              		.thumb_func
ARM GAS  /tmp/cc0JErtg.s 			page 6


 298              		.fpu fpv4-sp-d16
 300              	HAL_PWREx_EnableMainRegulatorLowVoltage:
 301              		@ args = 0, pretend = 0, frame = 0
 302              		@ frame_needed = 0, uses_anonymous_args = 0
 303              		@ link register save eliminated.
 304 0000 4FF40063 		mov	r3, #2048
 305              		.syntax unified
 306              	@ 531 "Drivers/CMSIS/Include/cmsis_gcc.h" 1
 307 0004 93FAA3F3 		rbit r3, r3
 308              	@ 0 "" 2
 309              		.thumb
 310              		.syntax unified
 311 0008 B3FA83F3 		clz	r3, r3
 312 000c 03F18453 		add	r3, r3, #276824064
 313 0010 03F56033 		add	r3, r3, #229376
 314 0014 9B00     		lsls	r3, r3, #2
 315 0016 0122     		movs	r2, #1
 316 0018 1A60     		str	r2, [r3]
 317 001a 7047     		bx	lr
 319              		.section	.text.HAL_PWREx_DisableMainRegulatorLowVoltage,"ax",%progbits
 320              		.align	1
 321              		.p2align 2,,3
 322              		.global	HAL_PWREx_DisableMainRegulatorLowVoltage
 323              		.syntax unified
 324              		.thumb
 325              		.thumb_func
 326              		.fpu fpv4-sp-d16
 328              	HAL_PWREx_DisableMainRegulatorLowVoltage:
 329              		@ args = 0, pretend = 0, frame = 0
 330              		@ frame_needed = 0, uses_anonymous_args = 0
 331              		@ link register save eliminated.
 332 0000 4FF40063 		mov	r3, #2048
 333              		.syntax unified
 334              	@ 531 "Drivers/CMSIS/Include/cmsis_gcc.h" 1
 335 0004 93FAA3F3 		rbit r3, r3
 336              	@ 0 "" 2
 337              		.thumb
 338              		.syntax unified
 339 0008 B3FA83F3 		clz	r3, r3
 340 000c 03F18453 		add	r3, r3, #276824064
 341 0010 03F56033 		add	r3, r3, #229376
 342 0014 9B00     		lsls	r3, r3, #2
 343 0016 0022     		movs	r2, #0
 344 0018 1A60     		str	r2, [r3]
 345 001a 7047     		bx	lr
 347              		.section	.text.HAL_PWREx_EnableLowRegulatorLowVoltage,"ax",%progbits
 348              		.align	1
 349              		.p2align 2,,3
 350              		.global	HAL_PWREx_EnableLowRegulatorLowVoltage
 351              		.syntax unified
 352              		.thumb
 353              		.thumb_func
 354              		.fpu fpv4-sp-d16
 356              	HAL_PWREx_EnableLowRegulatorLowVoltage:
 357              		@ args = 0, pretend = 0, frame = 0
 358              		@ frame_needed = 0, uses_anonymous_args = 0
 359              		@ link register save eliminated.
ARM GAS  /tmp/cc0JErtg.s 			page 7


 360 0000 4FF48063 		mov	r3, #1024
 361              		.syntax unified
 362              	@ 531 "Drivers/CMSIS/Include/cmsis_gcc.h" 1
 363 0004 93FAA3F3 		rbit r3, r3
 364              	@ 0 "" 2
 365              		.thumb
 366              		.syntax unified
 367 0008 B3FA83F3 		clz	r3, r3
 368 000c 03F18453 		add	r3, r3, #276824064
 369 0010 03F56033 		add	r3, r3, #229376
 370 0014 9B00     		lsls	r3, r3, #2
 371 0016 0122     		movs	r2, #1
 372 0018 1A60     		str	r2, [r3]
 373 001a 7047     		bx	lr
 375              		.section	.text.HAL_PWREx_DisableLowRegulatorLowVoltage,"ax",%progbits
 376              		.align	1
 377              		.p2align 2,,3
 378              		.global	HAL_PWREx_DisableLowRegulatorLowVoltage
 379              		.syntax unified
 380              		.thumb
 381              		.thumb_func
 382              		.fpu fpv4-sp-d16
 384              	HAL_PWREx_DisableLowRegulatorLowVoltage:
 385              		@ args = 0, pretend = 0, frame = 0
 386              		@ frame_needed = 0, uses_anonymous_args = 0
 387              		@ link register save eliminated.
 388 0000 4FF48063 		mov	r3, #1024
 389              		.syntax unified
 390              	@ 531 "Drivers/CMSIS/Include/cmsis_gcc.h" 1
 391 0004 93FAA3F3 		rbit r3, r3
 392              	@ 0 "" 2
 393              		.thumb
 394              		.syntax unified
 395 0008 B3FA83F3 		clz	r3, r3
 396 000c 03F18453 		add	r3, r3, #276824064
 397 0010 03F56033 		add	r3, r3, #229376
 398 0014 9B00     		lsls	r3, r3, #2
 399 0016 0022     		movs	r2, #0
 400 0018 1A60     		str	r2, [r3]
 401 001a 7047     		bx	lr
 403              		.ident	"GCC: (Arch Repository) 6.3.0"
ARM GAS  /tmp/cc0JErtg.s 			page 8

