ARM GAS  /tmp/ccph4WbR.s 			page 1


   1              		.cpu cortex-m4
   2              		.eabi_attribute 27, 1
   3              		.eabi_attribute 28, 1
   4              		.eabi_attribute 23, 1
   5              		.eabi_attribute 24, 1
   6              		.eabi_attribute 25, 1
   7              		.eabi_attribute 26, 1
   8              		.eabi_attribute 30, 2
   9              		.eabi_attribute 34, 1
  10              		.eabi_attribute 18, 4
  11              		.file	"stm32f4xx_hal.c"
  12              		.section	.text.HAL_MspInit,"ax",%progbits
  13              		.align	1
  14              		.p2align 2,,3
  15              		.weak	HAL_MspInit
  16              		.syntax unified
  17              		.thumb
  18              		.thumb_func
  19              		.fpu fpv4-sp-d16
  21              	HAL_MspInit:
  22              		@ args = 0, pretend = 0, frame = 0
  23              		@ frame_needed = 0, uses_anonymous_args = 0
  24              		@ link register save eliminated.
  25 0000 7047     		bx	lr
  27 0002 00BF     		.section	.text.HAL_MspDeInit,"ax",%progbits
  28              		.align	1
  29              		.p2align 2,,3
  30              		.weak	HAL_MspDeInit
  31              		.syntax unified
  32              		.thumb
  33              		.thumb_func
  34              		.fpu fpv4-sp-d16
  36              	HAL_MspDeInit:
  37              		@ args = 0, pretend = 0, frame = 0
  38              		@ frame_needed = 0, uses_anonymous_args = 0
  39              		@ link register save eliminated.
  40 0000 7047     		bx	lr
  42 0002 00BF     		.section	.text.HAL_DeInit,"ax",%progbits
  43              		.align	1
  44              		.p2align 2,,3
  45              		.global	HAL_DeInit
  46              		.syntax unified
  47              		.thumb
  48              		.thumb_func
  49              		.fpu fpv4-sp-d16
  51              	HAL_DeInit:
  52              		@ args = 0, pretend = 0, frame = 0
  53              		@ frame_needed = 0, uses_anonymous_args = 0
  54 0000 10B5     		push	{r4, lr}
  55 0002 094B     		ldr	r3, .L5
  56 0004 4FF0FF32 		mov	r2, #-1
  57 0008 0024     		movs	r4, #0
  58 000a 1A62     		str	r2, [r3, #32]
  59 000c 1C62     		str	r4, [r3, #32]
  60 000e 5A62     		str	r2, [r3, #36]
  61 0010 5C62     		str	r4, [r3, #36]
  62 0012 1A61     		str	r2, [r3, #16]
ARM GAS  /tmp/ccph4WbR.s 			page 2


  63 0014 1C61     		str	r4, [r3, #16]
  64 0016 5A61     		str	r2, [r3, #20]
  65 0018 5C61     		str	r4, [r3, #20]
  66 001a 9A61     		str	r2, [r3, #24]
  67 001c 9C61     		str	r4, [r3, #24]
  68 001e FFF7FEFF 		bl	HAL_MspDeInit
  69 0022 2046     		mov	r0, r4
  70 0024 10BD     		pop	{r4, pc}
  71              	.L6:
  72 0026 00BF     		.align	2
  73              	.L5:
  74 0028 00380240 		.word	1073887232
  76              		.section	.text.HAL_InitTick,"ax",%progbits
  77              		.align	1
  78              		.p2align 2,,3
  79              		.weak	HAL_InitTick
  80              		.syntax unified
  81              		.thumb
  82              		.thumb_func
  83              		.fpu fpv4-sp-d16
  85              	HAL_InitTick:
  86              		@ args = 0, pretend = 0, frame = 0
  87              		@ frame_needed = 0, uses_anonymous_args = 0
  88 0000 084B     		ldr	r3, .L9
  89 0002 094A     		ldr	r2, .L9+4
  90 0004 1B68     		ldr	r3, [r3]
  91 0006 10B5     		push	{r4, lr}
  92 0008 A2FB0323 		umull	r2, r3, r2, r3
  93 000c 0446     		mov	r4, r0
  94 000e 9809     		lsrs	r0, r3, #6
  95 0010 FFF7FEFF 		bl	HAL_SYSTICK_Config
  96 0014 2146     		mov	r1, r4
  97 0016 0022     		movs	r2, #0
  98 0018 4FF0FF30 		mov	r0, #-1
  99 001c FFF7FEFF 		bl	HAL_NVIC_SetPriority
 100 0020 0020     		movs	r0, #0
 101 0022 10BD     		pop	{r4, pc}
 102              	.L10:
 103              		.align	2
 104              	.L9:
 105 0024 00000000 		.word	SystemCoreClock
 106 0028 D34D6210 		.word	274877907
 108              		.section	.text.HAL_Init,"ax",%progbits
 109              		.align	1
 110              		.p2align 2,,3
 111              		.global	HAL_Init
 112              		.syntax unified
 113              		.thumb
 114              		.thumb_func
 115              		.fpu fpv4-sp-d16
 117              	HAL_Init:
 118              		@ args = 0, pretend = 0, frame = 0
 119              		@ frame_needed = 0, uses_anonymous_args = 0
 120 0000 08B5     		push	{r3, lr}
 121 0002 0B4B     		ldr	r3, .L13
 122 0004 1A68     		ldr	r2, [r3]
 123 0006 42F40072 		orr	r2, r2, #512
ARM GAS  /tmp/ccph4WbR.s 			page 3


 124 000a 1A60     		str	r2, [r3]
 125 000c 1A68     		ldr	r2, [r3]
 126 000e 42F48062 		orr	r2, r2, #1024
 127 0012 1A60     		str	r2, [r3]
 128 0014 1A68     		ldr	r2, [r3]
 129 0016 42F48072 		orr	r2, r2, #256
 130 001a 1A60     		str	r2, [r3]
 131 001c 0320     		movs	r0, #3
 132 001e FFF7FEFF 		bl	HAL_NVIC_SetPriorityGrouping
 133 0022 0020     		movs	r0, #0
 134 0024 FFF7FEFF 		bl	HAL_InitTick
 135 0028 FFF7FEFF 		bl	HAL_MspInit
 136 002c 0020     		movs	r0, #0
 137 002e 08BD     		pop	{r3, pc}
 138              	.L14:
 139              		.align	2
 140              	.L13:
 141 0030 003C0240 		.word	1073888256
 143              		.section	.text.HAL_IncTick,"ax",%progbits
 144              		.align	1
 145              		.p2align 2,,3
 146              		.weak	HAL_IncTick
 147              		.syntax unified
 148              		.thumb
 149              		.thumb_func
 150              		.fpu fpv4-sp-d16
 152              	HAL_IncTick:
 153              		@ args = 0, pretend = 0, frame = 0
 154              		@ frame_needed = 0, uses_anonymous_args = 0
 155              		@ link register save eliminated.
 156 0000 024A     		ldr	r2, .L16
 157 0002 1368     		ldr	r3, [r2]
 158 0004 0133     		adds	r3, r3, #1
 159 0006 1360     		str	r3, [r2]
 160 0008 7047     		bx	lr
 161              	.L17:
 162 000a 00BF     		.align	2
 163              	.L16:
 164 000c 00000000 		.word	uwTick
 166              		.section	.text.HAL_GetTick,"ax",%progbits
 167              		.align	1
 168              		.p2align 2,,3
 169              		.weak	HAL_GetTick
 170              		.syntax unified
 171              		.thumb
 172              		.thumb_func
 173              		.fpu fpv4-sp-d16
 175              	HAL_GetTick:
 176              		@ args = 0, pretend = 0, frame = 0
 177              		@ frame_needed = 0, uses_anonymous_args = 0
 178              		@ link register save eliminated.
 179 0000 014B     		ldr	r3, .L19
 180 0002 1868     		ldr	r0, [r3]
 181 0004 7047     		bx	lr
 182              	.L20:
 183 0006 00BF     		.align	2
 184              	.L19:
ARM GAS  /tmp/ccph4WbR.s 			page 4


 185 0008 00000000 		.word	uwTick
 187              		.section	.text.HAL_Delay,"ax",%progbits
 188              		.align	1
 189              		.p2align 2,,3
 190              		.weak	HAL_Delay
 191              		.syntax unified
 192              		.thumb
 193              		.thumb_func
 194              		.fpu fpv4-sp-d16
 196              	HAL_Delay:
 197              		@ args = 0, pretend = 0, frame = 8
 198              		@ frame_needed = 0, uses_anonymous_args = 0
 199 0000 10B5     		push	{r4, lr}
 200 0002 82B0     		sub	sp, sp, #8
 201 0004 0190     		str	r0, [sp, #4]
 202 0006 FFF7FEFF 		bl	HAL_GetTick
 203 000a 0446     		mov	r4, r0
 204              	.L22:
 205 000c FFF7FEFF 		bl	HAL_GetTick
 206 0010 019B     		ldr	r3, [sp, #4]
 207 0012 001B     		subs	r0, r0, r4
 208 0014 9842     		cmp	r0, r3
 209 0016 F9D3     		bcc	.L22
 210 0018 02B0     		add	sp, sp, #8
 211              		@ sp needed
 212 001a 10BD     		pop	{r4, pc}
 214              		.section	.text.HAL_SuspendTick,"ax",%progbits
 215              		.align	1
 216              		.p2align 2,,3
 217              		.weak	HAL_SuspendTick
 218              		.syntax unified
 219              		.thumb
 220              		.thumb_func
 221              		.fpu fpv4-sp-d16
 223              	HAL_SuspendTick:
 224              		@ args = 0, pretend = 0, frame = 0
 225              		@ frame_needed = 0, uses_anonymous_args = 0
 226              		@ link register save eliminated.
 227 0000 024A     		ldr	r2, .L27
 228 0002 1368     		ldr	r3, [r2]
 229 0004 23F00203 		bic	r3, r3, #2
 230 0008 1360     		str	r3, [r2]
 231 000a 7047     		bx	lr
 232              	.L28:
 233              		.align	2
 234              	.L27:
 235 000c 10E000E0 		.word	-536813552
 237              		.section	.text.HAL_ResumeTick,"ax",%progbits
 238              		.align	1
 239              		.p2align 2,,3
 240              		.weak	HAL_ResumeTick
 241              		.syntax unified
 242              		.thumb
 243              		.thumb_func
 244              		.fpu fpv4-sp-d16
 246              	HAL_ResumeTick:
 247              		@ args = 0, pretend = 0, frame = 0
ARM GAS  /tmp/ccph4WbR.s 			page 5


 248              		@ frame_needed = 0, uses_anonymous_args = 0
 249              		@ link register save eliminated.
 250 0000 024A     		ldr	r2, .L30
 251 0002 1368     		ldr	r3, [r2]
 252 0004 43F00203 		orr	r3, r3, #2
 253 0008 1360     		str	r3, [r2]
 254 000a 7047     		bx	lr
 255              	.L31:
 256              		.align	2
 257              	.L30:
 258 000c 10E000E0 		.word	-536813552
 260              		.section	.text.HAL_GetHalVersion,"ax",%progbits
 261              		.align	1
 262              		.p2align 2,,3
 263              		.global	HAL_GetHalVersion
 264              		.syntax unified
 265              		.thumb
 266              		.thumb_func
 267              		.fpu fpv4-sp-d16
 269              	HAL_GetHalVersion:
 270              		@ args = 0, pretend = 0, frame = 0
 271              		@ frame_needed = 0, uses_anonymous_args = 0
 272              		@ link register save eliminated.
 273 0000 4FF08370 		mov	r0, #17170432
 274 0004 7047     		bx	lr
 276 0006 00BF     		.section	.text.HAL_GetREVID,"ax",%progbits
 277              		.align	1
 278              		.p2align 2,,3
 279              		.global	HAL_GetREVID
 280              		.syntax unified
 281              		.thumb
 282              		.thumb_func
 283              		.fpu fpv4-sp-d16
 285              	HAL_GetREVID:
 286              		@ args = 0, pretend = 0, frame = 0
 287              		@ frame_needed = 0, uses_anonymous_args = 0
 288              		@ link register save eliminated.
 289 0000 014B     		ldr	r3, .L34
 290 0002 1868     		ldr	r0, [r3]
 291 0004 000C     		lsrs	r0, r0, #16
 292 0006 7047     		bx	lr
 293              	.L35:
 294              		.align	2
 295              	.L34:
 296 0008 002004E0 		.word	-536600576
 298              		.section	.text.HAL_GetDEVID,"ax",%progbits
 299              		.align	1
 300              		.p2align 2,,3
 301              		.global	HAL_GetDEVID
 302              		.syntax unified
 303              		.thumb
 304              		.thumb_func
 305              		.fpu fpv4-sp-d16
 307              	HAL_GetDEVID:
 308              		@ args = 0, pretend = 0, frame = 0
 309              		@ frame_needed = 0, uses_anonymous_args = 0
 310              		@ link register save eliminated.
ARM GAS  /tmp/ccph4WbR.s 			page 6


 311 0000 024B     		ldr	r3, .L37
 312 0002 1868     		ldr	r0, [r3]
 313 0004 C0F30B00 		ubfx	r0, r0, #0, #12
 314 0008 7047     		bx	lr
 315              	.L38:
 316 000a 00BF     		.align	2
 317              	.L37:
 318 000c 002004E0 		.word	-536600576
 320              		.section	.text.HAL_DBGMCU_EnableDBGSleepMode,"ax",%progbits
 321              		.align	1
 322              		.p2align 2,,3
 323              		.global	HAL_DBGMCU_EnableDBGSleepMode
 324              		.syntax unified
 325              		.thumb
 326              		.thumb_func
 327              		.fpu fpv4-sp-d16
 329              	HAL_DBGMCU_EnableDBGSleepMode:
 330              		@ args = 0, pretend = 0, frame = 0
 331              		@ frame_needed = 0, uses_anonymous_args = 0
 332              		@ link register save eliminated.
 333 0000 024A     		ldr	r2, .L40
 334 0002 5368     		ldr	r3, [r2, #4]
 335 0004 43F00103 		orr	r3, r3, #1
 336 0008 5360     		str	r3, [r2, #4]
 337 000a 7047     		bx	lr
 338              	.L41:
 339              		.align	2
 340              	.L40:
 341 000c 002004E0 		.word	-536600576
 343              		.section	.text.HAL_DBGMCU_DisableDBGSleepMode,"ax",%progbits
 344              		.align	1
 345              		.p2align 2,,3
 346              		.global	HAL_DBGMCU_DisableDBGSleepMode
 347              		.syntax unified
 348              		.thumb
 349              		.thumb_func
 350              		.fpu fpv4-sp-d16
 352              	HAL_DBGMCU_DisableDBGSleepMode:
 353              		@ args = 0, pretend = 0, frame = 0
 354              		@ frame_needed = 0, uses_anonymous_args = 0
 355              		@ link register save eliminated.
 356 0000 024A     		ldr	r2, .L43
 357 0002 5368     		ldr	r3, [r2, #4]
 358 0004 23F00103 		bic	r3, r3, #1
 359 0008 5360     		str	r3, [r2, #4]
 360 000a 7047     		bx	lr
 361              	.L44:
 362              		.align	2
 363              	.L43:
 364 000c 002004E0 		.word	-536600576
 366              		.section	.text.HAL_DBGMCU_EnableDBGStopMode,"ax",%progbits
 367              		.align	1
 368              		.p2align 2,,3
 369              		.global	HAL_DBGMCU_EnableDBGStopMode
 370              		.syntax unified
 371              		.thumb
 372              		.thumb_func
ARM GAS  /tmp/ccph4WbR.s 			page 7


 373              		.fpu fpv4-sp-d16
 375              	HAL_DBGMCU_EnableDBGStopMode:
 376              		@ args = 0, pretend = 0, frame = 0
 377              		@ frame_needed = 0, uses_anonymous_args = 0
 378              		@ link register save eliminated.
 379 0000 024A     		ldr	r2, .L46
 380 0002 5368     		ldr	r3, [r2, #4]
 381 0004 43F00203 		orr	r3, r3, #2
 382 0008 5360     		str	r3, [r2, #4]
 383 000a 7047     		bx	lr
 384              	.L47:
 385              		.align	2
 386              	.L46:
 387 000c 002004E0 		.word	-536600576
 389              		.section	.text.HAL_DBGMCU_DisableDBGStopMode,"ax",%progbits
 390              		.align	1
 391              		.p2align 2,,3
 392              		.global	HAL_DBGMCU_DisableDBGStopMode
 393              		.syntax unified
 394              		.thumb
 395              		.thumb_func
 396              		.fpu fpv4-sp-d16
 398              	HAL_DBGMCU_DisableDBGStopMode:
 399              		@ args = 0, pretend = 0, frame = 0
 400              		@ frame_needed = 0, uses_anonymous_args = 0
 401              		@ link register save eliminated.
 402 0000 024A     		ldr	r2, .L49
 403 0002 5368     		ldr	r3, [r2, #4]
 404 0004 23F00203 		bic	r3, r3, #2
 405 0008 5360     		str	r3, [r2, #4]
 406 000a 7047     		bx	lr
 407              	.L50:
 408              		.align	2
 409              	.L49:
 410 000c 002004E0 		.word	-536600576
 412              		.section	.text.HAL_DBGMCU_EnableDBGStandbyMode,"ax",%progbits
 413              		.align	1
 414              		.p2align 2,,3
 415              		.global	HAL_DBGMCU_EnableDBGStandbyMode
 416              		.syntax unified
 417              		.thumb
 418              		.thumb_func
 419              		.fpu fpv4-sp-d16
 421              	HAL_DBGMCU_EnableDBGStandbyMode:
 422              		@ args = 0, pretend = 0, frame = 0
 423              		@ frame_needed = 0, uses_anonymous_args = 0
 424              		@ link register save eliminated.
 425 0000 024A     		ldr	r2, .L52
 426 0002 5368     		ldr	r3, [r2, #4]
 427 0004 43F00403 		orr	r3, r3, #4
 428 0008 5360     		str	r3, [r2, #4]
 429 000a 7047     		bx	lr
 430              	.L53:
 431              		.align	2
 432              	.L52:
 433 000c 002004E0 		.word	-536600576
 435              		.section	.text.HAL_DBGMCU_DisableDBGStandbyMode,"ax",%progbits
ARM GAS  /tmp/ccph4WbR.s 			page 8


 436              		.align	1
 437              		.p2align 2,,3
 438              		.global	HAL_DBGMCU_DisableDBGStandbyMode
 439              		.syntax unified
 440              		.thumb
 441              		.thumb_func
 442              		.fpu fpv4-sp-d16
 444              	HAL_DBGMCU_DisableDBGStandbyMode:
 445              		@ args = 0, pretend = 0, frame = 0
 446              		@ frame_needed = 0, uses_anonymous_args = 0
 447              		@ link register save eliminated.
 448 0000 024A     		ldr	r2, .L55
 449 0002 5368     		ldr	r3, [r2, #4]
 450 0004 23F00403 		bic	r3, r3, #4
 451 0008 5360     		str	r3, [r2, #4]
 452 000a 7047     		bx	lr
 453              	.L56:
 454              		.align	2
 455              	.L55:
 456 000c 002004E0 		.word	-536600576
 458              		.section	.text.HAL_EnableCompensationCell,"ax",%progbits
 459              		.align	1
 460              		.p2align 2,,3
 461              		.global	HAL_EnableCompensationCell
 462              		.syntax unified
 463              		.thumb
 464              		.thumb_func
 465              		.fpu fpv4-sp-d16
 467              	HAL_EnableCompensationCell:
 468              		@ args = 0, pretend = 0, frame = 0
 469              		@ frame_needed = 0, uses_anonymous_args = 0
 470              		@ link register save eliminated.
 471 0000 0121     		movs	r1, #1
 472              		.syntax unified
 473              	@ 531 "Drivers/CMSIS/Include/cmsis_gcc.h" 1
 474 0002 91FAA1F2 		rbit r2, r1
 475              	@ 0 "" 2
 476              		.thumb
 477              		.syntax unified
 478 0006 034B     		ldr	r3, .L58
 479 0008 B2FA82F2 		clz	r2, r2
 480 000c 1344     		add	r3, r3, r2
 481 000e 9B00     		lsls	r3, r3, #2
 482 0010 1960     		str	r1, [r3]
 483 0012 7047     		bx	lr
 484              	.L59:
 485              		.align	2
 486              	.L58:
 487 0014 00C18910 		.word	277463296
 489              		.section	.text.HAL_DisableCompensationCell,"ax",%progbits
 490              		.align	1
 491              		.p2align 2,,3
 492              		.global	HAL_DisableCompensationCell
 493              		.syntax unified
 494              		.thumb
 495              		.thumb_func
 496              		.fpu fpv4-sp-d16
ARM GAS  /tmp/ccph4WbR.s 			page 9


 498              	HAL_DisableCompensationCell:
 499              		@ args = 0, pretend = 0, frame = 0
 500              		@ frame_needed = 0, uses_anonymous_args = 0
 501              		@ link register save eliminated.
 502 0000 0122     		movs	r2, #1
 503              		.syntax unified
 504              	@ 531 "Drivers/CMSIS/Include/cmsis_gcc.h" 1
 505 0002 92FAA2F2 		rbit r2, r2
 506              	@ 0 "" 2
 507              		.thumb
 508              		.syntax unified
 509 0006 044B     		ldr	r3, .L61
 510 0008 B2FA82F2 		clz	r2, r2
 511 000c 1344     		add	r3, r3, r2
 512 000e 9B00     		lsls	r3, r3, #2
 513 0010 0022     		movs	r2, #0
 514 0012 1A60     		str	r2, [r3]
 515 0014 7047     		bx	lr
 516              	.L62:
 517 0016 00BF     		.align	2
 518              	.L61:
 519 0018 00C18910 		.word	277463296
 521              		.comm	uwTick,4,4
 522              		.ident	"GCC: (Arch Repository) 6.3.0"
ARM GAS  /tmp/ccph4WbR.s 			page 10

