ARM GAS  /tmp/cc8aNER9.s 			page 1


   1              		.cpu cortex-m4
   2              		.eabi_attribute 27, 1
   3              		.eabi_attribute 28, 1
   4              		.eabi_attribute 23, 1
   5              		.eabi_attribute 24, 1
   6              		.eabi_attribute 25, 1
   7              		.eabi_attribute 26, 1
   8              		.eabi_attribute 30, 2
   9              		.eabi_attribute 34, 1
  10              		.eabi_attribute 18, 4
  11              		.file	"stm32f4xx_it.c"
  12              		.section	.text.NMI_Handler,"ax",%progbits
  13              		.align	1
  14              		.p2align 2,,3
  15              		.global	NMI_Handler
  16              		.syntax unified
  17              		.thumb
  18              		.thumb_func
  19              		.fpu fpv4-sp-d16
  21              	NMI_Handler:
  22              		@ args = 0, pretend = 0, frame = 0
  23              		@ frame_needed = 0, uses_anonymous_args = 0
  24              		@ link register save eliminated.
  25 0000 7047     		bx	lr
  27 0002 00BF     		.section	.text.HardFault_Handler,"ax",%progbits
  28              		.align	1
  29              		.p2align 2,,3
  30              		.global	HardFault_Handler
  31              		.syntax unified
  32              		.thumb
  33              		.thumb_func
  34              		.fpu fpv4-sp-d16
  36              	HardFault_Handler:
  37              		@ Volatile: function does not return.
  38              		@ args = 0, pretend = 0, frame = 0
  39              		@ frame_needed = 0, uses_anonymous_args = 0
  40              		@ link register save eliminated.
  41              	.L3:
  42 0000 FEE7     		b	.L3
  44 0002 00BF     		.section	.text.MemManage_Handler,"ax",%progbits
  45              		.align	1
  46              		.p2align 2,,3
  47              		.global	MemManage_Handler
  48              		.syntax unified
  49              		.thumb
  50              		.thumb_func
  51              		.fpu fpv4-sp-d16
  53              	MemManage_Handler:
  54              		@ Volatile: function does not return.
  55              		@ args = 0, pretend = 0, frame = 0
  56              		@ frame_needed = 0, uses_anonymous_args = 0
  57              		@ link register save eliminated.
  58              	.L5:
  59 0000 FEE7     		b	.L5
  61 0002 00BF     		.section	.text.BusFault_Handler,"ax",%progbits
  62              		.align	1
  63              		.p2align 2,,3
ARM GAS  /tmp/cc8aNER9.s 			page 2


  64              		.global	BusFault_Handler
  65              		.syntax unified
  66              		.thumb
  67              		.thumb_func
  68              		.fpu fpv4-sp-d16
  70              	BusFault_Handler:
  71              		@ Volatile: function does not return.
  72              		@ args = 0, pretend = 0, frame = 0
  73              		@ frame_needed = 0, uses_anonymous_args = 0
  74              		@ link register save eliminated.
  75              	.L7:
  76 0000 FEE7     		b	.L7
  78 0002 00BF     		.section	.text.UsageFault_Handler,"ax",%progbits
  79              		.align	1
  80              		.p2align 2,,3
  81              		.global	UsageFault_Handler
  82              		.syntax unified
  83              		.thumb
  84              		.thumb_func
  85              		.fpu fpv4-sp-d16
  87              	UsageFault_Handler:
  88              		@ Volatile: function does not return.
  89              		@ args = 0, pretend = 0, frame = 0
  90              		@ frame_needed = 0, uses_anonymous_args = 0
  91              		@ link register save eliminated.
  92              	.L9:
  93 0000 FEE7     		b	.L9
  95 0002 00BF     		.section	.text.SVC_Handler,"ax",%progbits
  96              		.align	1
  97              		.p2align 2,,3
  98              		.global	SVC_Handler
  99              		.syntax unified
 100              		.thumb
 101              		.thumb_func
 102              		.fpu fpv4-sp-d16
 104              	SVC_Handler:
 105              		@ args = 0, pretend = 0, frame = 0
 106              		@ frame_needed = 0, uses_anonymous_args = 0
 107              		@ link register save eliminated.
 108 0000 7047     		bx	lr
 110 0002 00BF     		.section	.text.DebugMon_Handler,"ax",%progbits
 111              		.align	1
 112              		.p2align 2,,3
 113              		.global	DebugMon_Handler
 114              		.syntax unified
 115              		.thumb
 116              		.thumb_func
 117              		.fpu fpv4-sp-d16
 119              	DebugMon_Handler:
 120              		@ args = 0, pretend = 0, frame = 0
 121              		@ frame_needed = 0, uses_anonymous_args = 0
 122              		@ link register save eliminated.
 123 0000 7047     		bx	lr
 125 0002 00BF     		.section	.text.PendSV_Handler,"ax",%progbits
 126              		.align	1
 127              		.p2align 2,,3
 128              		.global	PendSV_Handler
ARM GAS  /tmp/cc8aNER9.s 			page 3


 129              		.syntax unified
 130              		.thumb
 131              		.thumb_func
 132              		.fpu fpv4-sp-d16
 134              	PendSV_Handler:
 135              		@ args = 0, pretend = 0, frame = 0
 136              		@ frame_needed = 0, uses_anonymous_args = 0
 137              		@ link register save eliminated.
 138 0000 7047     		bx	lr
 140 0002 00BF     		.section	.text.SysTick_Handler,"ax",%progbits
 141              		.align	1
 142              		.p2align 2,,3
 143              		.global	SysTick_Handler
 144              		.syntax unified
 145              		.thumb
 146              		.thumb_func
 147              		.fpu fpv4-sp-d16
 149              	SysTick_Handler:
 150              		@ args = 0, pretend = 0, frame = 0
 151              		@ frame_needed = 0, uses_anonymous_args = 0
 152 0000 08B5     		push	{r3, lr}
 153 0002 FFF7FEFF 		bl	HAL_IncTick
 154 0006 BDE80840 		pop	{r3, lr}
 155 000a FFF7FEBF 		b	HAL_SYSTICK_IRQHandler
 157 000e 00BF     		.section	.text.USART1_IRQHandler,"ax",%progbits
 158              		.align	1
 159              		.p2align 2,,3
 160              		.global	USART1_IRQHandler
 161              		.syntax unified
 162              		.thumb
 163              		.thumb_func
 164              		.fpu fpv4-sp-d16
 166              	USART1_IRQHandler:
 167              		@ args = 0, pretend = 0, frame = 0
 168              		@ frame_needed = 0, uses_anonymous_args = 0
 169              		@ link register save eliminated.
 170 0000 0148     		ldr	r0, .L16
 171 0002 FFF7FEBF 		b	HAL_UART_IRQHandler
 172              	.L17:
 173 0006 00BF     		.align	2
 174              	.L16:
 175 0008 00000000 		.word	huart1
 177              		.section	.text.EXTI15_10_IRQHandler,"ax",%progbits
 178              		.align	1
 179              		.p2align 2,,3
 180              		.global	EXTI15_10_IRQHandler
 181              		.syntax unified
 182              		.thumb
 183              		.thumb_func
 184              		.fpu fpv4-sp-d16
 186              	EXTI15_10_IRQHandler:
 187              		@ args = 0, pretend = 0, frame = 0
 188              		@ frame_needed = 0, uses_anonymous_args = 0
 189 0000 08B5     		push	{r3, lr}
 190 0002 4FF48050 		mov	r0, #4096
 191 0006 FFF7FEFF 		bl	HAL_GPIO_EXTI_IRQHandler
 192 000a 4FF48040 		mov	r0, #16384
ARM GAS  /tmp/cc8aNER9.s 			page 4


 193 000e BDE80840 		pop	{r3, lr}
 194 0012 FFF7FEBF 		b	HAL_GPIO_EXTI_IRQHandler
 196 0016 00BF     		.section	.text.DMA2_Stream2_IRQHandler,"ax",%progbits
 197              		.align	1
 198              		.p2align 2,,3
 199              		.global	DMA2_Stream2_IRQHandler
 200              		.syntax unified
 201              		.thumb
 202              		.thumb_func
 203              		.fpu fpv4-sp-d16
 205              	DMA2_Stream2_IRQHandler:
 206              		@ args = 0, pretend = 0, frame = 0
 207              		@ frame_needed = 0, uses_anonymous_args = 0
 208              		@ link register save eliminated.
 209 0000 0148     		ldr	r0, .L21
 210 0002 FFF7FEBF 		b	HAL_DMA_IRQHandler
 211              	.L22:
 212 0006 00BF     		.align	2
 213              	.L21:
 214 0008 00000000 		.word	hdma_usart1_rx
 216              		.section	.text.DMA2_Stream3_IRQHandler,"ax",%progbits
 217              		.align	1
 218              		.p2align 2,,3
 219              		.global	DMA2_Stream3_IRQHandler
 220              		.syntax unified
 221              		.thumb
 222              		.thumb_func
 223              		.fpu fpv4-sp-d16
 225              	DMA2_Stream3_IRQHandler:
 226              		@ args = 0, pretend = 0, frame = 0
 227              		@ frame_needed = 0, uses_anonymous_args = 0
 228              		@ link register save eliminated.
 229 0000 0148     		ldr	r0, .L24
 230 0002 FFF7FEBF 		b	HAL_DMA_IRQHandler
 231              	.L25:
 232 0006 00BF     		.align	2
 233              	.L24:
 234 0008 00000000 		.word	hdma_spi1_tx
 236              		.ident	"GCC: (Arch Repository) 6.3.0"
ARM GAS  /tmp/cc8aNER9.s 			page 5

