ARM GAS  /tmp/ccfToQxt.s 			page 1


   1              		.cpu cortex-m4
   2              		.eabi_attribute 27, 1
   3              		.eabi_attribute 28, 1
   4              		.eabi_attribute 23, 1
   5              		.eabi_attribute 24, 1
   6              		.eabi_attribute 25, 1
   7              		.eabi_attribute 26, 1
   8              		.eabi_attribute 30, 2
   9              		.eabi_attribute 34, 1
  10              		.eabi_attribute 18, 4
  11              		.file	"stm32f4xx_hal_dma_ex.c"
  12              		.section	.text.HAL_DMAEx_MultiBufferStart,"ax",%progbits
  13              		.align	1
  14              		.p2align 2,,3
  15              		.global	HAL_DMAEx_MultiBufferStart
  16              		.syntax unified
  17              		.thumb
  18              		.thumb_func
  19              		.fpu fpv4-sp-d16
  21              	HAL_DMAEx_MultiBufferStart:
  22              		@ args = 4, pretend = 0, frame = 0
  23              		@ frame_needed = 0, uses_anonymous_args = 0
  24              		@ link register save eliminated.
  25 0000 70B4     		push	{r4, r5, r6}
  26 0002 8468     		ldr	r4, [r0, #8]
  27 0004 802C     		cmp	r4, #128
  28 0006 24D0     		beq	.L10
  29 0008 90F83450 		ldrb	r5, [r0, #52]	@ zero_extendqisi2
  30 000c 012D     		cmp	r5, #1
  31 000e 06D0     		beq	.L5
  32 0010 90F83550 		ldrb	r5, [r0, #53]	@ zero_extendqisi2
  33 0014 0126     		movs	r6, #1
  34 0016 B542     		cmp	r5, r6
  35 0018 80F83460 		strb	r6, [r0, #52]
  36 001c 02D0     		beq	.L11
  37              	.L5:
  38 001e 0220     		movs	r0, #2
  39              	.L3:
  40 0020 70BC     		pop	{r4, r5, r6}
  41 0022 7047     		bx	lr
  42              	.L11:
  43 0024 0568     		ldr	r5, [r0]
  44 0026 0226     		movs	r6, #2
  45 0028 80F83560 		strb	r6, [r0, #53]
  46 002c 2868     		ldr	r0, [r5]
  47 002e 40F48020 		orr	r0, r0, #262144
  48 0032 2860     		str	r0, [r5]
  49 0034 402C     		cmp	r4, #64
  50 0036 2B61     		str	r3, [r5, #16]
  51 0038 039B     		ldr	r3, [sp, #12]
  52 003a 6B60     		str	r3, [r5, #4]
  53 003c 0BBF     		itete	eq
  54 003e AA60     		streq	r2, [r5, #8]
  55 0040 A960     		strne	r1, [r5, #8]
  56 0042 E960     		streq	r1, [r5, #12]
  57 0044 EA60     		strne	r2, [r5, #12]
  58 0046 2B68     		ldr	r3, [r5]
ARM GAS  /tmp/ccfToQxt.s 			page 2


  59 0048 43F00103 		orr	r3, r3, #1
  60 004c 2B60     		str	r3, [r5]
  61 004e 0020     		movs	r0, #0
  62 0050 E6E7     		b	.L3
  63              	.L10:
  64 0052 4FF48073 		mov	r3, #256
  65 0056 4365     		str	r3, [r0, #84]
  66 0058 70BC     		pop	{r4, r5, r6}
  67 005a 0120     		movs	r0, #1
  68 005c 7047     		bx	lr
  70 005e 00BF     		.section	.text.HAL_DMAEx_MultiBufferStart_IT,"ax",%progbits
  71              		.align	1
  72              		.p2align 2,,3
  73              		.global	HAL_DMAEx_MultiBufferStart_IT
  74              		.syntax unified
  75              		.thumb
  76              		.thumb_func
  77              		.fpu fpv4-sp-d16
  79              	HAL_DMAEx_MultiBufferStart_IT:
  80              		@ args = 4, pretend = 0, frame = 0
  81              		@ frame_needed = 0, uses_anonymous_args = 0
  82              		@ link register save eliminated.
  83 0000 F0B4     		push	{r4, r5, r6, r7}
  84 0002 8468     		ldr	r4, [r0, #8]
  85 0004 802C     		cmp	r4, #128
  86 0006 1ED0     		beq	.L105
  87 0008 C56B     		ldr	r5, [r0, #60]
  88 000a BDB1     		cbz	r5, .L15
  89 000c 456C     		ldr	r5, [r0, #68]
  90 000e ADB1     		cbz	r5, .L15
  91 0010 C56C     		ldr	r5, [r0, #76]
  92 0012 9DB1     		cbz	r5, .L15
  93 0014 90F83450 		ldrb	r5, [r0, #52]	@ zero_extendqisi2
  94 0018 012D     		cmp	r5, #1
  95 001a 0CD0     		beq	.L71
  96 001c 90F83550 		ldrb	r5, [r0, #53]	@ zero_extendqisi2
  97 0020 0126     		movs	r6, #1
  98 0022 B542     		cmp	r5, r6
  99 0024 80F83460 		strb	r6, [r0, #52]
 100 0028 13D0     		beq	.L106
 101 002a 0023     		movs	r3, #0
 102 002c 80F83430 		strb	r3, [r0, #52]
 103 0030 0220     		movs	r0, #2
 104              	.L87:
 105 0032 F0BC     		pop	{r4, r5, r6, r7}
 106 0034 7047     		bx	lr
 107              	.L71:
 108 0036 0220     		movs	r0, #2
 109 0038 F0BC     		pop	{r4, r5, r6, r7}
 110 003a 7047     		bx	lr
 111              	.L15:
 112 003c 4023     		movs	r3, #64
 113 003e 4365     		str	r3, [r0, #84]
 114 0040 F0BC     		pop	{r4, r5, r6, r7}
 115 0042 0120     		movs	r0, #1
 116 0044 7047     		bx	lr
 117              	.L105:
ARM GAS  /tmp/ccfToQxt.s 			page 3


 118 0046 4FF48073 		mov	r3, #256
 119 004a 4365     		str	r3, [r0, #84]
 120 004c F0BC     		pop	{r4, r5, r6, r7}
 121 004e 0120     		movs	r0, #1
 122 0050 7047     		bx	lr
 123              	.L106:
 124 0052 0568     		ldr	r5, [r0]
 125 0054 0026     		movs	r6, #0
 126 0056 0227     		movs	r7, #2
 127 0058 80F83570 		strb	r7, [r0, #53]
 128 005c 4665     		str	r6, [r0, #84]
 129 005e 2E68     		ldr	r6, [r5]
 130 0060 46F48026 		orr	r6, r6, #262144
 131 0064 2E60     		str	r6, [r5]
 132 0066 2B61     		str	r3, [r5, #16]
 133 0068 049B     		ldr	r3, [sp, #16]
 134 006a 6B60     		str	r3, [r5, #4]
 135 006c AE4B     		ldr	r3, .L119
 136 006e 402C     		cmp	r4, #64
 137 0070 0BBF     		itete	eq
 138 0072 AA60     		streq	r2, [r5, #8]
 139 0074 A960     		strne	r1, [r5, #8]
 140 0076 E960     		streq	r1, [r5, #12]
 141 0078 EA60     		strne	r2, [r5, #12]
 142 007a 9D42     		cmp	r5, r3
 143 007c 50D8     		bhi	.L107
 144 007e AB4B     		ldr	r3, .L119+4
 145 0080 9D42     		cmp	r5, r3
 146 0082 6BD9     		bls	.L24
 147 0084 03F55673 		add	r3, r3, #856
 148 0088 9D42     		cmp	r5, r3
 149 008a 00F0E680 		beq	.L25
 150 008e 1833     		adds	r3, r3, #24
 151 0090 9D42     		cmp	r5, r3
 152 0092 00F01581 		beq	.L26
 153 0096 1833     		adds	r3, r3, #24
 154 0098 9D42     		cmp	r5, r3
 155 009a 00F03E81 		beq	.L108
 156 009e A44B     		ldr	r3, .L119+8
 157 00a0 4FF00062 		mov	r2, #134217728
 158 00a4 9A60     		str	r2, [r3, #8]
 159 00a6 4FF08061 		mov	r1, #67108864
 160              	.L65:
 161 00aa A24A     		ldr	r2, .L119+12
 162 00ac A04B     		ldr	r3, .L119+8
 163 00ae 9542     		cmp	r5, r2
 164 00b0 9960     		str	r1, [r3, #8]
 165 00b2 00F0D780 		beq	.L39
 166 00b6 A04A     		ldr	r2, .L119+16
 167 00b8 9542     		cmp	r5, r2
 168 00ba 00F00A81 		beq	.L44
 169 00be 1832     		adds	r2, r2, #24
 170 00c0 9542     		cmp	r5, r2
 171 00c2 00F05F81 		beq	.L109
 172 00c6 4FF00072 		mov	r2, #33554432
 173 00ca 9A60     		str	r2, [r3, #8]
 174 00cc 4FF08071 		mov	r1, #16777216
ARM GAS  /tmp/ccfToQxt.s 			page 4


 175              	.L68:
 176 00d0 984B     		ldr	r3, .L119+12
 177 00d2 974A     		ldr	r2, .L119+8
 178 00d4 9D42     		cmp	r5, r3
 179 00d6 9160     		str	r1, [r2, #8]
 180 00d8 00F07681 		beq	.L110
 181 00dc 964B     		ldr	r3, .L119+16
 182 00de 9D42     		cmp	r5, r3
 183 00e0 00F0F580 		beq	.L72
 184 00e4 954A     		ldr	r2, .L119+20
 185 00e6 9542     		cmp	r5, r2
 186 00e8 14BF     		ite	ne
 187 00ea 4FF48002 		movne	r2, #4194304
 188 00ee 4FF48032 		moveq	r2, #65536
 189              	.L54:
 190 00f2 8F4B     		ldr	r3, .L119+8
 191 00f4 9A60     		str	r2, [r3, #8]
 192              	.L59:
 193 00f6 2B68     		ldr	r3, [r5]
 194 00f8 026C     		ldr	r2, [r0, #64]
 195 00fa 43F01603 		orr	r3, r3, #22
 196 00fe 2B60     		str	r3, [r5]
 197 0100 6B69     		ldr	r3, [r5, #20]
 198 0102 43F08003 		orr	r3, r3, #128
 199 0106 6B61     		str	r3, [r5, #20]
 200 0108 002A     		cmp	r2, #0
 201 010a 63D0     		beq	.L111
 202              	.L60:
 203 010c 2B68     		ldr	r3, [r5]
 204 010e 43F00803 		orr	r3, r3, #8
 205 0112 2B60     		str	r3, [r5]
 206              	.L61:
 207 0114 2B68     		ldr	r3, [r5]
 208 0116 43F00103 		orr	r3, r3, #1
 209 011a 2B60     		str	r3, [r5]
 210 011c 0020     		movs	r0, #0
 211 011e 88E7     		b	.L87
 212              	.L107:
 213 0120 874B     		ldr	r3, .L119+24
 214 0122 9D42     		cmp	r5, r3
 215 0124 00F08E80 		beq	.L20
 216 0128 1833     		adds	r3, r3, #24
 217 012a 9D42     		cmp	r5, r3
 218 012c 00F0B980 		beq	.L21
 219 0130 1833     		adds	r3, r3, #24
 220 0132 9D42     		cmp	r5, r3
 221 0134 00F01681 		beq	.L112
 222 0138 7D4B     		ldr	r3, .L119+8
 223 013a 4FF00062 		mov	r2, #134217728
 224 013e 4FF08066 		mov	r6, #67108864
 225 0142 4FF00074 		mov	r4, #33554432
 226 0146 4FF08071 		mov	r1, #16777216
 227 014a DA60     		str	r2, [r3, #12]
 228 014c DE60     		str	r6, [r3, #12]
 229 014e 4FF48002 		mov	r2, #4194304
 230 0152 DC60     		str	r4, [r3, #12]
 231 0154 D960     		str	r1, [r3, #12]
ARM GAS  /tmp/ccfToQxt.s 			page 5


 232              	.L64:
 233 0156 764B     		ldr	r3, .L119+8
 234 0158 DA60     		str	r2, [r3, #12]
 235 015a CCE7     		b	.L59
 236              	.L24:
 237 015c 794B     		ldr	r3, .L119+28
 238 015e 9D42     		cmp	r5, r3
 239 0160 3CD9     		bls	.L29
 240 0162 1833     		adds	r3, r3, #24
 241 0164 9D42     		cmp	r5, r3
 242 0166 00F09080 		beq	.L30
 243 016a 1833     		adds	r3, r3, #24
 244 016c 9D42     		cmp	r5, r3
 245 016e 00F0C780 		beq	.L31
 246 0172 1833     		adds	r3, r3, #24
 247 0174 9D42     		cmp	r5, r3
 248 0176 00F00B81 		beq	.L113
 249 017a 734B     		ldr	r3, .L119+32
 250 017c 4FF00062 		mov	r2, #134217728
 251 0180 DA60     		str	r2, [r3, #12]
 252 0182 4FF08061 		mov	r1, #67108864
 253              	.L66:
 254 0186 714A     		ldr	r2, .L119+36
 255 0188 6F4B     		ldr	r3, .L119+32
 256 018a 9542     		cmp	r5, r2
 257 018c D960     		str	r1, [r3, #12]
 258 018e 00F08180 		beq	.L41
 259 0192 6F4A     		ldr	r2, .L119+40
 260 0194 9542     		cmp	r5, r2
 261 0196 00F0BA80 		beq	.L47
 262 019a 1832     		adds	r2, r2, #24
 263 019c 9542     		cmp	r5, r2
 264 019e 00F00B81 		beq	.L114
 265 01a2 4FF00072 		mov	r2, #33554432
 266 01a6 DA60     		str	r2, [r3, #12]
 267 01a8 4FF08071 		mov	r1, #16777216
 268              	.L69:
 269 01ac 674B     		ldr	r3, .L119+36
 270 01ae 664A     		ldr	r2, .L119+32
 271 01b0 9D42     		cmp	r5, r3
 272 01b2 D160     		str	r1, [r2, #12]
 273 01b4 00F00681 		beq	.L115
 274 01b8 654B     		ldr	r3, .L119+40
 275 01ba 9D42     		cmp	r5, r3
 276 01bc 00F09E80 		beq	.L74
 277 01c0 1833     		adds	r3, r3, #24
 278 01c2 9D42     		cmp	r5, r3
 279 01c4 14BF     		ite	ne
 280 01c6 4FF48003 		movne	r3, #4194304
 281 01ca 4FF48033 		moveq	r3, #65536
 282              	.L56:
 283 01ce 5E4A     		ldr	r2, .L119+32
 284 01d0 D360     		str	r3, [r2, #12]
 285 01d2 90E7     		b	.L59
 286              	.L111:
 287 01d4 836C     		ldr	r3, [r0, #72]
 288 01d6 002B     		cmp	r3, #0
ARM GAS  /tmp/ccfToQxt.s 			page 6


 289 01d8 98D1     		bne	.L60
 290 01da 9BE7     		b	.L61
 291              	.L29:
 292 01dc 5D4B     		ldr	r3, .L119+44
 293 01de 9D42     		cmp	r5, r3
 294 01e0 47D0     		beq	.L34
 295 01e2 1833     		adds	r3, r3, #24
 296 01e4 9D42     		cmp	r5, r3
 297 01e6 7AD0     		beq	.L35
 298 01e8 1833     		adds	r3, r3, #24
 299 01ea 9D42     		cmp	r5, r3
 300 01ec 00F0DD80 		beq	.L116
 301 01f0 554B     		ldr	r3, .L119+32
 302 01f2 4FF00062 		mov	r2, #134217728
 303 01f6 9A60     		str	r2, [r3, #8]
 304 01f8 4FF08061 		mov	r1, #67108864
 305              	.L67:
 306 01fc 554A     		ldr	r2, .L119+44
 307 01fe 524B     		ldr	r3, .L119+32
 308 0200 9542     		cmp	r5, r2
 309 0202 9960     		str	r1, [r3, #8]
 310 0204 3AD0     		beq	.L43
 311 0206 544A     		ldr	r2, .L119+48
 312 0208 9542     		cmp	r5, r2
 313 020a 71D0     		beq	.L50
 314 020c 1832     		adds	r2, r2, #24
 315 020e 9542     		cmp	r5, r2
 316 0210 00F0C580 		beq	.L117
 317 0214 4FF00072 		mov	r2, #33554432
 318 0218 9A60     		str	r2, [r3, #8]
 319 021a 4FF08071 		mov	r1, #16777216
 320              	.L70:
 321 021e 4D4B     		ldr	r3, .L119+44
 322 0220 494A     		ldr	r2, .L119+32
 323 0222 9D42     		cmp	r5, r3
 324 0224 9160     		str	r1, [r2, #8]
 325 0226 00F0D180 		beq	.L118
 326 022a 4B4B     		ldr	r3, .L119+48
 327 022c 9D42     		cmp	r5, r3
 328 022e 5DD0     		beq	.L76
 329 0230 1833     		adds	r3, r3, #24
 330 0232 9D42     		cmp	r5, r3
 331 0234 14BF     		ite	ne
 332 0236 4FF48003 		movne	r3, #4194304
 333 023a 4FF48033 		moveq	r3, #65536
 334              	.L58:
 335 023e 424A     		ldr	r2, .L119+32
 336 0240 9360     		str	r3, [r2, #8]
 337 0242 58E7     		b	.L59
 338              	.L20:
 339 0244 3A4B     		ldr	r3, .L119+8
 340 0246 4549     		ldr	r1, .L119+52
 341 0248 454A     		ldr	r2, .L119+56
 342 024a 2027     		movs	r7, #32
 343 024c 1026     		movs	r6, #16
 344 024e 0824     		movs	r4, #8
 345 0250 DF60     		str	r7, [r3, #12]
ARM GAS  /tmp/ccfToQxt.s 			page 7


 346 0252 DE60     		str	r6, [r3, #12]
 347 0254 DC60     		str	r4, [r3, #12]
 348 0256 D960     		str	r1, [r3, #12]
 349 0258 7DE7     		b	.L64
 350              	.L25:
 351 025a 354B     		ldr	r3, .L119+8
 352 025c 2021     		movs	r1, #32
 353 025e 1022     		movs	r2, #16
 354 0260 9960     		str	r1, [r3, #8]
 355 0262 9A60     		str	r2, [r3, #8]
 356              	.L39:
 357 0264 324B     		ldr	r3, .L119+8
 358 0266 3D49     		ldr	r1, .L119+52
 359 0268 3D4A     		ldr	r2, .L119+56
 360 026a 0824     		movs	r4, #8
 361 026c 9C60     		str	r4, [r3, #8]
 362 026e 9960     		str	r1, [r3, #8]
 363 0270 3FE7     		b	.L54
 364              	.L34:
 365 0272 354B     		ldr	r3, .L119+32
 366 0274 2021     		movs	r1, #32
 367 0276 1022     		movs	r2, #16
 368 0278 9960     		str	r1, [r3, #8]
 369 027a 9A60     		str	r2, [r3, #8]
 370              	.L43:
 371 027c 324A     		ldr	r2, .L119+32
 372 027e 3749     		ldr	r1, .L119+52
 373 0280 374B     		ldr	r3, .L119+56
 374 0282 0824     		movs	r4, #8
 375 0284 9460     		str	r4, [r2, #8]
 376 0286 9160     		str	r1, [r2, #8]
 377 0288 D9E7     		b	.L58
 378              	.L30:
 379 028a 2F4B     		ldr	r3, .L119+32
 380 028c 2021     		movs	r1, #32
 381 028e 1022     		movs	r2, #16
 382 0290 D960     		str	r1, [r3, #12]
 383 0292 DA60     		str	r2, [r3, #12]
 384              	.L41:
 385 0294 2C4A     		ldr	r2, .L119+32
 386 0296 3149     		ldr	r1, .L119+52
 387 0298 314B     		ldr	r3, .L119+56
 388 029a 0824     		movs	r4, #8
 389 029c D460     		str	r4, [r2, #12]
 390 029e D160     		str	r1, [r2, #12]
 391 02a0 95E7     		b	.L56
 392              	.L21:
 393 02a2 234B     		ldr	r3, .L119+8
 394 02a4 4FF40062 		mov	r2, #2048
 395 02a8 4FF48066 		mov	r6, #1024
 396 02ac 4FF40074 		mov	r4, #512
 397 02b0 4FF48071 		mov	r1, #256
 398 02b4 DA60     		str	r2, [r3, #12]
 399 02b6 DE60     		str	r6, [r3, #12]
 400 02b8 4022     		movs	r2, #64
 401 02ba DC60     		str	r4, [r3, #12]
 402 02bc D960     		str	r1, [r3, #12]
ARM GAS  /tmp/ccfToQxt.s 			page 8


 403 02be 4AE7     		b	.L64
 404              	.L26:
 405 02c0 1B4B     		ldr	r3, .L119+8
 406 02c2 4FF40062 		mov	r2, #2048
 407 02c6 9A60     		str	r2, [r3, #8]
 408 02c8 4FF48061 		mov	r1, #1024
 409 02cc EDE6     		b	.L65
 410              	.L72:
 411 02ce 4022     		movs	r2, #64
 412 02d0 0FE7     		b	.L54
 413              	.L44:
 414 02d2 4FF40072 		mov	r2, #512
 415 02d6 9A60     		str	r2, [r3, #8]
 416 02d8 4FF48071 		mov	r1, #256
 417 02dc F8E6     		b	.L68
 418              	.L35:
 419 02de 1A4B     		ldr	r3, .L119+32
 420 02e0 4FF40062 		mov	r2, #2048
 421 02e4 9A60     		str	r2, [r3, #8]
 422 02e6 4FF48061 		mov	r1, #1024
 423 02ea 87E7     		b	.L67
 424              	.L76:
 425 02ec 4023     		movs	r3, #64
 426 02ee A6E7     		b	.L58
 427              	.L50:
 428 02f0 4FF40072 		mov	r2, #512
 429 02f4 9A60     		str	r2, [r3, #8]
 430 02f6 4FF48071 		mov	r1, #256
 431 02fa 90E7     		b	.L70
 432              	.L74:
 433 02fc 4023     		movs	r3, #64
 434 02fe 66E7     		b	.L56
 435              	.L31:
 436 0300 114B     		ldr	r3, .L119+32
 437 0302 4FF40062 		mov	r2, #2048
 438 0306 DA60     		str	r2, [r3, #12]
 439 0308 4FF48061 		mov	r1, #1024
 440 030c 3BE7     		b	.L66
 441              	.L47:
 442 030e 4FF40072 		mov	r2, #512
 443 0312 DA60     		str	r2, [r3, #12]
 444 0314 4FF48071 		mov	r1, #256
 445 0318 48E7     		b	.L69
 446              	.L108:
 447 031a 054B     		ldr	r3, .L119+8
 448 031c 4FF40012 		mov	r2, #2097152
 449 0320 9A60     		str	r2, [r3, #8]
 450 0322 4FF48011 		mov	r1, #1048576
 451 0326 C0E6     		b	.L65
 452              	.L120:
 453              		.align	2
 454              	.L119:
 455 0328 58640240 		.word	1073898584
 456 032c B8600240 		.word	1073897656
 457 0330 00640240 		.word	1073898496
 458 0334 10640240 		.word	1073898512
 459 0338 28640240 		.word	1073898536
ARM GAS  /tmp/ccfToQxt.s 			page 9


 460 033c 40640240 		.word	1073898560
 461 0340 70640240 		.word	1073898608
 462 0344 58600240 		.word	1073897560
 463 0348 00600240 		.word	1073897472
 464 034c 70600240 		.word	1073897584
 465 0350 88600240 		.word	1073897608
 466 0354 10600240 		.word	1073897488
 467 0358 28600240 		.word	1073897512
 468 035c 04008000 		.word	8388612
 469 0360 01008000 		.word	8388609
 470              	.L112:
 471 0364 1A4B     		ldr	r3, .L121
 472 0366 4FF40012 		mov	r2, #2097152
 473 036a 4FF48016 		mov	r6, #1048576
 474 036e 4FF40024 		mov	r4, #524288
 475 0372 4FF48021 		mov	r1, #262144
 476 0376 DA60     		str	r2, [r3, #12]
 477 0378 DE60     		str	r6, [r3, #12]
 478 037a 4FF48032 		mov	r2, #65536
 479 037e DC60     		str	r4, [r3, #12]
 480 0380 D960     		str	r1, [r3, #12]
 481 0382 E8E6     		b	.L64
 482              	.L109:
 483 0384 4FF40022 		mov	r2, #524288
 484 0388 9A60     		str	r2, [r3, #8]
 485 038a 4FF48021 		mov	r1, #262144
 486 038e 9FE6     		b	.L68
 487              	.L113:
 488 0390 104B     		ldr	r3, .L121+4
 489 0392 4FF40012 		mov	r2, #2097152
 490 0396 DA60     		str	r2, [r3, #12]
 491 0398 4FF48011 		mov	r1, #1048576
 492 039c F3E6     		b	.L66
 493              	.L117:
 494 039e 4FF40022 		mov	r2, #524288
 495 03a2 9A60     		str	r2, [r3, #8]
 496 03a4 4FF48021 		mov	r1, #262144
 497 03a8 39E7     		b	.L70
 498              	.L116:
 499 03aa 0A4B     		ldr	r3, .L121+4
 500 03ac 4FF40012 		mov	r2, #2097152
 501 03b0 9A60     		str	r2, [r3, #8]
 502 03b2 4FF48011 		mov	r1, #1048576
 503 03b6 21E7     		b	.L67
 504              	.L114:
 505 03b8 4FF40022 		mov	r2, #524288
 506 03bc DA60     		str	r2, [r3, #12]
 507 03be 4FF48021 		mov	r1, #262144
 508 03c2 F3E6     		b	.L69
 509              	.L115:
 510 03c4 044B     		ldr	r3, .L121+8
 511 03c6 02E7     		b	.L56
 512              	.L110:
 513 03c8 034A     		ldr	r2, .L121+8
 514 03ca 92E6     		b	.L54
 515              	.L118:
 516 03cc 024B     		ldr	r3, .L121+8
ARM GAS  /tmp/ccfToQxt.s 			page 10


 517 03ce 36E7     		b	.L58
 518              	.L122:
 519              		.align	2
 520              	.L121:
 521 03d0 00640240 		.word	1073898496
 522 03d4 00600240 		.word	1073897472
 523 03d8 01008000 		.word	8388609
 525              		.section	.text.HAL_DMAEx_ChangeMemory,"ax",%progbits
 526              		.align	1
 527              		.p2align 2,,3
 528              		.global	HAL_DMAEx_ChangeMemory
 529              		.syntax unified
 530              		.thumb
 531              		.thumb_func
 532              		.fpu fpv4-sp-d16
 534              	HAL_DMAEx_ChangeMemory:
 535              		@ args = 0, pretend = 0, frame = 0
 536              		@ frame_needed = 0, uses_anonymous_args = 0
 537              		@ link register save eliminated.
 538 0000 0368     		ldr	r3, [r0]
 539 0002 12B1     		cbz	r2, .L126
 540 0004 1961     		str	r1, [r3, #16]
 541 0006 0020     		movs	r0, #0
 542 0008 7047     		bx	lr
 543              	.L126:
 544 000a D960     		str	r1, [r3, #12]
 545 000c 0020     		movs	r0, #0
 546 000e 7047     		bx	lr
 548              		.ident	"GCC: (Arch Repository) 6.3.0"
ARM GAS  /tmp/ccfToQxt.s 			page 11

