ARM GAS  /tmp/ccpDDLEF.s 			page 1


   1              		.cpu cortex-m4
   2              		.eabi_attribute 27, 1
   3              		.eabi_attribute 28, 1
   4              		.eabi_attribute 23, 1
   5              		.eabi_attribute 24, 1
   6              		.eabi_attribute 25, 1
   7              		.eabi_attribute 26, 1
   8              		.eabi_attribute 30, 2
   9              		.eabi_attribute 34, 1
  10              		.eabi_attribute 18, 4
  11              		.file	"stm32f4xx_hal_flash_ex.c"
  12              		.section	.text.HAL_FLASHEx_Erase,"ax",%progbits
  13              		.align	1
  14              		.p2align 2,,3
  15              		.global	HAL_FLASHEx_Erase
  16              		.syntax unified
  17              		.thumb
  18              		.thumb_func
  19              		.fpu fpv4-sp-d16
  21              	HAL_FLASHEx_Erase:
  22              		@ args = 0, pretend = 0, frame = 0
  23              		@ frame_needed = 0, uses_anonymous_args = 0
  24 0000 2DE9F843 		push	{r3, r4, r5, r6, r7, r8, r9, lr}
  25 0004 564D     		ldr	r5, .L29
  26 0006 2B7E     		ldrb	r3, [r5, #24]	@ zero_extendqisi2
  27 0008 012B     		cmp	r3, #1
  28 000a 03D1     		bne	.L25
  29 000c 0226     		movs	r6, #2
  30 000e 3046     		mov	r0, r6
  31 0010 BDE8F883 		pop	{r3, r4, r5, r6, r7, r8, r9, pc}
  32              	.L25:
  33 0014 0123     		movs	r3, #1
  34 0016 8046     		mov	r8, r0
  35 0018 4CF25030 		movw	r0, #50000
  36 001c 0F46     		mov	r7, r1
  37 001e 2B76     		strb	r3, [r5, #24]
  38 0020 FFF7FEFF 		bl	FLASH_WaitForLastOperation
  39 0024 0646     		mov	r6, r0
  40 0026 0028     		cmp	r0, #0
  41 0028 40F09080 		bne	.L3
  42 002c 4FF0FF33 		mov	r3, #-1
  43 0030 3B60     		str	r3, [r7]
  44 0032 D8F80030 		ldr	r3, [r8]
  45 0036 012B     		cmp	r3, #1
  46 0038 45D0     		beq	.L26
  47 003a D8F80890 		ldr	r9, [r8, #8]
  48 003e D8F80C30 		ldr	r3, [r8, #12]
  49 0042 4B44     		add	r3, r3, r9
  50 0044 9945     		cmp	r9, r3
  51 0046 59D2     		bcs	.L5
  52 0048 464C     		ldr	r4, .L29+4
  53 004a 33E0     		b	.L9
  54              	.L28:
  55 004c 022A     		cmp	r2, #2
  56 004e 0CBF     		ite	eq
  57 0050 4FF40072 		moveq	r2, #512
  58 0054 4FF44072 		movne	r2, #768
ARM GAS  /tmp/ccpDDLEF.s 			page 2


  59              	.L7:
  60 0058 2169     		ldr	r1, [r4, #16]
  61 005a 21F44071 		bic	r1, r1, #768
  62 005e 2161     		str	r1, [r4, #16]
  63 0060 2169     		ldr	r1, [r4, #16]
  64 0062 0A43     		orrs	r2, r2, r1
  65 0064 2261     		str	r2, [r4, #16]
  66 0066 2269     		ldr	r2, [r4, #16]
  67 0068 22F0F802 		bic	r2, r2, #248
  68 006c F823     		movs	r3, #248
  69 006e 2261     		str	r2, [r4, #16]
  70              		.syntax unified
  71              	@ 531 "Drivers/CMSIS/Include/cmsis_gcc.h" 1
  72 0070 93FAA3F3 		rbit r3, r3
  73              	@ 0 "" 2
  74              		.thumb
  75              		.syntax unified
  76 0074 2269     		ldr	r2, [r4, #16]
  77 0076 B3FA83F3 		clz	r3, r3
  78 007a 42F00202 		orr	r2, r2, #2
  79 007e 09FA03F3 		lsl	r3, r9, r3
  80 0082 1343     		orrs	r3, r3, r2
  81 0084 2361     		str	r3, [r4, #16]
  82 0086 2369     		ldr	r3, [r4, #16]
  83 0088 43F48033 		orr	r3, r3, #65536
  84 008c 2361     		str	r3, [r4, #16]
  85 008e 4CF25030 		movw	r0, #50000
  86 0092 FFF7FEFF 		bl	FLASH_WaitForLastOperation
  87 0096 2369     		ldr	r3, [r4, #16]
  88 0098 23F0FA03 		bic	r3, r3, #250
  89 009c 2361     		str	r3, [r4, #16]
  90 009e 0028     		cmp	r0, #0
  91 00a0 59D1     		bne	.L27
  92 00a2 D8F80C30 		ldr	r3, [r8, #12]
  93 00a6 D8F80820 		ldr	r2, [r8, #8]
  94 00aa 09F10109 		add	r9, r9, #1
  95 00ae 1344     		add	r3, r3, r2
  96 00b0 4B45     		cmp	r3, r9
  97 00b2 23D9     		bls	.L5
  98              	.L9:
  99 00b4 98F81020 		ldrb	r2, [r8, #16]	@ zero_extendqisi2
 100 00b8 002A     		cmp	r2, #0
 101 00ba CDD0     		beq	.L7
 102 00bc 012A     		cmp	r2, #1
 103 00be C5D1     		bne	.L28
 104 00c0 4FF48072 		mov	r2, #256
 105 00c4 C8E7     		b	.L7
 106              	.L26:
 107 00c6 274C     		ldr	r4, .L29+4
 108 00c8 D8F81030 		ldr	r3, [r8, #16]
 109 00cc 2269     		ldr	r2, [r4, #16]
 110 00ce 22F44072 		bic	r2, r2, #768
 111 00d2 2261     		str	r2, [r4, #16]
 112 00d4 2269     		ldr	r2, [r4, #16]
 113 00d6 42F00402 		orr	r2, r2, #4
 114 00da 2261     		str	r2, [r4, #16]
 115 00dc 2269     		ldr	r2, [r4, #16]
ARM GAS  /tmp/ccpDDLEF.s 			page 3


 116 00de 1B02     		lsls	r3, r3, #8
 117 00e0 42F48032 		orr	r2, r2, #65536
 118 00e4 9BB2     		uxth	r3, r3
 119 00e6 1343     		orrs	r3, r3, r2
 120 00e8 2361     		str	r3, [r4, #16]
 121 00ea 4CF25030 		movw	r0, #50000
 122 00ee FFF7FEFF 		bl	FLASH_WaitForLastOperation
 123 00f2 2369     		ldr	r3, [r4, #16]
 124 00f4 23F00403 		bic	r3, r3, #4
 125 00f8 0646     		mov	r6, r0
 126 00fa 2361     		str	r3, [r4, #16]
 127              	.L5:
 128 00fc 194B     		ldr	r3, .L29+4
 129 00fe 1A68     		ldr	r2, [r3]
 130 0100 9105     		lsls	r1, r2, #22
 131 0102 0FD5     		bpl	.L11
 132 0104 1A68     		ldr	r2, [r3]
 133 0106 22F40072 		bic	r2, r2, #512
 134 010a 1A60     		str	r2, [r3]
 135 010c 1A68     		ldr	r2, [r3]
 136 010e 42F40062 		orr	r2, r2, #2048
 137 0112 1A60     		str	r2, [r3]
 138 0114 1A68     		ldr	r2, [r3]
 139 0116 22F40062 		bic	r2, r2, #2048
 140 011a 1A60     		str	r2, [r3]
 141 011c 1A68     		ldr	r2, [r3]
 142 011e 42F40072 		orr	r2, r2, #512
 143 0122 1A60     		str	r2, [r3]
 144              	.L11:
 145 0124 0F4B     		ldr	r3, .L29+4
 146 0126 1A68     		ldr	r2, [r3]
 147 0128 5205     		lsls	r2, r2, #21
 148 012a 0FD5     		bpl	.L3
 149 012c 1A68     		ldr	r2, [r3]
 150 012e 22F48062 		bic	r2, r2, #1024
 151 0132 1A60     		str	r2, [r3]
 152 0134 1A68     		ldr	r2, [r3]
 153 0136 42F48052 		orr	r2, r2, #4096
 154 013a 1A60     		str	r2, [r3]
 155 013c 1A68     		ldr	r2, [r3]
 156 013e 22F48052 		bic	r2, r2, #4096
 157 0142 1A60     		str	r2, [r3]
 158 0144 1A68     		ldr	r2, [r3]
 159 0146 42F48062 		orr	r2, r2, #1024
 160 014a 1A60     		str	r2, [r3]
 161              	.L3:
 162 014c 0023     		movs	r3, #0
 163 014e 2B76     		strb	r3, [r5, #24]
 164 0150 3046     		mov	r0, r6
 165 0152 BDE8F883 		pop	{r3, r4, r5, r6, r7, r8, r9, pc}
 166              	.L27:
 167 0156 C7F80090 		str	r9, [r7]
 168 015a 0646     		mov	r6, r0
 169 015c CEE7     		b	.L5
 170              	.L30:
 171 015e 00BF     		.align	2
 172              	.L29:
ARM GAS  /tmp/ccpDDLEF.s 			page 4


 173 0160 00000000 		.word	pFlash
 174 0164 003C0240 		.word	1073888256
 176              		.section	.text.HAL_FLASHEx_Erase_IT,"ax",%progbits
 177              		.align	1
 178              		.p2align 2,,3
 179              		.global	HAL_FLASHEx_Erase_IT
 180              		.syntax unified
 181              		.thumb
 182              		.thumb_func
 183              		.fpu fpv4-sp-d16
 185              	HAL_FLASHEx_Erase_IT:
 186              		@ args = 0, pretend = 0, frame = 0
 187              		@ frame_needed = 0, uses_anonymous_args = 0
 188              		@ link register save eliminated.
 189 0000 304A     		ldr	r2, .L44
 190 0002 137E     		ldrb	r3, [r2, #24]	@ zero_extendqisi2
 191 0004 012B     		cmp	r3, #1
 192 0006 56D0     		beq	.L35
 193 0008 2F4B     		ldr	r3, .L44+4
 194 000a 1969     		ldr	r1, [r3, #16]
 195 000c 41F08071 		orr	r1, r1, #16777216
 196 0010 30B4     		push	{r4, r5}
 197 0012 1961     		str	r1, [r3, #16]
 198 0014 1969     		ldr	r1, [r3, #16]
 199 0016 F324     		movs	r4, #243
 200 0018 41F00071 		orr	r1, r1, #33554432
 201 001c 1961     		str	r1, [r3, #16]
 202 001e DC60     		str	r4, [r3, #12]
 203 0020 0168     		ldr	r1, [r0]
 204 0022 0124     		movs	r4, #1
 205 0024 A142     		cmp	r1, r4
 206 0026 1476     		strb	r4, [r2, #24]
 207 0028 2ED0     		beq	.L43
 208 002a 037C     		ldrb	r3, [r0, #16]	@ zero_extendqisi2
 209 002c C568     		ldr	r5, [r0, #12]
 210 002e 8168     		ldr	r1, [r0, #8]
 211 0030 1470     		strb	r4, [r2]
 212 0032 5560     		str	r5, [r2, #4]
 213 0034 D160     		str	r1, [r2, #12]
 214 0036 1372     		strb	r3, [r2, #8]
 215 0038 002B     		cmp	r3, #0
 216 003a 3ED0     		beq	.L36
 217 003c 012B     		cmp	r3, #1
 218 003e 3ED0     		beq	.L37
 219 0040 022B     		cmp	r3, #2
 220 0042 0CBF     		ite	eq
 221 0044 4FF40072 		moveq	r2, #512
 222 0048 4FF44072 		movne	r2, #768
 223              	.L34:
 224 004c 1E4B     		ldr	r3, .L44+4
 225 004e 1869     		ldr	r0, [r3, #16]
 226 0050 20F44070 		bic	r0, r0, #768
 227 0054 1861     		str	r0, [r3, #16]
 228 0056 1869     		ldr	r0, [r3, #16]
 229 0058 0243     		orrs	r2, r2, r0
 230 005a 1A61     		str	r2, [r3, #16]
 231 005c 1A69     		ldr	r2, [r3, #16]
ARM GAS  /tmp/ccpDDLEF.s 			page 5


 232 005e 22F0F802 		bic	r2, r2, #248
 233 0062 1A61     		str	r2, [r3, #16]
 234 0064 F822     		movs	r2, #248
 235              		.syntax unified
 236              	@ 531 "Drivers/CMSIS/Include/cmsis_gcc.h" 1
 237 0066 92FAA2F2 		rbit r2, r2
 238              	@ 0 "" 2
 239              		.thumb
 240              		.syntax unified
 241 006a 1869     		ldr	r0, [r3, #16]
 242 006c B2FA82F2 		clz	r2, r2
 243 0070 9140     		lsls	r1, r1, r2
 244 0072 40F00202 		orr	r2, r0, #2
 245 0076 1143     		orrs	r1, r1, r2
 246 0078 1961     		str	r1, [r3, #16]
 247 007a 1A69     		ldr	r2, [r3, #16]
 248 007c 42F48032 		orr	r2, r2, #65536
 249 0080 0020     		movs	r0, #0
 250 0082 1A61     		str	r2, [r3, #16]
 251 0084 30BC     		pop	{r4, r5}
 252 0086 7047     		bx	lr
 253              	.L43:
 254 0088 4168     		ldr	r1, [r0, #4]
 255 008a 0224     		movs	r4, #2
 256 008c 1470     		strb	r4, [r2]
 257 008e 1161     		str	r1, [r2, #16]
 258 0090 1969     		ldr	r1, [r3, #16]
 259 0092 0269     		ldr	r2, [r0, #16]
 260 0094 21F44071 		bic	r1, r1, #768
 261 0098 1961     		str	r1, [r3, #16]
 262 009a 1969     		ldr	r1, [r3, #16]
 263 009c 41F00401 		orr	r1, r1, #4
 264 00a0 1961     		str	r1, [r3, #16]
 265 00a2 1969     		ldr	r1, [r3, #16]
 266 00a4 1202     		lsls	r2, r2, #8
 267 00a6 92B2     		uxth	r2, r2
 268 00a8 41F48031 		orr	r1, r1, #65536
 269 00ac 0A43     		orrs	r2, r2, r1
 270 00ae 0020     		movs	r0, #0
 271 00b0 1A61     		str	r2, [r3, #16]
 272 00b2 30BC     		pop	{r4, r5}
 273 00b4 7047     		bx	lr
 274              	.L35:
 275 00b6 0220     		movs	r0, #2
 276 00b8 7047     		bx	lr
 277              	.L36:
 278 00ba 1A46     		mov	r2, r3
 279 00bc C6E7     		b	.L34
 280              	.L37:
 281 00be 4FF48072 		mov	r2, #256
 282 00c2 C3E7     		b	.L34
 283              	.L45:
 284              		.align	2
 285              	.L44:
 286 00c4 00000000 		.word	pFlash
 287 00c8 003C0240 		.word	1073888256
 289              		.section	.text.HAL_FLASHEx_OBProgram,"ax",%progbits
ARM GAS  /tmp/ccpDDLEF.s 			page 6


 290              		.align	1
 291              		.p2align 2,,3
 292              		.global	HAL_FLASHEx_OBProgram
 293              		.syntax unified
 294              		.thumb
 295              		.thumb_func
 296              		.fpu fpv4-sp-d16
 298              	HAL_FLASHEx_OBProgram:
 299              		@ args = 0, pretend = 0, frame = 0
 300              		@ frame_needed = 0, uses_anonymous_args = 0
 301 0000 70B5     		push	{r4, r5, r6, lr}
 302 0002 2F4D     		ldr	r5, .L77
 303 0004 2B7E     		ldrb	r3, [r5, #24]	@ zero_extendqisi2
 304 0006 012B     		cmp	r3, #1
 305 0008 29D0     		beq	.L57
 306 000a 0368     		ldr	r3, [r0]
 307 000c 0446     		mov	r4, r0
 308 000e DE07     		lsls	r6, r3, #31
 309 0010 4FF00100 		mov	r0, #1
 310 0014 2876     		strb	r0, [r5, #24]
 311 0016 0FD5     		bpl	.L48
 312 0018 6368     		ldr	r3, [r4, #4]
 313 001a A668     		ldr	r6, [r4, #8]
 314 001c 8342     		cmp	r3, r0
 315 001e 4CF25030 		movw	r0, #50000
 316 0022 3DD0     		beq	.L72
 317 0024 FFF7FEFF 		bl	FLASH_WaitForLastOperation
 318 0028 0028     		cmp	r0, #0
 319 002a 3CD1     		bne	.L69
 320 002c 254A     		ldr	r2, .L77+4
 321 002e 2368     		ldr	r3, [r4]
 322 0030 1188     		ldrh	r1, [r2]
 323 0032 0E43     		orrs	r6, r6, r1
 324 0034 B6B2     		uxth	r6, r6
 325 0036 1680     		strh	r6, [r2]	@ movhi
 326              	.L48:
 327 0038 9907     		lsls	r1, r3, #30
 328 003a 24D4     		bmi	.L73
 329              	.L52:
 330 003c 5A07     		lsls	r2, r3, #29
 331 003e 10D4     		bmi	.L74
 332              	.L54:
 333 0040 1B07     		lsls	r3, r3, #28
 334 0042 09D5     		bpl	.L56
 335              	.L75:
 336 0044 204B     		ldr	r3, .L77+8
 337 0046 227D     		ldrb	r2, [r4, #20]	@ zero_extendqisi2
 338 0048 1978     		ldrb	r1, [r3]	@ zero_extendqisi2
 339 004a 01F0F301 		and	r1, r1, #243
 340 004e 1970     		strb	r1, [r3]
 341 0050 1978     		ldrb	r1, [r3]	@ zero_extendqisi2
 342 0052 0A43     		orrs	r2, r2, r1
 343 0054 1A70     		strb	r2, [r3]
 344 0056 0020     		movs	r0, #0
 345              	.L56:
 346 0058 0023     		movs	r3, #0
 347 005a 2B76     		strb	r3, [r5, #24]
ARM GAS  /tmp/ccpDDLEF.s 			page 7


 348 005c 70BD     		pop	{r4, r5, r6, pc}
 349              	.L57:
 350 005e 0220     		movs	r0, #2
 351 0060 70BD     		pop	{r4, r5, r6, pc}
 352              	.L74:
 353 0062 4CF25030 		movw	r0, #50000
 354 0066 267E     		ldrb	r6, [r4, #24]	@ zero_extendqisi2
 355 0068 FFF7FEFF 		bl	FLASH_WaitForLastOperation
 356 006c 38B9     		cbnz	r0, .L71
 357 006e 164A     		ldr	r2, .L77+8
 358 0070 1378     		ldrb	r3, [r2]	@ zero_extendqisi2
 359 0072 26F01F06 		bic	r6, r6, #31
 360 0076 03F01F03 		and	r3, r3, #31
 361 007a 3343     		orrs	r3, r3, r6
 362 007c 1370     		strb	r3, [r2]
 363              	.L71:
 364 007e 2368     		ldr	r3, [r4]
 365 0080 1B07     		lsls	r3, r3, #28
 366 0082 E9D5     		bpl	.L56
 367 0084 DEE7     		b	.L75
 368              	.L73:
 369 0086 4CF25030 		movw	r0, #50000
 370 008a 2669     		ldr	r6, [r4, #16]
 371 008c FFF7FEFF 		bl	FLASH_WaitForLastOperation
 372 0090 10B9     		cbnz	r0, .L70
 373 0092 0E4B     		ldr	r3, .L77+12
 374 0094 F6B2     		uxtb	r6, r6
 375 0096 1E70     		strb	r6, [r3]
 376              	.L70:
 377 0098 2368     		ldr	r3, [r4]
 378 009a 5A07     		lsls	r2, r3, #29
 379 009c D0D5     		bpl	.L54
 380 009e E0E7     		b	.L74
 381              	.L72:
 382 00a0 FFF7FEFF 		bl	FLASH_WaitForLastOperation
 383 00a4 18B1     		cbz	r0, .L76
 384              	.L69:
 385 00a6 2368     		ldr	r3, [r4]
 386 00a8 9907     		lsls	r1, r3, #30
 387 00aa C7D5     		bpl	.L52
 388 00ac EBE7     		b	.L73
 389              	.L76:
 390 00ae 0549     		ldr	r1, .L77+4
 391 00b0 2368     		ldr	r3, [r4]
 392 00b2 0A88     		ldrh	r2, [r1]
 393 00b4 92B2     		uxth	r2, r2
 394 00b6 22EA0602 		bic	r2, r2, r6
 395 00ba 0A80     		strh	r2, [r1]	@ movhi
 396 00bc BCE7     		b	.L48
 397              	.L78:
 398 00be 00BF     		.align	2
 399              	.L77:
 400 00c0 00000000 		.word	pFlash
 401 00c4 163C0240 		.word	1073888278
 402 00c8 143C0240 		.word	1073888276
 403 00cc 153C0240 		.word	1073888277
 405              		.section	.text.HAL_FLASHEx_OBGetConfig,"ax",%progbits
ARM GAS  /tmp/ccpDDLEF.s 			page 8


 406              		.align	1
 407              		.p2align 2,,3
 408              		.global	HAL_FLASHEx_OBGetConfig
 409              		.syntax unified
 410              		.thumb
 411              		.thumb_func
 412              		.fpu fpv4-sp-d16
 414              	HAL_FLASHEx_OBGetConfig:
 415              		@ args = 0, pretend = 0, frame = 0
 416              		@ frame_needed = 0, uses_anonymous_args = 0
 417              		@ link register save eliminated.
 418 0000 0D4B     		ldr	r3, .L83
 419 0002 0E4A     		ldr	r2, .L83+4
 420 0004 1B88     		ldrh	r3, [r3]
 421 0006 0F21     		movs	r1, #15
 422 0008 9BB2     		uxth	r3, r3
 423 000a 0160     		str	r1, [r0]
 424 000c 8360     		str	r3, [r0, #8]
 425 000e 1378     		ldrb	r3, [r2]	@ zero_extendqisi2
 426 0010 DBB2     		uxtb	r3, r3
 427 0012 CC2B     		cmp	r3, #204
 428 0014 04D0     		beq	.L80
 429 0016 1378     		ldrb	r3, [r2]	@ zero_extendqisi2
 430 0018 552B     		cmp	r3, #85
 431 001a 14BF     		ite	ne
 432 001c AA23     		movne	r3, #170
 433 001e 5523     		moveq	r3, #85
 434              	.L80:
 435 0020 074A     		ldr	r2, .L83+8
 436 0022 0361     		str	r3, [r0, #16]
 437 0024 5369     		ldr	r3, [r2, #20]
 438 0026 23F01F03 		bic	r3, r3, #31
 439 002a 0376     		strb	r3, [r0, #24]
 440 002c 137D     		ldrb	r3, [r2, #20]	@ zero_extendqisi2
 441 002e 03F00C03 		and	r3, r3, #12
 442 0032 4361     		str	r3, [r0, #20]
 443 0034 7047     		bx	lr
 444              	.L84:
 445 0036 00BF     		.align	2
 446              	.L83:
 447 0038 163C0240 		.word	1073888278
 448 003c 153C0240 		.word	1073888277
 449 0040 003C0240 		.word	1073888256
 451              		.section	.text.HAL_FLASHEx_AdvOBProgram,"ax",%progbits
 452              		.align	1
 453              		.p2align 2,,3
 454              		.global	HAL_FLASHEx_AdvOBProgram
 455              		.syntax unified
 456              		.thumb
 457              		.thumb_func
 458              		.fpu fpv4-sp-d16
 460              	HAL_FLASHEx_AdvOBProgram:
 461              		@ args = 0, pretend = 0, frame = 0
 462              		@ frame_needed = 0, uses_anonymous_args = 0
 463 0000 0368     		ldr	r3, [r0]
 464 0002 DB07     		lsls	r3, r3, #31
 465 0004 12D5     		bpl	.L88
ARM GAS  /tmp/ccpDDLEF.s 			page 9


 466 0006 4268     		ldr	r2, [r0, #4]
 467 0008 0346     		mov	r3, r0
 468 000a 012A     		cmp	r2, #1
 469 000c 10B5     		push	{r4, lr}
 470 000e 4CF25030 		movw	r0, #50000
 471 0012 1C89     		ldrh	r4, [r3, #8]
 472 0014 0CD0     		beq	.L93
 473 0016 FFF7FEFF 		bl	FLASH_WaitForLastOperation
 474 001a 30B9     		cbnz	r0, .L86
 475 001c 094A     		ldr	r2, .L94
 476 001e 1388     		ldrh	r3, [r2]
 477 0020 9BB2     		uxth	r3, r3
 478 0022 23EA0403 		bic	r3, r3, r4
 479 0026 1380     		strh	r3, [r2]	@ movhi
 480 0028 10BD     		pop	{r4, pc}
 481              	.L86:
 482 002a 10BD     		pop	{r4, pc}
 483              	.L88:
 484 002c 0120     		movs	r0, #1
 485 002e 7047     		bx	lr
 486              	.L93:
 487 0030 FFF7FEFF 		bl	FLASH_WaitForLastOperation
 488 0034 0028     		cmp	r0, #0
 489 0036 F8D1     		bne	.L86
 490 0038 024A     		ldr	r2, .L94
 491 003a 1388     		ldrh	r3, [r2]
 492 003c 9BB2     		uxth	r3, r3
 493 003e 1C43     		orrs	r4, r4, r3
 494 0040 1480     		strh	r4, [r2]	@ movhi
 495 0042 10BD     		pop	{r4, pc}
 496              	.L95:
 497              		.align	2
 498              	.L94:
 499 0044 163C0240 		.word	1073888278
 501              		.section	.text.HAL_FLASHEx_AdvOBGetConfig,"ax",%progbits
 502              		.align	1
 503              		.p2align 2,,3
 504              		.global	HAL_FLASHEx_AdvOBGetConfig
 505              		.syntax unified
 506              		.thumb
 507              		.thumb_func
 508              		.fpu fpv4-sp-d16
 510              	HAL_FLASHEx_AdvOBGetConfig:
 511              		@ args = 0, pretend = 0, frame = 0
 512              		@ frame_needed = 0, uses_anonymous_args = 0
 513              		@ link register save eliminated.
 514 0000 014B     		ldr	r3, .L97
 515 0002 1B88     		ldrh	r3, [r3]
 516 0004 0381     		strh	r3, [r0, #8]	@ movhi
 517 0006 7047     		bx	lr
 518              	.L98:
 519              		.align	2
 520              	.L97:
 521 0008 163C0240 		.word	1073888278
 523              		.section	.text.HAL_FLASHEx_OB_SelectPCROP,"ax",%progbits
 524              		.align	1
 525              		.p2align 2,,3
ARM GAS  /tmp/ccpDDLEF.s 			page 10


 526              		.global	HAL_FLASHEx_OB_SelectPCROP
 527              		.syntax unified
 528              		.thumb
 529              		.thumb_func
 530              		.fpu fpv4-sp-d16
 532              	HAL_FLASHEx_OB_SelectPCROP:
 533              		@ args = 0, pretend = 0, frame = 0
 534              		@ frame_needed = 0, uses_anonymous_args = 0
 535              		@ link register save eliminated.
 536 0000 034A     		ldr	r2, .L100
 537 0002 1378     		ldrb	r3, [r2]	@ zero_extendqisi2
 538 0004 43F08003 		orr	r3, r3, #128
 539 0008 1370     		strb	r3, [r2]
 540 000a 0020     		movs	r0, #0
 541 000c 7047     		bx	lr
 542              	.L101:
 543 000e 00BF     		.align	2
 544              	.L100:
 545 0010 173C0240 		.word	1073888279
 547              		.section	.text.HAL_FLASHEx_OB_DeSelectPCROP,"ax",%progbits
 548              		.align	1
 549              		.p2align 2,,3
 550              		.global	HAL_FLASHEx_OB_DeSelectPCROP
 551              		.syntax unified
 552              		.thumb
 553              		.thumb_func
 554              		.fpu fpv4-sp-d16
 556              	HAL_FLASHEx_OB_DeSelectPCROP:
 557              		@ args = 0, pretend = 0, frame = 0
 558              		@ frame_needed = 0, uses_anonymous_args = 0
 559              		@ link register save eliminated.
 560 0000 034A     		ldr	r2, .L103
 561 0002 1378     		ldrb	r3, [r2]	@ zero_extendqisi2
 562 0004 03F07F03 		and	r3, r3, #127
 563 0008 1370     		strb	r3, [r2]
 564 000a 0020     		movs	r0, #0
 565 000c 7047     		bx	lr
 566              	.L104:
 567 000e 00BF     		.align	2
 568              	.L103:
 569 0010 173C0240 		.word	1073888279
 571              		.section	.text.FLASH_Erase_Sector,"ax",%progbits
 572              		.align	1
 573              		.p2align 2,,3
 574              		.global	FLASH_Erase_Sector
 575              		.syntax unified
 576              		.thumb
 577              		.thumb_func
 578              		.fpu fpv4-sp-d16
 580              	FLASH_Erase_Sector:
 581              		@ args = 0, pretend = 0, frame = 0
 582              		@ frame_needed = 0, uses_anonymous_args = 0
 583              		@ link register save eliminated.
 584 0000 39B1     		cbz	r1, .L106
 585 0002 0129     		cmp	r1, #1
 586 0004 21D0     		beq	.L108
 587 0006 0229     		cmp	r1, #2
ARM GAS  /tmp/ccpDDLEF.s 			page 11


 588 0008 0CBF     		ite	eq
 589 000a 4FF40071 		moveq	r1, #512
 590 000e 4FF44071 		movne	r1, #768
 591              	.L106:
 592 0012 0F4B     		ldr	r3, .L110
 593 0014 1A69     		ldr	r2, [r3, #16]
 594 0016 22F44072 		bic	r2, r2, #768
 595 001a 1A61     		str	r2, [r3, #16]
 596 001c 1A69     		ldr	r2, [r3, #16]
 597 001e 1143     		orrs	r1, r1, r2
 598 0020 1961     		str	r1, [r3, #16]
 599 0022 1A69     		ldr	r2, [r3, #16]
 600 0024 22F0F802 		bic	r2, r2, #248
 601 0028 1A61     		str	r2, [r3, #16]
 602 002a F822     		movs	r2, #248
 603              		.syntax unified
 604              	@ 531 "Drivers/CMSIS/Include/cmsis_gcc.h" 1
 605 002c 92FAA2F2 		rbit r2, r2
 606              	@ 0 "" 2
 607              		.thumb
 608              		.syntax unified
 609 0030 1969     		ldr	r1, [r3, #16]
 610 0032 B2FA82F2 		clz	r2, r2
 611 0036 9040     		lsls	r0, r0, r2
 612 0038 41F00202 		orr	r2, r1, #2
 613 003c 1043     		orrs	r0, r0, r2
 614 003e 1861     		str	r0, [r3, #16]
 615 0040 1A69     		ldr	r2, [r3, #16]
 616 0042 42F48032 		orr	r2, r2, #65536
 617 0046 1A61     		str	r2, [r3, #16]
 618 0048 7047     		bx	lr
 619              	.L108:
 620 004a 4FF48071 		mov	r1, #256
 621 004e E0E7     		b	.L106
 622              	.L111:
 623              		.align	2
 624              	.L110:
 625 0050 003C0240 		.word	1073888256
 627              		.section	.text.FLASH_FlushCaches,"ax",%progbits
 628              		.align	1
 629              		.p2align 2,,3
 630              		.global	FLASH_FlushCaches
 631              		.syntax unified
 632              		.thumb
 633              		.thumb_func
 634              		.fpu fpv4-sp-d16
 636              	FLASH_FlushCaches:
 637              		@ args = 0, pretend = 0, frame = 0
 638              		@ frame_needed = 0, uses_anonymous_args = 0
 639              		@ link register save eliminated.
 640 0000 144B     		ldr	r3, .L121
 641 0002 1A68     		ldr	r2, [r3]
 642 0004 9105     		lsls	r1, r2, #22
 643 0006 0FD5     		bpl	.L113
 644 0008 1A68     		ldr	r2, [r3]
 645 000a 22F40072 		bic	r2, r2, #512
 646 000e 1A60     		str	r2, [r3]
ARM GAS  /tmp/ccpDDLEF.s 			page 12


 647 0010 1A68     		ldr	r2, [r3]
 648 0012 42F40062 		orr	r2, r2, #2048
 649 0016 1A60     		str	r2, [r3]
 650 0018 1A68     		ldr	r2, [r3]
 651 001a 22F40062 		bic	r2, r2, #2048
 652 001e 1A60     		str	r2, [r3]
 653 0020 1A68     		ldr	r2, [r3]
 654 0022 42F40072 		orr	r2, r2, #512
 655 0026 1A60     		str	r2, [r3]
 656              	.L113:
 657 0028 0A4B     		ldr	r3, .L121
 658 002a 1A68     		ldr	r2, [r3]
 659 002c 5205     		lsls	r2, r2, #21
 660 002e 0FD5     		bpl	.L112
 661 0030 1A68     		ldr	r2, [r3]
 662 0032 22F48062 		bic	r2, r2, #1024
 663 0036 1A60     		str	r2, [r3]
 664 0038 1A68     		ldr	r2, [r3]
 665 003a 42F48052 		orr	r2, r2, #4096
 666 003e 1A60     		str	r2, [r3]
 667 0040 1A68     		ldr	r2, [r3]
 668 0042 22F48052 		bic	r2, r2, #4096
 669 0046 1A60     		str	r2, [r3]
 670 0048 1A68     		ldr	r2, [r3]
 671 004a 42F48062 		orr	r2, r2, #1024
 672 004e 1A60     		str	r2, [r3]
 673              	.L112:
 674 0050 7047     		bx	lr
 675              	.L122:
 676 0052 00BF     		.align	2
 677              	.L121:
 678 0054 003C0240 		.word	1073888256
 680              		.ident	"GCC: (Arch Repository) 6.3.0"
ARM GAS  /tmp/ccpDDLEF.s 			page 13

