ARM GAS  /tmp/ccyIEm23.s 			page 1


   1              		.cpu cortex-m4
   2              		.eabi_attribute 27, 1
   3              		.eabi_attribute 28, 1
   4              		.eabi_attribute 23, 1
   5              		.eabi_attribute 24, 1
   6              		.eabi_attribute 25, 1
   7              		.eabi_attribute 26, 1
   8              		.eabi_attribute 30, 2
   9              		.eabi_attribute 34, 1
  10              		.eabi_attribute 18, 4
  11              		.file	"stm32f4xx_hal_pwr.c"
  12              		.section	.text.HAL_PWR_DeInit,"ax",%progbits
  13              		.align	1
  14              		.p2align 2,,3
  15              		.global	HAL_PWR_DeInit
  16              		.syntax unified
  17              		.thumb
  18              		.thumb_func
  19              		.fpu fpv4-sp-d16
  21              	HAL_PWR_DeInit:
  22              		@ args = 0, pretend = 0, frame = 0
  23              		@ frame_needed = 0, uses_anonymous_args = 0
  24              		@ link register save eliminated.
  25 0000 044B     		ldr	r3, .L2
  26 0002 1A6A     		ldr	r2, [r3, #32]
  27 0004 42F08052 		orr	r2, r2, #268435456
  28 0008 1A62     		str	r2, [r3, #32]
  29 000a 1A6A     		ldr	r2, [r3, #32]
  30 000c 22F08052 		bic	r2, r2, #268435456
  31 0010 1A62     		str	r2, [r3, #32]
  32 0012 7047     		bx	lr
  33              	.L3:
  34              		.align	2
  35              	.L2:
  36 0014 00380240 		.word	1073887232
  38              		.section	.text.HAL_PWR_EnableBkUpAccess,"ax",%progbits
  39              		.align	1
  40              		.p2align 2,,3
  41              		.global	HAL_PWR_EnableBkUpAccess
  42              		.syntax unified
  43              		.thumb
  44              		.thumb_func
  45              		.fpu fpv4-sp-d16
  47              	HAL_PWR_EnableBkUpAccess:
  48              		@ args = 0, pretend = 0, frame = 0
  49              		@ frame_needed = 0, uses_anonymous_args = 0
  50              		@ link register save eliminated.
  51 0000 4FF48073 		mov	r3, #256
  52              		.syntax unified
  53              	@ 531 "Drivers/CMSIS/Include/cmsis_gcc.h" 1
  54 0004 93FAA3F3 		rbit r3, r3
  55              	@ 0 "" 2
  56              		.thumb
  57              		.syntax unified
  58 0008 B3FA83F3 		clz	r3, r3
  59 000c 03F18453 		add	r3, r3, #276824064
  60 0010 03F56033 		add	r3, r3, #229376
ARM GAS  /tmp/ccyIEm23.s 			page 2


  61 0014 9B00     		lsls	r3, r3, #2
  62 0016 0122     		movs	r2, #1
  63 0018 1A60     		str	r2, [r3]
  64 001a 7047     		bx	lr
  66              		.section	.text.HAL_PWR_DisableBkUpAccess,"ax",%progbits
  67              		.align	1
  68              		.p2align 2,,3
  69              		.global	HAL_PWR_DisableBkUpAccess
  70              		.syntax unified
  71              		.thumb
  72              		.thumb_func
  73              		.fpu fpv4-sp-d16
  75              	HAL_PWR_DisableBkUpAccess:
  76              		@ args = 0, pretend = 0, frame = 0
  77              		@ frame_needed = 0, uses_anonymous_args = 0
  78              		@ link register save eliminated.
  79 0000 4FF48073 		mov	r3, #256
  80              		.syntax unified
  81              	@ 531 "Drivers/CMSIS/Include/cmsis_gcc.h" 1
  82 0004 93FAA3F3 		rbit r3, r3
  83              	@ 0 "" 2
  84              		.thumb
  85              		.syntax unified
  86 0008 B3FA83F3 		clz	r3, r3
  87 000c 03F18453 		add	r3, r3, #276824064
  88 0010 03F56033 		add	r3, r3, #229376
  89 0014 9B00     		lsls	r3, r3, #2
  90 0016 0022     		movs	r2, #0
  91 0018 1A60     		str	r2, [r3]
  92 001a 7047     		bx	lr
  94              		.section	.text.HAL_PWR_ConfigPVD,"ax",%progbits
  95              		.align	1
  96              		.p2align 2,,3
  97              		.global	HAL_PWR_ConfigPVD
  98              		.syntax unified
  99              		.thumb
 100              		.thumb_func
 101              		.fpu fpv4-sp-d16
 103              	HAL_PWR_ConfigPVD:
 104              		@ args = 0, pretend = 0, frame = 0
 105              		@ frame_needed = 0, uses_anonymous_args = 0
 106              		@ link register save eliminated.
 107 0000 1B49     		ldr	r1, .L25
 108 0002 1C4B     		ldr	r3, .L25+4
 109 0004 0A68     		ldr	r2, [r1]
 110 0006 10B4     		push	{r4}
 111 0008 0468     		ldr	r4, [r0]
 112 000a 22F0E002 		bic	r2, r2, #224
 113 000e 2243     		orrs	r2, r2, r4
 114 0010 0A60     		str	r2, [r1]
 115 0012 5A68     		ldr	r2, [r3, #4]
 116 0014 22F48032 		bic	r2, r2, #65536
 117 0018 5A60     		str	r2, [r3, #4]
 118 001a 1A68     		ldr	r2, [r3]
 119 001c 22F48032 		bic	r2, r2, #65536
 120 0020 1A60     		str	r2, [r3]
 121 0022 9A68     		ldr	r2, [r3, #8]
ARM GAS  /tmp/ccyIEm23.s 			page 3


 122 0024 22F48032 		bic	r2, r2, #65536
 123 0028 9A60     		str	r2, [r3, #8]
 124 002a DA68     		ldr	r2, [r3, #12]
 125 002c 22F48032 		bic	r2, r2, #65536
 126 0030 DA60     		str	r2, [r3, #12]
 127 0032 4268     		ldr	r2, [r0, #4]
 128 0034 D403     		lsls	r4, r2, #15
 129 0036 03D5     		bpl	.L7
 130 0038 1968     		ldr	r1, [r3]
 131 003a 41F48031 		orr	r1, r1, #65536
 132 003e 1960     		str	r1, [r3]
 133              	.L7:
 134 0040 9003     		lsls	r0, r2, #14
 135 0042 04D5     		bpl	.L8
 136 0044 0B49     		ldr	r1, .L25+4
 137 0046 4B68     		ldr	r3, [r1, #4]
 138 0048 43F48033 		orr	r3, r3, #65536
 139 004c 4B60     		str	r3, [r1, #4]
 140              	.L8:
 141 004e D107     		lsls	r1, r2, #31
 142 0050 04D5     		bpl	.L9
 143 0052 0849     		ldr	r1, .L25+4
 144 0054 8B68     		ldr	r3, [r1, #8]
 145 0056 43F48033 		orr	r3, r3, #65536
 146 005a 8B60     		str	r3, [r1, #8]
 147              	.L9:
 148 005c 9307     		lsls	r3, r2, #30
 149 005e 04D5     		bpl	.L6
 150 0060 044A     		ldr	r2, .L25+4
 151 0062 D368     		ldr	r3, [r2, #12]
 152 0064 43F48033 		orr	r3, r3, #65536
 153 0068 D360     		str	r3, [r2, #12]
 154              	.L6:
 155 006a 5DF8044B 		ldr	r4, [sp], #4
 156 006e 7047     		bx	lr
 157              	.L26:
 158              		.align	2
 159              	.L25:
 160 0070 00700040 		.word	1073770496
 161 0074 003C0140 		.word	1073822720
 163              		.section	.text.HAL_PWR_EnablePVD,"ax",%progbits
 164              		.align	1
 165              		.p2align 2,,3
 166              		.global	HAL_PWR_EnablePVD
 167              		.syntax unified
 168              		.thumb
 169              		.thumb_func
 170              		.fpu fpv4-sp-d16
 172              	HAL_PWR_EnablePVD:
 173              		@ args = 0, pretend = 0, frame = 0
 174              		@ frame_needed = 0, uses_anonymous_args = 0
 175              		@ link register save eliminated.
 176 0000 1023     		movs	r3, #16
 177              		.syntax unified
 178              	@ 531 "Drivers/CMSIS/Include/cmsis_gcc.h" 1
 179 0002 93FAA3F3 		rbit r3, r3
 180              	@ 0 "" 2
ARM GAS  /tmp/ccyIEm23.s 			page 4


 181              		.thumb
 182              		.syntax unified
 183 0006 B3FA83F3 		clz	r3, r3
 184 000a 03F18453 		add	r3, r3, #276824064
 185 000e 03F56033 		add	r3, r3, #229376
 186 0012 9B00     		lsls	r3, r3, #2
 187 0014 0122     		movs	r2, #1
 188 0016 1A60     		str	r2, [r3]
 189 0018 7047     		bx	lr
 191 001a 00BF     		.section	.text.HAL_PWR_DisablePVD,"ax",%progbits
 192              		.align	1
 193              		.p2align 2,,3
 194              		.global	HAL_PWR_DisablePVD
 195              		.syntax unified
 196              		.thumb
 197              		.thumb_func
 198              		.fpu fpv4-sp-d16
 200              	HAL_PWR_DisablePVD:
 201              		@ args = 0, pretend = 0, frame = 0
 202              		@ frame_needed = 0, uses_anonymous_args = 0
 203              		@ link register save eliminated.
 204 0000 1023     		movs	r3, #16
 205              		.syntax unified
 206              	@ 531 "Drivers/CMSIS/Include/cmsis_gcc.h" 1
 207 0002 93FAA3F3 		rbit r3, r3
 208              	@ 0 "" 2
 209              		.thumb
 210              		.syntax unified
 211 0006 B3FA83F3 		clz	r3, r3
 212 000a 03F18453 		add	r3, r3, #276824064
 213 000e 03F56033 		add	r3, r3, #229376
 214 0012 9B00     		lsls	r3, r3, #2
 215 0014 0022     		movs	r2, #0
 216 0016 1A60     		str	r2, [r3]
 217 0018 7047     		bx	lr
 219 001a 00BF     		.section	.text.HAL_PWR_EnableWakeUpPin,"ax",%progbits
 220              		.align	1
 221              		.p2align 2,,3
 222              		.global	HAL_PWR_EnableWakeUpPin
 223              		.syntax unified
 224              		.thumb
 225              		.thumb_func
 226              		.fpu fpv4-sp-d16
 228              	HAL_PWR_EnableWakeUpPin:
 229              		@ args = 0, pretend = 0, frame = 0
 230              		@ frame_needed = 0, uses_anonymous_args = 0
 231              		@ link register save eliminated.
 232 0000 024A     		ldr	r2, .L30
 233 0002 5368     		ldr	r3, [r2, #4]
 234 0004 1843     		orrs	r0, r0, r3
 235 0006 5060     		str	r0, [r2, #4]
 236 0008 7047     		bx	lr
 237              	.L31:
 238 000a 00BF     		.align	2
 239              	.L30:
 240 000c 00700040 		.word	1073770496
 242              		.section	.text.HAL_PWR_DisableWakeUpPin,"ax",%progbits
ARM GAS  /tmp/ccyIEm23.s 			page 5


 243              		.align	1
 244              		.p2align 2,,3
 245              		.global	HAL_PWR_DisableWakeUpPin
 246              		.syntax unified
 247              		.thumb
 248              		.thumb_func
 249              		.fpu fpv4-sp-d16
 251              	HAL_PWR_DisableWakeUpPin:
 252              		@ args = 0, pretend = 0, frame = 0
 253              		@ frame_needed = 0, uses_anonymous_args = 0
 254              		@ link register save eliminated.
 255 0000 024A     		ldr	r2, .L33
 256 0002 5368     		ldr	r3, [r2, #4]
 257 0004 23EA0000 		bic	r0, r3, r0
 258 0008 5060     		str	r0, [r2, #4]
 259 000a 7047     		bx	lr
 260              	.L34:
 261              		.align	2
 262              	.L33:
 263 000c 00700040 		.word	1073770496
 265              		.section	.text.HAL_PWR_EnterSLEEPMode,"ax",%progbits
 266              		.align	1
 267              		.p2align 2,,3
 268              		.global	HAL_PWR_EnterSLEEPMode
 269              		.syntax unified
 270              		.thumb
 271              		.thumb_func
 272              		.fpu fpv4-sp-d16
 274              	HAL_PWR_EnterSLEEPMode:
 275              		@ args = 0, pretend = 0, frame = 0
 276              		@ frame_needed = 0, uses_anonymous_args = 0
 277              		@ link register save eliminated.
 278 0000 064A     		ldr	r2, .L39
 279 0002 1369     		ldr	r3, [r2, #16]
 280 0004 0129     		cmp	r1, #1
 281 0006 23F00403 		bic	r3, r3, #4
 282 000a 1361     		str	r3, [r2, #16]
 283 000c 03D0     		beq	.L38
 284              		.syntax unified
 285              	@ 406 "Drivers/CMSIS/Include/cmsis_gcc.h" 1
 286 000e 40BF     		sev
 287              	@ 0 "" 2
 288              	@ 396 "Drivers/CMSIS/Include/cmsis_gcc.h" 1
 289 0010 20BF     		wfe
 290              	@ 0 "" 2
 291              	@ 396 "Drivers/CMSIS/Include/cmsis_gcc.h" 1
 292 0012 20BF     		wfe
 293              	@ 0 "" 2
 294              		.thumb
 295              		.syntax unified
 296 0014 7047     		bx	lr
 297              	.L38:
 298              		.syntax unified
 299              	@ 385 "Drivers/CMSIS/Include/cmsis_gcc.h" 1
 300 0016 30BF     		wfi
 301              	@ 0 "" 2
 302              		.thumb
ARM GAS  /tmp/ccyIEm23.s 			page 6


 303              		.syntax unified
 304 0018 7047     		bx	lr
 305              	.L40:
 306 001a 00BF     		.align	2
 307              	.L39:
 308 001c 00ED00E0 		.word	-536810240
 310              		.section	.text.HAL_PWR_EnterSTOPMode,"ax",%progbits
 311              		.align	1
 312              		.p2align 2,,3
 313              		.global	HAL_PWR_EnterSTOPMode
 314              		.syntax unified
 315              		.thumb
 316              		.thumb_func
 317              		.fpu fpv4-sp-d16
 319              	HAL_PWR_EnterSTOPMode:
 320              		@ args = 0, pretend = 0, frame = 0
 321              		@ frame_needed = 0, uses_anonymous_args = 0
 322              		@ link register save eliminated.
 323 0000 10B4     		push	{r4}
 324 0002 0D4C     		ldr	r4, .L46
 325 0004 0D4A     		ldr	r2, .L46+4
 326 0006 2368     		ldr	r3, [r4]
 327 0008 23F00303 		bic	r3, r3, #3
 328 000c 1843     		orrs	r0, r0, r3
 329 000e 2060     		str	r0, [r4]
 330 0010 1369     		ldr	r3, [r2, #16]
 331 0012 0129     		cmp	r1, #1
 332 0014 43F00403 		orr	r3, r3, #4
 333 0018 1361     		str	r3, [r2, #16]
 334 001a 0AD0     		beq	.L45
 335              		.syntax unified
 336              	@ 406 "Drivers/CMSIS/Include/cmsis_gcc.h" 1
 337 001c 40BF     		sev
 338              	@ 0 "" 2
 339              	@ 396 "Drivers/CMSIS/Include/cmsis_gcc.h" 1
 340 001e 20BF     		wfe
 341              	@ 0 "" 2
 342              	@ 396 "Drivers/CMSIS/Include/cmsis_gcc.h" 1
 343 0020 20BF     		wfe
 344              	@ 0 "" 2
 345              		.thumb
 346              		.syntax unified
 347              	.L43:
 348 0022 064A     		ldr	r2, .L46+4
 349 0024 5DF8044B 		ldr	r4, [sp], #4
 350 0028 1369     		ldr	r3, [r2, #16]
 351 002a 23F00403 		bic	r3, r3, #4
 352 002e 1361     		str	r3, [r2, #16]
 353 0030 7047     		bx	lr
 354              	.L45:
 355              		.syntax unified
 356              	@ 385 "Drivers/CMSIS/Include/cmsis_gcc.h" 1
 357 0032 30BF     		wfi
 358              	@ 0 "" 2
 359              		.thumb
 360              		.syntax unified
 361 0034 F5E7     		b	.L43
ARM GAS  /tmp/ccyIEm23.s 			page 7


 362              	.L47:
 363 0036 00BF     		.align	2
 364              	.L46:
 365 0038 00700040 		.word	1073770496
 366 003c 00ED00E0 		.word	-536810240
 368              		.section	.text.HAL_PWR_EnterSTANDBYMode,"ax",%progbits
 369              		.align	1
 370              		.p2align 2,,3
 371              		.global	HAL_PWR_EnterSTANDBYMode
 372              		.syntax unified
 373              		.thumb
 374              		.thumb_func
 375              		.fpu fpv4-sp-d16
 377              	HAL_PWR_EnterSTANDBYMode:
 378              		@ args = 0, pretend = 0, frame = 0
 379              		@ frame_needed = 0, uses_anonymous_args = 0
 380              		@ link register save eliminated.
 381 0000 0549     		ldr	r1, .L49
 382 0002 064A     		ldr	r2, .L49+4
 383 0004 0B68     		ldr	r3, [r1]
 384 0006 43F00203 		orr	r3, r3, #2
 385 000a 0B60     		str	r3, [r1]
 386 000c 1369     		ldr	r3, [r2, #16]
 387 000e 43F00403 		orr	r3, r3, #4
 388 0012 1361     		str	r3, [r2, #16]
 389              		.syntax unified
 390              	@ 385 "Drivers/CMSIS/Include/cmsis_gcc.h" 1
 391 0014 30BF     		wfi
 392              	@ 0 "" 2
 393              		.thumb
 394              		.syntax unified
 395 0016 7047     		bx	lr
 396              	.L50:
 397              		.align	2
 398              	.L49:
 399 0018 00700040 		.word	1073770496
 400 001c 00ED00E0 		.word	-536810240
 402              		.section	.text.HAL_PWR_PVDCallback,"ax",%progbits
 403              		.align	1
 404              		.p2align 2,,3
 405              		.weak	HAL_PWR_PVDCallback
 406              		.syntax unified
 407              		.thumb
 408              		.thumb_func
 409              		.fpu fpv4-sp-d16
 411              	HAL_PWR_PVDCallback:
 412              		@ args = 0, pretend = 0, frame = 0
 413              		@ frame_needed = 0, uses_anonymous_args = 0
 414              		@ link register save eliminated.
 415 0000 7047     		bx	lr
 417 0002 00BF     		.section	.text.HAL_PWR_PVD_IRQHandler,"ax",%progbits
 418              		.align	1
 419              		.p2align 2,,3
 420              		.global	HAL_PWR_PVD_IRQHandler
 421              		.syntax unified
 422              		.thumb
 423              		.thumb_func
ARM GAS  /tmp/ccyIEm23.s 			page 8


 424              		.fpu fpv4-sp-d16
 426              	HAL_PWR_PVD_IRQHandler:
 427              		@ args = 0, pretend = 0, frame = 0
 428              		@ frame_needed = 0, uses_anonymous_args = 0
 429 0000 10B5     		push	{r4, lr}
 430 0002 054C     		ldr	r4, .L58
 431 0004 6369     		ldr	r3, [r4, #20]
 432 0006 DB03     		lsls	r3, r3, #15
 433 0008 04D5     		bpl	.L52
 434 000a FFF7FEFF 		bl	HAL_PWR_PVDCallback
 435 000e 4FF48033 		mov	r3, #65536
 436 0012 6361     		str	r3, [r4, #20]
 437              	.L52:
 438 0014 10BD     		pop	{r4, pc}
 439              	.L59:
 440 0016 00BF     		.align	2
 441              	.L58:
 442 0018 003C0140 		.word	1073822720
 444              		.section	.text.HAL_PWR_EnableSleepOnExit,"ax",%progbits
 445              		.align	1
 446              		.p2align 2,,3
 447              		.global	HAL_PWR_EnableSleepOnExit
 448              		.syntax unified
 449              		.thumb
 450              		.thumb_func
 451              		.fpu fpv4-sp-d16
 453              	HAL_PWR_EnableSleepOnExit:
 454              		@ args = 0, pretend = 0, frame = 0
 455              		@ frame_needed = 0, uses_anonymous_args = 0
 456              		@ link register save eliminated.
 457 0000 024A     		ldr	r2, .L61
 458 0002 1369     		ldr	r3, [r2, #16]
 459 0004 43F00203 		orr	r3, r3, #2
 460 0008 1361     		str	r3, [r2, #16]
 461 000a 7047     		bx	lr
 462              	.L62:
 463              		.align	2
 464              	.L61:
 465 000c 00ED00E0 		.word	-536810240
 467              		.section	.text.HAL_PWR_DisableSleepOnExit,"ax",%progbits
 468              		.align	1
 469              		.p2align 2,,3
 470              		.global	HAL_PWR_DisableSleepOnExit
 471              		.syntax unified
 472              		.thumb
 473              		.thumb_func
 474              		.fpu fpv4-sp-d16
 476              	HAL_PWR_DisableSleepOnExit:
 477              		@ args = 0, pretend = 0, frame = 0
 478              		@ frame_needed = 0, uses_anonymous_args = 0
 479              		@ link register save eliminated.
 480 0000 024A     		ldr	r2, .L64
 481 0002 1369     		ldr	r3, [r2, #16]
 482 0004 23F00203 		bic	r3, r3, #2
 483 0008 1361     		str	r3, [r2, #16]
 484 000a 7047     		bx	lr
 485              	.L65:
ARM GAS  /tmp/ccyIEm23.s 			page 9


 486              		.align	2
 487              	.L64:
 488 000c 00ED00E0 		.word	-536810240
 490              		.section	.text.HAL_PWR_EnableSEVOnPend,"ax",%progbits
 491              		.align	1
 492              		.p2align 2,,3
 493              		.global	HAL_PWR_EnableSEVOnPend
 494              		.syntax unified
 495              		.thumb
 496              		.thumb_func
 497              		.fpu fpv4-sp-d16
 499              	HAL_PWR_EnableSEVOnPend:
 500              		@ args = 0, pretend = 0, frame = 0
 501              		@ frame_needed = 0, uses_anonymous_args = 0
 502              		@ link register save eliminated.
 503 0000 024A     		ldr	r2, .L67
 504 0002 1369     		ldr	r3, [r2, #16]
 505 0004 43F01003 		orr	r3, r3, #16
 506 0008 1361     		str	r3, [r2, #16]
 507 000a 7047     		bx	lr
 508              	.L68:
 509              		.align	2
 510              	.L67:
 511 000c 00ED00E0 		.word	-536810240
 513              		.section	.text.HAL_PWR_DisableSEVOnPend,"ax",%progbits
 514              		.align	1
 515              		.p2align 2,,3
 516              		.global	HAL_PWR_DisableSEVOnPend
 517              		.syntax unified
 518              		.thumb
 519              		.thumb_func
 520              		.fpu fpv4-sp-d16
 522              	HAL_PWR_DisableSEVOnPend:
 523              		@ args = 0, pretend = 0, frame = 0
 524              		@ frame_needed = 0, uses_anonymous_args = 0
 525              		@ link register save eliminated.
 526 0000 024A     		ldr	r2, .L70
 527 0002 1369     		ldr	r3, [r2, #16]
 528 0004 23F01003 		bic	r3, r3, #16
 529 0008 1361     		str	r3, [r2, #16]
 530 000a 7047     		bx	lr
 531              	.L71:
 532              		.align	2
 533              	.L70:
 534 000c 00ED00E0 		.word	-536810240
 536              		.ident	"GCC: (Arch Repository) 6.3.0"
ARM GAS  /tmp/ccyIEm23.s 			page 10

