ARM GAS  /tmp/ccVRQQWa.s 			page 1


   1              		.cpu cortex-m4
   2              		.eabi_attribute 27, 1
   3              		.eabi_attribute 28, 1
   4              		.eabi_attribute 23, 1
   5              		.eabi_attribute 24, 1
   6              		.eabi_attribute 25, 1
   7              		.eabi_attribute 26, 1
   8              		.eabi_attribute 30, 2
   9              		.eabi_attribute 34, 1
  10              		.eabi_attribute 18, 4
  11              		.file	"stm32f4xx_hal_dma.c"
  12              		.section	.text.HAL_DMA_Init,"ax",%progbits
  13              		.align	1
  14              		.p2align 2,,3
  15              		.global	HAL_DMA_Init
  16              		.syntax unified
  17              		.thumb
  18              		.thumb_func
  19              		.fpu fpv4-sp-d16
  21              	HAL_DMA_Init:
  22              		@ args = 0, pretend = 0, frame = 0
  23              		@ frame_needed = 0, uses_anonymous_args = 0
  24 0000 F8B5     		push	{r3, r4, r5, r6, r7, lr}
  25 0002 0446     		mov	r4, r0
  26 0004 FFF7FEFF 		bl	HAL_GetTick
  27 0008 002C     		cmp	r4, #0
  28 000a 6FD0     		beq	.L20
  29 000c 0222     		movs	r2, #2
  30 000e 2368     		ldr	r3, [r4]
  31 0010 84F83520 		strb	r2, [r4, #53]
  32 0014 1A68     		ldr	r2, [r3]
  33 0016 0021     		movs	r1, #0
  34 0018 22F00102 		bic	r2, r2, #1
  35 001c 84F83410 		strb	r1, [r4, #52]
  36 0020 0546     		mov	r5, r0
  37 0022 1A60     		str	r2, [r3]
  38 0024 05E0     		b	.L3
  39              	.L5:
  40 0026 FFF7FEFF 		bl	HAL_GetTick
  41 002a 401B     		subs	r0, r0, r5
  42 002c 0528     		cmp	r0, #5
  43 002e 3BD8     		bhi	.L35
  44 0030 2368     		ldr	r3, [r4]
  45              	.L3:
  46 0032 1A68     		ldr	r2, [r3]
  47 0034 D107     		lsls	r1, r2, #31
  48 0036 F6D4     		bmi	.L5
  49 0038 A768     		ldr	r7, [r4, #8]
  50 003a 6268     		ldr	r2, [r4, #4]
  51 003c E668     		ldr	r6, [r4, #12]
  52 003e 2569     		ldr	r5, [r4, #16]
  53 0040 6169     		ldr	r1, [r4, #20]
  54 0042 A069     		ldr	r0, [r4, #24]
  55 0044 3A43     		orrs	r2, r2, r7
  56 0046 3243     		orrs	r2, r2, r6
  57 0048 2A43     		orrs	r2, r2, r5
  58 004a 0A43     		orrs	r2, r2, r1
ARM GAS  /tmp/ccVRQQWa.s 			page 2


  59 004c E169     		ldr	r1, [r4, #28]
  60 004e 256A     		ldr	r5, [r4, #32]
  61 0050 1F68     		ldr	r7, [r3]
  62 0052 344E     		ldr	r6, .L38
  63 0054 0243     		orrs	r2, r2, r0
  64 0056 0A43     		orrs	r2, r2, r1
  65 0058 616A     		ldr	r1, [r4, #36]
  66 005a 2A43     		orrs	r2, r2, r5
  67 005c 3E40     		ands	r6, r6, r7
  68 005e 0429     		cmp	r1, #4
  69 0060 42EA0602 		orr	r2, r2, r6
  70 0064 27D0     		beq	.L36
  71 0066 1A60     		str	r2, [r3]
  72 0068 5A69     		ldr	r2, [r3, #20]
  73 006a 22F00702 		bic	r2, r2, #7
  74 006e 1143     		orrs	r1, r1, r2
  75              	.L8:
  76 0070 DAB2     		uxtb	r2, r3
  77 0072 2D4D     		ldr	r5, .L38+4
  78 0074 5961     		str	r1, [r3, #20]
  79 0076 103A     		subs	r2, r2, #16
  80 0078 A5FB0212 		umull	r1, r2, r5, r2
  81 007c 1209     		lsrs	r2, r2, #4
  82 007e 2B48     		ldr	r0, .L38+8
  83 0080 23F47F73 		bic	r3, r3, #1020
  84 0084 815C     		ldrb	r1, [r0, r2]	@ zero_extendqisi2
  85 0086 E165     		str	r1, [r4, #92]
  86 0088 23F00303 		bic	r3, r3, #3
  87 008c 032A     		cmp	r2, #3
  88 008e 88BF     		it	hi
  89 0090 0433     		addhi	r3, r3, #4
  90 0092 3F22     		movs	r2, #63
  91 0094 8A40     		lsls	r2, r2, r1
  92 0096 0125     		movs	r5, #1
  93 0098 0021     		movs	r1, #0
  94 009a A365     		str	r3, [r4, #88]
  95 009c 0846     		mov	r0, r1
  96 009e 9A60     		str	r2, [r3, #8]
  97 00a0 6165     		str	r1, [r4, #84]
  98 00a2 84F83550 		strb	r5, [r4, #53]
  99 00a6 F8BD     		pop	{r3, r4, r5, r6, r7, pc}
 100              	.L35:
 101 00a8 0323     		movs	r3, #3
 102 00aa 2022     		movs	r2, #32
 103 00ac 6265     		str	r2, [r4, #84]
 104 00ae 1846     		mov	r0, r3
 105 00b0 84F83530 		strb	r3, [r4, #53]
 106 00b4 F8BD     		pop	{r3, r4, r5, r6, r7, pc}
 107              	.L36:
 108 00b6 E66A     		ldr	r6, [r4, #44]
 109 00b8 216B     		ldr	r1, [r4, #48]
 110 00ba A56A     		ldr	r5, [r4, #40]
 111 00bc 3143     		orrs	r1, r1, r6
 112 00be 0A43     		orrs	r2, r2, r1
 113 00c0 1A60     		str	r2, [r3]
 114 00c2 5A69     		ldr	r2, [r3, #20]
 115 00c4 45F00401 		orr	r1, r5, #4
ARM GAS  /tmp/ccVRQQWa.s 			page 3


 116 00c8 22F00702 		bic	r2, r2, #7
 117 00cc 1143     		orrs	r1, r1, r2
 118 00ce 78B9     		cbnz	r0, .L7
 119 00d0 012D     		cmp	r5, #1
 120 00d2 23D0     		beq	.L16
 121 00d4 01D3     		bcc	.L30
 122 00d6 022D     		cmp	r5, #2
 123 00d8 CAD1     		bne	.L8
 124              	.L30:
 125 00da F201     		lsls	r2, r6, #7
 126 00dc C8D5     		bpl	.L8
 127              	.L12:
 128 00de 0123     		movs	r3, #1
 129 00e0 4022     		movs	r2, #64
 130 00e2 6265     		str	r2, [r4, #84]
 131 00e4 1846     		mov	r0, r3
 132 00e6 84F83530 		strb	r3, [r4, #53]
 133 00ea F8BD     		pop	{r3, r4, r5, r6, r7, pc}
 134              	.L20:
 135 00ec 0120     		movs	r0, #1
 136 00ee F8BD     		pop	{r3, r4, r5, r6, r7, pc}
 137              	.L7:
 138 00f0 B0F5005F 		cmp	r0, #8192
 139 00f4 04D0     		beq	.L37
 140 00f6 022D     		cmp	r5, #2
 141 00f8 F1D9     		bls	.L12
 142 00fa 032D     		cmp	r5, #3
 143 00fc B8D1     		bne	.L8
 144 00fe ECE7     		b	.L30
 145              	.L37:
 146 0100 032D     		cmp	r5, #3
 147 0102 B5D8     		bhi	.L8
 148 0104 01A2     		adr	r2, .L14
 149 0106 52F825F0 		ldr	pc, [r2, r5, lsl #2]
 150 010a 00BF     		.p2align 2
 151              	.L14:
 152 010c DF000000 		.word	.L12+1
 153 0110 DB000000 		.word	.L30+1
 154 0114 DF000000 		.word	.L12+1
 155 0118 1D010000 		.word	.L16+1
 156              		.p2align 1
 157              	.L16:
 158 011c B6F1C07F 		cmp	r6, #25165824
 159 0120 A6D1     		bne	.L8
 160 0122 DCE7     		b	.L12
 161              	.L39:
 162              		.align	2
 163              	.L38:
 164 0124 3F8010F0 		.word	-267354049
 165 0128 ABAAAAAA 		.word	-1431655765
 166 012c 00000000 		.word	.LANCHOR0
 168              		.section	.text.HAL_DMA_DeInit,"ax",%progbits
 169              		.align	1
 170              		.p2align 2,,3
 171              		.global	HAL_DMA_DeInit
 172              		.syntax unified
 173              		.thumb
ARM GAS  /tmp/ccVRQQWa.s 			page 4


 174              		.thumb_func
 175              		.fpu fpv4-sp-d16
 177              	HAL_DMA_DeInit:
 178              		@ args = 0, pretend = 0, frame = 0
 179              		@ frame_needed = 0, uses_anonymous_args = 0
 180              		@ link register save eliminated.
 181 0000 0028     		cmp	r0, #0
 182 0002 32D0     		beq	.L44
 183 0004 90F83530 		ldrb	r3, [r0, #53]	@ zero_extendqisi2
 184 0008 DBB2     		uxtb	r3, r3
 185 000a 022B     		cmp	r3, #2
 186 000c 0246     		mov	r2, r0
 187 000e 2AD0     		beq	.L45
 188 0010 0368     		ldr	r3, [r0]
 189 0012 1748     		ldr	r0, .L50
 190 0014 D9B2     		uxtb	r1, r3
 191 0016 70B4     		push	{r4, r5, r6}
 192 0018 1039     		subs	r1, r1, #16
 193 001a 1D68     		ldr	r5, [r3]
 194 001c 154E     		ldr	r6, .L50+4
 195 001e A0FB0101 		umull	r0, r1, r0, r1
 196 0022 0909     		lsrs	r1, r1, #4
 197 0024 0020     		movs	r0, #0
 198 0026 25F00105 		bic	r5, r5, #1
 199 002a 2124     		movs	r4, #33
 200 002c 1D60     		str	r5, [r3]
 201 002e 1860     		str	r0, [r3]
 202 0030 5860     		str	r0, [r3, #4]
 203 0032 9860     		str	r0, [r3, #8]
 204 0034 D860     		str	r0, [r3, #12]
 205 0036 1861     		str	r0, [r3, #16]
 206 0038 5C61     		str	r4, [r3, #20]
 207 003a 23F47F73 		bic	r3, r3, #1020
 208 003e 765C     		ldrb	r6, [r6, r1]	@ zero_extendqisi2
 209 0040 D665     		str	r6, [r2, #92]
 210 0042 23F00303 		bic	r3, r3, #3
 211 0046 0329     		cmp	r1, #3
 212 0048 88BF     		it	hi
 213 004a 0433     		addhi	r3, r3, #4
 214 004c 3F24     		movs	r4, #63
 215 004e 0021     		movs	r1, #0
 216 0050 B440     		lsls	r4, r4, r6
 217 0052 9365     		str	r3, [r2, #88]
 218 0054 0846     		mov	r0, r1
 219 0056 9C60     		str	r4, [r3, #8]
 220 0058 5165     		str	r1, [r2, #84]
 221 005a 82F83410 		strb	r1, [r2, #52]
 222 005e 82F83510 		strb	r1, [r2, #53]
 223 0062 70BC     		pop	{r4, r5, r6}
 224 0064 7047     		bx	lr
 225              	.L45:
 226 0066 1846     		mov	r0, r3
 227 0068 7047     		bx	lr
 228              	.L44:
 229 006a 0120     		movs	r0, #1
 230 006c 7047     		bx	lr
 231              	.L51:
ARM GAS  /tmp/ccVRQQWa.s 			page 5


 232 006e 00BF     		.align	2
 233              	.L50:
 234 0070 ABAAAAAA 		.word	-1431655765
 235 0074 00000000 		.word	.LANCHOR0
 237              		.section	.text.HAL_DMA_Start,"ax",%progbits
 238              		.align	1
 239              		.p2align 2,,3
 240              		.global	HAL_DMA_Start
 241              		.syntax unified
 242              		.thumb
 243              		.thumb_func
 244              		.fpu fpv4-sp-d16
 246              	HAL_DMA_Start:
 247              		@ args = 0, pretend = 0, frame = 0
 248              		@ frame_needed = 0, uses_anonymous_args = 0
 249              		@ link register save eliminated.
 250 0000 70B4     		push	{r4, r5, r6}
 251 0002 90F83440 		ldrb	r4, [r0, #52]	@ zero_extendqisi2
 252 0006 012C     		cmp	r4, #1
 253 0008 0CD0     		beq	.L57
 254 000a 90F83540 		ldrb	r4, [r0, #53]	@ zero_extendqisi2
 255 000e 0125     		movs	r5, #1
 256 0010 AC42     		cmp	r4, r5
 257 0012 80F83450 		strb	r5, [r0, #52]
 258 0016 08D0     		beq	.L59
 259 0018 0023     		movs	r3, #0
 260 001a 80F83430 		strb	r3, [r0, #52]
 261 001e 0220     		movs	r0, #2
 262              	.L53:
 263 0020 70BC     		pop	{r4, r5, r6}
 264 0022 7047     		bx	lr
 265              	.L57:
 266 0024 0220     		movs	r0, #2
 267 0026 70BC     		pop	{r4, r5, r6}
 268 0028 7047     		bx	lr
 269              	.L59:
 270 002a 0468     		ldr	r4, [r0]
 271 002c 0226     		movs	r6, #2
 272 002e 0025     		movs	r5, #0
 273 0030 80F83560 		strb	r6, [r0, #53]
 274 0034 4565     		str	r5, [r0, #84]
 275 0036 2568     		ldr	r5, [r4]
 276 0038 8668     		ldr	r6, [r0, #8]
 277 003a 25F48025 		bic	r5, r5, #262144
 278 003e 402E     		cmp	r6, #64
 279 0040 2560     		str	r5, [r4]
 280 0042 6360     		str	r3, [r4, #4]
 281 0044 0BBF     		itete	eq
 282 0046 A260     		streq	r2, [r4, #8]
 283 0048 A160     		strne	r1, [r4, #8]
 284 004a E160     		streq	r1, [r4, #12]
 285 004c E260     		strne	r2, [r4, #12]
 286 004e 2368     		ldr	r3, [r4]
 287 0050 43F00103 		orr	r3, r3, #1
 288 0054 2360     		str	r3, [r4]
 289 0056 0020     		movs	r0, #0
 290 0058 E2E7     		b	.L53
ARM GAS  /tmp/ccVRQQWa.s 			page 6


 292 005a 00BF     		.section	.text.HAL_DMA_Start_IT,"ax",%progbits
 293              		.align	1
 294              		.p2align 2,,3
 295              		.global	HAL_DMA_Start_IT
 296              		.syntax unified
 297              		.thumb
 298              		.thumb_func
 299              		.fpu fpv4-sp-d16
 301              	HAL_DMA_Start_IT:
 302              		@ args = 0, pretend = 0, frame = 0
 303              		@ frame_needed = 0, uses_anonymous_args = 0
 304              		@ link register save eliminated.
 305 0000 F0B4     		push	{r4, r5, r6, r7}
 306 0002 90F83440 		ldrb	r4, [r0, #52]	@ zero_extendqisi2
 307 0006 012C     		cmp	r4, #1
 308 0008 0DD0     		beq	.L66
 309 000a 90F83540 		ldrb	r4, [r0, #53]	@ zero_extendqisi2
 310 000e 866D     		ldr	r6, [r0, #88]
 311 0010 0125     		movs	r5, #1
 312 0012 AC42     		cmp	r4, r5
 313 0014 80F83450 		strb	r5, [r0, #52]
 314 0018 08D0     		beq	.L71
 315 001a 0023     		movs	r3, #0
 316 001c 80F83430 		strb	r3, [r0, #52]
 317 0020 0220     		movs	r0, #2
 318              	.L61:
 319 0022 F0BC     		pop	{r4, r5, r6, r7}
 320 0024 7047     		bx	lr
 321              	.L66:
 322 0026 0220     		movs	r0, #2
 323 0028 F0BC     		pop	{r4, r5, r6, r7}
 324 002a 7047     		bx	lr
 325              	.L71:
 326 002c 0468     		ldr	r4, [r0]
 327 002e 0227     		movs	r7, #2
 328 0030 0025     		movs	r5, #0
 329 0032 80F83570 		strb	r7, [r0, #53]
 330 0036 4565     		str	r5, [r0, #84]
 331 0038 2568     		ldr	r5, [r4]
 332 003a 8768     		ldr	r7, [r0, #8]
 333 003c 25F48025 		bic	r5, r5, #262144
 334 0040 402F     		cmp	r7, #64
 335 0042 2560     		str	r5, [r4]
 336 0044 6360     		str	r3, [r4, #4]
 337 0046 0ABF     		itet	eq
 338 0048 A260     		streq	r2, [r4, #8]
 339 004a A160     		strne	r1, [r4, #8]
 340 004c E160     		streq	r1, [r4, #12]
 341 004e C16D     		ldr	r1, [r0, #92]
 342 0050 18BF     		it	ne
 343 0052 E260     		strne	r2, [r4, #12]
 344 0054 3F23     		movs	r3, #63
 345 0056 8B40     		lsls	r3, r3, r1
 346 0058 026C     		ldr	r2, [r0, #64]
 347 005a B360     		str	r3, [r6, #8]
 348 005c 2368     		ldr	r3, [r4]
 349 005e 43F01603 		orr	r3, r3, #22
ARM GAS  /tmp/ccVRQQWa.s 			page 7


 350 0062 2360     		str	r3, [r4]
 351 0064 6369     		ldr	r3, [r4, #20]
 352 0066 43F08003 		orr	r3, r3, #128
 353 006a 6361     		str	r3, [r4, #20]
 354 006c 1AB1     		cbz	r2, .L65
 355 006e 2368     		ldr	r3, [r4]
 356 0070 43F00803 		orr	r3, r3, #8
 357 0074 2360     		str	r3, [r4]
 358              	.L65:
 359 0076 2368     		ldr	r3, [r4]
 360 0078 43F00103 		orr	r3, r3, #1
 361 007c 2360     		str	r3, [r4]
 362 007e 0020     		movs	r0, #0
 363 0080 CFE7     		b	.L61
 365 0082 00BF     		.section	.text.HAL_DMA_Abort,"ax",%progbits
 366              		.align	1
 367              		.p2align 2,,3
 368              		.global	HAL_DMA_Abort
 369              		.syntax unified
 370              		.thumb
 371              		.thumb_func
 372              		.fpu fpv4-sp-d16
 374              	HAL_DMA_Abort:
 375              		@ args = 0, pretend = 0, frame = 0
 376              		@ frame_needed = 0, uses_anonymous_args = 0
 377 0000 70B5     		push	{r4, r5, r6, lr}
 378 0002 0446     		mov	r4, r0
 379 0004 866D     		ldr	r6, [r0, #88]
 380 0006 FFF7FEFF 		bl	HAL_GetTick
 381 000a 94F83530 		ldrb	r3, [r4, #53]	@ zero_extendqisi2
 382 000e 022B     		cmp	r3, #2
 383 0010 06D0     		beq	.L73
 384 0012 8022     		movs	r2, #128
 385 0014 0023     		movs	r3, #0
 386 0016 6265     		str	r2, [r4, #84]
 387 0018 84F83430 		strb	r3, [r4, #52]
 388 001c 0120     		movs	r0, #1
 389 001e 70BD     		pop	{r4, r5, r6, pc}
 390              	.L73:
 391 0020 2368     		ldr	r3, [r4]
 392 0022 216C     		ldr	r1, [r4, #64]
 393 0024 1A68     		ldr	r2, [r3]
 394 0026 22F01602 		bic	r2, r2, #22
 395 002a 1A60     		str	r2, [r3]
 396 002c 5A69     		ldr	r2, [r3, #20]
 397 002e 22F08002 		bic	r2, r2, #128
 398 0032 0546     		mov	r5, r0
 399 0034 5A61     		str	r2, [r3, #20]
 400 0036 31B3     		cbz	r1, .L84
 401              	.L75:
 402 0038 1A68     		ldr	r2, [r3]
 403 003a 22F00802 		bic	r2, r2, #8
 404 003e 1A60     		str	r2, [r3]
 405              	.L76:
 406 0040 1A68     		ldr	r2, [r3]
 407 0042 22F00102 		bic	r2, r2, #1
 408 0046 1A60     		str	r2, [r3]
ARM GAS  /tmp/ccVRQQWa.s 			page 8


 409 0048 05E0     		b	.L77
 410              	.L79:
 411 004a FFF7FEFF 		bl	HAL_GetTick
 412 004e 401B     		subs	r0, r0, r5
 413 0050 0528     		cmp	r0, #5
 414 0052 0FD8     		bhi	.L85
 415 0054 2368     		ldr	r3, [r4]
 416              	.L77:
 417 0056 1B68     		ldr	r3, [r3]
 418 0058 13F00103 		ands	r3, r3, #1
 419 005c F5D1     		bne	.L79
 420 005e E16D     		ldr	r1, [r4, #92]
 421 0060 3F22     		movs	r2, #63
 422 0062 8A40     		lsls	r2, r2, r1
 423 0064 0121     		movs	r1, #1
 424 0066 B260     		str	r2, [r6, #8]
 425 0068 1846     		mov	r0, r3
 426 006a 84F83430 		strb	r3, [r4, #52]
 427 006e 84F83510 		strb	r1, [r4, #53]
 428 0072 70BD     		pop	{r4, r5, r6, pc}
 429              	.L85:
 430 0074 2022     		movs	r2, #32
 431 0076 0023     		movs	r3, #0
 432 0078 0320     		movs	r0, #3
 433 007a 6265     		str	r2, [r4, #84]
 434 007c 84F83430 		strb	r3, [r4, #52]
 435 0080 84F83500 		strb	r0, [r4, #53]
 436 0084 70BD     		pop	{r4, r5, r6, pc}
 437              	.L84:
 438 0086 A26C     		ldr	r2, [r4, #72]
 439 0088 002A     		cmp	r2, #0
 440 008a D5D1     		bne	.L75
 441 008c D8E7     		b	.L76
 443 008e 00BF     		.section	.text.HAL_DMA_Abort_IT,"ax",%progbits
 444              		.align	1
 445              		.p2align 2,,3
 446              		.global	HAL_DMA_Abort_IT
 447              		.syntax unified
 448              		.thumb
 449              		.thumb_func
 450              		.fpu fpv4-sp-d16
 452              	HAL_DMA_Abort_IT:
 453              		@ args = 0, pretend = 0, frame = 0
 454              		@ frame_needed = 0, uses_anonymous_args = 0
 455              		@ link register save eliminated.
 456 0000 90F83530 		ldrb	r3, [r0, #53]	@ zero_extendqisi2
 457 0004 022B     		cmp	r3, #2
 458 0006 03D0     		beq	.L87
 459 0008 8023     		movs	r3, #128
 460 000a 4365     		str	r3, [r0, #84]
 461 000c 0120     		movs	r0, #1
 462 000e 7047     		bx	lr
 463              	.L87:
 464 0010 0268     		ldr	r2, [r0]
 465 0012 0523     		movs	r3, #5
 466 0014 80F83530 		strb	r3, [r0, #53]
 467 0018 1368     		ldr	r3, [r2]
ARM GAS  /tmp/ccVRQQWa.s 			page 9


 468 001a 23F00103 		bic	r3, r3, #1
 469 001e 1360     		str	r3, [r2]
 470 0020 0020     		movs	r0, #0
 471 0022 7047     		bx	lr
 473              		.section	.text.HAL_DMA_PollForTransfer,"ax",%progbits
 474              		.align	1
 475              		.p2align 2,,3
 476              		.global	HAL_DMA_PollForTransfer
 477              		.syntax unified
 478              		.thumb
 479              		.thumb_func
 480              		.fpu fpv4-sp-d16
 482              	HAL_DMA_PollForTransfer:
 483              		@ args = 0, pretend = 0, frame = 8
 484              		@ frame_needed = 0, uses_anonymous_args = 0
 485 0000 2DE9F04F 		push	{r4, r5, r6, r7, r8, r9, r10, fp, lr}
 486 0004 0446     		mov	r4, r0
 487 0006 83B0     		sub	sp, sp, #12
 488 0008 1546     		mov	r5, r2
 489 000a 0191     		str	r1, [sp, #4]
 490 000c FFF7FEFF 		bl	HAL_GetTick
 491 0010 94F83530 		ldrb	r3, [r4, #53]	@ zero_extendqisi2
 492 0014 022B     		cmp	r3, #2
 493 0016 08D0     		beq	.L90
 494 0018 8022     		movs	r2, #128
 495 001a 0023     		movs	r3, #0
 496 001c 6265     		str	r2, [r4, #84]
 497 001e 84F83430 		strb	r3, [r4, #52]
 498 0022 0120     		movs	r0, #1
 499              	.L91:
 500 0024 03B0     		add	sp, sp, #12
 501              		@ sp needed
 502 0026 BDE8F08F 		pop	{r4, r5, r6, r7, r8, r9, r10, fp, pc}
 503              	.L90:
 504 002a 2368     		ldr	r3, [r4]
 505 002c 1B68     		ldr	r3, [r3]
 506 002e DE05     		lsls	r6, r3, #23
 507 0030 5DD4     		bmi	.L155
 508 0032 019B     		ldr	r3, [sp, #4]
 509 0034 E26D     		ldr	r2, [r4, #92]
 510 0036 0646     		mov	r6, r0
 511 0038 002B     		cmp	r3, #0
 512 003a 53D0     		beq	.L156
 513 003c 4FF0100B 		mov	fp, #16
 514 0040 0BFA02FB 		lsl	fp, fp, r2
 515              	.L94:
 516 0044 D4F858A0 		ldr	r10, [r4, #88]
 517 0048 DAF80030 		ldr	r3, [r10]
 518 004c 002D     		cmp	r5, #0
 519 004e 55D0     		beq	.L95
 520 0050 681C     		adds	r0, r5, #1
 521 0052 63D0     		beq	.L96
 522 0054 DFF8C481 		ldr	r8, .L163+4
 523 0058 6F4F     		ldr	r7, .L163
 524 005a 4FF00809 		mov	r9, #8
 525              	.L97:
 526 005e 1BEA030F 		tst	fp, r3
ARM GAS  /tmp/ccVRQQWa.s 			page 10


 527 0062 30D1     		bne	.L109
 528              	.L157:
 529 0064 636D     		ldr	r3, [r4, #84]
 530 0066 DB07     		lsls	r3, r3, #31
 531 0068 2DD4     		bmi	.L109
 532 006a FFF7FEFF 		bl	HAL_GetTick
 533 006e 801B     		subs	r0, r0, r6
 534 0070 8542     		cmp	r5, r0
 535 0072 49D3     		bcc	.L104
 536 0074 E26D     		ldr	r2, [r4, #92]
 537 0076 DAF80030 		ldr	r3, [r10]
 538 007a 09FA02FE 		lsl	lr, r9, r2
 539 007e 13EA0E0F 		tst	r3, lr
 540 0082 08FA02F0 		lsl	r0, r8, r2
 541 0086 07FA02F1 		lsl	r1, r7, r2
 542 008a 07D0     		beq	.L105
 543 008c D4F854C0 		ldr	ip, [r4, #84]
 544 0090 4CF0010C 		orr	ip, ip, #1
 545 0094 C4F854C0 		str	ip, [r4, #84]
 546 0098 CAF808E0 		str	lr, [r10, #8]
 547              	.L105:
 548 009c 0342     		tst	r3, r0
 549 009e 07D0     		beq	.L106
 550 00a0 D4F854E0 		ldr	lr, [r4, #84]
 551 00a4 4EF0020E 		orr	lr, lr, #2
 552 00a8 C4F854E0 		str	lr, [r4, #84]
 553 00ac CAF80800 		str	r0, [r10, #8]
 554              	.L106:
 555 00b0 0B42     		tst	r3, r1
 556 00b2 D4D0     		beq	.L97
 557 00b4 606D     		ldr	r0, [r4, #84]
 558 00b6 1BEA030F 		tst	fp, r3
 559 00ba 40F00400 		orr	r0, r0, #4
 560 00be 6065     		str	r0, [r4, #84]
 561 00c0 CAF80810 		str	r1, [r10, #8]
 562 00c4 CED0     		beq	.L157
 563              	.L109:
 564 00c6 636D     		ldr	r3, [r4, #84]
 565 00c8 13B1     		cbz	r3, .L110
 566 00ca 636D     		ldr	r3, [r4, #84]
 567 00cc D907     		lsls	r1, r3, #31
 568 00ce 5CD4     		bmi	.L158
 569              	.L110:
 570 00d0 019B     		ldr	r3, [sp, #4]
 571 00d2 002B     		cmp	r3, #0
 572 00d4 4CD0     		beq	.L159
 573 00d6 1023     		movs	r3, #16
 574 00d8 03FA02F2 		lsl	r2, r3, r2
 575 00dc CAF80820 		str	r2, [r10, #8]
 576 00e0 0020     		movs	r0, #0
 577 00e2 9FE7     		b	.L91
 578              	.L156:
 579 00e4 4FF0200B 		mov	fp, #32
 580 00e8 0BFA02FB 		lsl	fp, fp, r2
 581 00ec AAE7     		b	.L94
 582              	.L155:
 583 00ee 4FF48073 		mov	r3, #256
ARM GAS  /tmp/ccVRQQWa.s 			page 11


 584 00f2 0120     		movs	r0, #1
 585 00f4 6365     		str	r3, [r4, #84]
 586 00f6 03B0     		add	sp, sp, #12
 587              		@ sp needed
 588 00f8 BDE8F08F 		pop	{r4, r5, r6, r7, r8, r9, r10, fp, pc}
 589              	.L95:
 590 00fc 1BEA030F 		tst	fp, r3
 591 0100 E1D1     		bne	.L109
 592 0102 636D     		ldr	r3, [r4, #84]
 593 0104 D807     		lsls	r0, r3, #31
 594 0106 DED4     		bmi	.L109
 595              	.L104:
 596 0108 2021     		movs	r1, #32
 597 010a 0022     		movs	r2, #0
 598 010c 0123     		movs	r3, #1
 599 010e 6165     		str	r1, [r4, #84]
 600 0110 84F83420 		strb	r2, [r4, #52]
 601 0114 84F83530 		strb	r3, [r4, #53]
 602 0118 0320     		movs	r0, #3
 603 011a 83E7     		b	.L91
 604              	.L96:
 605 011c 3F4E     		ldr	r6, .L163+4
 606 011e 3E4D     		ldr	r5, .L163
 607 0120 0820     		movs	r0, #8
 608 0122 9640     		lsls	r6, r6, r2
 609 0124 9540     		lsls	r5, r5, r2
 610 0126 9040     		lsls	r0, r0, r2
 611              	.L103:
 612 0128 1BEA030F 		tst	fp, r3
 613 012c CBD1     		bne	.L109
 614              	.L160:
 615 012e 636D     		ldr	r3, [r4, #84]
 616 0130 D907     		lsls	r1, r3, #31
 617 0132 C8D4     		bmi	.L109
 618 0134 DAF80030 		ldr	r3, [r10]
 619 0138 0342     		tst	r3, r0
 620 013a 05D0     		beq	.L100
 621 013c 616D     		ldr	r1, [r4, #84]
 622 013e 41F00101 		orr	r1, r1, #1
 623 0142 6165     		str	r1, [r4, #84]
 624 0144 CAF80800 		str	r0, [r10, #8]
 625              	.L100:
 626 0148 3342     		tst	r3, r6
 627 014a 05D0     		beq	.L101
 628 014c 616D     		ldr	r1, [r4, #84]
 629 014e 41F00201 		orr	r1, r1, #2
 630 0152 6165     		str	r1, [r4, #84]
 631 0154 CAF80860 		str	r6, [r10, #8]
 632              	.L101:
 633 0158 2B42     		tst	r3, r5
 634 015a E5D0     		beq	.L103
 635 015c 616D     		ldr	r1, [r4, #84]
 636 015e 1BEA030F 		tst	fp, r3
 637 0162 41F00401 		orr	r1, r1, #4
 638 0166 6165     		str	r1, [r4, #84]
 639 0168 CAF80850 		str	r5, [r10, #8]
 640 016c DFD0     		beq	.L160
ARM GAS  /tmp/ccVRQQWa.s 			page 12


 641 016e AAE7     		b	.L109
 642              	.L159:
 643 0170 3023     		movs	r3, #48
 644 0172 03FA02F2 		lsl	r2, r3, r2
 645 0176 CAF80820 		str	r2, [r10, #8]
 646 017a 019A     		ldr	r2, [sp, #4]
 647 017c 84F83420 		strb	r2, [r4, #52]
 648 0180 0123     		movs	r3, #1
 649 0182 1046     		mov	r0, r2
 650 0184 84F83530 		strb	r3, [r4, #53]
 651 0188 4CE7     		b	.L91
 652              	.L158:
 653 018a A66D     		ldr	r6, [r4, #88]
 654 018c FFF7FEFF 		bl	HAL_GetTick
 655 0190 94F83530 		ldrb	r3, [r4, #53]	@ zero_extendqisi2
 656 0194 022B     		cmp	r3, #2
 657 0196 0546     		mov	r5, r0
 658 0198 0ED0     		beq	.L111
 659 019a 8023     		movs	r3, #128
 660 019c E26D     		ldr	r2, [r4, #92]
 661 019e 6365     		str	r3, [r4, #84]
 662              	.L112:
 663 01a0 3023     		movs	r3, #48
 664 01a2 9340     		lsls	r3, r3, r2
 665 01a4 0021     		movs	r1, #0
 666 01a6 0122     		movs	r2, #1
 667 01a8 CAF80830 		str	r3, [r10, #8]
 668 01ac 1046     		mov	r0, r2
 669 01ae 84F83410 		strb	r1, [r4, #52]
 670 01b2 84F83520 		strb	r2, [r4, #53]
 671 01b6 35E7     		b	.L91
 672              	.L111:
 673 01b8 2368     		ldr	r3, [r4]
 674 01ba 216C     		ldr	r1, [r4, #64]
 675 01bc 1A68     		ldr	r2, [r3]
 676 01be 22F01602 		bic	r2, r2, #22
 677 01c2 1A60     		str	r2, [r3]
 678 01c4 5A69     		ldr	r2, [r3, #20]
 679 01c6 22F08002 		bic	r2, r2, #128
 680 01ca 5A61     		str	r2, [r3, #20]
 681 01cc 01B3     		cbz	r1, .L161
 682              	.L113:
 683 01ce 1A68     		ldr	r2, [r3]
 684 01d0 22F00802 		bic	r2, r2, #8
 685 01d4 1A60     		str	r2, [r3]
 686              	.L114:
 687 01d6 1A68     		ldr	r2, [r3]
 688 01d8 22F00102 		bic	r2, r2, #1
 689 01dc 1A60     		str	r2, [r3]
 690 01de 05E0     		b	.L115
 691              	.L117:
 692 01e0 FFF7FEFF 		bl	HAL_GetTick
 693 01e4 401B     		subs	r0, r0, r5
 694 01e6 0528     		cmp	r0, #5
 695 01e8 0BD8     		bhi	.L162
 696 01ea 2368     		ldr	r3, [r4]
 697              	.L115:
ARM GAS  /tmp/ccVRQQWa.s 			page 13


 698 01ec 1B68     		ldr	r3, [r3]
 699 01ee DB07     		lsls	r3, r3, #31
 700 01f0 F6D4     		bmi	.L117
 701 01f2 E26D     		ldr	r2, [r4, #92]
 702 01f4 3F23     		movs	r3, #63
 703 01f6 9340     		lsls	r3, r3, r2
 704 01f8 0121     		movs	r1, #1
 705 01fa B360     		str	r3, [r6, #8]
 706 01fc 84F83510 		strb	r1, [r4, #53]
 707 0200 CEE7     		b	.L112
 708              	.L162:
 709 0202 2022     		movs	r2, #32
 710 0204 0323     		movs	r3, #3
 711 0206 6265     		str	r2, [r4, #84]
 712 0208 E26D     		ldr	r2, [r4, #92]
 713 020a 84F83530 		strb	r3, [r4, #53]
 714 020e C7E7     		b	.L112
 715              	.L161:
 716 0210 A26C     		ldr	r2, [r4, #72]
 717 0212 002A     		cmp	r2, #0
 718 0214 DBD1     		bne	.L113
 719 0216 DEE7     		b	.L114
 720              	.L164:
 721              		.align	2
 722              	.L163:
 723 0218 04008000 		.word	8388612
 724 021c 01008000 		.word	8388609
 726              		.section	.text.HAL_DMA_IRQHandler,"ax",%progbits
 727              		.align	1
 728              		.p2align 2,,3
 729              		.global	HAL_DMA_IRQHandler
 730              		.syntax unified
 731              		.thumb
 732              		.thumb_func
 733              		.fpu fpv4-sp-d16
 735              	HAL_DMA_IRQHandler:
 736              		@ args = 0, pretend = 0, frame = 8
 737              		@ frame_needed = 0, uses_anonymous_args = 0
 738 0000 F0B5     		push	{r4, r5, r6, r7, lr}
 739 0002 83B0     		sub	sp, sp, #12
 740 0004 0023     		movs	r3, #0
 741 0006 876D     		ldr	r7, [r0, #88]
 742 0008 0193     		str	r3, [sp, #4]
 743 000a C36D     		ldr	r3, [r0, #92]
 744 000c 3D68     		ldr	r5, [r7]
 745 000e 6249     		ldr	r1, .L261
 746 0010 0822     		movs	r2, #8
 747 0012 9A40     		lsls	r2, r2, r3
 748 0014 1542     		tst	r5, r2
 749 0016 0446     		mov	r4, r0
 750 0018 0E68     		ldr	r6, [r1]
 751 001a 03D0     		beq	.L166
 752 001c 0168     		ldr	r1, [r0]
 753 001e 0868     		ldr	r0, [r1]
 754 0020 4007     		lsls	r0, r0, #29
 755 0022 76D4     		bmi	.L251
 756              	.L166:
ARM GAS  /tmp/ccVRQQWa.s 			page 14


 757 0024 5D4A     		ldr	r2, .L261+4
 758 0026 9A40     		lsls	r2, r2, r3
 759 0028 1542     		tst	r5, r2
 760 002a 03D0     		beq	.L167
 761 002c 2168     		ldr	r1, [r4]
 762 002e 4969     		ldr	r1, [r1, #20]
 763 0030 0806     		lsls	r0, r1, #24
 764 0032 68D4     		bmi	.L252
 765              	.L167:
 766 0034 5A4A     		ldr	r2, .L261+8
 767 0036 9A40     		lsls	r2, r2, r3
 768 0038 1542     		tst	r5, r2
 769 003a 03D0     		beq	.L168
 770 003c 2168     		ldr	r1, [r4]
 771 003e 0968     		ldr	r1, [r1]
 772 0040 8907     		lsls	r1, r1, #30
 773 0042 5AD4     		bmi	.L253
 774              	.L168:
 775 0044 1022     		movs	r2, #16
 776 0046 9A40     		lsls	r2, r2, r3
 777 0048 1542     		tst	r5, r2
 778 004a 03D0     		beq	.L169
 779 004c 2168     		ldr	r1, [r4]
 780 004e 0868     		ldr	r0, [r1]
 781 0050 0007     		lsls	r0, r0, #28
 782 0052 3FD4     		bmi	.L254
 783              	.L169:
 784 0054 2022     		movs	r2, #32
 785 0056 9A40     		lsls	r2, r2, r3
 786 0058 1542     		tst	r5, r2
 787 005a 03D0     		beq	.L174
 788 005c 2168     		ldr	r1, [r4]
 789 005e 0868     		ldr	r0, [r1]
 790 0060 C006     		lsls	r0, r0, #27
 791 0062 25D4     		bmi	.L255
 792              	.L174:
 793 0064 636D     		ldr	r3, [r4, #84]
 794 0066 0BB3     		cbz	r3, .L165
 795 0068 636D     		ldr	r3, [r4, #84]
 796 006a DA07     		lsls	r2, r3, #31
 797 006c 1AD5     		bpl	.L185
 798 006e 0523     		movs	r3, #5
 799 0070 2168     		ldr	r1, [r4]
 800 0072 84F83530 		strb	r3, [r4, #53]
 801 0076 0B68     		ldr	r3, [r1]
 802 0078 4A4A     		ldr	r2, .L261+12
 803 007a 23F00103 		bic	r3, r3, #1
 804 007e A2FB0602 		umull	r0, r2, r2, r6
 805 0082 0B60     		str	r3, [r1]
 806 0084 920A     		lsrs	r2, r2, #10
 807 0086 02E0     		b	.L187
 808              	.L256:
 809 0088 0B68     		ldr	r3, [r1]
 810 008a DB07     		lsls	r3, r3, #31
 811 008c 04D5     		bpl	.L186
 812              	.L187:
 813 008e 019B     		ldr	r3, [sp, #4]
ARM GAS  /tmp/ccVRQQWa.s 			page 15


 814 0090 0133     		adds	r3, r3, #1
 815 0092 9A42     		cmp	r2, r3
 816 0094 0193     		str	r3, [sp, #4]
 817 0096 F7D2     		bcs	.L256
 818              	.L186:
 819 0098 0022     		movs	r2, #0
 820 009a 0123     		movs	r3, #1
 821 009c 84F83420 		strb	r2, [r4, #52]
 822 00a0 84F83530 		strb	r3, [r4, #53]
 823              	.L185:
 824 00a4 E36C     		ldr	r3, [r4, #76]
 825 00a6 0BB1     		cbz	r3, .L165
 826 00a8 2046     		mov	r0, r4
 827 00aa 9847     		blx	r3
 828              	.L165:
 829 00ac 03B0     		add	sp, sp, #12
 830              		@ sp needed
 831 00ae F0BD     		pop	{r4, r5, r6, r7, pc}
 832              	.L255:
 833 00b0 BA60     		str	r2, [r7, #8]
 834 00b2 94F83520 		ldrb	r2, [r4, #53]	@ zero_extendqisi2
 835 00b6 052A     		cmp	r2, #5
 836 00b8 3BD0     		beq	.L257
 837 00ba 0B68     		ldr	r3, [r1]
 838 00bc 13F4802F 		tst	r3, #262144
 839 00c0 0B68     		ldr	r3, [r1]
 840 00c2 54D0     		beq	.L181
 841 00c4 1903     		lsls	r1, r3, #12
 842 00c6 5FD5     		bpl	.L258
 843              	.L183:
 844 00c8 E36B     		ldr	r3, [r4, #60]
 845 00ca 002B     		cmp	r3, #0
 846 00cc CAD0     		beq	.L174
 847              	.L248:
 848 00ce 2046     		mov	r0, r4
 849 00d0 9847     		blx	r3
 850 00d2 C7E7     		b	.L174
 851              	.L254:
 852 00d4 BA60     		str	r2, [r7, #8]
 853 00d6 0A68     		ldr	r2, [r1]
 854 00d8 12F4802F 		tst	r2, #262144
 855 00dc 0A68     		ldr	r2, [r1]
 856 00de 22D1     		bne	.L259
 857 00e0 D205     		lsls	r2, r2, #23
 858 00e2 03D4     		bmi	.L172
 859 00e4 0A68     		ldr	r2, [r1]
 860 00e6 22F00802 		bic	r2, r2, #8
 861 00ea 0A60     		str	r2, [r1]
 862              	.L172:
 863 00ec 226C     		ldr	r2, [r4, #64]
 864 00ee 002A     		cmp	r2, #0
 865 00f0 B0D0     		beq	.L169
 866              	.L247:
 867 00f2 2046     		mov	r0, r4
 868 00f4 9047     		blx	r2
 869 00f6 E36D     		ldr	r3, [r4, #92]
 870 00f8 ACE7     		b	.L169
ARM GAS  /tmp/ccVRQQWa.s 			page 16


 871              	.L253:
 872 00fa BA60     		str	r2, [r7, #8]
 873 00fc 626D     		ldr	r2, [r4, #84]
 874 00fe 42F00402 		orr	r2, r2, #4
 875 0102 6265     		str	r2, [r4, #84]
 876 0104 9EE7     		b	.L168
 877              	.L252:
 878 0106 BA60     		str	r2, [r7, #8]
 879 0108 626D     		ldr	r2, [r4, #84]
 880 010a 42F00202 		orr	r2, r2, #2
 881 010e 6265     		str	r2, [r4, #84]
 882 0110 90E7     		b	.L167
 883              	.L251:
 884 0112 0868     		ldr	r0, [r1]
 885 0114 20F00400 		bic	r0, r0, #4
 886 0118 0860     		str	r0, [r1]
 887 011a BA60     		str	r2, [r7, #8]
 888 011c 626D     		ldr	r2, [r4, #84]
 889 011e 42F00102 		orr	r2, r2, #1
 890 0122 6265     		str	r2, [r4, #84]
 891 0124 7EE7     		b	.L166
 892              	.L259:
 893 0126 1103     		lsls	r1, r2, #12
 894 0128 E0D5     		bpl	.L172
 895 012a A26C     		ldr	r2, [r4, #72]
 896 012c 002A     		cmp	r2, #0
 897 012e E0D1     		bne	.L247
 898 0130 90E7     		b	.L169
 899              	.L257:
 900 0132 0A68     		ldr	r2, [r1]
 901 0134 206C     		ldr	r0, [r4, #64]
 902 0136 22F01602 		bic	r2, r2, #22
 903 013a 0A60     		str	r2, [r1]
 904 013c 4A69     		ldr	r2, [r1, #20]
 905 013e 22F08002 		bic	r2, r2, #128
 906 0142 4A61     		str	r2, [r1, #20]
 907 0144 20B3     		cbz	r0, .L260
 908              	.L177:
 909 0146 0A68     		ldr	r2, [r1]
 910 0148 22F00802 		bic	r2, r2, #8
 911 014c 0A60     		str	r2, [r1]
 912              	.L178:
 913 014e 3F22     		movs	r2, #63
 914 0150 216D     		ldr	r1, [r4, #80]
 915 0152 02FA03F3 		lsl	r3, r2, r3
 916 0156 0020     		movs	r0, #0
 917 0158 0122     		movs	r2, #1
 918 015a BB60     		str	r3, [r7, #8]
 919 015c 84F83400 		strb	r0, [r4, #52]
 920 0160 84F83520 		strb	r2, [r4, #53]
 921 0164 0029     		cmp	r1, #0
 922 0166 A1D0     		beq	.L165
 923 0168 2046     		mov	r0, r4
 924 016a 8847     		blx	r1
 925 016c 9EE7     		b	.L165
 926              	.L181:
 927 016e 13F48073 		ands	r3, r3, #256
ARM GAS  /tmp/ccVRQQWa.s 			page 17


 928 0172 A9D1     		bne	.L183
 929 0174 0A68     		ldr	r2, [r1]
 930 0176 0120     		movs	r0, #1
 931 0178 22F01002 		bic	r2, r2, #16
 932 017c 0A60     		str	r2, [r1]
 933 017e 84F83430 		strb	r3, [r4, #52]
 934 0182 84F83500 		strb	r0, [r4, #53]
 935 0186 9FE7     		b	.L183
 936              	.L258:
 937 0188 636C     		ldr	r3, [r4, #68]
 938 018a 002B     		cmp	r3, #0
 939 018c 9FD1     		bne	.L248
 940 018e 69E7     		b	.L174
 941              	.L260:
 942 0190 A26C     		ldr	r2, [r4, #72]
 943 0192 002A     		cmp	r2, #0
 944 0194 D7D1     		bne	.L177
 945 0196 DAE7     		b	.L178
 946              	.L262:
 947              		.align	2
 948              	.L261:
 949 0198 00000000 		.word	SystemCoreClock
 950 019c 01008000 		.word	8388609
 951 01a0 04008000 		.word	8388612
 952 01a4 B5814E1B 		.word	458129845
 954              		.section	.text.HAL_DMA_RegisterCallback,"ax",%progbits
 955              		.align	1
 956              		.p2align 2,,3
 957              		.global	HAL_DMA_RegisterCallback
 958              		.syntax unified
 959              		.thumb
 960              		.thumb_func
 961              		.fpu fpv4-sp-d16
 963              	HAL_DMA_RegisterCallback:
 964              		@ args = 0, pretend = 0, frame = 0
 965              		@ frame_needed = 0, uses_anonymous_args = 0
 966              		@ link register save eliminated.
 967 0000 0346     		mov	r3, r0
 968 0002 90F83400 		ldrb	r0, [r0, #52]	@ zero_extendqisi2
 969 0006 0128     		cmp	r0, #1
 970 0008 0DD0     		beq	.L273
 971 000a 10B4     		push	{r4}
 972 000c 93F83540 		ldrb	r4, [r3, #53]	@ zero_extendqisi2
 973 0010 0120     		movs	r0, #1
 974 0012 8442     		cmp	r4, r0
 975 0014 83F83400 		strb	r0, [r3, #52]
 976 0018 07D0     		beq	.L280
 977              	.L265:
 978 001a 0022     		movs	r2, #0
 979 001c 83F83420 		strb	r2, [r3, #52]
 980 0020 5DF8044B 		ldr	r4, [sp], #4
 981 0024 7047     		bx	lr
 982              	.L273:
 983 0026 0220     		movs	r0, #2
 984 0028 7047     		bx	lr
 985              	.L280:
 986 002a 0529     		cmp	r1, #5
ARM GAS  /tmp/ccVRQQWa.s 			page 18


 987 002c 16D8     		bhi	.L275
 988 002e DFE801F0 		tbb	[pc, r1]
 989              	.L267:
 990 0032 12       		.byte	(.L266-.L267)/2
 991 0033 0F       		.byte	(.L268-.L267)/2
 992 0034 0C       		.byte	(.L269-.L267)/2
 993 0035 09       		.byte	(.L270-.L267)/2
 994 0036 06       		.byte	(.L271-.L267)/2
 995 0037 03       		.byte	(.L272-.L267)/2
 996              		.p2align 1
 997              	.L272:
 998 0038 1A65     		str	r2, [r3, #80]
 999 003a 0020     		movs	r0, #0
 1000 003c EDE7     		b	.L265
 1001              	.L271:
 1002 003e DA64     		str	r2, [r3, #76]
 1003 0040 0020     		movs	r0, #0
 1004 0042 EAE7     		b	.L265
 1005              	.L270:
 1006 0044 9A64     		str	r2, [r3, #72]
 1007 0046 0020     		movs	r0, #0
 1008 0048 E7E7     		b	.L265
 1009              	.L269:
 1010 004a 5A64     		str	r2, [r3, #68]
 1011 004c 0020     		movs	r0, #0
 1012 004e E4E7     		b	.L265
 1013              	.L268:
 1014 0050 1A64     		str	r2, [r3, #64]
 1015 0052 0020     		movs	r0, #0
 1016 0054 E1E7     		b	.L265
 1017              	.L266:
 1018 0056 DA63     		str	r2, [r3, #60]
 1019 0058 0020     		movs	r0, #0
 1020 005a DEE7     		b	.L265
 1021              	.L275:
 1022 005c 0020     		movs	r0, #0
 1023 005e DCE7     		b	.L265
 1025              		.section	.text.HAL_DMA_UnRegisterCallback,"ax",%progbits
 1026              		.align	1
 1027              		.p2align 2,,3
 1028              		.global	HAL_DMA_UnRegisterCallback
 1029              		.syntax unified
 1030              		.thumb
 1031              		.thumb_func
 1032              		.fpu fpv4-sp-d16
 1034              	HAL_DMA_UnRegisterCallback:
 1035              		@ args = 0, pretend = 0, frame = 0
 1036              		@ frame_needed = 0, uses_anonymous_args = 0
 1037              		@ link register save eliminated.
 1038 0000 90F83430 		ldrb	r3, [r0, #52]	@ zero_extendqisi2
 1039 0004 012B     		cmp	r3, #1
 1040 0006 0246     		mov	r2, r0
 1041 0008 0BD0     		beq	.L292
 1042 000a 90F83500 		ldrb	r0, [r0, #53]	@ zero_extendqisi2
 1043 000e 0123     		movs	r3, #1
 1044 0010 9842     		cmp	r0, r3
 1045 0012 82F83430 		strb	r3, [r2, #52]
ARM GAS  /tmp/ccVRQQWa.s 			page 19


 1046 0016 06D0     		beq	.L295
 1047              	.L294:
 1048 0018 0120     		movs	r0, #1
 1049              	.L283:
 1050 001a 0023     		movs	r3, #0
 1051 001c 82F83430 		strb	r3, [r2, #52]
 1052 0020 7047     		bx	lr
 1053              	.L292:
 1054 0022 0220     		movs	r0, #2
 1055 0024 7047     		bx	lr
 1056              	.L295:
 1057 0026 0629     		cmp	r1, #6
 1058 0028 F6D8     		bhi	.L294
 1059 002a DFE801F0 		tbb	[pc, r1]
 1060              	.L285:
 1061 002e 1B       		.byte	(.L284-.L285)/2
 1062 002f 18       		.byte	(.L286-.L285)/2
 1063 0030 15       		.byte	(.L287-.L285)/2
 1064 0031 12       		.byte	(.L288-.L285)/2
 1065 0032 0F       		.byte	(.L289-.L285)/2
 1066 0033 0C       		.byte	(.L290-.L285)/2
 1067 0034 04       		.byte	(.L291-.L285)/2
 1068 0035 00       		.p2align 1
 1069              	.L291:
 1070 0036 0020     		movs	r0, #0
 1071 0038 D063     		str	r0, [r2, #60]
 1072 003a 1064     		str	r0, [r2, #64]
 1073 003c 5064     		str	r0, [r2, #68]
 1074 003e 9064     		str	r0, [r2, #72]
 1075 0040 D064     		str	r0, [r2, #76]
 1076 0042 1065     		str	r0, [r2, #80]
 1077 0044 E9E7     		b	.L283
 1078              	.L290:
 1079 0046 0020     		movs	r0, #0
 1080 0048 1065     		str	r0, [r2, #80]
 1081 004a E6E7     		b	.L283
 1082              	.L289:
 1083 004c 0020     		movs	r0, #0
 1084 004e D064     		str	r0, [r2, #76]
 1085 0050 E3E7     		b	.L283
 1086              	.L288:
 1087 0052 0020     		movs	r0, #0
 1088 0054 9064     		str	r0, [r2, #72]
 1089 0056 E0E7     		b	.L283
 1090              	.L287:
 1091 0058 0020     		movs	r0, #0
 1092 005a 5064     		str	r0, [r2, #68]
 1093 005c DDE7     		b	.L283
 1094              	.L286:
 1095 005e 0020     		movs	r0, #0
 1096 0060 1064     		str	r0, [r2, #64]
 1097 0062 DAE7     		b	.L283
 1098              	.L284:
 1099 0064 0020     		movs	r0, #0
 1100 0066 D063     		str	r0, [r2, #60]
 1101 0068 D7E7     		b	.L283
 1103 006a 00BF     		.section	.text.HAL_DMA_GetState,"ax",%progbits
ARM GAS  /tmp/ccVRQQWa.s 			page 20


 1104              		.align	1
 1105              		.p2align 2,,3
 1106              		.global	HAL_DMA_GetState
 1107              		.syntax unified
 1108              		.thumb
 1109              		.thumb_func
 1110              		.fpu fpv4-sp-d16
 1112              	HAL_DMA_GetState:
 1113              		@ args = 0, pretend = 0, frame = 0
 1114              		@ frame_needed = 0, uses_anonymous_args = 0
 1115              		@ link register save eliminated.
 1116 0000 90F83500 		ldrb	r0, [r0, #53]	@ zero_extendqisi2
 1117 0004 7047     		bx	lr
 1119 0006 00BF     		.section	.text.HAL_DMA_GetError,"ax",%progbits
 1120              		.align	1
 1121              		.p2align 2,,3
 1122              		.global	HAL_DMA_GetError
 1123              		.syntax unified
 1124              		.thumb
 1125              		.thumb_func
 1126              		.fpu fpv4-sp-d16
 1128              	HAL_DMA_GetError:
 1129              		@ args = 0, pretend = 0, frame = 0
 1130              		@ frame_needed = 0, uses_anonymous_args = 0
 1131              		@ link register save eliminated.
 1132 0000 406D     		ldr	r0, [r0, #84]
 1133 0002 7047     		bx	lr
 1135              		.section	.rodata.flagBitshiftOffset.8851,"a",%progbits
 1136              		.align	2
 1137              		.set	.LANCHOR0,. + 0
 1140              	flagBitshiftOffset.8851:
 1141 0000 00       		.byte	0
 1142 0001 06       		.byte	6
 1143 0002 10       		.byte	16
 1144 0003 16       		.byte	22
 1145 0004 00       		.byte	0
 1146 0005 06       		.byte	6
 1147 0006 10       		.byte	16
 1148 0007 16       		.byte	22
 1149              		.ident	"GCC: (Arch Repository) 6.3.0"
ARM GAS  /tmp/ccVRQQWa.s 			page 21

