ARM GAS  /tmp/ccdmwmOE.s 			page 1


   1              		.cpu cortex-m4
   2              		.eabi_attribute 27, 1
   3              		.eabi_attribute 28, 1
   4              		.eabi_attribute 23, 1
   5              		.eabi_attribute 24, 1
   6              		.eabi_attribute 25, 1
   7              		.eabi_attribute 26, 1
   8              		.eabi_attribute 30, 2
   9              		.eabi_attribute 34, 1
  10              		.eabi_attribute 18, 4
  11              		.file	"stm32f4xx_hal_flash.c"
  12              		.section	.text.FLASH_SetErrorCode,"ax",%progbits
  13              		.align	1
  14              		.p2align 2,,3
  15              		.syntax unified
  16              		.thumb
  17              		.thumb_func
  18              		.fpu fpv4-sp-d16
  20              	FLASH_SetErrorCode:
  21              		@ args = 0, pretend = 0, frame = 0
  22              		@ frame_needed = 0, uses_anonymous_args = 0
  23              		@ link register save eliminated.
  24 0000 214B     		ldr	r3, .L27
  25 0002 DA68     		ldr	r2, [r3, #12]
  26 0004 D006     		lsls	r0, r2, #27
  27 0006 05D5     		bpl	.L2
  28 0008 2049     		ldr	r1, .L27+4
  29 000a CA69     		ldr	r2, [r1, #28]
  30 000c 1020     		movs	r0, #16
  31 000e 0243     		orrs	r2, r2, r0
  32 0010 CA61     		str	r2, [r1, #28]
  33 0012 D860     		str	r0, [r3, #12]
  34              	.L2:
  35 0014 1C4B     		ldr	r3, .L27
  36 0016 DA68     		ldr	r2, [r3, #12]
  37 0018 9106     		lsls	r1, r2, #26
  38 001a 06D5     		bpl	.L3
  39 001c 1B49     		ldr	r1, .L27+4
  40 001e CA69     		ldr	r2, [r1, #28]
  41 0020 2020     		movs	r0, #32
  42 0022 42F00802 		orr	r2, r2, #8
  43 0026 CA61     		str	r2, [r1, #28]
  44 0028 D860     		str	r0, [r3, #12]
  45              	.L3:
  46 002a 174B     		ldr	r3, .L27
  47 002c DA68     		ldr	r2, [r3, #12]
  48 002e 5206     		lsls	r2, r2, #25
  49 0030 06D5     		bpl	.L4
  50 0032 1649     		ldr	r1, .L27+4
  51 0034 CA69     		ldr	r2, [r1, #28]
  52 0036 4020     		movs	r0, #64
  53 0038 42F00402 		orr	r2, r2, #4
  54 003c CA61     		str	r2, [r1, #28]
  55 003e D860     		str	r0, [r3, #12]
  56              	.L4:
  57 0040 114B     		ldr	r3, .L27
  58 0042 DA68     		ldr	r2, [r3, #12]
ARM GAS  /tmp/ccdmwmOE.s 			page 2


  59 0044 1006     		lsls	r0, r2, #24
  60 0046 06D5     		bpl	.L5
  61 0048 1049     		ldr	r1, .L27+4
  62 004a CA69     		ldr	r2, [r1, #28]
  63 004c 8020     		movs	r0, #128
  64 004e 42F00202 		orr	r2, r2, #2
  65 0052 CA61     		str	r2, [r1, #28]
  66 0054 D860     		str	r0, [r3, #12]
  67              	.L5:
  68 0056 0C4B     		ldr	r3, .L27
  69 0058 DA68     		ldr	r2, [r3, #12]
  70 005a D105     		lsls	r1, r2, #23
  71 005c 07D5     		bpl	.L6
  72 005e 0B49     		ldr	r1, .L27+4
  73 0060 CA69     		ldr	r2, [r1, #28]
  74 0062 4FF48070 		mov	r0, #256
  75 0066 42F00102 		orr	r2, r2, #1
  76 006a CA61     		str	r2, [r1, #28]
  77 006c D860     		str	r0, [r3, #12]
  78              	.L6:
  79 006e 064B     		ldr	r3, .L27
  80 0070 DA68     		ldr	r2, [r3, #12]
  81 0072 9207     		lsls	r2, r2, #30
  82 0074 06D5     		bpl	.L1
  83 0076 0549     		ldr	r1, .L27+4
  84 0078 CA69     		ldr	r2, [r1, #28]
  85 007a 0220     		movs	r0, #2
  86 007c 42F02002 		orr	r2, r2, #32
  87 0080 CA61     		str	r2, [r1, #28]
  88 0082 D860     		str	r0, [r3, #12]
  89              	.L1:
  90 0084 7047     		bx	lr
  91              	.L28:
  92 0086 00BF     		.align	2
  93              	.L27:
  94 0088 003C0240 		.word	1073888256
  95 008c 00000000 		.word	pFlash
  97              		.section	.text.HAL_FLASH_Program,"ax",%progbits
  98              		.align	1
  99              		.p2align 2,,3
 100              		.global	HAL_FLASH_Program
 101              		.syntax unified
 102              		.thumb
 103              		.thumb_func
 104              		.fpu fpv4-sp-d16
 106              	HAL_FLASH_Program:
 107              		@ args = 0, pretend = 0, frame = 0
 108              		@ frame_needed = 0, uses_anonymous_args = 0
 109 0000 2DE9F84F 		push	{r3, r4, r5, r6, r7, r8, r9, r10, fp, lr}
 110 0004 4C4F     		ldr	r7, .L64
 111 0006 3C7E     		ldrb	r4, [r7, #24]	@ zero_extendqisi2
 112 0008 012C     		cmp	r4, #1
 113 000a 02D1     		bne	.L59
 114 000c 0220     		movs	r0, #2
 115 000e BDE8F88F 		pop	{r3, r4, r5, r6, r7, r8, r9, r10, fp, pc}
 116              	.L59:
 117 0012 9046     		mov	r8, r2
ARM GAS  /tmp/ccdmwmOE.s 			page 3


 118 0014 9946     		mov	r9, r3
 119 0016 0122     		movs	r2, #1
 120 0018 0023     		movs	r3, #0
 121 001a 8B46     		mov	fp, r1
 122 001c 8246     		mov	r10, r0
 123 001e 3A76     		strb	r2, [r7, #24]
 124 0020 FB61     		str	r3, [r7, #28]
 125 0022 FFF7FEFF 		bl	HAL_GetTick
 126 0026 454C     		ldr	r4, .L64+4
 127 0028 0646     		mov	r6, r0
 128 002a 4CF25035 		movw	r5, #50000
 129 002e 04E0     		b	.L31
 130              	.L33:
 131 0030 FFF7FEFF 		bl	HAL_GetTick
 132 0034 801B     		subs	r0, r0, r6
 133 0036 A842     		cmp	r0, r5
 134 0038 4BD8     		bhi	.L46
 135              	.L31:
 136 003a E368     		ldr	r3, [r4, #12]
 137 003c D803     		lsls	r0, r3, #15
 138 003e F7D4     		bmi	.L33
 139 0040 E368     		ldr	r3, [r4, #12]
 140 0042 D907     		lsls	r1, r3, #31
 141 0044 44BF     		itt	mi
 142 0046 0123     		movmi	r3, #1
 143 0048 E360     		strmi	r3, [r4, #12]
 144 004a 3C4B     		ldr	r3, .L64+4
 145 004c DA68     		ldr	r2, [r3, #12]
 146 004e 12F4F97F 		tst	r2, #498
 147 0052 37D1     		bne	.L60
 148 0054 BAF1000F 		cmp	r10, #0
 149 0058 40D1     		bne	.L61
 150 005a 1A69     		ldr	r2, [r3, #16]
 151 005c 22F44072 		bic	r2, r2, #768
 152 0060 1A61     		str	r2, [r3, #16]
 153 0062 1A69     		ldr	r2, [r3, #16]
 154 0064 1A61     		str	r2, [r3, #16]
 155 0066 1969     		ldr	r1, [r3, #16]
 156 0068 5FFA88F8 		uxtb	r8, r8
 157 006c 41F00101 		orr	r1, r1, #1
 158 0070 1961     		str	r1, [r3, #16]
 159 0072 8BF80080 		strb	r8, [fp]
 160              	.L36:
 161 0076 0023     		movs	r3, #0
 162 0078 FB61     		str	r3, [r7, #28]
 163 007a FFF7FEFF 		bl	HAL_GetTick
 164 007e 2F4C     		ldr	r4, .L64+4
 165 0080 0646     		mov	r6, r0
 166 0082 4CF25035 		movw	r5, #50000
 167 0086 04E0     		b	.L39
 168              	.L41:
 169 0088 FFF7FEFF 		bl	HAL_GetTick
 170 008c 801B     		subs	r0, r0, r6
 171 008e A842     		cmp	r0, r5
 172 0090 39D8     		bhi	.L47
 173              	.L39:
 174 0092 E368     		ldr	r3, [r4, #12]
ARM GAS  /tmp/ccdmwmOE.s 			page 4


 175 0094 DA03     		lsls	r2, r3, #15
 176 0096 F7D4     		bmi	.L41
 177 0098 E368     		ldr	r3, [r4, #12]
 178 009a DB07     		lsls	r3, r3, #31
 179 009c 44BF     		itt	mi
 180 009e 0123     		movmi	r3, #1
 181 00a0 E360     		strmi	r3, [r4, #12]
 182 00a2 264B     		ldr	r3, .L64+4
 183 00a4 D868     		ldr	r0, [r3, #12]
 184 00a6 10F4F970 		ands	r0, r0, #498
 185 00aa 02D0     		beq	.L40
 186 00ac FFF7FEFF 		bl	FLASH_SetErrorCode
 187 00b0 0120     		movs	r0, #1
 188              	.L40:
 189 00b2 224A     		ldr	r2, .L64+4
 190 00b4 1369     		ldr	r3, [r2, #16]
 191 00b6 23F00103 		bic	r3, r3, #1
 192 00ba 1361     		str	r3, [r2, #16]
 193 00bc 0023     		movs	r3, #0
 194 00be 3B76     		strb	r3, [r7, #24]
 195 00c0 BDE8F88F 		pop	{r3, r4, r5, r6, r7, r8, r9, r10, fp, pc}
 196              	.L60:
 197 00c4 FFF7FEFF 		bl	FLASH_SetErrorCode
 198 00c8 0023     		movs	r3, #0
 199 00ca 0120     		movs	r0, #1
 200 00cc 3B76     		strb	r3, [r7, #24]
 201 00ce BDE8F88F 		pop	{r3, r4, r5, r6, r7, r8, r9, r10, fp, pc}
 202              	.L46:
 203 00d2 0023     		movs	r3, #0
 204 00d4 0320     		movs	r0, #3
 205 00d6 3B76     		strb	r3, [r7, #24]
 206 00d8 BDE8F88F 		pop	{r3, r4, r5, r6, r7, r8, r9, r10, fp, pc}
 207              	.L61:
 208 00dc 1A69     		ldr	r2, [r3, #16]
 209 00de 22F44072 		bic	r2, r2, #768
 210 00e2 1A61     		str	r2, [r3, #16]
 211 00e4 BAF1010F 		cmp	r10, #1
 212 00e8 1A69     		ldr	r2, [r3, #16]
 213 00ea 18D0     		beq	.L62
 214 00ec BAF1020F 		cmp	r10, #2
 215 00f0 0BD0     		beq	.L63
 216 00f2 42F44072 		orr	r2, r2, #768
 217 00f6 1A61     		str	r2, [r3, #16]
 218 00f8 1A69     		ldr	r2, [r3, #16]
 219 00fa 42F00102 		orr	r2, r2, #1
 220 00fe 1A61     		str	r2, [r3, #16]
 221 0100 CBE90089 		strd	r8, [fp]
 222 0104 B7E7     		b	.L36
 223              	.L47:
 224 0106 0320     		movs	r0, #3
 225 0108 D3E7     		b	.L40
 226              	.L63:
 227 010a 42F40072 		orr	r2, r2, #512
 228 010e 1A61     		str	r2, [r3, #16]
 229 0110 1A69     		ldr	r2, [r3, #16]
 230 0112 42F00102 		orr	r2, r2, #1
 231 0116 1A61     		str	r2, [r3, #16]
ARM GAS  /tmp/ccdmwmOE.s 			page 5


 232 0118 CBF80080 		str	r8, [fp]
 233 011c ABE7     		b	.L36
 234              	.L62:
 235 011e 42F48072 		orr	r2, r2, #256
 236 0122 1A61     		str	r2, [r3, #16]
 237 0124 1A69     		ldr	r2, [r3, #16]
 238 0126 1FFA88F8 		uxth	r8, r8
 239 012a 42F00102 		orr	r2, r2, #1
 240 012e 1A61     		str	r2, [r3, #16]
 241 0130 ABF80080 		strh	r8, [fp]	@ movhi
 242 0134 9FE7     		b	.L36
 243              	.L65:
 244 0136 00BF     		.align	2
 245              	.L64:
 246 0138 00000000 		.word	pFlash
 247 013c 003C0240 		.word	1073888256
 249              		.section	.text.HAL_FLASH_Program_IT,"ax",%progbits
 250              		.align	1
 251              		.p2align 2,,3
 252              		.global	HAL_FLASH_Program_IT
 253              		.syntax unified
 254              		.thumb
 255              		.thumb_func
 256              		.fpu fpv4-sp-d16
 258              	HAL_FLASH_Program_IT:
 259              		@ args = 0, pretend = 0, frame = 0
 260              		@ frame_needed = 0, uses_anonymous_args = 0
 261 0000 F0B5     		push	{r4, r5, r6, r7, lr}
 262 0002 254C     		ldr	r4, .L76
 263 0004 257E     		ldrb	r5, [r4, #24]	@ zero_extendqisi2
 264 0006 012D     		cmp	r5, #1
 265 0008 2ED0     		beq	.L71
 266 000a 1F46     		mov	r7, r3
 267 000c 234B     		ldr	r3, .L76+4
 268 000e 1646     		mov	r6, r2
 269 0010 1A69     		ldr	r2, [r3, #16]
 270 0012 42F08072 		orr	r2, r2, #16777216
 271 0016 1A61     		str	r2, [r3, #16]
 272 0018 1D69     		ldr	r5, [r3, #16]
 273 001a 4FF0030E 		mov	lr, #3
 274 001e 45F00075 		orr	r5, r5, #33554432
 275 0022 1D61     		str	r5, [r3, #16]
 276 0024 0122     		movs	r2, #1
 277 0026 84F800E0 		strb	lr, [r4]
 278 002a 6161     		str	r1, [r4, #20]
 279 002c 2276     		strb	r2, [r4, #24]
 280 002e 1A69     		ldr	r2, [r3, #16]
 281 0030 22F44072 		bic	r2, r2, #768
 282 0034 1A61     		str	r2, [r3, #16]
 283 0036 1A69     		ldr	r2, [r3, #16]
 284 0038 70B1     		cbz	r0, .L73
 285 003a 0128     		cmp	r0, #1
 286 003c 16D0     		beq	.L74
 287 003e 0228     		cmp	r0, #2
 288 0040 1FD0     		beq	.L75
 289 0042 42F44072 		orr	r2, r2, #768
 290 0046 1A61     		str	r2, [r3, #16]
ARM GAS  /tmp/ccdmwmOE.s 			page 6


 291 0048 1A69     		ldr	r2, [r3, #16]
 292 004a 42F00102 		orr	r2, r2, #1
 293 004e 1A61     		str	r2, [r3, #16]
 294 0050 0020     		movs	r0, #0
 295 0052 C1E90067 		strd	r6, [r1]
 296 0056 F0BD     		pop	{r4, r5, r6, r7, pc}
 297              	.L73:
 298 0058 1A61     		str	r2, [r3, #16]
 299 005a 1C69     		ldr	r4, [r3, #16]
 300 005c F6B2     		uxtb	r6, r6
 301 005e 44F00104 		orr	r4, r4, #1
 302 0062 1C61     		str	r4, [r3, #16]
 303 0064 0E70     		strb	r6, [r1]
 304 0066 F0BD     		pop	{r4, r5, r6, r7, pc}
 305              	.L71:
 306 0068 0220     		movs	r0, #2
 307 006a F0BD     		pop	{r4, r5, r6, r7, pc}
 308              	.L74:
 309 006c 42F48072 		orr	r2, r2, #256
 310 0070 1A61     		str	r2, [r3, #16]
 311 0072 1869     		ldr	r0, [r3, #16]
 312 0074 B6B2     		uxth	r6, r6
 313 0076 40F00100 		orr	r0, r0, #1
 314 007a 1861     		str	r0, [r3, #16]
 315 007c 0020     		movs	r0, #0
 316 007e 0E80     		strh	r6, [r1]	@ movhi
 317 0080 F0BD     		pop	{r4, r5, r6, r7, pc}
 318              	.L75:
 319 0082 42F40072 		orr	r2, r2, #512
 320 0086 1A61     		str	r2, [r3, #16]
 321 0088 1A69     		ldr	r2, [r3, #16]
 322 008a 42F00102 		orr	r2, r2, #1
 323 008e 1A61     		str	r2, [r3, #16]
 324 0090 0020     		movs	r0, #0
 325 0092 0E60     		str	r6, [r1]
 326 0094 F0BD     		pop	{r4, r5, r6, r7, pc}
 327              	.L77:
 328 0096 00BF     		.align	2
 329              	.L76:
 330 0098 00000000 		.word	pFlash
 331 009c 003C0240 		.word	1073888256
 333              		.section	.text.HAL_FLASH_EndOfOperationCallback,"ax",%progbits
 334              		.align	1
 335              		.p2align 2,,3
 336              		.weak	HAL_FLASH_EndOfOperationCallback
 337              		.syntax unified
 338              		.thumb
 339              		.thumb_func
 340              		.fpu fpv4-sp-d16
 342              	HAL_FLASH_EndOfOperationCallback:
 343              		@ args = 0, pretend = 0, frame = 0
 344              		@ frame_needed = 0, uses_anonymous_args = 0
 345              		@ link register save eliminated.
 346 0000 7047     		bx	lr
 348 0002 00BF     		.section	.text.HAL_FLASH_OperationErrorCallback,"ax",%progbits
 349              		.align	1
 350              		.p2align 2,,3
ARM GAS  /tmp/ccdmwmOE.s 			page 7


 351              		.weak	HAL_FLASH_OperationErrorCallback
 352              		.syntax unified
 353              		.thumb
 354              		.thumb_func
 355              		.fpu fpv4-sp-d16
 357              	HAL_FLASH_OperationErrorCallback:
 358              		@ args = 0, pretend = 0, frame = 0
 359              		@ frame_needed = 0, uses_anonymous_args = 0
 360              		@ link register save eliminated.
 361 0000 7047     		bx	lr
 363 0002 00BF     		.section	.text.HAL_FLASH_IRQHandler,"ax",%progbits
 364              		.align	1
 365              		.p2align 2,,3
 366              		.global	HAL_FLASH_IRQHandler
 367              		.syntax unified
 368              		.thumb
 369              		.thumb_func
 370              		.fpu fpv4-sp-d16
 372              	HAL_FLASH_IRQHandler:
 373              		@ args = 0, pretend = 0, frame = 0
 374              		@ frame_needed = 0, uses_anonymous_args = 0
 375 0000 38B5     		push	{r3, r4, r5, lr}
 376 0002 2F4B     		ldr	r3, .L101
 377 0004 2F4C     		ldr	r4, .L101+4
 378 0006 DB68     		ldr	r3, [r3, #12]
 379 0008 13F4F97F 		tst	r3, #498
 380 000c 0ED0     		beq	.L81
 381 000e 2378     		ldrb	r3, [r4]	@ zero_extendqisi2
 382 0010 012B     		cmp	r3, #1
 383 0012 3FD0     		beq	.L98
 384 0014 2378     		ldrb	r3, [r4]	@ zero_extendqisi2
 385 0016 022B     		cmp	r3, #2
 386 0018 0CBF     		ite	eq
 387 001a 2569     		ldreq	r5, [r4, #16]
 388 001c 6569     		ldrne	r5, [r4, #20]
 389              	.L83:
 390 001e FFF7FEFF 		bl	FLASH_SetErrorCode
 391 0022 2846     		mov	r0, r5
 392 0024 FFF7FEFF 		bl	HAL_FLASH_OperationErrorCallback
 393 0028 0023     		movs	r3, #0
 394 002a 2370     		strb	r3, [r4]
 395              	.L81:
 396 002c 244B     		ldr	r3, .L101
 397 002e DA68     		ldr	r2, [r3, #12]
 398 0030 D207     		lsls	r2, r2, #31
 399 0032 0CD5     		bpl	.L85
 400 0034 0122     		movs	r2, #1
 401 0036 DA60     		str	r2, [r3, #12]
 402 0038 2378     		ldrb	r3, [r4]	@ zero_extendqisi2
 403 003a 9342     		cmp	r3, r2
 404 003c 1AD0     		beq	.L99
 405 003e 2378     		ldrb	r3, [r4]	@ zero_extendqisi2
 406 0040 022B     		cmp	r3, #2
 407 0042 2CD0     		beq	.L100
 408 0044 6069     		ldr	r0, [r4, #20]
 409 0046 FFF7FEFF 		bl	HAL_FLASH_EndOfOperationCallback
 410              	.L89:
ARM GAS  /tmp/ccdmwmOE.s 			page 8


 411 004a 0023     		movs	r3, #0
 412 004c 2370     		strb	r3, [r4]
 413              	.L85:
 414 004e 2378     		ldrb	r3, [r4]	@ zero_extendqisi2
 415 0050 03F0FF01 		and	r1, r3, #255
 416 0054 6BB9     		cbnz	r3, .L80
 417 0056 1A4B     		ldr	r3, .L101
 418 0058 1A69     		ldr	r2, [r3, #16]
 419 005a 22F0FF02 		bic	r2, r2, #255
 420 005e 1A61     		str	r2, [r3, #16]
 421 0060 1A69     		ldr	r2, [r3, #16]
 422 0062 22F08072 		bic	r2, r2, #16777216
 423 0066 1A61     		str	r2, [r3, #16]
 424 0068 1A69     		ldr	r2, [r3, #16]
 425 006a 22F00072 		bic	r2, r2, #33554432
 426 006e 1A61     		str	r2, [r3, #16]
 427 0070 2176     		strb	r1, [r4, #24]
 428              	.L80:
 429 0072 38BD     		pop	{r3, r4, r5, pc}
 430              	.L99:
 431 0074 6368     		ldr	r3, [r4, #4]
 432 0076 013B     		subs	r3, r3, #1
 433 0078 6360     		str	r3, [r4, #4]
 434 007a 6368     		ldr	r3, [r4, #4]
 435 007c ABB1     		cbz	r3, .L87
 436 007e E068     		ldr	r0, [r4, #12]
 437 0080 FFF7FEFF 		bl	HAL_FLASH_EndOfOperationCallback
 438 0084 E368     		ldr	r3, [r4, #12]
 439 0086 0133     		adds	r3, r3, #1
 440 0088 E360     		str	r3, [r4, #12]
 441 008a E068     		ldr	r0, [r4, #12]
 442 008c 217A     		ldrb	r1, [r4, #8]	@ zero_extendqisi2
 443 008e FFF7FEFF 		bl	FLASH_Erase_Sector
 444 0092 DCE7     		b	.L85
 445              	.L98:
 446 0094 4FF0FF33 		mov	r3, #-1
 447 0098 E568     		ldr	r5, [r4, #12]
 448 009a E360     		str	r3, [r4, #12]
 449 009c BFE7     		b	.L83
 450              	.L100:
 451 009e FFF7FEFF 		bl	FLASH_FlushCaches
 452 00a2 2069     		ldr	r0, [r4, #16]
 453 00a4 FFF7FEFF 		bl	HAL_FLASH_EndOfOperationCallback
 454 00a8 CFE7     		b	.L89
 455              	.L87:
 456 00aa 4FF0FF35 		mov	r5, #-1
 457 00ae E560     		str	r5, [r4, #12]
 458 00b0 2370     		strb	r3, [r4]
 459 00b2 FFF7FEFF 		bl	FLASH_FlushCaches
 460 00b6 2846     		mov	r0, r5
 461 00b8 FFF7FEFF 		bl	HAL_FLASH_EndOfOperationCallback
 462 00bc C7E7     		b	.L85
 463              	.L102:
 464 00be 00BF     		.align	2
 465              	.L101:
 466 00c0 003C0240 		.word	1073888256
 467 00c4 00000000 		.word	pFlash
ARM GAS  /tmp/ccdmwmOE.s 			page 9


 469              		.section	.text.HAL_FLASH_Unlock,"ax",%progbits
 470              		.align	1
 471              		.p2align 2,,3
 472              		.global	HAL_FLASH_Unlock
 473              		.syntax unified
 474              		.thumb
 475              		.thumb_func
 476              		.fpu fpv4-sp-d16
 478              	HAL_FLASH_Unlock:
 479              		@ args = 0, pretend = 0, frame = 0
 480              		@ frame_needed = 0, uses_anonymous_args = 0
 481              		@ link register save eliminated.
 482 0000 054B     		ldr	r3, .L107
 483 0002 1A69     		ldr	r2, [r3, #16]
 484 0004 002A     		cmp	r2, #0
 485 0006 01DB     		blt	.L106
 486 0008 0120     		movs	r0, #1
 487 000a 7047     		bx	lr
 488              	.L106:
 489 000c 0349     		ldr	r1, .L107+4
 490 000e 044A     		ldr	r2, .L107+8
 491 0010 5960     		str	r1, [r3, #4]
 492 0012 0020     		movs	r0, #0
 493 0014 5A60     		str	r2, [r3, #4]
 494 0016 7047     		bx	lr
 495              	.L108:
 496              		.align	2
 497              	.L107:
 498 0018 003C0240 		.word	1073888256
 499 001c 23016745 		.word	1164378403
 500 0020 AB89EFCD 		.word	-839939669
 502              		.section	.text.HAL_FLASH_Lock,"ax",%progbits
 503              		.align	1
 504              		.p2align 2,,3
 505              		.global	HAL_FLASH_Lock
 506              		.syntax unified
 507              		.thumb
 508              		.thumb_func
 509              		.fpu fpv4-sp-d16
 511              	HAL_FLASH_Lock:
 512              		@ args = 0, pretend = 0, frame = 0
 513              		@ frame_needed = 0, uses_anonymous_args = 0
 514              		@ link register save eliminated.
 515 0000 034A     		ldr	r2, .L110
 516 0002 1369     		ldr	r3, [r2, #16]
 517 0004 43F00043 		orr	r3, r3, #-2147483648
 518 0008 1361     		str	r3, [r2, #16]
 519 000a 0020     		movs	r0, #0
 520 000c 7047     		bx	lr
 521              	.L111:
 522 000e 00BF     		.align	2
 523              	.L110:
 524 0010 003C0240 		.word	1073888256
 526              		.section	.text.HAL_FLASH_OB_Unlock,"ax",%progbits
 527              		.align	1
 528              		.p2align 2,,3
 529              		.global	HAL_FLASH_OB_Unlock
ARM GAS  /tmp/ccdmwmOE.s 			page 10


 530              		.syntax unified
 531              		.thumb
 532              		.thumb_func
 533              		.fpu fpv4-sp-d16
 535              	HAL_FLASH_OB_Unlock:
 536              		@ args = 0, pretend = 0, frame = 0
 537              		@ frame_needed = 0, uses_anonymous_args = 0
 538              		@ link register save eliminated.
 539 0000 054B     		ldr	r3, .L115
 540 0002 5A69     		ldr	r2, [r3, #20]
 541 0004 D207     		lsls	r2, r2, #31
 542 0006 05D5     		bpl	.L114
 543 0008 0449     		ldr	r1, .L115+4
 544 000a 054A     		ldr	r2, .L115+8
 545 000c 9960     		str	r1, [r3, #8]
 546 000e 0020     		movs	r0, #0
 547 0010 9A60     		str	r2, [r3, #8]
 548 0012 7047     		bx	lr
 549              	.L114:
 550 0014 0120     		movs	r0, #1
 551 0016 7047     		bx	lr
 552              	.L116:
 553              		.align	2
 554              	.L115:
 555 0018 003C0240 		.word	1073888256
 556 001c 3B2A1908 		.word	135866939
 557 0020 7F6E5D4C 		.word	1281191551
 559              		.section	.text.HAL_FLASH_OB_Lock,"ax",%progbits
 560              		.align	1
 561              		.p2align 2,,3
 562              		.global	HAL_FLASH_OB_Lock
 563              		.syntax unified
 564              		.thumb
 565              		.thumb_func
 566              		.fpu fpv4-sp-d16
 568              	HAL_FLASH_OB_Lock:
 569              		@ args = 0, pretend = 0, frame = 0
 570              		@ frame_needed = 0, uses_anonymous_args = 0
 571              		@ link register save eliminated.
 572 0000 034A     		ldr	r2, .L118
 573 0002 5369     		ldr	r3, [r2, #20]
 574 0004 43F00103 		orr	r3, r3, #1
 575 0008 5361     		str	r3, [r2, #20]
 576 000a 0020     		movs	r0, #0
 577 000c 7047     		bx	lr
 578              	.L119:
 579 000e 00BF     		.align	2
 580              	.L118:
 581 0010 003C0240 		.word	1073888256
 583              		.section	.text.HAL_FLASH_OB_Launch,"ax",%progbits
 584              		.align	1
 585              		.p2align 2,,3
 586              		.global	HAL_FLASH_OB_Launch
 587              		.syntax unified
 588              		.thumb
 589              		.thumb_func
 590              		.fpu fpv4-sp-d16
ARM GAS  /tmp/ccdmwmOE.s 			page 11


 592              	HAL_FLASH_OB_Launch:
 593              		@ args = 0, pretend = 0, frame = 0
 594              		@ frame_needed = 0, uses_anonymous_args = 0
 595 0000 70B5     		push	{r4, r5, r6, lr}
 596 0002 144A     		ldr	r2, .L132
 597 0004 1449     		ldr	r1, .L132+4
 598 0006 1378     		ldrb	r3, [r2]	@ zero_extendqisi2
 599 0008 144C     		ldr	r4, .L132+8
 600 000a 43F00203 		orr	r3, r3, #2
 601 000e 1370     		strb	r3, [r2]
 602 0010 0023     		movs	r3, #0
 603 0012 CB61     		str	r3, [r1, #28]
 604 0014 FFF7FEFF 		bl	HAL_GetTick
 605 0018 4CF25036 		movw	r6, #50000
 606 001c 0546     		mov	r5, r0
 607 001e 04E0     		b	.L121
 608              	.L123:
 609 0020 FFF7FEFF 		bl	HAL_GetTick
 610 0024 401B     		subs	r0, r0, r5
 611 0026 B042     		cmp	r0, r6
 612 0028 11D8     		bhi	.L125
 613              	.L121:
 614 002a E368     		ldr	r3, [r4, #12]
 615 002c DA03     		lsls	r2, r3, #15
 616 002e F7D4     		bmi	.L123
 617 0030 E368     		ldr	r3, [r4, #12]
 618 0032 DB07     		lsls	r3, r3, #31
 619 0034 44BF     		itt	mi
 620 0036 0123     		movmi	r3, #1
 621 0038 E360     		strmi	r3, [r4, #12]
 622 003a 084B     		ldr	r3, .L132+8
 623 003c D868     		ldr	r0, [r3, #12]
 624 003e 10F4F970 		ands	r0, r0, #498
 625 0042 00D1     		bne	.L131
 626 0044 70BD     		pop	{r4, r5, r6, pc}
 627              	.L131:
 628 0046 FFF7FEFF 		bl	FLASH_SetErrorCode
 629 004a 0120     		movs	r0, #1
 630 004c 70BD     		pop	{r4, r5, r6, pc}
 631              	.L125:
 632 004e 0320     		movs	r0, #3
 633 0050 70BD     		pop	{r4, r5, r6, pc}
 634              	.L133:
 635 0052 00BF     		.align	2
 636              	.L132:
 637 0054 143C0240 		.word	1073888276
 638 0058 00000000 		.word	pFlash
 639 005c 003C0240 		.word	1073888256
 641              		.section	.text.HAL_FLASH_GetError,"ax",%progbits
 642              		.align	1
 643              		.p2align 2,,3
 644              		.global	HAL_FLASH_GetError
 645              		.syntax unified
 646              		.thumb
 647              		.thumb_func
 648              		.fpu fpv4-sp-d16
 650              	HAL_FLASH_GetError:
ARM GAS  /tmp/ccdmwmOE.s 			page 12


 651              		@ args = 0, pretend = 0, frame = 0
 652              		@ frame_needed = 0, uses_anonymous_args = 0
 653              		@ link register save eliminated.
 654 0000 014B     		ldr	r3, .L135
 655 0002 D869     		ldr	r0, [r3, #28]
 656 0004 7047     		bx	lr
 657              	.L136:
 658 0006 00BF     		.align	2
 659              	.L135:
 660 0008 00000000 		.word	pFlash
 662              		.section	.text.FLASH_WaitForLastOperation,"ax",%progbits
 663              		.align	1
 664              		.p2align 2,,3
 665              		.global	FLASH_WaitForLastOperation
 666              		.syntax unified
 667              		.thumb
 668              		.thumb_func
 669              		.fpu fpv4-sp-d16
 671              	FLASH_WaitForLastOperation:
 672              		@ args = 0, pretend = 0, frame = 0
 673              		@ frame_needed = 0, uses_anonymous_args = 0
 674 0000 144B     		ldr	r3, .L153
 675 0002 70B5     		push	{r4, r5, r6, lr}
 676 0004 0022     		movs	r2, #0
 677 0006 0446     		mov	r4, r0
 678 0008 DA61     		str	r2, [r3, #28]
 679 000a FFF7FEFF 		bl	HAL_GetTick
 680 000e 124D     		ldr	r5, .L153+4
 681 0010 0646     		mov	r6, r0
 682              	.L138:
 683 0012 631C     		adds	r3, r4, #1
 684 0014 12D1     		bne	.L142
 685 0016 104A     		ldr	r2, .L153+4
 686              	.L143:
 687 0018 D368     		ldr	r3, [r2, #12]
 688 001a D803     		lsls	r0, r3, #15
 689 001c FCD4     		bmi	.L143
 690              	.L144:
 691 001e 0E4B     		ldr	r3, .L153+4
 692 0020 DA68     		ldr	r2, [r3, #12]
 693 0022 D207     		lsls	r2, r2, #31
 694 0024 44BF     		itt	mi
 695 0026 0122     		movmi	r2, #1
 696 0028 DA60     		strmi	r2, [r3, #12]
 697 002a 0B4B     		ldr	r3, .L153+4
 698 002c D868     		ldr	r0, [r3, #12]
 699 002e 10F4F970 		ands	r0, r0, #498
 700 0032 02D0     		beq	.L140
 701 0034 FFF7FEFF 		bl	FLASH_SetErrorCode
 702 0038 0120     		movs	r0, #1
 703              	.L140:
 704 003a 70BD     		pop	{r4, r5, r6, pc}
 705              	.L142:
 706 003c EB68     		ldr	r3, [r5, #12]
 707 003e D903     		lsls	r1, r3, #15
 708 0040 EDD5     		bpl	.L144
 709 0042 24B1     		cbz	r4, .L141
ARM GAS  /tmp/ccdmwmOE.s 			page 13


 710 0044 FFF7FEFF 		bl	HAL_GetTick
 711 0048 801B     		subs	r0, r0, r6
 712 004a 8442     		cmp	r4, r0
 713 004c E1D2     		bcs	.L138
 714              	.L141:
 715 004e 0320     		movs	r0, #3
 716 0050 70BD     		pop	{r4, r5, r6, pc}
 717              	.L154:
 718 0052 00BF     		.align	2
 719              	.L153:
 720 0054 00000000 		.word	pFlash
 721 0058 003C0240 		.word	1073888256
 723              		.comm	pFlash,32,4
 724              		.ident	"GCC: (Arch Repository) 6.3.0"
ARM GAS  /tmp/ccdmwmOE.s 			page 14

