ARM GAS  /tmp/ccnO6l7I.s 			page 1


   1              		.cpu cortex-m4
   2              		.eabi_attribute 27, 1
   3              		.eabi_attribute 28, 1
   4              		.eabi_attribute 23, 1
   5              		.eabi_attribute 24, 1
   6              		.eabi_attribute 25, 1
   7              		.eabi_attribute 26, 1
   8              		.eabi_attribute 30, 2
   9              		.eabi_attribute 34, 1
  10              		.eabi_attribute 18, 4
  11              		.file	"stm32f4xx_hal_tim.c"
  12              		.section	.text.HAL_TIM_Base_MspInit,"ax",%progbits
  13              		.align	1
  14              		.p2align 2,,3
  15              		.weak	HAL_TIM_Base_MspInit
  16              		.syntax unified
  17              		.thumb
  18              		.thumb_func
  19              		.fpu fpv4-sp-d16
  21              	HAL_TIM_Base_MspInit:
  22              		@ args = 0, pretend = 0, frame = 0
  23              		@ frame_needed = 0, uses_anonymous_args = 0
  24              		@ link register save eliminated.
  25 0000 7047     		bx	lr
  27 0002 00BF     		.section	.text.HAL_TIM_Base_Init,"ax",%progbits
  28              		.align	1
  29              		.p2align 2,,3
  30              		.global	HAL_TIM_Base_Init
  31              		.syntax unified
  32              		.thumb
  33              		.thumb_func
  34              		.fpu fpv4-sp-d16
  36              	HAL_TIM_Base_Init:
  37              		@ args = 0, pretend = 0, frame = 0
  38              		@ frame_needed = 0, uses_anonymous_args = 0
  39 0000 0028     		cmp	r0, #0
  40 0002 58D0     		beq	.L14
  41 0004 F8B5     		push	{r3, r4, r5, r6, r7, lr}
  42 0006 90F83930 		ldrb	r3, [r0, #57]	@ zero_extendqisi2
  43 000a 0446     		mov	r4, r0
  44 000c 03F0FF02 		and	r2, r3, #255
  45 0010 002B     		cmp	r3, #0
  46 0012 3BD0     		beq	.L22
  47              	.L4:
  48 0014 2368     		ldr	r3, [r4]
  49 0016 2949     		ldr	r1, .L23
  50 0018 0222     		movs	r2, #2
  51 001a 84F83920 		strb	r2, [r4, #57]
  52 001e 8B42     		cmp	r3, r1
  53 0020 1A68     		ldr	r2, [r3]
  54 0022 38D0     		beq	.L5
  55 0024 B3F1804F 		cmp	r3, #1073741824
  56 0028 22D0     		beq	.L8
  57 002a A1F57C41 		sub	r1, r1, #64512
  58 002e 8B42     		cmp	r3, r1
  59 0030 1ED0     		beq	.L8
  60 0032 01F58061 		add	r1, r1, #1024
ARM GAS  /tmp/ccnO6l7I.s 			page 2


  61 0036 8B42     		cmp	r3, r1
  62 0038 1AD0     		beq	.L8
  63 003a 01F58061 		add	r1, r1, #1024
  64 003e 8B42     		cmp	r3, r1
  65 0040 16D0     		beq	.L8
  66 0042 01F59A31 		add	r1, r1, #78848
  67 0046 8B42     		cmp	r3, r1
  68 0048 16D0     		beq	.L13
  69 004a 01F58061 		add	r1, r1, #1024
  70 004e 8B42     		cmp	r3, r1
  71 0050 12D0     		beq	.L13
  72 0052 01F58061 		add	r1, r1, #1024
  73 0056 8B42     		cmp	r3, r1
  74 0058 0ED0     		beq	.L13
  75 005a E068     		ldr	r0, [r4, #12]
  76 005c 6168     		ldr	r1, [r4, #4]
  77 005e 1A60     		str	r2, [r3]
  78 0060 D862     		str	r0, [r3, #44]
  79 0062 9962     		str	r1, [r3, #40]
  80              	.L12:
  81 0064 0122     		movs	r2, #1
  82 0066 5A61     		str	r2, [r3, #20]
  83 0068 0020     		movs	r0, #0
  84 006a 84F83920 		strb	r2, [r4, #57]
  85 006e F8BD     		pop	{r3, r4, r5, r6, r7, pc}
  86              	.L8:
  87 0070 A168     		ldr	r1, [r4, #8]
  88 0072 22F07002 		bic	r2, r2, #112
  89 0076 0A43     		orrs	r2, r2, r1
  90              	.L13:
  91 0078 2569     		ldr	r5, [r4, #16]
  92 007a E068     		ldr	r0, [r4, #12]
  93 007c 6168     		ldr	r1, [r4, #4]
  94 007e 22F44072 		bic	r2, r2, #768
  95 0082 2A43     		orrs	r2, r2, r5
  96 0084 1A60     		str	r2, [r3]
  97 0086 D862     		str	r0, [r3, #44]
  98 0088 9962     		str	r1, [r3, #40]
  99 008a EBE7     		b	.L12
 100              	.L22:
 101 008c 80F83820 		strb	r2, [r0, #56]
 102 0090 FFF7FEFF 		bl	HAL_TIM_Base_MspInit
 103 0094 BEE7     		b	.L4
 104              	.L5:
 105 0096 A668     		ldr	r6, [r4, #8]
 106 0098 2069     		ldr	r0, [r4, #16]
 107 009a E768     		ldr	r7, [r4, #12]
 108 009c 6568     		ldr	r5, [r4, #4]
 109 009e 6169     		ldr	r1, [r4, #20]
 110 00a0 22F07002 		bic	r2, r2, #112
 111 00a4 3243     		orrs	r2, r2, r6
 112 00a6 22F44072 		bic	r2, r2, #768
 113 00aa 0243     		orrs	r2, r2, r0
 114 00ac 1A60     		str	r2, [r3]
 115 00ae DF62     		str	r7, [r3, #44]
 116 00b0 9D62     		str	r5, [r3, #40]
 117 00b2 1963     		str	r1, [r3, #48]
ARM GAS  /tmp/ccnO6l7I.s 			page 3


 118 00b4 D6E7     		b	.L12
 119              	.L14:
 120 00b6 0120     		movs	r0, #1
 121 00b8 7047     		bx	lr
 122              	.L24:
 123 00ba 00BF     		.align	2
 124              	.L23:
 125 00bc 00000140 		.word	1073807360
 127              		.section	.text.HAL_TIM_Base_MspDeInit,"ax",%progbits
 128              		.align	1
 129              		.p2align 2,,3
 130              		.weak	HAL_TIM_Base_MspDeInit
 131              		.syntax unified
 132              		.thumb
 133              		.thumb_func
 134              		.fpu fpv4-sp-d16
 136              	HAL_TIM_Base_MspDeInit:
 137              		@ args = 0, pretend = 0, frame = 0
 138              		@ frame_needed = 0, uses_anonymous_args = 0
 139              		@ link register save eliminated.
 140 0000 7047     		bx	lr
 142 0002 00BF     		.section	.text.HAL_TIM_Base_DeInit,"ax",%progbits
 143              		.align	1
 144              		.p2align 2,,3
 145              		.global	HAL_TIM_Base_DeInit
 146              		.syntax unified
 147              		.thumb
 148              		.thumb_func
 149              		.fpu fpv4-sp-d16
 151              	HAL_TIM_Base_DeInit:
 152              		@ args = 0, pretend = 0, frame = 0
 153              		@ frame_needed = 0, uses_anonymous_args = 0
 154 0000 0222     		movs	r2, #2
 155 0002 0368     		ldr	r3, [r0]
 156 0004 10B5     		push	{r4, lr}
 157 0006 80F83920 		strb	r2, [r0, #57]
 158 000a 196A     		ldr	r1, [r3, #32]
 159 000c 41F21112 		movw	r2, #4369
 160 0010 1142     		tst	r1, r2
 161 0012 0446     		mov	r4, r0
 162 0014 08D1     		bne	.L27
 163 0016 196A     		ldr	r1, [r3, #32]
 164 0018 40F24442 		movw	r2, #1092
 165 001c 1142     		tst	r1, r2
 166 001e 03D1     		bne	.L27
 167 0020 1A68     		ldr	r2, [r3]
 168 0022 22F00102 		bic	r2, r2, #1
 169 0026 1A60     		str	r2, [r3]
 170              	.L27:
 171 0028 2046     		mov	r0, r4
 172 002a FFF7FEFF 		bl	HAL_TIM_Base_MspDeInit
 173 002e 0020     		movs	r0, #0
 174 0030 84F83900 		strb	r0, [r4, #57]
 175 0034 84F83800 		strb	r0, [r4, #56]
 176 0038 10BD     		pop	{r4, pc}
 178 003a 00BF     		.section	.text.HAL_TIM_Base_Start,"ax",%progbits
 179              		.align	1
ARM GAS  /tmp/ccnO6l7I.s 			page 4


 180              		.p2align 2,,3
 181              		.global	HAL_TIM_Base_Start
 182              		.syntax unified
 183              		.thumb
 184              		.thumb_func
 185              		.fpu fpv4-sp-d16
 187              	HAL_TIM_Base_Start:
 188              		@ args = 0, pretend = 0, frame = 0
 189              		@ frame_needed = 0, uses_anonymous_args = 0
 190              		@ link register save eliminated.
 191 0000 0168     		ldr	r1, [r0]
 192 0002 0222     		movs	r2, #2
 193 0004 10B4     		push	{r4}
 194 0006 80F83920 		strb	r2, [r0, #57]
 195 000a 0A68     		ldr	r2, [r1]
 196 000c 0124     		movs	r4, #1
 197 000e 0346     		mov	r3, r0
 198 0010 2243     		orrs	r2, r2, r4
 199 0012 0A60     		str	r2, [r1]
 200 0014 0020     		movs	r0, #0
 201 0016 83F83940 		strb	r4, [r3, #57]
 202 001a 5DF8044B 		ldr	r4, [sp], #4
 203 001e 7047     		bx	lr
 205              		.section	.text.HAL_TIM_Base_Stop,"ax",%progbits
 206              		.align	1
 207              		.p2align 2,,3
 208              		.global	HAL_TIM_Base_Stop
 209              		.syntax unified
 210              		.thumb
 211              		.thumb_func
 212              		.fpu fpv4-sp-d16
 214              	HAL_TIM_Base_Stop:
 215              		@ args = 0, pretend = 0, frame = 0
 216              		@ frame_needed = 0, uses_anonymous_args = 0
 217              		@ link register save eliminated.
 218 0000 0222     		movs	r2, #2
 219 0002 0368     		ldr	r3, [r0]
 220 0004 80F83920 		strb	r2, [r0, #57]
 221 0008 196A     		ldr	r1, [r3, #32]
 222 000a 41F21112 		movw	r2, #4369
 223 000e 1142     		tst	r1, r2
 224 0010 08D1     		bne	.L32
 225 0012 196A     		ldr	r1, [r3, #32]
 226 0014 40F24442 		movw	r2, #1092
 227 0018 1142     		tst	r1, r2
 228 001a 03D1     		bne	.L32
 229 001c 1A68     		ldr	r2, [r3]
 230 001e 22F00102 		bic	r2, r2, #1
 231 0022 1A60     		str	r2, [r3]
 232              	.L32:
 233 0024 0123     		movs	r3, #1
 234 0026 80F83930 		strb	r3, [r0, #57]
 235 002a 0020     		movs	r0, #0
 236 002c 7047     		bx	lr
 238 002e 00BF     		.section	.text.HAL_TIM_Base_Start_IT,"ax",%progbits
 239              		.align	1
 240              		.p2align 2,,3
ARM GAS  /tmp/ccnO6l7I.s 			page 5


 241              		.global	HAL_TIM_Base_Start_IT
 242              		.syntax unified
 243              		.thumb
 244              		.thumb_func
 245              		.fpu fpv4-sp-d16
 247              	HAL_TIM_Base_Start_IT:
 248              		@ args = 0, pretend = 0, frame = 0
 249              		@ frame_needed = 0, uses_anonymous_args = 0
 250              		@ link register save eliminated.
 251 0000 0368     		ldr	r3, [r0]
 252 0002 DA68     		ldr	r2, [r3, #12]
 253 0004 42F00102 		orr	r2, r2, #1
 254 0008 DA60     		str	r2, [r3, #12]
 255 000a 1A68     		ldr	r2, [r3]
 256 000c 42F00102 		orr	r2, r2, #1
 257 0010 1A60     		str	r2, [r3]
 258 0012 0020     		movs	r0, #0
 259 0014 7047     		bx	lr
 261 0016 00BF     		.section	.text.HAL_TIM_Base_Stop_IT,"ax",%progbits
 262              		.align	1
 263              		.p2align 2,,3
 264              		.global	HAL_TIM_Base_Stop_IT
 265              		.syntax unified
 266              		.thumb
 267              		.thumb_func
 268              		.fpu fpv4-sp-d16
 270              	HAL_TIM_Base_Stop_IT:
 271              		@ args = 0, pretend = 0, frame = 0
 272              		@ frame_needed = 0, uses_anonymous_args = 0
 273              		@ link register save eliminated.
 274 0000 0368     		ldr	r3, [r0]
 275 0002 DA68     		ldr	r2, [r3, #12]
 276 0004 22F00102 		bic	r2, r2, #1
 277 0008 DA60     		str	r2, [r3, #12]
 278 000a 196A     		ldr	r1, [r3, #32]
 279 000c 41F21112 		movw	r2, #4369
 280 0010 1142     		tst	r1, r2
 281 0012 08D1     		bne	.L35
 282 0014 196A     		ldr	r1, [r3, #32]
 283 0016 40F24442 		movw	r2, #1092
 284 001a 1142     		tst	r1, r2
 285 001c 03D1     		bne	.L35
 286 001e 1A68     		ldr	r2, [r3]
 287 0020 22F00102 		bic	r2, r2, #1
 288 0024 1A60     		str	r2, [r3]
 289              	.L35:
 290 0026 0020     		movs	r0, #0
 291 0028 7047     		bx	lr
 293 002a 00BF     		.section	.text.HAL_TIM_Base_Start_DMA,"ax",%progbits
 294              		.align	1
 295              		.p2align 2,,3
 296              		.global	HAL_TIM_Base_Start_DMA
 297              		.syntax unified
 298              		.thumb
 299              		.thumb_func
 300              		.fpu fpv4-sp-d16
 302              	HAL_TIM_Base_Start_DMA:
ARM GAS  /tmp/ccnO6l7I.s 			page 6


 303              		@ args = 0, pretend = 0, frame = 0
 304              		@ frame_needed = 0, uses_anonymous_args = 0
 305 0000 70B5     		push	{r4, r5, r6, lr}
 306 0002 90F83940 		ldrb	r4, [r0, #57]	@ zero_extendqisi2
 307 0006 E4B2     		uxtb	r4, r4
 308 0008 022C     		cmp	r4, #2
 309 000a 21D0     		beq	.L41
 310 000c 90F83940 		ldrb	r4, [r0, #57]	@ zero_extendqisi2
 311 0010 E4B2     		uxtb	r4, r4
 312 0012 012C     		cmp	r4, #1
 313 0014 15D0     		beq	.L43
 314              	.L38:
 315 0016 0446     		mov	r4, r0
 316 0018 1346     		mov	r3, r2
 317 001a C069     		ldr	r0, [r0, #28]
 318 001c 2268     		ldr	r2, [r4]
 319 001e 0D4E     		ldr	r6, .L45
 320 0020 0D4D     		ldr	r5, .L45+4
 321 0022 C663     		str	r6, [r0, #60]
 322 0024 C564     		str	r5, [r0, #76]
 323 0026 2C32     		adds	r2, r2, #44
 324 0028 FFF7FEFF 		bl	HAL_DMA_Start_IT
 325 002c 2368     		ldr	r3, [r4]
 326 002e DA68     		ldr	r2, [r3, #12]
 327 0030 42F48072 		orr	r2, r2, #256
 328 0034 DA60     		str	r2, [r3, #12]
 329 0036 1A68     		ldr	r2, [r3]
 330 0038 42F00102 		orr	r2, r2, #1
 331 003c 1A60     		str	r2, [r3]
 332 003e 0020     		movs	r0, #0
 333 0040 70BD     		pop	{r4, r5, r6, pc}
 334              	.L43:
 335 0042 19B1     		cbz	r1, .L44
 336              	.L39:
 337 0044 0223     		movs	r3, #2
 338 0046 80F83930 		strb	r3, [r0, #57]
 339 004a E4E7     		b	.L38
 340              	.L44:
 341 004c 002A     		cmp	r2, #0
 342 004e F9D0     		beq	.L39
 343              	.L41:
 344 0050 2046     		mov	r0, r4
 345 0052 70BD     		pop	{r4, r5, r6, pc}
 346              	.L46:
 347              		.align	2
 348              	.L45:
 349 0054 00000000 		.word	TIM_DMAPeriodElapsedCplt
 350 0058 00000000 		.word	TIM_DMAError
 352              		.section	.text.HAL_TIM_Base_Stop_DMA,"ax",%progbits
 353              		.align	1
 354              		.p2align 2,,3
 355              		.global	HAL_TIM_Base_Stop_DMA
 356              		.syntax unified
 357              		.thumb
 358              		.thumb_func
 359              		.fpu fpv4-sp-d16
 361              	HAL_TIM_Base_Stop_DMA:
ARM GAS  /tmp/ccnO6l7I.s 			page 7


 362              		@ args = 0, pretend = 0, frame = 0
 363              		@ frame_needed = 0, uses_anonymous_args = 0
 364              		@ link register save eliminated.
 365 0000 0368     		ldr	r3, [r0]
 366 0002 DA68     		ldr	r2, [r3, #12]
 367 0004 22F48072 		bic	r2, r2, #256
 368 0008 DA60     		str	r2, [r3, #12]
 369 000a 1A6A     		ldr	r2, [r3, #32]
 370 000c 41F21111 		movw	r1, #4369
 371 0010 0A42     		tst	r2, r1
 372 0012 08D1     		bne	.L48
 373 0014 196A     		ldr	r1, [r3, #32]
 374 0016 40F24442 		movw	r2, #1092
 375 001a 1142     		tst	r1, r2
 376 001c 03D1     		bne	.L48
 377 001e 1A68     		ldr	r2, [r3]
 378 0020 22F00102 		bic	r2, r2, #1
 379 0024 1A60     		str	r2, [r3]
 380              	.L48:
 381 0026 0123     		movs	r3, #1
 382 0028 80F83930 		strb	r3, [r0, #57]
 383 002c 0020     		movs	r0, #0
 384 002e 7047     		bx	lr
 386              		.section	.text.HAL_TIM_OC_MspInit,"ax",%progbits
 387              		.align	1
 388              		.p2align 2,,3
 389              		.weak	HAL_TIM_OC_MspInit
 390              		.syntax unified
 391              		.thumb
 392              		.thumb_func
 393              		.fpu fpv4-sp-d16
 395              	HAL_TIM_OC_MspInit:
 396              		@ args = 0, pretend = 0, frame = 0
 397              		@ frame_needed = 0, uses_anonymous_args = 0
 398              		@ link register save eliminated.
 399 0000 7047     		bx	lr
 401 0002 00BF     		.section	.text.HAL_TIM_OC_Init,"ax",%progbits
 402              		.align	1
 403              		.p2align 2,,3
 404              		.global	HAL_TIM_OC_Init
 405              		.syntax unified
 406              		.thumb
 407              		.thumb_func
 408              		.fpu fpv4-sp-d16
 410              	HAL_TIM_OC_Init:
 411              		@ args = 0, pretend = 0, frame = 0
 412              		@ frame_needed = 0, uses_anonymous_args = 0
 413 0000 0028     		cmp	r0, #0
 414 0002 58D0     		beq	.L62
 415 0004 F8B5     		push	{r3, r4, r5, r6, r7, lr}
 416 0006 90F83930 		ldrb	r3, [r0, #57]	@ zero_extendqisi2
 417 000a 0446     		mov	r4, r0
 418 000c 03F0FF02 		and	r2, r3, #255
 419 0010 002B     		cmp	r3, #0
 420 0012 3BD0     		beq	.L69
 421              	.L52:
 422 0014 2368     		ldr	r3, [r4]
ARM GAS  /tmp/ccnO6l7I.s 			page 8


 423 0016 2949     		ldr	r1, .L70
 424 0018 0222     		movs	r2, #2
 425 001a 84F83920 		strb	r2, [r4, #57]
 426 001e 8B42     		cmp	r3, r1
 427 0020 1A68     		ldr	r2, [r3]
 428 0022 38D0     		beq	.L53
 429 0024 B3F1804F 		cmp	r3, #1073741824
 430 0028 22D0     		beq	.L56
 431 002a A1F57C41 		sub	r1, r1, #64512
 432 002e 8B42     		cmp	r3, r1
 433 0030 1ED0     		beq	.L56
 434 0032 01F58061 		add	r1, r1, #1024
 435 0036 8B42     		cmp	r3, r1
 436 0038 1AD0     		beq	.L56
 437 003a 01F58061 		add	r1, r1, #1024
 438 003e 8B42     		cmp	r3, r1
 439 0040 16D0     		beq	.L56
 440 0042 01F59A31 		add	r1, r1, #78848
 441 0046 8B42     		cmp	r3, r1
 442 0048 16D0     		beq	.L61
 443 004a 01F58061 		add	r1, r1, #1024
 444 004e 8B42     		cmp	r3, r1
 445 0050 12D0     		beq	.L61
 446 0052 01F58061 		add	r1, r1, #1024
 447 0056 8B42     		cmp	r3, r1
 448 0058 0ED0     		beq	.L61
 449 005a E068     		ldr	r0, [r4, #12]
 450 005c 6168     		ldr	r1, [r4, #4]
 451 005e 1A60     		str	r2, [r3]
 452 0060 D862     		str	r0, [r3, #44]
 453 0062 9962     		str	r1, [r3, #40]
 454              	.L60:
 455 0064 0122     		movs	r2, #1
 456 0066 5A61     		str	r2, [r3, #20]
 457 0068 0020     		movs	r0, #0
 458 006a 84F83920 		strb	r2, [r4, #57]
 459 006e F8BD     		pop	{r3, r4, r5, r6, r7, pc}
 460              	.L56:
 461 0070 A168     		ldr	r1, [r4, #8]
 462 0072 22F07002 		bic	r2, r2, #112
 463 0076 0A43     		orrs	r2, r2, r1
 464              	.L61:
 465 0078 2569     		ldr	r5, [r4, #16]
 466 007a E068     		ldr	r0, [r4, #12]
 467 007c 6168     		ldr	r1, [r4, #4]
 468 007e 22F44072 		bic	r2, r2, #768
 469 0082 2A43     		orrs	r2, r2, r5
 470 0084 1A60     		str	r2, [r3]
 471 0086 D862     		str	r0, [r3, #44]
 472 0088 9962     		str	r1, [r3, #40]
 473 008a EBE7     		b	.L60
 474              	.L69:
 475 008c 80F83820 		strb	r2, [r0, #56]
 476 0090 FFF7FEFF 		bl	HAL_TIM_OC_MspInit
 477 0094 BEE7     		b	.L52
 478              	.L53:
 479 0096 A668     		ldr	r6, [r4, #8]
ARM GAS  /tmp/ccnO6l7I.s 			page 9


 480 0098 2069     		ldr	r0, [r4, #16]
 481 009a E768     		ldr	r7, [r4, #12]
 482 009c 6568     		ldr	r5, [r4, #4]
 483 009e 6169     		ldr	r1, [r4, #20]
 484 00a0 22F07002 		bic	r2, r2, #112
 485 00a4 3243     		orrs	r2, r2, r6
 486 00a6 22F44072 		bic	r2, r2, #768
 487 00aa 0243     		orrs	r2, r2, r0
 488 00ac 1A60     		str	r2, [r3]
 489 00ae DF62     		str	r7, [r3, #44]
 490 00b0 9D62     		str	r5, [r3, #40]
 491 00b2 1963     		str	r1, [r3, #48]
 492 00b4 D6E7     		b	.L60
 493              	.L62:
 494 00b6 0120     		movs	r0, #1
 495 00b8 7047     		bx	lr
 496              	.L71:
 497 00ba 00BF     		.align	2
 498              	.L70:
 499 00bc 00000140 		.word	1073807360
 501              		.section	.text.HAL_TIM_OC_MspDeInit,"ax",%progbits
 502              		.align	1
 503              		.p2align 2,,3
 504              		.weak	HAL_TIM_OC_MspDeInit
 505              		.syntax unified
 506              		.thumb
 507              		.thumb_func
 508              		.fpu fpv4-sp-d16
 510              	HAL_TIM_OC_MspDeInit:
 511              		@ args = 0, pretend = 0, frame = 0
 512              		@ frame_needed = 0, uses_anonymous_args = 0
 513              		@ link register save eliminated.
 514 0000 7047     		bx	lr
 516 0002 00BF     		.section	.text.HAL_TIM_OC_DeInit,"ax",%progbits
 517              		.align	1
 518              		.p2align 2,,3
 519              		.global	HAL_TIM_OC_DeInit
 520              		.syntax unified
 521              		.thumb
 522              		.thumb_func
 523              		.fpu fpv4-sp-d16
 525              	HAL_TIM_OC_DeInit:
 526              		@ args = 0, pretend = 0, frame = 0
 527              		@ frame_needed = 0, uses_anonymous_args = 0
 528 0000 0222     		movs	r2, #2
 529 0002 0368     		ldr	r3, [r0]
 530 0004 10B5     		push	{r4, lr}
 531 0006 80F83920 		strb	r2, [r0, #57]
 532 000a 196A     		ldr	r1, [r3, #32]
 533 000c 41F21112 		movw	r2, #4369
 534 0010 1142     		tst	r1, r2
 535 0012 0446     		mov	r4, r0
 536 0014 08D1     		bne	.L74
 537 0016 196A     		ldr	r1, [r3, #32]
 538 0018 40F24442 		movw	r2, #1092
 539 001c 1142     		tst	r1, r2
 540 001e 03D1     		bne	.L74
ARM GAS  /tmp/ccnO6l7I.s 			page 10


 541 0020 1A68     		ldr	r2, [r3]
 542 0022 22F00102 		bic	r2, r2, #1
 543 0026 1A60     		str	r2, [r3]
 544              	.L74:
 545 0028 2046     		mov	r0, r4
 546 002a FFF7FEFF 		bl	HAL_TIM_OC_MspDeInit
 547 002e 0020     		movs	r0, #0
 548 0030 84F83900 		strb	r0, [r4, #57]
 549 0034 84F83800 		strb	r0, [r4, #56]
 550 0038 10BD     		pop	{r4, pc}
 552 003a 00BF     		.section	.text.HAL_TIM_OC_Start,"ax",%progbits
 553              		.align	1
 554              		.p2align 2,,3
 555              		.global	HAL_TIM_OC_Start
 556              		.syntax unified
 557              		.thumb
 558              		.thumb_func
 559              		.fpu fpv4-sp-d16
 561              	HAL_TIM_OC_Start:
 562              		@ args = 0, pretend = 0, frame = 0
 563              		@ frame_needed = 0, uses_anonymous_args = 0
 564              		@ link register save eliminated.
 565 0000 0368     		ldr	r3, [r0]
 566 0002 0122     		movs	r2, #1
 567 0004 186A     		ldr	r0, [r3, #32]
 568 0006 02FA01F1 		lsl	r1, r2, r1
 569 000a 20EA0100 		bic	r0, r0, r1
 570 000e 10B4     		push	{r4}
 571 0010 1862     		str	r0, [r3, #32]
 572 0012 1A6A     		ldr	r2, [r3, #32]
 573 0014 084C     		ldr	r4, .L80
 574 0016 1143     		orrs	r1, r1, r2
 575 0018 A342     		cmp	r3, r4
 576 001a 1962     		str	r1, [r3, #32]
 577 001c 07D0     		beq	.L79
 578              	.L77:
 579 001e 1A68     		ldr	r2, [r3]
 580 0020 5DF8044B 		ldr	r4, [sp], #4
 581 0024 42F00102 		orr	r2, r2, #1
 582 0028 0020     		movs	r0, #0
 583 002a 1A60     		str	r2, [r3]
 584 002c 7047     		bx	lr
 585              	.L79:
 586 002e 5A6C     		ldr	r2, [r3, #68]
 587 0030 42F40042 		orr	r2, r2, #32768
 588 0034 5A64     		str	r2, [r3, #68]
 589 0036 F2E7     		b	.L77
 590              	.L81:
 591              		.align	2
 592              	.L80:
 593 0038 00000140 		.word	1073807360
 595              		.section	.text.HAL_TIM_OC_Stop,"ax",%progbits
 596              		.align	1
 597              		.p2align 2,,3
 598              		.global	HAL_TIM_OC_Stop
 599              		.syntax unified
 600              		.thumb
ARM GAS  /tmp/ccnO6l7I.s 			page 11


 601              		.thumb_func
 602              		.fpu fpv4-sp-d16
 604              	HAL_TIM_OC_Stop:
 605              		@ args = 0, pretend = 0, frame = 0
 606              		@ frame_needed = 0, uses_anonymous_args = 0
 607              		@ link register save eliminated.
 608 0000 0368     		ldr	r3, [r0]
 609 0002 0120     		movs	r0, #1
 610 0004 1A6A     		ldr	r2, [r3, #32]
 611 0006 00FA01F1 		lsl	r1, r0, r1
 612 000a 10B4     		push	{r4}
 613 000c 22EA0102 		bic	r2, r2, r1
 614 0010 134C     		ldr	r4, .L87
 615 0012 1A62     		str	r2, [r3, #32]
 616 0014 1A6A     		ldr	r2, [r3, #32]
 617 0016 1A62     		str	r2, [r3, #32]
 618 0018 A342     		cmp	r3, r4
 619 001a 11D0     		beq	.L86
 620              	.L83:
 621 001c 196A     		ldr	r1, [r3, #32]
 622 001e 41F21112 		movw	r2, #4369
 623 0022 1142     		tst	r1, r2
 624 0024 08D1     		bne	.L84
 625 0026 196A     		ldr	r1, [r3, #32]
 626 0028 40F24442 		movw	r2, #1092
 627 002c 1142     		tst	r1, r2
 628 002e 03D1     		bne	.L84
 629 0030 1A68     		ldr	r2, [r3]
 630 0032 22F00102 		bic	r2, r2, #1
 631 0036 1A60     		str	r2, [r3]
 632              	.L84:
 633 0038 0020     		movs	r0, #0
 634 003a 5DF8044B 		ldr	r4, [sp], #4
 635 003e 7047     		bx	lr
 636              	.L86:
 637 0040 196A     		ldr	r1, [r3, #32]
 638 0042 41F21112 		movw	r2, #4369
 639 0046 1142     		tst	r1, r2
 640 0048 E8D1     		bne	.L83
 641 004a 196A     		ldr	r1, [r3, #32]
 642 004c 40F24442 		movw	r2, #1092
 643 0050 1142     		tst	r1, r2
 644 0052 E3D1     		bne	.L83
 645 0054 5A6C     		ldr	r2, [r3, #68]
 646 0056 22F40042 		bic	r2, r2, #32768
 647 005a 5A64     		str	r2, [r3, #68]
 648 005c DEE7     		b	.L83
 649              	.L88:
 650 005e 00BF     		.align	2
 651              	.L87:
 652 0060 00000140 		.word	1073807360
 654              		.section	.text.HAL_TIM_OC_Start_IT,"ax",%progbits
 655              		.align	1
 656              		.p2align 2,,3
 657              		.global	HAL_TIM_OC_Start_IT
 658              		.syntax unified
 659              		.thumb
ARM GAS  /tmp/ccnO6l7I.s 			page 12


 660              		.thumb_func
 661              		.fpu fpv4-sp-d16
 663              	HAL_TIM_OC_Start_IT:
 664              		@ args = 0, pretend = 0, frame = 0
 665              		@ frame_needed = 0, uses_anonymous_args = 0
 666              		@ link register save eliminated.
 667 0000 10B4     		push	{r4}
 668 0002 0C29     		cmp	r1, #12
 669 0004 35D8     		bhi	.L90
 670 0006 DFE801F0 		tbb	[pc, r1]
 671              	.L92:
 672 000a 28       		.byte	(.L91-.L92)/2
 673 000b 34       		.byte	(.L90-.L92)/2
 674 000c 34       		.byte	(.L90-.L92)/2
 675 000d 34       		.byte	(.L90-.L92)/2
 676 000e 2E       		.byte	(.L93-.L92)/2
 677 000f 34       		.byte	(.L90-.L92)/2
 678 0010 34       		.byte	(.L90-.L92)/2
 679 0011 34       		.byte	(.L90-.L92)/2
 680 0012 22       		.byte	(.L94-.L92)/2
 681 0013 34       		.byte	(.L90-.L92)/2
 682 0014 34       		.byte	(.L90-.L92)/2
 683 0015 34       		.byte	(.L90-.L92)/2
 684 0016 07       		.byte	(.L95-.L92)/2
 685 0017 00       		.p2align 1
 686              	.L95:
 687 0018 0368     		ldr	r3, [r0]
 688 001a DA68     		ldr	r2, [r3, #12]
 689 001c 42F01002 		orr	r2, r2, #16
 690 0020 DA60     		str	r2, [r3, #12]
 691              	.L96:
 692 0022 186A     		ldr	r0, [r3, #32]
 693 0024 164C     		ldr	r4, .L100
 694 0026 0122     		movs	r2, #1
 695 0028 02FA01F1 		lsl	r1, r2, r1
 696 002c 20EA0100 		bic	r0, r0, r1
 697 0030 1862     		str	r0, [r3, #32]
 698 0032 1A6A     		ldr	r2, [r3, #32]
 699 0034 A342     		cmp	r3, r4
 700 0036 41EA0201 		orr	r1, r1, r2
 701 003a 1962     		str	r1, [r3, #32]
 702 003c 1BD0     		beq	.L99
 703              	.L97:
 704 003e 1A68     		ldr	r2, [r3]
 705 0040 5DF8044B 		ldr	r4, [sp], #4
 706 0044 42F00102 		orr	r2, r2, #1
 707 0048 0020     		movs	r0, #0
 708 004a 1A60     		str	r2, [r3]
 709 004c 7047     		bx	lr
 710              	.L94:
 711 004e 0368     		ldr	r3, [r0]
 712 0050 DA68     		ldr	r2, [r3, #12]
 713 0052 42F00802 		orr	r2, r2, #8
 714 0056 DA60     		str	r2, [r3, #12]
 715 0058 E3E7     		b	.L96
 716              	.L91:
 717 005a 0368     		ldr	r3, [r0]
ARM GAS  /tmp/ccnO6l7I.s 			page 13


 718 005c DA68     		ldr	r2, [r3, #12]
 719 005e 42F00202 		orr	r2, r2, #2
 720 0062 DA60     		str	r2, [r3, #12]
 721 0064 DDE7     		b	.L96
 722              	.L93:
 723 0066 0368     		ldr	r3, [r0]
 724 0068 DA68     		ldr	r2, [r3, #12]
 725 006a 42F00402 		orr	r2, r2, #4
 726 006e DA60     		str	r2, [r3, #12]
 727 0070 D7E7     		b	.L96
 728              	.L90:
 729 0072 0368     		ldr	r3, [r0]
 730 0074 D5E7     		b	.L96
 731              	.L99:
 732 0076 5A6C     		ldr	r2, [r3, #68]
 733 0078 42F40042 		orr	r2, r2, #32768
 734 007c 5A64     		str	r2, [r3, #68]
 735 007e DEE7     		b	.L97
 736              	.L101:
 737              		.align	2
 738              	.L100:
 739 0080 00000140 		.word	1073807360
 741              		.section	.text.HAL_TIM_OC_Stop_IT,"ax",%progbits
 742              		.align	1
 743              		.p2align 2,,3
 744              		.global	HAL_TIM_OC_Stop_IT
 745              		.syntax unified
 746              		.thumb
 747              		.thumb_func
 748              		.fpu fpv4-sp-d16
 750              	HAL_TIM_OC_Stop_IT:
 751              		@ args = 0, pretend = 0, frame = 0
 752              		@ frame_needed = 0, uses_anonymous_args = 0
 753              		@ link register save eliminated.
 754 0000 10B4     		push	{r4}
 755 0002 0C29     		cmp	r1, #12
 756 0004 3DD8     		bhi	.L103
 757 0006 DFE801F0 		tbb	[pc, r1]
 758              	.L105:
 759 000a 36       		.byte	(.L104-.L105)/2
 760 000b 3C       		.byte	(.L103-.L105)/2
 761 000c 3C       		.byte	(.L103-.L105)/2
 762 000d 3C       		.byte	(.L103-.L105)/2
 763 000e 30       		.byte	(.L106-.L105)/2
 764 000f 3C       		.byte	(.L103-.L105)/2
 765 0010 3C       		.byte	(.L103-.L105)/2
 766 0011 3C       		.byte	(.L103-.L105)/2
 767 0012 2A       		.byte	(.L107-.L105)/2
 768 0013 3C       		.byte	(.L103-.L105)/2
 769 0014 3C       		.byte	(.L103-.L105)/2
 770 0015 3C       		.byte	(.L103-.L105)/2
 771 0016 07       		.byte	(.L108-.L105)/2
 772 0017 00       		.p2align 1
 773              	.L108:
 774 0018 0368     		ldr	r3, [r0]
 775 001a DA68     		ldr	r2, [r3, #12]
 776 001c 22F01002 		bic	r2, r2, #16
ARM GAS  /tmp/ccnO6l7I.s 			page 14


 777 0020 DA60     		str	r2, [r3, #12]
 778              	.L109:
 779 0022 1A6A     		ldr	r2, [r3, #32]
 780 0024 1F4C     		ldr	r4, .L114
 781 0026 0120     		movs	r0, #1
 782 0028 00FA01F1 		lsl	r1, r0, r1
 783 002c 22EA0101 		bic	r1, r2, r1
 784 0030 1962     		str	r1, [r3, #32]
 785 0032 1A6A     		ldr	r2, [r3, #32]
 786 0034 1A62     		str	r2, [r3, #32]
 787 0036 A342     		cmp	r3, r4
 788 0038 25D0     		beq	.L113
 789              	.L110:
 790 003a 196A     		ldr	r1, [r3, #32]
 791 003c 41F21112 		movw	r2, #4369
 792 0040 1142     		tst	r1, r2
 793 0042 08D1     		bne	.L111
 794 0044 196A     		ldr	r1, [r3, #32]
 795 0046 40F24442 		movw	r2, #1092
 796 004a 1142     		tst	r1, r2
 797 004c 03D1     		bne	.L111
 798 004e 1A68     		ldr	r2, [r3]
 799 0050 22F00102 		bic	r2, r2, #1
 800 0054 1A60     		str	r2, [r3]
 801              	.L111:
 802 0056 0020     		movs	r0, #0
 803 0058 5DF8044B 		ldr	r4, [sp], #4
 804 005c 7047     		bx	lr
 805              	.L107:
 806 005e 0368     		ldr	r3, [r0]
 807 0060 DA68     		ldr	r2, [r3, #12]
 808 0062 22F00802 		bic	r2, r2, #8
 809 0066 DA60     		str	r2, [r3, #12]
 810 0068 DBE7     		b	.L109
 811              	.L106:
 812 006a 0368     		ldr	r3, [r0]
 813 006c DA68     		ldr	r2, [r3, #12]
 814 006e 22F00402 		bic	r2, r2, #4
 815 0072 DA60     		str	r2, [r3, #12]
 816 0074 D5E7     		b	.L109
 817              	.L104:
 818 0076 0368     		ldr	r3, [r0]
 819 0078 DA68     		ldr	r2, [r3, #12]
 820 007a 22F00202 		bic	r2, r2, #2
 821 007e DA60     		str	r2, [r3, #12]
 822 0080 CFE7     		b	.L109
 823              	.L103:
 824 0082 0368     		ldr	r3, [r0]
 825 0084 CDE7     		b	.L109
 826              	.L113:
 827 0086 196A     		ldr	r1, [r3, #32]
 828 0088 41F21112 		movw	r2, #4369
 829 008c 1142     		tst	r1, r2
 830 008e D4D1     		bne	.L110
 831 0090 196A     		ldr	r1, [r3, #32]
 832 0092 40F24442 		movw	r2, #1092
 833 0096 1142     		tst	r1, r2
ARM GAS  /tmp/ccnO6l7I.s 			page 15


 834 0098 CFD1     		bne	.L110
 835 009a 5A6C     		ldr	r2, [r3, #68]
 836 009c 22F40042 		bic	r2, r2, #32768
 837 00a0 5A64     		str	r2, [r3, #68]
 838 00a2 CAE7     		b	.L110
 839              	.L115:
 840              		.align	2
 841              	.L114:
 842 00a4 00000140 		.word	1073807360
 844              		.section	.text.HAL_TIM_OC_Start_DMA,"ax",%progbits
 845              		.align	1
 846              		.p2align 2,,3
 847              		.global	HAL_TIM_OC_Start_DMA
 848              		.syntax unified
 849              		.thumb
 850              		.thumb_func
 851              		.fpu fpv4-sp-d16
 853              	HAL_TIM_OC_Start_DMA:
 854              		@ args = 0, pretend = 0, frame = 0
 855              		@ frame_needed = 0, uses_anonymous_args = 0
 856 0000 F8B5     		push	{r3, r4, r5, r6, r7, lr}
 857 0002 90F83940 		ldrb	r4, [r0, #57]	@ zero_extendqisi2
 858 0006 E4B2     		uxtb	r4, r4
 859 0008 022C     		cmp	r4, #2
 860 000a 15D0     		beq	.L129
 861 000c 90F83940 		ldrb	r4, [r0, #57]	@ zero_extendqisi2
 862 0010 E4B2     		uxtb	r4, r4
 863 0012 012C     		cmp	r4, #1
 864 0014 0CD0     		beq	.L131
 865              	.L118:
 866 0016 0D46     		mov	r5, r1
 867 0018 0446     		mov	r4, r0
 868 001a 0C2D     		cmp	r5, #12
 869 001c 65D8     		bhi	.L120
 870 001e DFE805F0 		tbb	[pc, r5]
 871              	.L122:
 872 0022 0D       		.byte	(.L121-.L122)/2
 873 0023 64       		.byte	(.L120-.L122)/2
 874 0024 64       		.byte	(.L120-.L122)/2
 875 0025 64       		.byte	(.L120-.L122)/2
 876 0026 42       		.byte	(.L123-.L122)/2
 877 0027 64       		.byte	(.L120-.L122)/2
 878 0028 64       		.byte	(.L120-.L122)/2
 879 0029 64       		.byte	(.L120-.L122)/2
 880 002a 31       		.byte	(.L124-.L122)/2
 881 002b 64       		.byte	(.L120-.L122)/2
 882 002c 64       		.byte	(.L120-.L122)/2
 883 002d 64       		.byte	(.L120-.L122)/2
 884 002e 53       		.byte	(.L125-.L122)/2
 885 002f 00       		.p2align 1
 886              	.L131:
 887 0030 002A     		cmp	r2, #0
 888 0032 5CD1     		bne	.L119
 889 0034 002B     		cmp	r3, #0
 890 0036 5AD0     		beq	.L119
 891              	.L129:
 892 0038 2046     		mov	r0, r4
ARM GAS  /tmp/ccnO6l7I.s 			page 16


 893 003a F8BD     		pop	{r3, r4, r5, r6, r7, pc}
 894              	.L121:
 895 003c 2668     		ldr	r6, [r4]
 896 003e 006A     		ldr	r0, [r0, #32]
 897 0040 2F49     		ldr	r1, .L133
 898 0042 304F     		ldr	r7, .L133+4
 899 0044 C163     		str	r1, [r0, #60]
 900 0046 C764     		str	r7, [r0, #76]
 901 0048 1146     		mov	r1, r2
 902 004a 06F13402 		add	r2, r6, #52
 903 004e FFF7FEFF 		bl	HAL_DMA_Start_IT
 904 0052 2368     		ldr	r3, [r4]
 905 0054 DA68     		ldr	r2, [r3, #12]
 906 0056 42F40072 		orr	r2, r2, #512
 907 005a DA60     		str	r2, [r3, #12]
 908              	.L126:
 909 005c 186A     		ldr	r0, [r3, #32]
 910 005e 2A4C     		ldr	r4, .L133+8
 911 0060 0122     		movs	r2, #1
 912 0062 02FA05F1 		lsl	r1, r2, r5
 913 0066 20EA0100 		bic	r0, r0, r1
 914 006a 1862     		str	r0, [r3, #32]
 915 006c 1A6A     		ldr	r2, [r3, #32]
 916 006e A342     		cmp	r3, r4
 917 0070 41EA0201 		orr	r1, r1, r2
 918 0074 1962     		str	r1, [r3, #32]
 919 0076 3ED0     		beq	.L132
 920              	.L127:
 921 0078 1A68     		ldr	r2, [r3]
 922 007a 42F00102 		orr	r2, r2, #1
 923 007e 1A60     		str	r2, [r3]
 924 0080 0020     		movs	r0, #0
 925 0082 F8BD     		pop	{r3, r4, r5, r6, r7, pc}
 926              	.L124:
 927 0084 2668     		ldr	r6, [r4]
 928 0086 806A     		ldr	r0, [r0, #40]
 929 0088 1D49     		ldr	r1, .L133
 930 008a 1E4F     		ldr	r7, .L133+4
 931 008c C163     		str	r1, [r0, #60]
 932 008e C764     		str	r7, [r0, #76]
 933 0090 1146     		mov	r1, r2
 934 0092 06F13C02 		add	r2, r6, #60
 935 0096 FFF7FEFF 		bl	HAL_DMA_Start_IT
 936 009a 2368     		ldr	r3, [r4]
 937 009c DA68     		ldr	r2, [r3, #12]
 938 009e 42F40062 		orr	r2, r2, #2048
 939 00a2 DA60     		str	r2, [r3, #12]
 940 00a4 DAE7     		b	.L126
 941              	.L123:
 942 00a6 2668     		ldr	r6, [r4]
 943 00a8 406A     		ldr	r0, [r0, #36]
 944 00aa 1549     		ldr	r1, .L133
 945 00ac 154F     		ldr	r7, .L133+4
 946 00ae C163     		str	r1, [r0, #60]
 947 00b0 C764     		str	r7, [r0, #76]
 948 00b2 1146     		mov	r1, r2
 949 00b4 06F13802 		add	r2, r6, #56
ARM GAS  /tmp/ccnO6l7I.s 			page 17


 950 00b8 FFF7FEFF 		bl	HAL_DMA_Start_IT
 951 00bc 2368     		ldr	r3, [r4]
 952 00be DA68     		ldr	r2, [r3, #12]
 953 00c0 42F48062 		orr	r2, r2, #1024
 954 00c4 DA60     		str	r2, [r3, #12]
 955 00c6 C9E7     		b	.L126
 956              	.L125:
 957 00c8 2668     		ldr	r6, [r4]
 958 00ca C06A     		ldr	r0, [r0, #44]
 959 00cc 0C49     		ldr	r1, .L133
 960 00ce 0D4F     		ldr	r7, .L133+4
 961 00d0 C163     		str	r1, [r0, #60]
 962 00d2 C764     		str	r7, [r0, #76]
 963 00d4 1146     		mov	r1, r2
 964 00d6 06F14002 		add	r2, r6, #64
 965 00da FFF7FEFF 		bl	HAL_DMA_Start_IT
 966 00de 2368     		ldr	r3, [r4]
 967 00e0 DA68     		ldr	r2, [r3, #12]
 968 00e2 42F48052 		orr	r2, r2, #4096
 969 00e6 DA60     		str	r2, [r3, #12]
 970 00e8 B8E7     		b	.L126
 971              	.L120:
 972 00ea 0368     		ldr	r3, [r0]
 973 00ec B6E7     		b	.L126
 974              	.L119:
 975 00ee 0224     		movs	r4, #2
 976 00f0 80F83940 		strb	r4, [r0, #57]
 977 00f4 8FE7     		b	.L118
 978              	.L132:
 979 00f6 5A6C     		ldr	r2, [r3, #68]
 980 00f8 42F40042 		orr	r2, r2, #32768
 981 00fc 5A64     		str	r2, [r3, #68]
 982 00fe BBE7     		b	.L127
 983              	.L134:
 984              		.align	2
 985              	.L133:
 986 0100 00000000 		.word	TIM_DMADelayPulseCplt
 987 0104 00000000 		.word	TIM_DMAError
 988 0108 00000140 		.word	1073807360
 990              		.section	.text.HAL_TIM_OC_Stop_DMA,"ax",%progbits
 991              		.align	1
 992              		.p2align 2,,3
 993              		.global	HAL_TIM_OC_Stop_DMA
 994              		.syntax unified
 995              		.thumb
 996              		.thumb_func
 997              		.fpu fpv4-sp-d16
 999              	HAL_TIM_OC_Stop_DMA:
 1000              		@ args = 0, pretend = 0, frame = 0
 1001              		@ frame_needed = 0, uses_anonymous_args = 0
 1002              		@ link register save eliminated.
 1003 0000 30B4     		push	{r4, r5}
 1004 0002 0C29     		cmp	r1, #12
 1005 0004 3FD8     		bhi	.L136
 1006 0006 DFE801F0 		tbb	[pc, r1]
 1007              	.L138:
 1008 000a 38       		.byte	(.L137-.L138)/2
ARM GAS  /tmp/ccnO6l7I.s 			page 18


 1009 000b 3E       		.byte	(.L136-.L138)/2
 1010 000c 3E       		.byte	(.L136-.L138)/2
 1011 000d 3E       		.byte	(.L136-.L138)/2
 1012 000e 32       		.byte	(.L139-.L138)/2
 1013 000f 3E       		.byte	(.L136-.L138)/2
 1014 0010 3E       		.byte	(.L136-.L138)/2
 1015 0011 3E       		.byte	(.L136-.L138)/2
 1016 0012 2C       		.byte	(.L140-.L138)/2
 1017 0013 3E       		.byte	(.L136-.L138)/2
 1018 0014 3E       		.byte	(.L136-.L138)/2
 1019 0015 3E       		.byte	(.L136-.L138)/2
 1020 0016 07       		.byte	(.L141-.L138)/2
 1021 0017 00       		.p2align 1
 1022              	.L141:
 1023 0018 0368     		ldr	r3, [r0]
 1024 001a DA68     		ldr	r2, [r3, #12]
 1025 001c 22F48052 		bic	r2, r2, #4096
 1026 0020 DA60     		str	r2, [r3, #12]
 1027              	.L142:
 1028 0022 1A6A     		ldr	r2, [r3, #32]
 1029 0024 204D     		ldr	r5, .L147
 1030 0026 0124     		movs	r4, #1
 1031 0028 04FA01F1 		lsl	r1, r4, r1
 1032 002c 22EA0101 		bic	r1, r2, r1
 1033 0030 1962     		str	r1, [r3, #32]
 1034 0032 1A6A     		ldr	r2, [r3, #32]
 1035 0034 1A62     		str	r2, [r3, #32]
 1036 0036 AB42     		cmp	r3, r5
 1037 0038 27D0     		beq	.L146
 1038              	.L143:
 1039 003a 196A     		ldr	r1, [r3, #32]
 1040 003c 41F21112 		movw	r2, #4369
 1041 0040 1142     		tst	r1, r2
 1042 0042 08D1     		bne	.L144
 1043 0044 196A     		ldr	r1, [r3, #32]
 1044 0046 40F24442 		movw	r2, #1092
 1045 004a 1142     		tst	r1, r2
 1046 004c 03D1     		bne	.L144
 1047 004e 1A68     		ldr	r2, [r3]
 1048 0050 22F00102 		bic	r2, r2, #1
 1049 0054 1A60     		str	r2, [r3]
 1050              	.L144:
 1051 0056 0123     		movs	r3, #1
 1052 0058 80F83930 		strb	r3, [r0, #57]
 1053 005c 30BC     		pop	{r4, r5}
 1054 005e 0020     		movs	r0, #0
 1055 0060 7047     		bx	lr
 1056              	.L140:
 1057 0062 0368     		ldr	r3, [r0]
 1058 0064 DA68     		ldr	r2, [r3, #12]
 1059 0066 22F40062 		bic	r2, r2, #2048
 1060 006a DA60     		str	r2, [r3, #12]
 1061 006c D9E7     		b	.L142
 1062              	.L139:
 1063 006e 0368     		ldr	r3, [r0]
 1064 0070 DA68     		ldr	r2, [r3, #12]
 1065 0072 22F48062 		bic	r2, r2, #1024
ARM GAS  /tmp/ccnO6l7I.s 			page 19


 1066 0076 DA60     		str	r2, [r3, #12]
 1067 0078 D3E7     		b	.L142
 1068              	.L137:
 1069 007a 0368     		ldr	r3, [r0]
 1070 007c DA68     		ldr	r2, [r3, #12]
 1071 007e 22F40072 		bic	r2, r2, #512
 1072 0082 DA60     		str	r2, [r3, #12]
 1073 0084 CDE7     		b	.L142
 1074              	.L136:
 1075 0086 0368     		ldr	r3, [r0]
 1076 0088 CBE7     		b	.L142
 1077              	.L146:
 1078 008a 196A     		ldr	r1, [r3, #32]
 1079 008c 41F21112 		movw	r2, #4369
 1080 0090 1142     		tst	r1, r2
 1081 0092 D2D1     		bne	.L143
 1082 0094 196A     		ldr	r1, [r3, #32]
 1083 0096 40F24442 		movw	r2, #1092
 1084 009a 1142     		tst	r1, r2
 1085 009c CDD1     		bne	.L143
 1086 009e 5A6C     		ldr	r2, [r3, #68]
 1087 00a0 22F40042 		bic	r2, r2, #32768
 1088 00a4 5A64     		str	r2, [r3, #68]
 1089 00a6 C8E7     		b	.L143
 1090              	.L148:
 1091              		.align	2
 1092              	.L147:
 1093 00a8 00000140 		.word	1073807360
 1095              		.section	.text.HAL_TIM_PWM_MspInit,"ax",%progbits
 1096              		.align	1
 1097              		.p2align 2,,3
 1098              		.weak	HAL_TIM_PWM_MspInit
 1099              		.syntax unified
 1100              		.thumb
 1101              		.thumb_func
 1102              		.fpu fpv4-sp-d16
 1104              	HAL_TIM_PWM_MspInit:
 1105              		@ args = 0, pretend = 0, frame = 0
 1106              		@ frame_needed = 0, uses_anonymous_args = 0
 1107              		@ link register save eliminated.
 1108 0000 7047     		bx	lr
 1110 0002 00BF     		.section	.text.HAL_TIM_PWM_Init,"ax",%progbits
 1111              		.align	1
 1112              		.p2align 2,,3
 1113              		.global	HAL_TIM_PWM_Init
 1114              		.syntax unified
 1115              		.thumb
 1116              		.thumb_func
 1117              		.fpu fpv4-sp-d16
 1119              	HAL_TIM_PWM_Init:
 1120              		@ args = 0, pretend = 0, frame = 0
 1121              		@ frame_needed = 0, uses_anonymous_args = 0
 1122 0000 0028     		cmp	r0, #0
 1123 0002 58D0     		beq	.L162
 1124 0004 F8B5     		push	{r3, r4, r5, r6, r7, lr}
 1125 0006 90F83930 		ldrb	r3, [r0, #57]	@ zero_extendqisi2
 1126 000a 0446     		mov	r4, r0
ARM GAS  /tmp/ccnO6l7I.s 			page 20


 1127 000c 03F0FF02 		and	r2, r3, #255
 1128 0010 002B     		cmp	r3, #0
 1129 0012 3BD0     		beq	.L169
 1130              	.L152:
 1131 0014 2368     		ldr	r3, [r4]
 1132 0016 2949     		ldr	r1, .L170
 1133 0018 0222     		movs	r2, #2
 1134 001a 84F83920 		strb	r2, [r4, #57]
 1135 001e 8B42     		cmp	r3, r1
 1136 0020 1A68     		ldr	r2, [r3]
 1137 0022 38D0     		beq	.L153
 1138 0024 B3F1804F 		cmp	r3, #1073741824
 1139 0028 22D0     		beq	.L156
 1140 002a A1F57C41 		sub	r1, r1, #64512
 1141 002e 8B42     		cmp	r3, r1
 1142 0030 1ED0     		beq	.L156
 1143 0032 01F58061 		add	r1, r1, #1024
 1144 0036 8B42     		cmp	r3, r1
 1145 0038 1AD0     		beq	.L156
 1146 003a 01F58061 		add	r1, r1, #1024
 1147 003e 8B42     		cmp	r3, r1
 1148 0040 16D0     		beq	.L156
 1149 0042 01F59A31 		add	r1, r1, #78848
 1150 0046 8B42     		cmp	r3, r1
 1151 0048 16D0     		beq	.L161
 1152 004a 01F58061 		add	r1, r1, #1024
 1153 004e 8B42     		cmp	r3, r1
 1154 0050 12D0     		beq	.L161
 1155 0052 01F58061 		add	r1, r1, #1024
 1156 0056 8B42     		cmp	r3, r1
 1157 0058 0ED0     		beq	.L161
 1158 005a E068     		ldr	r0, [r4, #12]
 1159 005c 6168     		ldr	r1, [r4, #4]
 1160 005e 1A60     		str	r2, [r3]
 1161 0060 D862     		str	r0, [r3, #44]
 1162 0062 9962     		str	r1, [r3, #40]
 1163              	.L160:
 1164 0064 0122     		movs	r2, #1
 1165 0066 5A61     		str	r2, [r3, #20]
 1166 0068 0020     		movs	r0, #0
 1167 006a 84F83920 		strb	r2, [r4, #57]
 1168 006e F8BD     		pop	{r3, r4, r5, r6, r7, pc}
 1169              	.L156:
 1170 0070 A168     		ldr	r1, [r4, #8]
 1171 0072 22F07002 		bic	r2, r2, #112
 1172 0076 0A43     		orrs	r2, r2, r1
 1173              	.L161:
 1174 0078 2569     		ldr	r5, [r4, #16]
 1175 007a E068     		ldr	r0, [r4, #12]
 1176 007c 6168     		ldr	r1, [r4, #4]
 1177 007e 22F44072 		bic	r2, r2, #768
 1178 0082 2A43     		orrs	r2, r2, r5
 1179 0084 1A60     		str	r2, [r3]
 1180 0086 D862     		str	r0, [r3, #44]
 1181 0088 9962     		str	r1, [r3, #40]
 1182 008a EBE7     		b	.L160
 1183              	.L169:
ARM GAS  /tmp/ccnO6l7I.s 			page 21


 1184 008c 80F83820 		strb	r2, [r0, #56]
 1185 0090 FFF7FEFF 		bl	HAL_TIM_PWM_MspInit
 1186 0094 BEE7     		b	.L152
 1187              	.L153:
 1188 0096 A668     		ldr	r6, [r4, #8]
 1189 0098 2069     		ldr	r0, [r4, #16]
 1190 009a E768     		ldr	r7, [r4, #12]
 1191 009c 6568     		ldr	r5, [r4, #4]
 1192 009e 6169     		ldr	r1, [r4, #20]
 1193 00a0 22F07002 		bic	r2, r2, #112
 1194 00a4 3243     		orrs	r2, r2, r6
 1195 00a6 22F44072 		bic	r2, r2, #768
 1196 00aa 0243     		orrs	r2, r2, r0
 1197 00ac 1A60     		str	r2, [r3]
 1198 00ae DF62     		str	r7, [r3, #44]
 1199 00b0 9D62     		str	r5, [r3, #40]
 1200 00b2 1963     		str	r1, [r3, #48]
 1201 00b4 D6E7     		b	.L160
 1202              	.L162:
 1203 00b6 0120     		movs	r0, #1
 1204 00b8 7047     		bx	lr
 1205              	.L171:
 1206 00ba 00BF     		.align	2
 1207              	.L170:
 1208 00bc 00000140 		.word	1073807360
 1210              		.section	.text.HAL_TIM_PWM_MspDeInit,"ax",%progbits
 1211              		.align	1
 1212              		.p2align 2,,3
 1213              		.weak	HAL_TIM_PWM_MspDeInit
 1214              		.syntax unified
 1215              		.thumb
 1216              		.thumb_func
 1217              		.fpu fpv4-sp-d16
 1219              	HAL_TIM_PWM_MspDeInit:
 1220              		@ args = 0, pretend = 0, frame = 0
 1221              		@ frame_needed = 0, uses_anonymous_args = 0
 1222              		@ link register save eliminated.
 1223 0000 7047     		bx	lr
 1225 0002 00BF     		.section	.text.HAL_TIM_PWM_DeInit,"ax",%progbits
 1226              		.align	1
 1227              		.p2align 2,,3
 1228              		.global	HAL_TIM_PWM_DeInit
 1229              		.syntax unified
 1230              		.thumb
 1231              		.thumb_func
 1232              		.fpu fpv4-sp-d16
 1234              	HAL_TIM_PWM_DeInit:
 1235              		@ args = 0, pretend = 0, frame = 0
 1236              		@ frame_needed = 0, uses_anonymous_args = 0
 1237 0000 0222     		movs	r2, #2
 1238 0002 0368     		ldr	r3, [r0]
 1239 0004 10B5     		push	{r4, lr}
 1240 0006 80F83920 		strb	r2, [r0, #57]
 1241 000a 196A     		ldr	r1, [r3, #32]
 1242 000c 41F21112 		movw	r2, #4369
 1243 0010 1142     		tst	r1, r2
 1244 0012 0446     		mov	r4, r0
ARM GAS  /tmp/ccnO6l7I.s 			page 22


 1245 0014 08D1     		bne	.L174
 1246 0016 196A     		ldr	r1, [r3, #32]
 1247 0018 40F24442 		movw	r2, #1092
 1248 001c 1142     		tst	r1, r2
 1249 001e 03D1     		bne	.L174
 1250 0020 1A68     		ldr	r2, [r3]
 1251 0022 22F00102 		bic	r2, r2, #1
 1252 0026 1A60     		str	r2, [r3]
 1253              	.L174:
 1254 0028 2046     		mov	r0, r4
 1255 002a FFF7FEFF 		bl	HAL_TIM_PWM_MspDeInit
 1256 002e 0020     		movs	r0, #0
 1257 0030 84F83900 		strb	r0, [r4, #57]
 1258 0034 84F83800 		strb	r0, [r4, #56]
 1259 0038 10BD     		pop	{r4, pc}
 1261 003a 00BF     		.section	.text.HAL_TIM_PWM_Start,"ax",%progbits
 1262              		.align	1
 1263              		.p2align 2,,3
 1264              		.global	HAL_TIM_PWM_Start
 1265              		.syntax unified
 1266              		.thumb
 1267              		.thumb_func
 1268              		.fpu fpv4-sp-d16
 1270              	HAL_TIM_PWM_Start:
 1271              		@ args = 0, pretend = 0, frame = 0
 1272              		@ frame_needed = 0, uses_anonymous_args = 0
 1273              		@ link register save eliminated.
 1274 0000 0368     		ldr	r3, [r0]
 1275 0002 0122     		movs	r2, #1
 1276 0004 186A     		ldr	r0, [r3, #32]
 1277 0006 02FA01F1 		lsl	r1, r2, r1
 1278 000a 20EA0100 		bic	r0, r0, r1
 1279 000e 10B4     		push	{r4}
 1280 0010 1862     		str	r0, [r3, #32]
 1281 0012 1A6A     		ldr	r2, [r3, #32]
 1282 0014 084C     		ldr	r4, .L180
 1283 0016 1143     		orrs	r1, r1, r2
 1284 0018 A342     		cmp	r3, r4
 1285 001a 1962     		str	r1, [r3, #32]
 1286 001c 07D0     		beq	.L179
 1287              	.L177:
 1288 001e 1A68     		ldr	r2, [r3]
 1289 0020 5DF8044B 		ldr	r4, [sp], #4
 1290 0024 42F00102 		orr	r2, r2, #1
 1291 0028 0020     		movs	r0, #0
 1292 002a 1A60     		str	r2, [r3]
 1293 002c 7047     		bx	lr
 1294              	.L179:
 1295 002e 5A6C     		ldr	r2, [r3, #68]
 1296 0030 42F40042 		orr	r2, r2, #32768
 1297 0034 5A64     		str	r2, [r3, #68]
 1298 0036 F2E7     		b	.L177
 1299              	.L181:
 1300              		.align	2
 1301              	.L180:
 1302 0038 00000140 		.word	1073807360
 1304              		.section	.text.HAL_TIM_PWM_Stop,"ax",%progbits
ARM GAS  /tmp/ccnO6l7I.s 			page 23


 1305              		.align	1
 1306              		.p2align 2,,3
 1307              		.global	HAL_TIM_PWM_Stop
 1308              		.syntax unified
 1309              		.thumb
 1310              		.thumb_func
 1311              		.fpu fpv4-sp-d16
 1313              	HAL_TIM_PWM_Stop:
 1314              		@ args = 0, pretend = 0, frame = 0
 1315              		@ frame_needed = 0, uses_anonymous_args = 0
 1316              		@ link register save eliminated.
 1317 0000 0368     		ldr	r3, [r0]
 1318 0002 30B4     		push	{r4, r5}
 1319 0004 1A6A     		ldr	r2, [r3, #32]
 1320 0006 174D     		ldr	r5, .L187
 1321 0008 0124     		movs	r4, #1
 1322 000a 04FA01F1 		lsl	r1, r4, r1
 1323 000e 22EA0102 		bic	r2, r2, r1
 1324 0012 1A62     		str	r2, [r3, #32]
 1325 0014 1A6A     		ldr	r2, [r3, #32]
 1326 0016 1A62     		str	r2, [r3, #32]
 1327 0018 AB42     		cmp	r3, r5
 1328 001a 13D0     		beq	.L186
 1329              	.L183:
 1330 001c 196A     		ldr	r1, [r3, #32]
 1331 001e 41F21112 		movw	r2, #4369
 1332 0022 1142     		tst	r1, r2
 1333 0024 08D1     		bne	.L184
 1334 0026 196A     		ldr	r1, [r3, #32]
 1335 0028 40F24442 		movw	r2, #1092
 1336 002c 1142     		tst	r1, r2
 1337 002e 03D1     		bne	.L184
 1338 0030 1A68     		ldr	r2, [r3]
 1339 0032 22F00102 		bic	r2, r2, #1
 1340 0036 1A60     		str	r2, [r3]
 1341              	.L184:
 1342 0038 0123     		movs	r3, #1
 1343 003a 80F83930 		strb	r3, [r0, #57]
 1344 003e 30BC     		pop	{r4, r5}
 1345 0040 0020     		movs	r0, #0
 1346 0042 7047     		bx	lr
 1347              	.L186:
 1348 0044 196A     		ldr	r1, [r3, #32]
 1349 0046 41F21112 		movw	r2, #4369
 1350 004a 1142     		tst	r1, r2
 1351 004c E6D1     		bne	.L183
 1352 004e 196A     		ldr	r1, [r3, #32]
 1353 0050 40F24442 		movw	r2, #1092
 1354 0054 1142     		tst	r1, r2
 1355 0056 E1D1     		bne	.L183
 1356 0058 5A6C     		ldr	r2, [r3, #68]
 1357 005a 22F40042 		bic	r2, r2, #32768
 1358 005e 5A64     		str	r2, [r3, #68]
 1359 0060 DCE7     		b	.L183
 1360              	.L188:
 1361 0062 00BF     		.align	2
 1362              	.L187:
ARM GAS  /tmp/ccnO6l7I.s 			page 24


 1363 0064 00000140 		.word	1073807360
 1365              		.section	.text.HAL_TIM_PWM_Start_IT,"ax",%progbits
 1366              		.align	1
 1367              		.p2align 2,,3
 1368              		.global	HAL_TIM_PWM_Start_IT
 1369              		.syntax unified
 1370              		.thumb
 1371              		.thumb_func
 1372              		.fpu fpv4-sp-d16
 1374              	HAL_TIM_PWM_Start_IT:
 1375              		@ args = 0, pretend = 0, frame = 0
 1376              		@ frame_needed = 0, uses_anonymous_args = 0
 1377              		@ link register save eliminated.
 1378 0000 10B4     		push	{r4}
 1379 0002 0C29     		cmp	r1, #12
 1380 0004 35D8     		bhi	.L190
 1381 0006 DFE801F0 		tbb	[pc, r1]
 1382              	.L192:
 1383 000a 28       		.byte	(.L191-.L192)/2
 1384 000b 34       		.byte	(.L190-.L192)/2
 1385 000c 34       		.byte	(.L190-.L192)/2
 1386 000d 34       		.byte	(.L190-.L192)/2
 1387 000e 2E       		.byte	(.L193-.L192)/2
 1388 000f 34       		.byte	(.L190-.L192)/2
 1389 0010 34       		.byte	(.L190-.L192)/2
 1390 0011 34       		.byte	(.L190-.L192)/2
 1391 0012 22       		.byte	(.L194-.L192)/2
 1392 0013 34       		.byte	(.L190-.L192)/2
 1393 0014 34       		.byte	(.L190-.L192)/2
 1394 0015 34       		.byte	(.L190-.L192)/2
 1395 0016 07       		.byte	(.L195-.L192)/2
 1396 0017 00       		.p2align 1
 1397              	.L195:
 1398 0018 0368     		ldr	r3, [r0]
 1399 001a DA68     		ldr	r2, [r3, #12]
 1400 001c 42F01002 		orr	r2, r2, #16
 1401 0020 DA60     		str	r2, [r3, #12]
 1402              	.L196:
 1403 0022 186A     		ldr	r0, [r3, #32]
 1404 0024 164C     		ldr	r4, .L200
 1405 0026 0122     		movs	r2, #1
 1406 0028 02FA01F1 		lsl	r1, r2, r1
 1407 002c 20EA0100 		bic	r0, r0, r1
 1408 0030 1862     		str	r0, [r3, #32]
 1409 0032 1A6A     		ldr	r2, [r3, #32]
 1410 0034 A342     		cmp	r3, r4
 1411 0036 41EA0201 		orr	r1, r1, r2
 1412 003a 1962     		str	r1, [r3, #32]
 1413 003c 1BD0     		beq	.L199
 1414              	.L197:
 1415 003e 1A68     		ldr	r2, [r3]
 1416 0040 5DF8044B 		ldr	r4, [sp], #4
 1417 0044 42F00102 		orr	r2, r2, #1
 1418 0048 0020     		movs	r0, #0
 1419 004a 1A60     		str	r2, [r3]
 1420 004c 7047     		bx	lr
 1421              	.L194:
ARM GAS  /tmp/ccnO6l7I.s 			page 25


 1422 004e 0368     		ldr	r3, [r0]
 1423 0050 DA68     		ldr	r2, [r3, #12]
 1424 0052 42F00802 		orr	r2, r2, #8
 1425 0056 DA60     		str	r2, [r3, #12]
 1426 0058 E3E7     		b	.L196
 1427              	.L191:
 1428 005a 0368     		ldr	r3, [r0]
 1429 005c DA68     		ldr	r2, [r3, #12]
 1430 005e 42F00202 		orr	r2, r2, #2
 1431 0062 DA60     		str	r2, [r3, #12]
 1432 0064 DDE7     		b	.L196
 1433              	.L193:
 1434 0066 0368     		ldr	r3, [r0]
 1435 0068 DA68     		ldr	r2, [r3, #12]
 1436 006a 42F00402 		orr	r2, r2, #4
 1437 006e DA60     		str	r2, [r3, #12]
 1438 0070 D7E7     		b	.L196
 1439              	.L190:
 1440 0072 0368     		ldr	r3, [r0]
 1441 0074 D5E7     		b	.L196
 1442              	.L199:
 1443 0076 5A6C     		ldr	r2, [r3, #68]
 1444 0078 42F40042 		orr	r2, r2, #32768
 1445 007c 5A64     		str	r2, [r3, #68]
 1446 007e DEE7     		b	.L197
 1447              	.L201:
 1448              		.align	2
 1449              	.L200:
 1450 0080 00000140 		.word	1073807360
 1452              		.section	.text.HAL_TIM_PWM_Stop_IT,"ax",%progbits
 1453              		.align	1
 1454              		.p2align 2,,3
 1455              		.global	HAL_TIM_PWM_Stop_IT
 1456              		.syntax unified
 1457              		.thumb
 1458              		.thumb_func
 1459              		.fpu fpv4-sp-d16
 1461              	HAL_TIM_PWM_Stop_IT:
 1462              		@ args = 0, pretend = 0, frame = 0
 1463              		@ frame_needed = 0, uses_anonymous_args = 0
 1464              		@ link register save eliminated.
 1465 0000 10B4     		push	{r4}
 1466 0002 0C29     		cmp	r1, #12
 1467 0004 3DD8     		bhi	.L203
 1468 0006 DFE801F0 		tbb	[pc, r1]
 1469              	.L205:
 1470 000a 36       		.byte	(.L204-.L205)/2
 1471 000b 3C       		.byte	(.L203-.L205)/2
 1472 000c 3C       		.byte	(.L203-.L205)/2
 1473 000d 3C       		.byte	(.L203-.L205)/2
 1474 000e 30       		.byte	(.L206-.L205)/2
 1475 000f 3C       		.byte	(.L203-.L205)/2
 1476 0010 3C       		.byte	(.L203-.L205)/2
 1477 0011 3C       		.byte	(.L203-.L205)/2
 1478 0012 2A       		.byte	(.L207-.L205)/2
 1479 0013 3C       		.byte	(.L203-.L205)/2
 1480 0014 3C       		.byte	(.L203-.L205)/2
ARM GAS  /tmp/ccnO6l7I.s 			page 26


 1481 0015 3C       		.byte	(.L203-.L205)/2
 1482 0016 07       		.byte	(.L208-.L205)/2
 1483 0017 00       		.p2align 1
 1484              	.L208:
 1485 0018 0368     		ldr	r3, [r0]
 1486 001a DA68     		ldr	r2, [r3, #12]
 1487 001c 22F01002 		bic	r2, r2, #16
 1488 0020 DA60     		str	r2, [r3, #12]
 1489              	.L209:
 1490 0022 1A6A     		ldr	r2, [r3, #32]
 1491 0024 1F4C     		ldr	r4, .L214
 1492 0026 0120     		movs	r0, #1
 1493 0028 00FA01F1 		lsl	r1, r0, r1
 1494 002c 22EA0101 		bic	r1, r2, r1
 1495 0030 1962     		str	r1, [r3, #32]
 1496 0032 1A6A     		ldr	r2, [r3, #32]
 1497 0034 1A62     		str	r2, [r3, #32]
 1498 0036 A342     		cmp	r3, r4
 1499 0038 25D0     		beq	.L213
 1500              	.L210:
 1501 003a 196A     		ldr	r1, [r3, #32]
 1502 003c 41F21112 		movw	r2, #4369
 1503 0040 1142     		tst	r1, r2
 1504 0042 08D1     		bne	.L211
 1505 0044 196A     		ldr	r1, [r3, #32]
 1506 0046 40F24442 		movw	r2, #1092
 1507 004a 1142     		tst	r1, r2
 1508 004c 03D1     		bne	.L211
 1509 004e 1A68     		ldr	r2, [r3]
 1510 0050 22F00102 		bic	r2, r2, #1
 1511 0054 1A60     		str	r2, [r3]
 1512              	.L211:
 1513 0056 0020     		movs	r0, #0
 1514 0058 5DF8044B 		ldr	r4, [sp], #4
 1515 005c 7047     		bx	lr
 1516              	.L207:
 1517 005e 0368     		ldr	r3, [r0]
 1518 0060 DA68     		ldr	r2, [r3, #12]
 1519 0062 22F00802 		bic	r2, r2, #8
 1520 0066 DA60     		str	r2, [r3, #12]
 1521 0068 DBE7     		b	.L209
 1522              	.L206:
 1523 006a 0368     		ldr	r3, [r0]
 1524 006c DA68     		ldr	r2, [r3, #12]
 1525 006e 22F00402 		bic	r2, r2, #4
 1526 0072 DA60     		str	r2, [r3, #12]
 1527 0074 D5E7     		b	.L209
 1528              	.L204:
 1529 0076 0368     		ldr	r3, [r0]
 1530 0078 DA68     		ldr	r2, [r3, #12]
 1531 007a 22F00202 		bic	r2, r2, #2
 1532 007e DA60     		str	r2, [r3, #12]
 1533 0080 CFE7     		b	.L209
 1534              	.L203:
 1535 0082 0368     		ldr	r3, [r0]
 1536 0084 CDE7     		b	.L209
 1537              	.L213:
ARM GAS  /tmp/ccnO6l7I.s 			page 27


 1538 0086 196A     		ldr	r1, [r3, #32]
 1539 0088 41F21112 		movw	r2, #4369
 1540 008c 1142     		tst	r1, r2
 1541 008e D4D1     		bne	.L210
 1542 0090 196A     		ldr	r1, [r3, #32]
 1543 0092 40F24442 		movw	r2, #1092
 1544 0096 1142     		tst	r1, r2
 1545 0098 CFD1     		bne	.L210
 1546 009a 5A6C     		ldr	r2, [r3, #68]
 1547 009c 22F40042 		bic	r2, r2, #32768
 1548 00a0 5A64     		str	r2, [r3, #68]
 1549 00a2 CAE7     		b	.L210
 1550              	.L215:
 1551              		.align	2
 1552              	.L214:
 1553 00a4 00000140 		.word	1073807360
 1555              		.section	.text.HAL_TIM_PWM_Start_DMA,"ax",%progbits
 1556              		.align	1
 1557              		.p2align 2,,3
 1558              		.global	HAL_TIM_PWM_Start_DMA
 1559              		.syntax unified
 1560              		.thumb
 1561              		.thumb_func
 1562              		.fpu fpv4-sp-d16
 1564              	HAL_TIM_PWM_Start_DMA:
 1565              		@ args = 0, pretend = 0, frame = 0
 1566              		@ frame_needed = 0, uses_anonymous_args = 0
 1567 0000 F8B5     		push	{r3, r4, r5, r6, r7, lr}
 1568 0002 90F83940 		ldrb	r4, [r0, #57]	@ zero_extendqisi2
 1569 0006 E4B2     		uxtb	r4, r4
 1570 0008 022C     		cmp	r4, #2
 1571 000a 15D0     		beq	.L229
 1572 000c 90F83940 		ldrb	r4, [r0, #57]	@ zero_extendqisi2
 1573 0010 E4B2     		uxtb	r4, r4
 1574 0012 012C     		cmp	r4, #1
 1575 0014 0CD0     		beq	.L231
 1576              	.L218:
 1577 0016 0D46     		mov	r5, r1
 1578 0018 0446     		mov	r4, r0
 1579 001a 0C2D     		cmp	r5, #12
 1580 001c 65D8     		bhi	.L220
 1581 001e DFE805F0 		tbb	[pc, r5]
 1582              	.L222:
 1583 0022 0D       		.byte	(.L221-.L222)/2
 1584 0023 64       		.byte	(.L220-.L222)/2
 1585 0024 64       		.byte	(.L220-.L222)/2
 1586 0025 64       		.byte	(.L220-.L222)/2
 1587 0026 42       		.byte	(.L223-.L222)/2
 1588 0027 64       		.byte	(.L220-.L222)/2
 1589 0028 64       		.byte	(.L220-.L222)/2
 1590 0029 64       		.byte	(.L220-.L222)/2
 1591 002a 31       		.byte	(.L224-.L222)/2
 1592 002b 64       		.byte	(.L220-.L222)/2
 1593 002c 64       		.byte	(.L220-.L222)/2
 1594 002d 64       		.byte	(.L220-.L222)/2
 1595 002e 53       		.byte	(.L225-.L222)/2
 1596 002f 00       		.p2align 1
ARM GAS  /tmp/ccnO6l7I.s 			page 28


 1597              	.L231:
 1598 0030 002A     		cmp	r2, #0
 1599 0032 5CD1     		bne	.L219
 1600 0034 002B     		cmp	r3, #0
 1601 0036 5AD0     		beq	.L219
 1602              	.L229:
 1603 0038 2046     		mov	r0, r4
 1604 003a F8BD     		pop	{r3, r4, r5, r6, r7, pc}
 1605              	.L221:
 1606 003c 2668     		ldr	r6, [r4]
 1607 003e 006A     		ldr	r0, [r0, #32]
 1608 0040 2F49     		ldr	r1, .L233
 1609 0042 304F     		ldr	r7, .L233+4
 1610 0044 C163     		str	r1, [r0, #60]
 1611 0046 C764     		str	r7, [r0, #76]
 1612 0048 1146     		mov	r1, r2
 1613 004a 06F13402 		add	r2, r6, #52
 1614 004e FFF7FEFF 		bl	HAL_DMA_Start_IT
 1615 0052 2368     		ldr	r3, [r4]
 1616 0054 DA68     		ldr	r2, [r3, #12]
 1617 0056 42F40072 		orr	r2, r2, #512
 1618 005a DA60     		str	r2, [r3, #12]
 1619              	.L226:
 1620 005c 186A     		ldr	r0, [r3, #32]
 1621 005e 2A4C     		ldr	r4, .L233+8
 1622 0060 0122     		movs	r2, #1
 1623 0062 02FA05F1 		lsl	r1, r2, r5
 1624 0066 20EA0100 		bic	r0, r0, r1
 1625 006a 1862     		str	r0, [r3, #32]
 1626 006c 1A6A     		ldr	r2, [r3, #32]
 1627 006e A342     		cmp	r3, r4
 1628 0070 41EA0201 		orr	r1, r1, r2
 1629 0074 1962     		str	r1, [r3, #32]
 1630 0076 3ED0     		beq	.L232
 1631              	.L227:
 1632 0078 1A68     		ldr	r2, [r3]
 1633 007a 42F00102 		orr	r2, r2, #1
 1634 007e 1A60     		str	r2, [r3]
 1635 0080 0020     		movs	r0, #0
 1636 0082 F8BD     		pop	{r3, r4, r5, r6, r7, pc}
 1637              	.L224:
 1638 0084 2668     		ldr	r6, [r4]
 1639 0086 806A     		ldr	r0, [r0, #40]
 1640 0088 1D49     		ldr	r1, .L233
 1641 008a 1E4F     		ldr	r7, .L233+4
 1642 008c C163     		str	r1, [r0, #60]
 1643 008e C764     		str	r7, [r0, #76]
 1644 0090 1146     		mov	r1, r2
 1645 0092 06F13C02 		add	r2, r6, #60
 1646 0096 FFF7FEFF 		bl	HAL_DMA_Start_IT
 1647 009a 2368     		ldr	r3, [r4]
 1648 009c DA68     		ldr	r2, [r3, #12]
 1649 009e 42F40062 		orr	r2, r2, #2048
 1650 00a2 DA60     		str	r2, [r3, #12]
 1651 00a4 DAE7     		b	.L226
 1652              	.L223:
 1653 00a6 2668     		ldr	r6, [r4]
ARM GAS  /tmp/ccnO6l7I.s 			page 29


 1654 00a8 406A     		ldr	r0, [r0, #36]
 1655 00aa 1549     		ldr	r1, .L233
 1656 00ac 154F     		ldr	r7, .L233+4
 1657 00ae C163     		str	r1, [r0, #60]
 1658 00b0 C764     		str	r7, [r0, #76]
 1659 00b2 1146     		mov	r1, r2
 1660 00b4 06F13802 		add	r2, r6, #56
 1661 00b8 FFF7FEFF 		bl	HAL_DMA_Start_IT
 1662 00bc 2368     		ldr	r3, [r4]
 1663 00be DA68     		ldr	r2, [r3, #12]
 1664 00c0 42F48062 		orr	r2, r2, #1024
 1665 00c4 DA60     		str	r2, [r3, #12]
 1666 00c6 C9E7     		b	.L226
 1667              	.L225:
 1668 00c8 2668     		ldr	r6, [r4]
 1669 00ca C06A     		ldr	r0, [r0, #44]
 1670 00cc 0C49     		ldr	r1, .L233
 1671 00ce 0D4F     		ldr	r7, .L233+4
 1672 00d0 C163     		str	r1, [r0, #60]
 1673 00d2 C764     		str	r7, [r0, #76]
 1674 00d4 1146     		mov	r1, r2
 1675 00d6 06F14002 		add	r2, r6, #64
 1676 00da FFF7FEFF 		bl	HAL_DMA_Start_IT
 1677 00de 2368     		ldr	r3, [r4]
 1678 00e0 DA68     		ldr	r2, [r3, #12]
 1679 00e2 42F48052 		orr	r2, r2, #4096
 1680 00e6 DA60     		str	r2, [r3, #12]
 1681 00e8 B8E7     		b	.L226
 1682              	.L220:
 1683 00ea 0368     		ldr	r3, [r0]
 1684 00ec B6E7     		b	.L226
 1685              	.L219:
 1686 00ee 0224     		movs	r4, #2
 1687 00f0 80F83940 		strb	r4, [r0, #57]
 1688 00f4 8FE7     		b	.L218
 1689              	.L232:
 1690 00f6 5A6C     		ldr	r2, [r3, #68]
 1691 00f8 42F40042 		orr	r2, r2, #32768
 1692 00fc 5A64     		str	r2, [r3, #68]
 1693 00fe BBE7     		b	.L227
 1694              	.L234:
 1695              		.align	2
 1696              	.L233:
 1697 0100 00000000 		.word	TIM_DMADelayPulseCplt
 1698 0104 00000000 		.word	TIM_DMAError
 1699 0108 00000140 		.word	1073807360
 1701              		.section	.text.HAL_TIM_PWM_Stop_DMA,"ax",%progbits
 1702              		.align	1
 1703              		.p2align 2,,3
 1704              		.global	HAL_TIM_PWM_Stop_DMA
 1705              		.syntax unified
 1706              		.thumb
 1707              		.thumb_func
 1708              		.fpu fpv4-sp-d16
 1710              	HAL_TIM_PWM_Stop_DMA:
 1711              		@ args = 0, pretend = 0, frame = 0
 1712              		@ frame_needed = 0, uses_anonymous_args = 0
ARM GAS  /tmp/ccnO6l7I.s 			page 30


 1713              		@ link register save eliminated.
 1714 0000 30B4     		push	{r4, r5}
 1715 0002 0C29     		cmp	r1, #12
 1716 0004 3FD8     		bhi	.L236
 1717 0006 DFE801F0 		tbb	[pc, r1]
 1718              	.L238:
 1719 000a 38       		.byte	(.L237-.L238)/2
 1720 000b 3E       		.byte	(.L236-.L238)/2
 1721 000c 3E       		.byte	(.L236-.L238)/2
 1722 000d 3E       		.byte	(.L236-.L238)/2
 1723 000e 32       		.byte	(.L239-.L238)/2
 1724 000f 3E       		.byte	(.L236-.L238)/2
 1725 0010 3E       		.byte	(.L236-.L238)/2
 1726 0011 3E       		.byte	(.L236-.L238)/2
 1727 0012 2C       		.byte	(.L240-.L238)/2
 1728 0013 3E       		.byte	(.L236-.L238)/2
 1729 0014 3E       		.byte	(.L236-.L238)/2
 1730 0015 3E       		.byte	(.L236-.L238)/2
 1731 0016 07       		.byte	(.L241-.L238)/2
 1732 0017 00       		.p2align 1
 1733              	.L241:
 1734 0018 0368     		ldr	r3, [r0]
 1735 001a DA68     		ldr	r2, [r3, #12]
 1736 001c 22F48052 		bic	r2, r2, #4096
 1737 0020 DA60     		str	r2, [r3, #12]
 1738              	.L242:
 1739 0022 1A6A     		ldr	r2, [r3, #32]
 1740 0024 204D     		ldr	r5, .L247
 1741 0026 0124     		movs	r4, #1
 1742 0028 04FA01F1 		lsl	r1, r4, r1
 1743 002c 22EA0101 		bic	r1, r2, r1
 1744 0030 1962     		str	r1, [r3, #32]
 1745 0032 1A6A     		ldr	r2, [r3, #32]
 1746 0034 1A62     		str	r2, [r3, #32]
 1747 0036 AB42     		cmp	r3, r5
 1748 0038 27D0     		beq	.L246
 1749              	.L243:
 1750 003a 196A     		ldr	r1, [r3, #32]
 1751 003c 41F21112 		movw	r2, #4369
 1752 0040 1142     		tst	r1, r2
 1753 0042 08D1     		bne	.L244
 1754 0044 196A     		ldr	r1, [r3, #32]
 1755 0046 40F24442 		movw	r2, #1092
 1756 004a 1142     		tst	r1, r2
 1757 004c 03D1     		bne	.L244
 1758 004e 1A68     		ldr	r2, [r3]
 1759 0050 22F00102 		bic	r2, r2, #1
 1760 0054 1A60     		str	r2, [r3]
 1761              	.L244:
 1762 0056 0123     		movs	r3, #1
 1763 0058 80F83930 		strb	r3, [r0, #57]
 1764 005c 30BC     		pop	{r4, r5}
 1765 005e 0020     		movs	r0, #0
 1766 0060 7047     		bx	lr
 1767              	.L240:
 1768 0062 0368     		ldr	r3, [r0]
 1769 0064 DA68     		ldr	r2, [r3, #12]
ARM GAS  /tmp/ccnO6l7I.s 			page 31


 1770 0066 22F40062 		bic	r2, r2, #2048
 1771 006a DA60     		str	r2, [r3, #12]
 1772 006c D9E7     		b	.L242
 1773              	.L239:
 1774 006e 0368     		ldr	r3, [r0]
 1775 0070 DA68     		ldr	r2, [r3, #12]
 1776 0072 22F48062 		bic	r2, r2, #1024
 1777 0076 DA60     		str	r2, [r3, #12]
 1778 0078 D3E7     		b	.L242
 1779              	.L237:
 1780 007a 0368     		ldr	r3, [r0]
 1781 007c DA68     		ldr	r2, [r3, #12]
 1782 007e 22F40072 		bic	r2, r2, #512
 1783 0082 DA60     		str	r2, [r3, #12]
 1784 0084 CDE7     		b	.L242
 1785              	.L236:
 1786 0086 0368     		ldr	r3, [r0]
 1787 0088 CBE7     		b	.L242
 1788              	.L246:
 1789 008a 196A     		ldr	r1, [r3, #32]
 1790 008c 41F21112 		movw	r2, #4369
 1791 0090 1142     		tst	r1, r2
 1792 0092 D2D1     		bne	.L243
 1793 0094 196A     		ldr	r1, [r3, #32]
 1794 0096 40F24442 		movw	r2, #1092
 1795 009a 1142     		tst	r1, r2
 1796 009c CDD1     		bne	.L243
 1797 009e 5A6C     		ldr	r2, [r3, #68]
 1798 00a0 22F40042 		bic	r2, r2, #32768
 1799 00a4 5A64     		str	r2, [r3, #68]
 1800 00a6 C8E7     		b	.L243
 1801              	.L248:
 1802              		.align	2
 1803              	.L247:
 1804 00a8 00000140 		.word	1073807360
 1806              		.section	.text.HAL_TIM_IC_MspInit,"ax",%progbits
 1807              		.align	1
 1808              		.p2align 2,,3
 1809              		.weak	HAL_TIM_IC_MspInit
 1810              		.syntax unified
 1811              		.thumb
 1812              		.thumb_func
 1813              		.fpu fpv4-sp-d16
 1815              	HAL_TIM_IC_MspInit:
 1816              		@ args = 0, pretend = 0, frame = 0
 1817              		@ frame_needed = 0, uses_anonymous_args = 0
 1818              		@ link register save eliminated.
 1819 0000 7047     		bx	lr
 1821 0002 00BF     		.section	.text.HAL_TIM_IC_Init,"ax",%progbits
 1822              		.align	1
 1823              		.p2align 2,,3
 1824              		.global	HAL_TIM_IC_Init
 1825              		.syntax unified
 1826              		.thumb
 1827              		.thumb_func
 1828              		.fpu fpv4-sp-d16
 1830              	HAL_TIM_IC_Init:
ARM GAS  /tmp/ccnO6l7I.s 			page 32


 1831              		@ args = 0, pretend = 0, frame = 0
 1832              		@ frame_needed = 0, uses_anonymous_args = 0
 1833 0000 0028     		cmp	r0, #0
 1834 0002 58D0     		beq	.L262
 1835 0004 F8B5     		push	{r3, r4, r5, r6, r7, lr}
 1836 0006 90F83930 		ldrb	r3, [r0, #57]	@ zero_extendqisi2
 1837 000a 0446     		mov	r4, r0
 1838 000c 03F0FF02 		and	r2, r3, #255
 1839 0010 002B     		cmp	r3, #0
 1840 0012 3BD0     		beq	.L269
 1841              	.L252:
 1842 0014 2368     		ldr	r3, [r4]
 1843 0016 2949     		ldr	r1, .L270
 1844 0018 0222     		movs	r2, #2
 1845 001a 84F83920 		strb	r2, [r4, #57]
 1846 001e 8B42     		cmp	r3, r1
 1847 0020 1A68     		ldr	r2, [r3]
 1848 0022 38D0     		beq	.L253
 1849 0024 B3F1804F 		cmp	r3, #1073741824
 1850 0028 22D0     		beq	.L256
 1851 002a A1F57C41 		sub	r1, r1, #64512
 1852 002e 8B42     		cmp	r3, r1
 1853 0030 1ED0     		beq	.L256
 1854 0032 01F58061 		add	r1, r1, #1024
 1855 0036 8B42     		cmp	r3, r1
 1856 0038 1AD0     		beq	.L256
 1857 003a 01F58061 		add	r1, r1, #1024
 1858 003e 8B42     		cmp	r3, r1
 1859 0040 16D0     		beq	.L256
 1860 0042 01F59A31 		add	r1, r1, #78848
 1861 0046 8B42     		cmp	r3, r1
 1862 0048 16D0     		beq	.L261
 1863 004a 01F58061 		add	r1, r1, #1024
 1864 004e 8B42     		cmp	r3, r1
 1865 0050 12D0     		beq	.L261
 1866 0052 01F58061 		add	r1, r1, #1024
 1867 0056 8B42     		cmp	r3, r1
 1868 0058 0ED0     		beq	.L261
 1869 005a E068     		ldr	r0, [r4, #12]
 1870 005c 6168     		ldr	r1, [r4, #4]
 1871 005e 1A60     		str	r2, [r3]
 1872 0060 D862     		str	r0, [r3, #44]
 1873 0062 9962     		str	r1, [r3, #40]
 1874              	.L260:
 1875 0064 0122     		movs	r2, #1
 1876 0066 5A61     		str	r2, [r3, #20]
 1877 0068 0020     		movs	r0, #0
 1878 006a 84F83920 		strb	r2, [r4, #57]
 1879 006e F8BD     		pop	{r3, r4, r5, r6, r7, pc}
 1880              	.L256:
 1881 0070 A168     		ldr	r1, [r4, #8]
 1882 0072 22F07002 		bic	r2, r2, #112
 1883 0076 0A43     		orrs	r2, r2, r1
 1884              	.L261:
 1885 0078 2569     		ldr	r5, [r4, #16]
 1886 007a E068     		ldr	r0, [r4, #12]
 1887 007c 6168     		ldr	r1, [r4, #4]
ARM GAS  /tmp/ccnO6l7I.s 			page 33


 1888 007e 22F44072 		bic	r2, r2, #768
 1889 0082 2A43     		orrs	r2, r2, r5
 1890 0084 1A60     		str	r2, [r3]
 1891 0086 D862     		str	r0, [r3, #44]
 1892 0088 9962     		str	r1, [r3, #40]
 1893 008a EBE7     		b	.L260
 1894              	.L269:
 1895 008c 80F83820 		strb	r2, [r0, #56]
 1896 0090 FFF7FEFF 		bl	HAL_TIM_IC_MspInit
 1897 0094 BEE7     		b	.L252
 1898              	.L253:
 1899 0096 A668     		ldr	r6, [r4, #8]
 1900 0098 2069     		ldr	r0, [r4, #16]
 1901 009a E768     		ldr	r7, [r4, #12]
 1902 009c 6568     		ldr	r5, [r4, #4]
 1903 009e 6169     		ldr	r1, [r4, #20]
 1904 00a0 22F07002 		bic	r2, r2, #112
 1905 00a4 3243     		orrs	r2, r2, r6
 1906 00a6 22F44072 		bic	r2, r2, #768
 1907 00aa 0243     		orrs	r2, r2, r0
 1908 00ac 1A60     		str	r2, [r3]
 1909 00ae DF62     		str	r7, [r3, #44]
 1910 00b0 9D62     		str	r5, [r3, #40]
 1911 00b2 1963     		str	r1, [r3, #48]
 1912 00b4 D6E7     		b	.L260
 1913              	.L262:
 1914 00b6 0120     		movs	r0, #1
 1915 00b8 7047     		bx	lr
 1916              	.L271:
 1917 00ba 00BF     		.align	2
 1918              	.L270:
 1919 00bc 00000140 		.word	1073807360
 1921              		.section	.text.HAL_TIM_IC_MspDeInit,"ax",%progbits
 1922              		.align	1
 1923              		.p2align 2,,3
 1924              		.weak	HAL_TIM_IC_MspDeInit
 1925              		.syntax unified
 1926              		.thumb
 1927              		.thumb_func
 1928              		.fpu fpv4-sp-d16
 1930              	HAL_TIM_IC_MspDeInit:
 1931              		@ args = 0, pretend = 0, frame = 0
 1932              		@ frame_needed = 0, uses_anonymous_args = 0
 1933              		@ link register save eliminated.
 1934 0000 7047     		bx	lr
 1936 0002 00BF     		.section	.text.HAL_TIM_IC_DeInit,"ax",%progbits
 1937              		.align	1
 1938              		.p2align 2,,3
 1939              		.global	HAL_TIM_IC_DeInit
 1940              		.syntax unified
 1941              		.thumb
 1942              		.thumb_func
 1943              		.fpu fpv4-sp-d16
 1945              	HAL_TIM_IC_DeInit:
 1946              		@ args = 0, pretend = 0, frame = 0
 1947              		@ frame_needed = 0, uses_anonymous_args = 0
 1948 0000 0222     		movs	r2, #2
ARM GAS  /tmp/ccnO6l7I.s 			page 34


 1949 0002 0368     		ldr	r3, [r0]
 1950 0004 10B5     		push	{r4, lr}
 1951 0006 80F83920 		strb	r2, [r0, #57]
 1952 000a 196A     		ldr	r1, [r3, #32]
 1953 000c 41F21112 		movw	r2, #4369
 1954 0010 1142     		tst	r1, r2
 1955 0012 0446     		mov	r4, r0
 1956 0014 08D1     		bne	.L274
 1957 0016 196A     		ldr	r1, [r3, #32]
 1958 0018 40F24442 		movw	r2, #1092
 1959 001c 1142     		tst	r1, r2
 1960 001e 03D1     		bne	.L274
 1961 0020 1A68     		ldr	r2, [r3]
 1962 0022 22F00102 		bic	r2, r2, #1
 1963 0026 1A60     		str	r2, [r3]
 1964              	.L274:
 1965 0028 2046     		mov	r0, r4
 1966 002a FFF7FEFF 		bl	HAL_TIM_IC_MspDeInit
 1967 002e 0020     		movs	r0, #0
 1968 0030 84F83900 		strb	r0, [r4, #57]
 1969 0034 84F83800 		strb	r0, [r4, #56]
 1970 0038 10BD     		pop	{r4, pc}
 1972 003a 00BF     		.section	.text.HAL_TIM_IC_Start,"ax",%progbits
 1973              		.align	1
 1974              		.p2align 2,,3
 1975              		.global	HAL_TIM_IC_Start
 1976              		.syntax unified
 1977              		.thumb
 1978              		.thumb_func
 1979              		.fpu fpv4-sp-d16
 1981              	HAL_TIM_IC_Start:
 1982              		@ args = 0, pretend = 0, frame = 0
 1983              		@ frame_needed = 0, uses_anonymous_args = 0
 1984              		@ link register save eliminated.
 1985 0000 0368     		ldr	r3, [r0]
 1986 0002 0122     		movs	r2, #1
 1987 0004 186A     		ldr	r0, [r3, #32]
 1988 0006 02FA01F1 		lsl	r1, r2, r1
 1989 000a 20EA0100 		bic	r0, r0, r1
 1990 000e 1862     		str	r0, [r3, #32]
 1991 0010 1A6A     		ldr	r2, [r3, #32]
 1992 0012 1143     		orrs	r1, r1, r2
 1993 0014 1962     		str	r1, [r3, #32]
 1994 0016 1A68     		ldr	r2, [r3]
 1995 0018 42F00102 		orr	r2, r2, #1
 1996 001c 1A60     		str	r2, [r3]
 1997 001e 0020     		movs	r0, #0
 1998 0020 7047     		bx	lr
 2000 0022 00BF     		.section	.text.HAL_TIM_IC_Stop,"ax",%progbits
 2001              		.align	1
 2002              		.p2align 2,,3
 2003              		.global	HAL_TIM_IC_Stop
 2004              		.syntax unified
 2005              		.thumb
 2006              		.thumb_func
 2007              		.fpu fpv4-sp-d16
 2009              	HAL_TIM_IC_Stop:
ARM GAS  /tmp/ccnO6l7I.s 			page 35


 2010              		@ args = 0, pretend = 0, frame = 0
 2011              		@ frame_needed = 0, uses_anonymous_args = 0
 2012              		@ link register save eliminated.
 2013 0000 0368     		ldr	r3, [r0]
 2014 0002 0120     		movs	r0, #1
 2015 0004 1A6A     		ldr	r2, [r3, #32]
 2016 0006 00FA01F1 		lsl	r1, r0, r1
 2017 000a 22EA0102 		bic	r2, r2, r1
 2018 000e 1A62     		str	r2, [r3, #32]
 2019 0010 1A6A     		ldr	r2, [r3, #32]
 2020 0012 1A62     		str	r2, [r3, #32]
 2021 0014 196A     		ldr	r1, [r3, #32]
 2022 0016 41F21112 		movw	r2, #4369
 2023 001a 1142     		tst	r1, r2
 2024 001c 08D1     		bne	.L278
 2025 001e 196A     		ldr	r1, [r3, #32]
 2026 0020 40F24442 		movw	r2, #1092
 2027 0024 1142     		tst	r1, r2
 2028 0026 03D1     		bne	.L278
 2029 0028 1A68     		ldr	r2, [r3]
 2030 002a 22F00102 		bic	r2, r2, #1
 2031 002e 1A60     		str	r2, [r3]
 2032              	.L278:
 2033 0030 0020     		movs	r0, #0
 2034 0032 7047     		bx	lr
 2036              		.section	.text.HAL_TIM_IC_Start_IT,"ax",%progbits
 2037              		.align	1
 2038              		.p2align 2,,3
 2039              		.global	HAL_TIM_IC_Start_IT
 2040              		.syntax unified
 2041              		.thumb
 2042              		.thumb_func
 2043              		.fpu fpv4-sp-d16
 2045              	HAL_TIM_IC_Start_IT:
 2046              		@ args = 0, pretend = 0, frame = 0
 2047              		@ frame_needed = 0, uses_anonymous_args = 0
 2048              		@ link register save eliminated.
 2049 0000 0C29     		cmp	r1, #12
 2050 0002 2FD8     		bhi	.L280
 2051 0004 DFE801F0 		tbb	[pc, r1]
 2052              	.L282:
 2053 0008 28       		.byte	(.L281-.L282)/2
 2054 0009 2E       		.byte	(.L280-.L282)/2
 2055 000a 2E       		.byte	(.L280-.L282)/2
 2056 000b 2E       		.byte	(.L280-.L282)/2
 2057 000c 22       		.byte	(.L283-.L282)/2
 2058 000d 2E       		.byte	(.L280-.L282)/2
 2059 000e 2E       		.byte	(.L280-.L282)/2
 2060 000f 2E       		.byte	(.L280-.L282)/2
 2061 0010 1C       		.byte	(.L284-.L282)/2
 2062 0011 2E       		.byte	(.L280-.L282)/2
 2063 0012 2E       		.byte	(.L280-.L282)/2
 2064 0013 2E       		.byte	(.L280-.L282)/2
 2065 0014 07       		.byte	(.L285-.L282)/2
 2066 0015 00       		.p2align 1
 2067              	.L285:
 2068 0016 0368     		ldr	r3, [r0]
ARM GAS  /tmp/ccnO6l7I.s 			page 36


 2069 0018 DA68     		ldr	r2, [r3, #12]
 2070 001a 42F01002 		orr	r2, r2, #16
 2071 001e DA60     		str	r2, [r3, #12]
 2072              	.L286:
 2073 0020 186A     		ldr	r0, [r3, #32]
 2074 0022 0122     		movs	r2, #1
 2075 0024 02FA01F1 		lsl	r1, r2, r1
 2076 0028 20EA0100 		bic	r0, r0, r1
 2077 002c 1862     		str	r0, [r3, #32]
 2078 002e 1A6A     		ldr	r2, [r3, #32]
 2079 0030 1143     		orrs	r1, r1, r2
 2080 0032 1962     		str	r1, [r3, #32]
 2081 0034 1A68     		ldr	r2, [r3]
 2082 0036 42F00102 		orr	r2, r2, #1
 2083 003a 1A60     		str	r2, [r3]
 2084 003c 0020     		movs	r0, #0
 2085 003e 7047     		bx	lr
 2086              	.L284:
 2087 0040 0368     		ldr	r3, [r0]
 2088 0042 DA68     		ldr	r2, [r3, #12]
 2089 0044 42F00802 		orr	r2, r2, #8
 2090 0048 DA60     		str	r2, [r3, #12]
 2091 004a E9E7     		b	.L286
 2092              	.L283:
 2093 004c 0368     		ldr	r3, [r0]
 2094 004e DA68     		ldr	r2, [r3, #12]
 2095 0050 42F00402 		orr	r2, r2, #4
 2096 0054 DA60     		str	r2, [r3, #12]
 2097 0056 E3E7     		b	.L286
 2098              	.L281:
 2099 0058 0368     		ldr	r3, [r0]
 2100 005a DA68     		ldr	r2, [r3, #12]
 2101 005c 42F00202 		orr	r2, r2, #2
 2102 0060 DA60     		str	r2, [r3, #12]
 2103 0062 DDE7     		b	.L286
 2104              	.L280:
 2105 0064 0368     		ldr	r3, [r0]
 2106 0066 DBE7     		b	.L286
 2108              		.section	.text.HAL_TIM_IC_Stop_IT,"ax",%progbits
 2109              		.align	1
 2110              		.p2align 2,,3
 2111              		.global	HAL_TIM_IC_Stop_IT
 2112              		.syntax unified
 2113              		.thumb
 2114              		.thumb_func
 2115              		.fpu fpv4-sp-d16
 2117              	HAL_TIM_IC_Stop_IT:
 2118              		@ args = 0, pretend = 0, frame = 0
 2119              		@ frame_needed = 0, uses_anonymous_args = 0
 2120              		@ link register save eliminated.
 2121 0000 0C29     		cmp	r1, #12
 2122 0002 38D8     		bhi	.L288
 2123 0004 DFE801F0 		tbb	[pc, r1]
 2124              	.L290:
 2125 0008 31       		.byte	(.L289-.L290)/2
 2126 0009 37       		.byte	(.L288-.L290)/2
 2127 000a 37       		.byte	(.L288-.L290)/2
ARM GAS  /tmp/ccnO6l7I.s 			page 37


 2128 000b 37       		.byte	(.L288-.L290)/2
 2129 000c 2B       		.byte	(.L291-.L290)/2
 2130 000d 37       		.byte	(.L288-.L290)/2
 2131 000e 37       		.byte	(.L288-.L290)/2
 2132 000f 37       		.byte	(.L288-.L290)/2
 2133 0010 25       		.byte	(.L292-.L290)/2
 2134 0011 37       		.byte	(.L288-.L290)/2
 2135 0012 37       		.byte	(.L288-.L290)/2
 2136 0013 37       		.byte	(.L288-.L290)/2
 2137 0014 07       		.byte	(.L293-.L290)/2
 2138 0015 00       		.p2align 1
 2139              	.L293:
 2140 0016 0368     		ldr	r3, [r0]
 2141 0018 DA68     		ldr	r2, [r3, #12]
 2142 001a 22F01002 		bic	r2, r2, #16
 2143 001e DA60     		str	r2, [r3, #12]
 2144              	.L294:
 2145 0020 1A6A     		ldr	r2, [r3, #32]
 2146 0022 0120     		movs	r0, #1
 2147 0024 00FA01F1 		lsl	r1, r0, r1
 2148 0028 22EA0101 		bic	r1, r2, r1
 2149 002c 1962     		str	r1, [r3, #32]
 2150 002e 1A6A     		ldr	r2, [r3, #32]
 2151 0030 1A62     		str	r2, [r3, #32]
 2152 0032 196A     		ldr	r1, [r3, #32]
 2153 0034 41F21112 		movw	r2, #4369
 2154 0038 1142     		tst	r1, r2
 2155 003a 08D1     		bne	.L295
 2156 003c 196A     		ldr	r1, [r3, #32]
 2157 003e 40F24442 		movw	r2, #1092
 2158 0042 1142     		tst	r1, r2
 2159 0044 03D1     		bne	.L295
 2160 0046 1A68     		ldr	r2, [r3]
 2161 0048 22F00102 		bic	r2, r2, #1
 2162 004c 1A60     		str	r2, [r3]
 2163              	.L295:
 2164 004e 0020     		movs	r0, #0
 2165 0050 7047     		bx	lr
 2166              	.L292:
 2167 0052 0368     		ldr	r3, [r0]
 2168 0054 DA68     		ldr	r2, [r3, #12]
 2169 0056 22F00802 		bic	r2, r2, #8
 2170 005a DA60     		str	r2, [r3, #12]
 2171 005c E0E7     		b	.L294
 2172              	.L291:
 2173 005e 0368     		ldr	r3, [r0]
 2174 0060 DA68     		ldr	r2, [r3, #12]
 2175 0062 22F00402 		bic	r2, r2, #4
 2176 0066 DA60     		str	r2, [r3, #12]
 2177 0068 DAE7     		b	.L294
 2178              	.L289:
 2179 006a 0368     		ldr	r3, [r0]
 2180 006c DA68     		ldr	r2, [r3, #12]
 2181 006e 22F00202 		bic	r2, r2, #2
 2182 0072 DA60     		str	r2, [r3, #12]
 2183 0074 D4E7     		b	.L294
 2184              	.L288:
ARM GAS  /tmp/ccnO6l7I.s 			page 38


 2185 0076 0368     		ldr	r3, [r0]
 2186 0078 D2E7     		b	.L294
 2188 007a 00BF     		.section	.text.HAL_TIM_IC_Start_DMA,"ax",%progbits
 2189              		.align	1
 2190              		.p2align 2,,3
 2191              		.global	HAL_TIM_IC_Start_DMA
 2192              		.syntax unified
 2193              		.thumb
 2194              		.thumb_func
 2195              		.fpu fpv4-sp-d16
 2197              	HAL_TIM_IC_Start_DMA:
 2198              		@ args = 0, pretend = 0, frame = 0
 2199              		@ frame_needed = 0, uses_anonymous_args = 0
 2200 0000 F8B5     		push	{r3, r4, r5, r6, r7, lr}
 2201 0002 90F83940 		ldrb	r4, [r0, #57]	@ zero_extendqisi2
 2202 0006 E4B2     		uxtb	r4, r4
 2203 0008 022C     		cmp	r4, #2
 2204 000a 12D0     		beq	.L308
 2205 000c 90F83940 		ldrb	r4, [r0, #57]	@ zero_extendqisi2
 2206 0010 E4B2     		uxtb	r4, r4
 2207 0012 012C     		cmp	r4, #1
 2208 0014 0FD0     		beq	.L310
 2209              	.L298:
 2210 0016 0D46     		mov	r5, r1
 2211 0018 0446     		mov	r4, r0
 2212 001a 0C2D     		cmp	r5, #12
 2213 001c 5CD8     		bhi	.L300
 2214 001e DFE805F0 		tbb	[pc, r5]
 2215              	.L302:
 2216 0022 10       		.byte	(.L301-.L302)/2
 2217 0023 5B       		.byte	(.L300-.L302)/2
 2218 0024 5B       		.byte	(.L300-.L302)/2
 2219 0025 5B       		.byte	(.L300-.L302)/2
 2220 0026 2E       		.byte	(.L303-.L302)/2
 2221 0027 5B       		.byte	(.L300-.L302)/2
 2222 0028 5B       		.byte	(.L300-.L302)/2
 2223 0029 5B       		.byte	(.L300-.L302)/2
 2224 002a 3D       		.byte	(.L304-.L302)/2
 2225 002b 5B       		.byte	(.L300-.L302)/2
 2226 002c 5B       		.byte	(.L300-.L302)/2
 2227 002d 5B       		.byte	(.L300-.L302)/2
 2228 002e 4C       		.byte	(.L305-.L302)/2
 2229 002f 00       		.p2align 1
 2230              	.L311:
 2231 0030 1BB1     		cbz	r3, .L299
 2232              	.L308:
 2233 0032 2046     		mov	r0, r4
 2234 0034 F8BD     		pop	{r3, r4, r5, r6, r7, pc}
 2235              	.L310:
 2236 0036 002A     		cmp	r2, #0
 2237 0038 FAD0     		beq	.L311
 2238              	.L299:
 2239 003a 0224     		movs	r4, #2
 2240 003c 80F83940 		strb	r4, [r0, #57]
 2241 0040 E9E7     		b	.L298
 2242              	.L301:
 2243 0042 2168     		ldr	r1, [r4]
ARM GAS  /tmp/ccnO6l7I.s 			page 39


 2244 0044 006A     		ldr	r0, [r0, #32]
 2245 0046 254F     		ldr	r7, .L312
 2246 0048 254E     		ldr	r6, .L312+4
 2247 004a C763     		str	r7, [r0, #60]
 2248 004c C664     		str	r6, [r0, #76]
 2249 004e 3431     		adds	r1, r1, #52
 2250 0050 FFF7FEFF 		bl	HAL_DMA_Start_IT
 2251 0054 2068     		ldr	r0, [r4]
 2252 0056 C368     		ldr	r3, [r0, #12]
 2253 0058 43F40073 		orr	r3, r3, #512
 2254 005c C360     		str	r3, [r0, #12]
 2255              	.L306:
 2256 005e 026A     		ldr	r2, [r0, #32]
 2257 0060 0123     		movs	r3, #1
 2258 0062 03FA05F1 		lsl	r1, r3, r5
 2259 0066 22EA0102 		bic	r2, r2, r1
 2260 006a 0262     		str	r2, [r0, #32]
 2261 006c 036A     		ldr	r3, [r0, #32]
 2262 006e 1943     		orrs	r1, r1, r3
 2263 0070 0162     		str	r1, [r0, #32]
 2264 0072 0368     		ldr	r3, [r0]
 2265 0074 43F00103 		orr	r3, r3, #1
 2266 0078 0360     		str	r3, [r0]
 2267 007a 0020     		movs	r0, #0
 2268 007c F8BD     		pop	{r3, r4, r5, r6, r7, pc}
 2269              	.L303:
 2270 007e 2168     		ldr	r1, [r4]
 2271 0080 406A     		ldr	r0, [r0, #36]
 2272 0082 164F     		ldr	r7, .L312
 2273 0084 164E     		ldr	r6, .L312+4
 2274 0086 C763     		str	r7, [r0, #60]
 2275 0088 C664     		str	r6, [r0, #76]
 2276 008a 3831     		adds	r1, r1, #56
 2277 008c FFF7FEFF 		bl	HAL_DMA_Start_IT
 2278 0090 2068     		ldr	r0, [r4]
 2279 0092 C368     		ldr	r3, [r0, #12]
 2280 0094 43F48063 		orr	r3, r3, #1024
 2281 0098 C360     		str	r3, [r0, #12]
 2282 009a E0E7     		b	.L306
 2283              	.L304:
 2284 009c 2168     		ldr	r1, [r4]
 2285 009e 806A     		ldr	r0, [r0, #40]
 2286 00a0 0E4F     		ldr	r7, .L312
 2287 00a2 0F4E     		ldr	r6, .L312+4
 2288 00a4 C763     		str	r7, [r0, #60]
 2289 00a6 C664     		str	r6, [r0, #76]
 2290 00a8 3C31     		adds	r1, r1, #60
 2291 00aa FFF7FEFF 		bl	HAL_DMA_Start_IT
 2292 00ae 2068     		ldr	r0, [r4]
 2293 00b0 C368     		ldr	r3, [r0, #12]
 2294 00b2 43F40063 		orr	r3, r3, #2048
 2295 00b6 C360     		str	r3, [r0, #12]
 2296 00b8 D1E7     		b	.L306
 2297              	.L305:
 2298 00ba 2168     		ldr	r1, [r4]
 2299 00bc C06A     		ldr	r0, [r0, #44]
 2300 00be 074F     		ldr	r7, .L312
ARM GAS  /tmp/ccnO6l7I.s 			page 40


 2301 00c0 074E     		ldr	r6, .L312+4
 2302 00c2 C763     		str	r7, [r0, #60]
 2303 00c4 C664     		str	r6, [r0, #76]
 2304 00c6 4031     		adds	r1, r1, #64
 2305 00c8 FFF7FEFF 		bl	HAL_DMA_Start_IT
 2306 00cc 2068     		ldr	r0, [r4]
 2307 00ce C368     		ldr	r3, [r0, #12]
 2308 00d0 43F48053 		orr	r3, r3, #4096
 2309 00d4 C360     		str	r3, [r0, #12]
 2310 00d6 C2E7     		b	.L306
 2311              	.L300:
 2312 00d8 0068     		ldr	r0, [r0]
 2313 00da C0E7     		b	.L306
 2314              	.L313:
 2315              		.align	2
 2316              	.L312:
 2317 00dc 00000000 		.word	TIM_DMACaptureCplt
 2318 00e0 00000000 		.word	TIM_DMAError
 2320              		.section	.text.HAL_TIM_IC_Stop_DMA,"ax",%progbits
 2321              		.align	1
 2322              		.p2align 2,,3
 2323              		.global	HAL_TIM_IC_Stop_DMA
 2324              		.syntax unified
 2325              		.thumb
 2326              		.thumb_func
 2327              		.fpu fpv4-sp-d16
 2329              	HAL_TIM_IC_Stop_DMA:
 2330              		@ args = 0, pretend = 0, frame = 0
 2331              		@ frame_needed = 0, uses_anonymous_args = 0
 2332              		@ link register save eliminated.
 2333 0000 10B4     		push	{r4}
 2334 0002 0C29     		cmp	r1, #12
 2335 0004 3DD8     		bhi	.L315
 2336 0006 DFE801F0 		tbb	[pc, r1]
 2337              	.L317:
 2338 000a 36       		.byte	(.L316-.L317)/2
 2339 000b 3C       		.byte	(.L315-.L317)/2
 2340 000c 3C       		.byte	(.L315-.L317)/2
 2341 000d 3C       		.byte	(.L315-.L317)/2
 2342 000e 30       		.byte	(.L318-.L317)/2
 2343 000f 3C       		.byte	(.L315-.L317)/2
 2344 0010 3C       		.byte	(.L315-.L317)/2
 2345 0011 3C       		.byte	(.L315-.L317)/2
 2346 0012 2A       		.byte	(.L319-.L317)/2
 2347 0013 3C       		.byte	(.L315-.L317)/2
 2348 0014 3C       		.byte	(.L315-.L317)/2
 2349 0015 3C       		.byte	(.L315-.L317)/2
 2350 0016 07       		.byte	(.L320-.L317)/2
 2351 0017 00       		.p2align 1
 2352              	.L320:
 2353 0018 0368     		ldr	r3, [r0]
 2354 001a DA68     		ldr	r2, [r3, #12]
 2355 001c 22F48052 		bic	r2, r2, #4096
 2356 0020 DA60     		str	r2, [r3, #12]
 2357              	.L321:
 2358 0022 1A6A     		ldr	r2, [r3, #32]
 2359 0024 0124     		movs	r4, #1
ARM GAS  /tmp/ccnO6l7I.s 			page 41


 2360 0026 04FA01F1 		lsl	r1, r4, r1
 2361 002a 22EA0101 		bic	r1, r2, r1
 2362 002e 1962     		str	r1, [r3, #32]
 2363 0030 1A6A     		ldr	r2, [r3, #32]
 2364 0032 1A62     		str	r2, [r3, #32]
 2365 0034 196A     		ldr	r1, [r3, #32]
 2366 0036 41F21112 		movw	r2, #4369
 2367 003a 1142     		tst	r1, r2
 2368 003c 08D1     		bne	.L322
 2369 003e 196A     		ldr	r1, [r3, #32]
 2370 0040 40F24442 		movw	r2, #1092
 2371 0044 1142     		tst	r1, r2
 2372 0046 03D1     		bne	.L322
 2373 0048 1A68     		ldr	r2, [r3]
 2374 004a 22F00102 		bic	r2, r2, #1
 2375 004e 1A60     		str	r2, [r3]
 2376              	.L322:
 2377 0050 0123     		movs	r3, #1
 2378 0052 80F83930 		strb	r3, [r0, #57]
 2379 0056 5DF8044B 		ldr	r4, [sp], #4
 2380 005a 0020     		movs	r0, #0
 2381 005c 7047     		bx	lr
 2382              	.L319:
 2383 005e 0368     		ldr	r3, [r0]
 2384 0060 DA68     		ldr	r2, [r3, #12]
 2385 0062 22F40062 		bic	r2, r2, #2048
 2386 0066 DA60     		str	r2, [r3, #12]
 2387 0068 DBE7     		b	.L321
 2388              	.L318:
 2389 006a 0368     		ldr	r3, [r0]
 2390 006c DA68     		ldr	r2, [r3, #12]
 2391 006e 22F48062 		bic	r2, r2, #1024
 2392 0072 DA60     		str	r2, [r3, #12]
 2393 0074 D5E7     		b	.L321
 2394              	.L316:
 2395 0076 0368     		ldr	r3, [r0]
 2396 0078 DA68     		ldr	r2, [r3, #12]
 2397 007a 22F40072 		bic	r2, r2, #512
 2398 007e DA60     		str	r2, [r3, #12]
 2399 0080 CFE7     		b	.L321
 2400              	.L315:
 2401 0082 0368     		ldr	r3, [r0]
 2402 0084 CDE7     		b	.L321
 2404 0086 00BF     		.section	.text.HAL_TIM_OnePulse_MspInit,"ax",%progbits
 2405              		.align	1
 2406              		.p2align 2,,3
 2407              		.weak	HAL_TIM_OnePulse_MspInit
 2408              		.syntax unified
 2409              		.thumb
 2410              		.thumb_func
 2411              		.fpu fpv4-sp-d16
 2413              	HAL_TIM_OnePulse_MspInit:
 2414              		@ args = 0, pretend = 0, frame = 0
 2415              		@ frame_needed = 0, uses_anonymous_args = 0
 2416              		@ link register save eliminated.
 2417 0000 7047     		bx	lr
 2419 0002 00BF     		.section	.text.HAL_TIM_OnePulse_Init,"ax",%progbits
ARM GAS  /tmp/ccnO6l7I.s 			page 42


 2420              		.align	1
 2421              		.p2align 2,,3
 2422              		.global	HAL_TIM_OnePulse_Init
 2423              		.syntax unified
 2424              		.thumb
 2425              		.thumb_func
 2426              		.fpu fpv4-sp-d16
 2428              	HAL_TIM_OnePulse_Init:
 2429              		@ args = 0, pretend = 0, frame = 0
 2430              		@ frame_needed = 0, uses_anonymous_args = 0
 2431 0000 0028     		cmp	r0, #0
 2432 0002 60D0     		beq	.L337
 2433 0004 F8B5     		push	{r3, r4, r5, r6, r7, lr}
 2434 0006 90F83930 		ldrb	r3, [r0, #57]	@ zero_extendqisi2
 2435 000a 0446     		mov	r4, r0
 2436 000c 0D46     		mov	r5, r1
 2437 000e 03F0FF02 		and	r2, r3, #255
 2438 0012 002B     		cmp	r3, #0
 2439 0014 42D0     		beq	.L344
 2440              	.L327:
 2441 0016 2368     		ldr	r3, [r4]
 2442 0018 2C49     		ldr	r1, .L345
 2443 001a 0222     		movs	r2, #2
 2444 001c 84F83920 		strb	r2, [r4, #57]
 2445 0020 8B42     		cmp	r3, r1
 2446 0022 1A68     		ldr	r2, [r3]
 2447 0024 3FD0     		beq	.L328
 2448 0026 B3F1804F 		cmp	r3, #1073741824
 2449 002a 29D0     		beq	.L331
 2450 002c A1F57C41 		sub	r1, r1, #64512
 2451 0030 8B42     		cmp	r3, r1
 2452 0032 25D0     		beq	.L331
 2453 0034 01F58061 		add	r1, r1, #1024
 2454 0038 8B42     		cmp	r3, r1
 2455 003a 21D0     		beq	.L331
 2456 003c 01F58061 		add	r1, r1, #1024
 2457 0040 8B42     		cmp	r3, r1
 2458 0042 1DD0     		beq	.L331
 2459 0044 01F59A31 		add	r1, r1, #78848
 2460 0048 8B42     		cmp	r3, r1
 2461 004a 1DD0     		beq	.L336
 2462 004c 01F58061 		add	r1, r1, #1024
 2463 0050 8B42     		cmp	r3, r1
 2464 0052 19D0     		beq	.L336
 2465 0054 01F58061 		add	r1, r1, #1024
 2466 0058 8B42     		cmp	r3, r1
 2467 005a 15D0     		beq	.L336
 2468 005c E068     		ldr	r0, [r4, #12]
 2469 005e 6168     		ldr	r1, [r4, #4]
 2470 0060 1A60     		str	r2, [r3]
 2471 0062 D862     		str	r0, [r3, #44]
 2472 0064 9962     		str	r1, [r3, #40]
 2473              	.L335:
 2474 0066 0126     		movs	r6, #1
 2475 0068 5E61     		str	r6, [r3, #20]
 2476 006a 1A68     		ldr	r2, [r3]
 2477 006c 22F00802 		bic	r2, r2, #8
ARM GAS  /tmp/ccnO6l7I.s 			page 43


 2478 0070 1A60     		str	r2, [r3]
 2479 0072 1A68     		ldr	r2, [r3]
 2480 0074 2A43     		orrs	r2, r2, r5
 2481 0076 1A60     		str	r2, [r3]
 2482 0078 0020     		movs	r0, #0
 2483 007a 84F83960 		strb	r6, [r4, #57]
 2484 007e F8BD     		pop	{r3, r4, r5, r6, r7, pc}
 2485              	.L331:
 2486 0080 A168     		ldr	r1, [r4, #8]
 2487 0082 22F07002 		bic	r2, r2, #112
 2488 0086 0A43     		orrs	r2, r2, r1
 2489              	.L336:
 2490 0088 2669     		ldr	r6, [r4, #16]
 2491 008a E068     		ldr	r0, [r4, #12]
 2492 008c 6168     		ldr	r1, [r4, #4]
 2493 008e 22F44072 		bic	r2, r2, #768
 2494 0092 3243     		orrs	r2, r2, r6
 2495 0094 1A60     		str	r2, [r3]
 2496 0096 D862     		str	r0, [r3, #44]
 2497 0098 9962     		str	r1, [r3, #40]
 2498 009a E4E7     		b	.L335
 2499              	.L344:
 2500 009c 80F83820 		strb	r2, [r0, #56]
 2501 00a0 FFF7FEFF 		bl	HAL_TIM_OnePulse_MspInit
 2502 00a4 B7E7     		b	.L327
 2503              	.L328:
 2504 00a6 A668     		ldr	r6, [r4, #8]
 2505 00a8 2169     		ldr	r1, [r4, #16]
 2506 00aa E768     		ldr	r7, [r4, #12]
 2507 00ac 6068     		ldr	r0, [r4, #4]
 2508 00ae 22F07002 		bic	r2, r2, #112
 2509 00b2 3243     		orrs	r2, r2, r6
 2510 00b4 22F44072 		bic	r2, r2, #768
 2511 00b8 0A43     		orrs	r2, r2, r1
 2512 00ba 6169     		ldr	r1, [r4, #20]
 2513 00bc 1A60     		str	r2, [r3]
 2514 00be DF62     		str	r7, [r3, #44]
 2515 00c0 9862     		str	r0, [r3, #40]
 2516 00c2 1963     		str	r1, [r3, #48]
 2517 00c4 CFE7     		b	.L335
 2518              	.L337:
 2519 00c6 0120     		movs	r0, #1
 2520 00c8 7047     		bx	lr
 2521              	.L346:
 2522 00ca 00BF     		.align	2
 2523              	.L345:
 2524 00cc 00000140 		.word	1073807360
 2526              		.section	.text.HAL_TIM_OnePulse_MspDeInit,"ax",%progbits
 2527              		.align	1
 2528              		.p2align 2,,3
 2529              		.weak	HAL_TIM_OnePulse_MspDeInit
 2530              		.syntax unified
 2531              		.thumb
 2532              		.thumb_func
 2533              		.fpu fpv4-sp-d16
 2535              	HAL_TIM_OnePulse_MspDeInit:
 2536              		@ args = 0, pretend = 0, frame = 0
ARM GAS  /tmp/ccnO6l7I.s 			page 44


 2537              		@ frame_needed = 0, uses_anonymous_args = 0
 2538              		@ link register save eliminated.
 2539 0000 7047     		bx	lr
 2541 0002 00BF     		.section	.text.HAL_TIM_OnePulse_DeInit,"ax",%progbits
 2542              		.align	1
 2543              		.p2align 2,,3
 2544              		.global	HAL_TIM_OnePulse_DeInit
 2545              		.syntax unified
 2546              		.thumb
 2547              		.thumb_func
 2548              		.fpu fpv4-sp-d16
 2550              	HAL_TIM_OnePulse_DeInit:
 2551              		@ args = 0, pretend = 0, frame = 0
 2552              		@ frame_needed = 0, uses_anonymous_args = 0
 2553 0000 0222     		movs	r2, #2
 2554 0002 0368     		ldr	r3, [r0]
 2555 0004 10B5     		push	{r4, lr}
 2556 0006 80F83920 		strb	r2, [r0, #57]
 2557 000a 196A     		ldr	r1, [r3, #32]
 2558 000c 41F21112 		movw	r2, #4369
 2559 0010 1142     		tst	r1, r2
 2560 0012 0446     		mov	r4, r0
 2561 0014 08D1     		bne	.L349
 2562 0016 196A     		ldr	r1, [r3, #32]
 2563 0018 40F24442 		movw	r2, #1092
 2564 001c 1142     		tst	r1, r2
 2565 001e 03D1     		bne	.L349
 2566 0020 1A68     		ldr	r2, [r3]
 2567 0022 22F00102 		bic	r2, r2, #1
 2568 0026 1A60     		str	r2, [r3]
 2569              	.L349:
 2570 0028 2046     		mov	r0, r4
 2571 002a FFF7FEFF 		bl	HAL_TIM_OnePulse_MspDeInit
 2572 002e 0020     		movs	r0, #0
 2573 0030 84F83900 		strb	r0, [r4, #57]
 2574 0034 84F83800 		strb	r0, [r4, #56]
 2575 0038 10BD     		pop	{r4, pc}
 2577 003a 00BF     		.section	.text.HAL_TIM_OnePulse_Start,"ax",%progbits
 2578              		.align	1
 2579              		.p2align 2,,3
 2580              		.global	HAL_TIM_OnePulse_Start
 2581              		.syntax unified
 2582              		.thumb
 2583              		.thumb_func
 2584              		.fpu fpv4-sp-d16
 2586              	HAL_TIM_OnePulse_Start:
 2587              		@ args = 0, pretend = 0, frame = 0
 2588              		@ frame_needed = 0, uses_anonymous_args = 0
 2589              		@ link register save eliminated.
 2590 0000 0368     		ldr	r3, [r0]
 2591 0002 0D49     		ldr	r1, .L354
 2592 0004 1A6A     		ldr	r2, [r3, #32]
 2593 0006 22F00102 		bic	r2, r2, #1
 2594 000a 1A62     		str	r2, [r3, #32]
 2595 000c 1A6A     		ldr	r2, [r3, #32]
 2596 000e 42F00102 		orr	r2, r2, #1
 2597 0012 1A62     		str	r2, [r3, #32]
ARM GAS  /tmp/ccnO6l7I.s 			page 45


 2598 0014 1A6A     		ldr	r2, [r3, #32]
 2599 0016 22F01002 		bic	r2, r2, #16
 2600 001a 1A62     		str	r2, [r3, #32]
 2601 001c 1A6A     		ldr	r2, [r3, #32]
 2602 001e 8B42     		cmp	r3, r1
 2603 0020 42F01002 		orr	r2, r2, #16
 2604 0024 1A62     		str	r2, [r3, #32]
 2605 0026 01D0     		beq	.L353
 2606 0028 0020     		movs	r0, #0
 2607 002a 7047     		bx	lr
 2608              	.L353:
 2609 002c 5A6C     		ldr	r2, [r3, #68]
 2610 002e 42F40042 		orr	r2, r2, #32768
 2611 0032 5A64     		str	r2, [r3, #68]
 2612 0034 0020     		movs	r0, #0
 2613 0036 7047     		bx	lr
 2614              	.L355:
 2615              		.align	2
 2616              	.L354:
 2617 0038 00000140 		.word	1073807360
 2619              		.section	.text.HAL_TIM_OnePulse_Stop,"ax",%progbits
 2620              		.align	1
 2621              		.p2align 2,,3
 2622              		.global	HAL_TIM_OnePulse_Stop
 2623              		.syntax unified
 2624              		.thumb
 2625              		.thumb_func
 2626              		.fpu fpv4-sp-d16
 2628              	HAL_TIM_OnePulse_Stop:
 2629              		@ args = 0, pretend = 0, frame = 0
 2630              		@ frame_needed = 0, uses_anonymous_args = 0
 2631              		@ link register save eliminated.
 2632 0000 0368     		ldr	r3, [r0]
 2633 0002 1749     		ldr	r1, .L360
 2634 0004 1A6A     		ldr	r2, [r3, #32]
 2635 0006 22F00102 		bic	r2, r2, #1
 2636 000a 1A62     		str	r2, [r3, #32]
 2637 000c 1A6A     		ldr	r2, [r3, #32]
 2638 000e 1A62     		str	r2, [r3, #32]
 2639 0010 1A6A     		ldr	r2, [r3, #32]
 2640 0012 22F01002 		bic	r2, r2, #16
 2641 0016 1A62     		str	r2, [r3, #32]
 2642 0018 1A6A     		ldr	r2, [r3, #32]
 2643 001a 1A62     		str	r2, [r3, #32]
 2644 001c 8B42     		cmp	r3, r1
 2645 001e 0FD0     		beq	.L359
 2646              	.L357:
 2647 0020 196A     		ldr	r1, [r3, #32]
 2648 0022 41F21112 		movw	r2, #4369
 2649 0026 1142     		tst	r1, r2
 2650 0028 08D1     		bne	.L358
 2651 002a 196A     		ldr	r1, [r3, #32]
 2652 002c 40F24442 		movw	r2, #1092
 2653 0030 1142     		tst	r1, r2
 2654 0032 03D1     		bne	.L358
 2655 0034 1A68     		ldr	r2, [r3]
 2656 0036 22F00102 		bic	r2, r2, #1
ARM GAS  /tmp/ccnO6l7I.s 			page 46


 2657 003a 1A60     		str	r2, [r3]
 2658              	.L358:
 2659 003c 0020     		movs	r0, #0
 2660 003e 7047     		bx	lr
 2661              	.L359:
 2662 0040 196A     		ldr	r1, [r3, #32]
 2663 0042 41F21112 		movw	r2, #4369
 2664 0046 1142     		tst	r1, r2
 2665 0048 EAD1     		bne	.L357
 2666 004a 196A     		ldr	r1, [r3, #32]
 2667 004c 40F24442 		movw	r2, #1092
 2668 0050 1142     		tst	r1, r2
 2669 0052 E5D1     		bne	.L357
 2670 0054 5A6C     		ldr	r2, [r3, #68]
 2671 0056 22F40042 		bic	r2, r2, #32768
 2672 005a 5A64     		str	r2, [r3, #68]
 2673 005c E0E7     		b	.L357
 2674              	.L361:
 2675 005e 00BF     		.align	2
 2676              	.L360:
 2677 0060 00000140 		.word	1073807360
 2679              		.section	.text.HAL_TIM_OnePulse_Start_IT,"ax",%progbits
 2680              		.align	1
 2681              		.p2align 2,,3
 2682              		.global	HAL_TIM_OnePulse_Start_IT
 2683              		.syntax unified
 2684              		.thumb
 2685              		.thumb_func
 2686              		.fpu fpv4-sp-d16
 2688              	HAL_TIM_OnePulse_Start_IT:
 2689              		@ args = 0, pretend = 0, frame = 0
 2690              		@ frame_needed = 0, uses_anonymous_args = 0
 2691              		@ link register save eliminated.
 2692 0000 0368     		ldr	r3, [r0]
 2693 0002 1149     		ldr	r1, .L365
 2694 0004 DA68     		ldr	r2, [r3, #12]
 2695 0006 42F00202 		orr	r2, r2, #2
 2696 000a DA60     		str	r2, [r3, #12]
 2697 000c DA68     		ldr	r2, [r3, #12]
 2698 000e 42F00402 		orr	r2, r2, #4
 2699 0012 DA60     		str	r2, [r3, #12]
 2700 0014 1A6A     		ldr	r2, [r3, #32]
 2701 0016 22F00102 		bic	r2, r2, #1
 2702 001a 1A62     		str	r2, [r3, #32]
 2703 001c 1A6A     		ldr	r2, [r3, #32]
 2704 001e 42F00102 		orr	r2, r2, #1
 2705 0022 1A62     		str	r2, [r3, #32]
 2706 0024 1A6A     		ldr	r2, [r3, #32]
 2707 0026 22F01002 		bic	r2, r2, #16
 2708 002a 1A62     		str	r2, [r3, #32]
 2709 002c 1A6A     		ldr	r2, [r3, #32]
 2710 002e 8B42     		cmp	r3, r1
 2711 0030 42F01002 		orr	r2, r2, #16
 2712 0034 1A62     		str	r2, [r3, #32]
 2713 0036 01D0     		beq	.L364
 2714 0038 0020     		movs	r0, #0
 2715 003a 7047     		bx	lr
ARM GAS  /tmp/ccnO6l7I.s 			page 47


 2716              	.L364:
 2717 003c 5A6C     		ldr	r2, [r3, #68]
 2718 003e 42F40042 		orr	r2, r2, #32768
 2719 0042 5A64     		str	r2, [r3, #68]
 2720 0044 0020     		movs	r0, #0
 2721 0046 7047     		bx	lr
 2722              	.L366:
 2723              		.align	2
 2724              	.L365:
 2725 0048 00000140 		.word	1073807360
 2727              		.section	.text.HAL_TIM_OnePulse_Stop_IT,"ax",%progbits
 2728              		.align	1
 2729              		.p2align 2,,3
 2730              		.global	HAL_TIM_OnePulse_Stop_IT
 2731              		.syntax unified
 2732              		.thumb
 2733              		.thumb_func
 2734              		.fpu fpv4-sp-d16
 2736              	HAL_TIM_OnePulse_Stop_IT:
 2737              		@ args = 0, pretend = 0, frame = 0
 2738              		@ frame_needed = 0, uses_anonymous_args = 0
 2739              		@ link register save eliminated.
 2740 0000 0368     		ldr	r3, [r0]
 2741 0002 1B49     		ldr	r1, .L371
 2742 0004 DA68     		ldr	r2, [r3, #12]
 2743 0006 22F00202 		bic	r2, r2, #2
 2744 000a DA60     		str	r2, [r3, #12]
 2745 000c DA68     		ldr	r2, [r3, #12]
 2746 000e 22F00402 		bic	r2, r2, #4
 2747 0012 DA60     		str	r2, [r3, #12]
 2748 0014 1A6A     		ldr	r2, [r3, #32]
 2749 0016 22F00102 		bic	r2, r2, #1
 2750 001a 1A62     		str	r2, [r3, #32]
 2751 001c 1A6A     		ldr	r2, [r3, #32]
 2752 001e 1A62     		str	r2, [r3, #32]
 2753 0020 1A6A     		ldr	r2, [r3, #32]
 2754 0022 22F01002 		bic	r2, r2, #16
 2755 0026 1A62     		str	r2, [r3, #32]
 2756 0028 1A6A     		ldr	r2, [r3, #32]
 2757 002a 1A62     		str	r2, [r3, #32]
 2758 002c 8B42     		cmp	r3, r1
 2759 002e 0FD0     		beq	.L370
 2760              	.L368:
 2761 0030 196A     		ldr	r1, [r3, #32]
 2762 0032 41F21112 		movw	r2, #4369
 2763 0036 1142     		tst	r1, r2
 2764 0038 08D1     		bne	.L369
 2765 003a 196A     		ldr	r1, [r3, #32]
 2766 003c 40F24442 		movw	r2, #1092
 2767 0040 1142     		tst	r1, r2
 2768 0042 03D1     		bne	.L369
 2769 0044 1A68     		ldr	r2, [r3]
 2770 0046 22F00102 		bic	r2, r2, #1
 2771 004a 1A60     		str	r2, [r3]
 2772              	.L369:
 2773 004c 0020     		movs	r0, #0
 2774 004e 7047     		bx	lr
ARM GAS  /tmp/ccnO6l7I.s 			page 48


 2775              	.L370:
 2776 0050 196A     		ldr	r1, [r3, #32]
 2777 0052 41F21112 		movw	r2, #4369
 2778 0056 1142     		tst	r1, r2
 2779 0058 EAD1     		bne	.L368
 2780 005a 196A     		ldr	r1, [r3, #32]
 2781 005c 40F24442 		movw	r2, #1092
 2782 0060 1142     		tst	r1, r2
 2783 0062 E5D1     		bne	.L368
 2784 0064 5A6C     		ldr	r2, [r3, #68]
 2785 0066 22F40042 		bic	r2, r2, #32768
 2786 006a 5A64     		str	r2, [r3, #68]
 2787 006c E0E7     		b	.L368
 2788              	.L372:
 2789 006e 00BF     		.align	2
 2790              	.L371:
 2791 0070 00000140 		.word	1073807360
 2793              		.section	.text.HAL_TIM_Encoder_MspInit,"ax",%progbits
 2794              		.align	1
 2795              		.p2align 2,,3
 2796              		.weak	HAL_TIM_Encoder_MspInit
 2797              		.syntax unified
 2798              		.thumb
 2799              		.thumb_func
 2800              		.fpu fpv4-sp-d16
 2802              	HAL_TIM_Encoder_MspInit:
 2803              		@ args = 0, pretend = 0, frame = 0
 2804              		@ frame_needed = 0, uses_anonymous_args = 0
 2805              		@ link register save eliminated.
 2806 0000 7047     		bx	lr
 2808 0002 00BF     		.section	.text.HAL_TIM_Encoder_Init,"ax",%progbits
 2809              		.align	1
 2810              		.p2align 2,,3
 2811              		.global	HAL_TIM_Encoder_Init
 2812              		.syntax unified
 2813              		.thumb
 2814              		.thumb_func
 2815              		.fpu fpv4-sp-d16
 2817              	HAL_TIM_Encoder_Init:
 2818              		@ args = 0, pretend = 0, frame = 0
 2819              		@ frame_needed = 0, uses_anonymous_args = 0
 2820 0000 0028     		cmp	r0, #0
 2821 0002 00F08C80 		beq	.L386
 2822 0006 90F83930 		ldrb	r3, [r0, #57]	@ zero_extendqisi2
 2823 000a 2DE9F041 		push	{r4, r5, r6, r7, r8, lr}
 2824 000e 03F0FF02 		and	r2, r3, #255
 2825 0012 0546     		mov	r5, r0
 2826 0014 0C46     		mov	r4, r1
 2827 0016 002B     		cmp	r3, #0
 2828 0018 6CD0     		beq	.L393
 2829              	.L376:
 2830 001a 2B68     		ldr	r3, [r5]
 2831 001c 4149     		ldr	r1, .L394
 2832 001e 0222     		movs	r2, #2
 2833 0020 85F83920 		strb	r2, [r5, #57]
 2834 0024 9A68     		ldr	r2, [r3, #8]
 2835 0026 22F00702 		bic	r2, r2, #7
ARM GAS  /tmp/ccnO6l7I.s 			page 49


 2836 002a 9A60     		str	r2, [r3, #8]
 2837 002c 8B42     		cmp	r3, r1
 2838 002e 1A68     		ldr	r2, [r3]
 2839 0030 65D0     		beq	.L377
 2840 0032 B3F1804F 		cmp	r3, #1073741824
 2841 0036 4FD0     		beq	.L380
 2842 0038 A1F57C41 		sub	r1, r1, #64512
 2843 003c 8B42     		cmp	r3, r1
 2844 003e 4BD0     		beq	.L380
 2845 0040 01F58061 		add	r1, r1, #1024
 2846 0044 8B42     		cmp	r3, r1
 2847 0046 47D0     		beq	.L380
 2848 0048 01F58061 		add	r1, r1, #1024
 2849 004c 8B42     		cmp	r3, r1
 2850 004e 43D0     		beq	.L380
 2851 0050 01F59A31 		add	r1, r1, #78848
 2852 0054 8B42     		cmp	r3, r1
 2853 0056 43D0     		beq	.L385
 2854 0058 01F58061 		add	r1, r1, #1024
 2855 005c 8B42     		cmp	r3, r1
 2856 005e 3FD0     		beq	.L385
 2857 0060 01F58061 		add	r1, r1, #1024
 2858 0064 8B42     		cmp	r3, r1
 2859 0066 3BD0     		beq	.L385
 2860 0068 E868     		ldr	r0, [r5, #12]
 2861 006a 6968     		ldr	r1, [r5, #4]
 2862 006c 1A60     		str	r2, [r3]
 2863 006e D862     		str	r0, [r3, #44]
 2864 0070 9962     		str	r1, [r3, #40]
 2865              	.L384:
 2866 0072 4FF0010E 		mov	lr, #1
 2867 0076 C3F814E0 		str	lr, [r3, #20]
 2868 007a 9868     		ldr	r0, [r3, #8]
 2869 007c 9E69     		ldr	r6, [r3, #24]
 2870 007e A769     		ldr	r7, [r4, #24]
 2871 0080 A168     		ldr	r1, [r4, #8]
 2872 0082 2269     		ldr	r2, [r4, #16]
 2873 0084 D4F800C0 		ldr	ip, [r4]
 2874 0088 26F44078 		bic	r8, r6, #768
 2875 008c E669     		ldr	r6, [r4, #28]
 2876 008e 41EA0721 		orr	r1, r1, r7, lsl #8
 2877 0092 1201     		lsls	r2, r2, #4
 2878 0094 E768     		ldr	r7, [r4, #12]
 2879 0096 42EA0622 		orr	r2, r2, r6, lsl #8
 2880 009a 3A43     		orrs	r2, r2, r7
 2881 009c 276A     		ldr	r7, [r4, #32]
 2882 009e 1E6A     		ldr	r6, [r3, #32]
 2883 00a0 28F00308 		bic	r8, r8, #3
 2884 00a4 41EA0801 		orr	r1, r1, r8
 2885 00a8 42EA0732 		orr	r2, r2, r7, lsl #12
 2886 00ac 6769     		ldr	r7, [r4, #20]
 2887 00ae 6468     		ldr	r4, [r4, #4]
 2888 00b0 21F47C41 		bic	r1, r1, #64512
 2889 00b4 21F0FC01 		bic	r1, r1, #252
 2890 00b8 26F0AA06 		bic	r6, r6, #170
 2891 00bc 44EA0714 		orr	r4, r4, r7, lsl #4
 2892 00c0 40EA0C00 		orr	r0, r0, ip
ARM GAS  /tmp/ccnO6l7I.s 			page 50


 2893 00c4 0A43     		orrs	r2, r2, r1
 2894 00c6 3443     		orrs	r4, r4, r6
 2895 00c8 9860     		str	r0, [r3, #8]
 2896 00ca 9A61     		str	r2, [r3, #24]
 2897 00cc 0020     		movs	r0, #0
 2898 00ce 1C62     		str	r4, [r3, #32]
 2899 00d0 85F839E0 		strb	lr, [r5, #57]
 2900 00d4 BDE8F081 		pop	{r4, r5, r6, r7, r8, pc}
 2901              	.L380:
 2902 00d8 A968     		ldr	r1, [r5, #8]
 2903 00da 22F07002 		bic	r2, r2, #112
 2904 00de 0A43     		orrs	r2, r2, r1
 2905              	.L385:
 2906 00e0 2E69     		ldr	r6, [r5, #16]
 2907 00e2 E868     		ldr	r0, [r5, #12]
 2908 00e4 6968     		ldr	r1, [r5, #4]
 2909 00e6 22F44072 		bic	r2, r2, #768
 2910 00ea 3243     		orrs	r2, r2, r6
 2911 00ec 1A60     		str	r2, [r3]
 2912 00ee D862     		str	r0, [r3, #44]
 2913 00f0 9962     		str	r1, [r3, #40]
 2914 00f2 BEE7     		b	.L384
 2915              	.L393:
 2916 00f4 80F83820 		strb	r2, [r0, #56]
 2917 00f8 FFF7FEFF 		bl	HAL_TIM_Encoder_MspInit
 2918 00fc 8DE7     		b	.L376
 2919              	.L377:
 2920 00fe AE68     		ldr	r6, [r5, #8]
 2921 0100 2969     		ldr	r1, [r5, #16]
 2922 0102 EF68     		ldr	r7, [r5, #12]
 2923 0104 6868     		ldr	r0, [r5, #4]
 2924 0106 22F07002 		bic	r2, r2, #112
 2925 010a 3243     		orrs	r2, r2, r6
 2926 010c 22F44072 		bic	r2, r2, #768
 2927 0110 0A43     		orrs	r2, r2, r1
 2928 0112 6969     		ldr	r1, [r5, #20]
 2929 0114 1A60     		str	r2, [r3]
 2930 0116 DF62     		str	r7, [r3, #44]
 2931 0118 9862     		str	r0, [r3, #40]
 2932 011a 1963     		str	r1, [r3, #48]
 2933 011c A9E7     		b	.L384
 2934              	.L386:
 2935 011e 0120     		movs	r0, #1
 2936 0120 7047     		bx	lr
 2937              	.L395:
 2938 0122 00BF     		.align	2
 2939              	.L394:
 2940 0124 00000140 		.word	1073807360
 2942              		.section	.text.HAL_TIM_Encoder_MspDeInit,"ax",%progbits
 2943              		.align	1
 2944              		.p2align 2,,3
 2945              		.weak	HAL_TIM_Encoder_MspDeInit
 2946              		.syntax unified
 2947              		.thumb
 2948              		.thumb_func
 2949              		.fpu fpv4-sp-d16
 2951              	HAL_TIM_Encoder_MspDeInit:
ARM GAS  /tmp/ccnO6l7I.s 			page 51


 2952              		@ args = 0, pretend = 0, frame = 0
 2953              		@ frame_needed = 0, uses_anonymous_args = 0
 2954              		@ link register save eliminated.
 2955 0000 7047     		bx	lr
 2957 0002 00BF     		.section	.text.HAL_TIM_Encoder_DeInit,"ax",%progbits
 2958              		.align	1
 2959              		.p2align 2,,3
 2960              		.global	HAL_TIM_Encoder_DeInit
 2961              		.syntax unified
 2962              		.thumb
 2963              		.thumb_func
 2964              		.fpu fpv4-sp-d16
 2966              	HAL_TIM_Encoder_DeInit:
 2967              		@ args = 0, pretend = 0, frame = 0
 2968              		@ frame_needed = 0, uses_anonymous_args = 0
 2969 0000 0222     		movs	r2, #2
 2970 0002 0368     		ldr	r3, [r0]
 2971 0004 10B5     		push	{r4, lr}
 2972 0006 80F83920 		strb	r2, [r0, #57]
 2973 000a 196A     		ldr	r1, [r3, #32]
 2974 000c 41F21112 		movw	r2, #4369
 2975 0010 1142     		tst	r1, r2
 2976 0012 0446     		mov	r4, r0
 2977 0014 08D1     		bne	.L398
 2978 0016 196A     		ldr	r1, [r3, #32]
 2979 0018 40F24442 		movw	r2, #1092
 2980 001c 1142     		tst	r1, r2
 2981 001e 03D1     		bne	.L398
 2982 0020 1A68     		ldr	r2, [r3]
 2983 0022 22F00102 		bic	r2, r2, #1
 2984 0026 1A60     		str	r2, [r3]
 2985              	.L398:
 2986 0028 2046     		mov	r0, r4
 2987 002a FFF7FEFF 		bl	HAL_TIM_Encoder_MspDeInit
 2988 002e 0020     		movs	r0, #0
 2989 0030 84F83900 		strb	r0, [r4, #57]
 2990 0034 84F83800 		strb	r0, [r4, #56]
 2991 0038 10BD     		pop	{r4, pc}
 2993 003a 00BF     		.section	.text.HAL_TIM_Encoder_Start,"ax",%progbits
 2994              		.align	1
 2995              		.p2align 2,,3
 2996              		.global	HAL_TIM_Encoder_Start
 2997              		.syntax unified
 2998              		.thumb
 2999              		.thumb_func
 3000              		.fpu fpv4-sp-d16
 3002              	HAL_TIM_Encoder_Start:
 3003              		@ args = 0, pretend = 0, frame = 0
 3004              		@ frame_needed = 0, uses_anonymous_args = 0
 3005              		@ link register save eliminated.
 3006 0000 D1B1     		cbz	r1, .L402
 3007 0002 0429     		cmp	r1, #4
 3008 0004 16D0     		beq	.L403
 3009 0006 0368     		ldr	r3, [r0]
 3010 0008 1A6A     		ldr	r2, [r3, #32]
 3011 000a 22F00102 		bic	r2, r2, #1
 3012 000e 1A62     		str	r2, [r3, #32]
ARM GAS  /tmp/ccnO6l7I.s 			page 52


 3013 0010 1A6A     		ldr	r2, [r3, #32]
 3014 0012 42F00102 		orr	r2, r2, #1
 3015 0016 1A62     		str	r2, [r3, #32]
 3016              	.L406:
 3017 0018 1A6A     		ldr	r2, [r3, #32]
 3018 001a 22F01002 		bic	r2, r2, #16
 3019 001e 1A62     		str	r2, [r3, #32]
 3020 0020 1A6A     		ldr	r2, [r3, #32]
 3021 0022 42F01002 		orr	r2, r2, #16
 3022 0026 1A62     		str	r2, [r3, #32]
 3023              	.L404:
 3024 0028 1A68     		ldr	r2, [r3]
 3025 002a 42F00102 		orr	r2, r2, #1
 3026 002e 1A60     		str	r2, [r3]
 3027 0030 0020     		movs	r0, #0
 3028 0032 7047     		bx	lr
 3029              	.L403:
 3030 0034 0368     		ldr	r3, [r0]
 3031 0036 EFE7     		b	.L406
 3032              	.L402:
 3033 0038 0368     		ldr	r3, [r0]
 3034 003a 1A6A     		ldr	r2, [r3, #32]
 3035 003c 22F00102 		bic	r2, r2, #1
 3036 0040 1A62     		str	r2, [r3, #32]
 3037 0042 1A6A     		ldr	r2, [r3, #32]
 3038 0044 42F00102 		orr	r2, r2, #1
 3039 0048 1A62     		str	r2, [r3, #32]
 3040 004a EDE7     		b	.L404
 3042              		.section	.text.HAL_TIM_Encoder_Stop,"ax",%progbits
 3043              		.align	1
 3044              		.p2align 2,,3
 3045              		.global	HAL_TIM_Encoder_Stop
 3046              		.syntax unified
 3047              		.thumb
 3048              		.thumb_func
 3049              		.fpu fpv4-sp-d16
 3051              	HAL_TIM_Encoder_Stop:
 3052              		@ args = 0, pretend = 0, frame = 0
 3053              		@ frame_needed = 0, uses_anonymous_args = 0
 3054              		@ link register save eliminated.
 3055 0000 01B3     		cbz	r1, .L410
 3056 0002 0429     		cmp	r1, #4
 3057 0004 1CD0     		beq	.L411
 3058 0006 0368     		ldr	r3, [r0]
 3059 0008 1A6A     		ldr	r2, [r3, #32]
 3060 000a 22F00102 		bic	r2, r2, #1
 3061 000e 1A62     		str	r2, [r3, #32]
 3062 0010 1A6A     		ldr	r2, [r3, #32]
 3063 0012 1A62     		str	r2, [r3, #32]
 3064              	.L415:
 3065 0014 1A6A     		ldr	r2, [r3, #32]
 3066 0016 22F01002 		bic	r2, r2, #16
 3067 001a 1A62     		str	r2, [r3, #32]
 3068 001c 1A6A     		ldr	r2, [r3, #32]
 3069 001e 1A62     		str	r2, [r3, #32]
 3070              	.L412:
 3071 0020 196A     		ldr	r1, [r3, #32]
ARM GAS  /tmp/ccnO6l7I.s 			page 53


 3072 0022 41F21112 		movw	r2, #4369
 3073 0026 1142     		tst	r1, r2
 3074 0028 08D1     		bne	.L413
 3075 002a 196A     		ldr	r1, [r3, #32]
 3076 002c 40F24442 		movw	r2, #1092
 3077 0030 1142     		tst	r1, r2
 3078 0032 03D1     		bne	.L413
 3079 0034 1A68     		ldr	r2, [r3]
 3080 0036 22F00102 		bic	r2, r2, #1
 3081 003a 1A60     		str	r2, [r3]
 3082              	.L413:
 3083 003c 0020     		movs	r0, #0
 3084 003e 7047     		bx	lr
 3085              	.L411:
 3086 0040 0368     		ldr	r3, [r0]
 3087 0042 E7E7     		b	.L415
 3088              	.L410:
 3089 0044 0368     		ldr	r3, [r0]
 3090 0046 1A6A     		ldr	r2, [r3, #32]
 3091 0048 22F00102 		bic	r2, r2, #1
 3092 004c 1A62     		str	r2, [r3, #32]
 3093 004e 1A6A     		ldr	r2, [r3, #32]
 3094 0050 1A62     		str	r2, [r3, #32]
 3095 0052 E5E7     		b	.L412
 3097              		.section	.text.HAL_TIM_Encoder_Start_IT,"ax",%progbits
 3098              		.align	1
 3099              		.p2align 2,,3
 3100              		.global	HAL_TIM_Encoder_Start_IT
 3101              		.syntax unified
 3102              		.thumb
 3103              		.thumb_func
 3104              		.fpu fpv4-sp-d16
 3106              	HAL_TIM_Encoder_Start_IT:
 3107              		@ args = 0, pretend = 0, frame = 0
 3108              		@ frame_needed = 0, uses_anonymous_args = 0
 3109              		@ link register save eliminated.
 3110 0000 0029     		cmp	r1, #0
 3111 0002 2ED0     		beq	.L419
 3112 0004 0429     		cmp	r1, #4
 3113 0006 1ED0     		beq	.L420
 3114 0008 0368     		ldr	r3, [r0]
 3115 000a 1A6A     		ldr	r2, [r3, #32]
 3116 000c 22F00102 		bic	r2, r2, #1
 3117 0010 1A62     		str	r2, [r3, #32]
 3118 0012 1A6A     		ldr	r2, [r3, #32]
 3119 0014 42F00102 		orr	r2, r2, #1
 3120 0018 1A62     		str	r2, [r3, #32]
 3121 001a 1A6A     		ldr	r2, [r3, #32]
 3122 001c 22F01002 		bic	r2, r2, #16
 3123 0020 1A62     		str	r2, [r3, #32]
 3124 0022 1A6A     		ldr	r2, [r3, #32]
 3125 0024 42F01002 		orr	r2, r2, #16
 3126 0028 1A62     		str	r2, [r3, #32]
 3127 002a DA68     		ldr	r2, [r3, #12]
 3128 002c 42F00202 		orr	r2, r2, #2
 3129 0030 DA60     		str	r2, [r3, #12]
 3130 0032 DA68     		ldr	r2, [r3, #12]
ARM GAS  /tmp/ccnO6l7I.s 			page 54


 3131 0034 42F00402 		orr	r2, r2, #4
 3132 0038 DA60     		str	r2, [r3, #12]
 3133              	.L421:
 3134 003a 1A68     		ldr	r2, [r3]
 3135 003c 42F00102 		orr	r2, r2, #1
 3136 0040 1A60     		str	r2, [r3]
 3137 0042 0020     		movs	r0, #0
 3138 0044 7047     		bx	lr
 3139              	.L420:
 3140 0046 0368     		ldr	r3, [r0]
 3141 0048 1A6A     		ldr	r2, [r3, #32]
 3142 004a 22F01002 		bic	r2, r2, #16
 3143 004e 1A62     		str	r2, [r3, #32]
 3144 0050 1A6A     		ldr	r2, [r3, #32]
 3145 0052 42F01002 		orr	r2, r2, #16
 3146 0056 1A62     		str	r2, [r3, #32]
 3147 0058 DA68     		ldr	r2, [r3, #12]
 3148 005a 42F00402 		orr	r2, r2, #4
 3149 005e DA60     		str	r2, [r3, #12]
 3150 0060 EBE7     		b	.L421
 3151              	.L419:
 3152 0062 0368     		ldr	r3, [r0]
 3153 0064 1A6A     		ldr	r2, [r3, #32]
 3154 0066 22F00102 		bic	r2, r2, #1
 3155 006a 1A62     		str	r2, [r3, #32]
 3156 006c 1A6A     		ldr	r2, [r3, #32]
 3157 006e 42F00102 		orr	r2, r2, #1
 3158 0072 1A62     		str	r2, [r3, #32]
 3159 0074 DA68     		ldr	r2, [r3, #12]
 3160 0076 42F00202 		orr	r2, r2, #2
 3161 007a DA60     		str	r2, [r3, #12]
 3162 007c DDE7     		b	.L421
 3164 007e 00BF     		.section	.text.HAL_TIM_Encoder_Stop_IT,"ax",%progbits
 3165              		.align	1
 3166              		.p2align 2,,3
 3167              		.global	HAL_TIM_Encoder_Stop_IT
 3168              		.syntax unified
 3169              		.thumb
 3170              		.thumb_func
 3171              		.fpu fpv4-sp-d16
 3173              	HAL_TIM_Encoder_Stop_IT:
 3174              		@ args = 0, pretend = 0, frame = 0
 3175              		@ frame_needed = 0, uses_anonymous_args = 0
 3176              		@ link register save eliminated.
 3177 0000 0368     		ldr	r3, [r0]
 3178 0002 1A6A     		ldr	r2, [r3, #32]
 3179 0004 D9B9     		cbnz	r1, .L425
 3180 0006 22F00102 		bic	r2, r2, #1
 3181 000a 1A62     		str	r2, [r3, #32]
 3182 000c 1A6A     		ldr	r2, [r3, #32]
 3183 000e 1A62     		str	r2, [r3, #32]
 3184 0010 DA68     		ldr	r2, [r3, #12]
 3185 0012 22F00202 		bic	r2, r2, #2
 3186 0016 DA60     		str	r2, [r3, #12]
 3187              	.L426:
 3188 0018 196A     		ldr	r1, [r3, #32]
 3189 001a 41F21112 		movw	r2, #4369
ARM GAS  /tmp/ccnO6l7I.s 			page 55


 3190 001e 1142     		tst	r1, r2
 3191 0020 08D1     		bne	.L428
 3192 0022 196A     		ldr	r1, [r3, #32]
 3193 0024 40F24442 		movw	r2, #1092
 3194 0028 1142     		tst	r1, r2
 3195 002a 03D1     		bne	.L428
 3196 002c 1A68     		ldr	r2, [r3]
 3197 002e 22F00102 		bic	r2, r2, #1
 3198 0032 1A60     		str	r2, [r3]
 3199              	.L428:
 3200 0034 0123     		movs	r3, #1
 3201 0036 80F83930 		strb	r3, [r0, #57]
 3202 003a 0020     		movs	r0, #0
 3203 003c 7047     		bx	lr
 3204              	.L425:
 3205 003e 0429     		cmp	r1, #4
 3206 0040 13D0     		beq	.L429
 3207 0042 22F00102 		bic	r2, r2, #1
 3208 0046 1A62     		str	r2, [r3, #32]
 3209 0048 1A6A     		ldr	r2, [r3, #32]
 3210 004a 1A62     		str	r2, [r3, #32]
 3211 004c 1A6A     		ldr	r2, [r3, #32]
 3212 004e 22F01002 		bic	r2, r2, #16
 3213 0052 1A62     		str	r2, [r3, #32]
 3214 0054 1A6A     		ldr	r2, [r3, #32]
 3215 0056 1A62     		str	r2, [r3, #32]
 3216 0058 DA68     		ldr	r2, [r3, #12]
 3217 005a 22F00202 		bic	r2, r2, #2
 3218 005e DA60     		str	r2, [r3, #12]
 3219 0060 DA68     		ldr	r2, [r3, #12]
 3220 0062 22F00402 		bic	r2, r2, #4
 3221 0066 DA60     		str	r2, [r3, #12]
 3222 0068 D6E7     		b	.L426
 3223              	.L429:
 3224 006a 22F01002 		bic	r2, r2, #16
 3225 006e 1A62     		str	r2, [r3, #32]
 3226 0070 1A6A     		ldr	r2, [r3, #32]
 3227 0072 1A62     		str	r2, [r3, #32]
 3228 0074 DA68     		ldr	r2, [r3, #12]
 3229 0076 22F00402 		bic	r2, r2, #4
 3230 007a DA60     		str	r2, [r3, #12]
 3231 007c CCE7     		b	.L426
 3233 007e 00BF     		.section	.text.HAL_TIM_Encoder_Start_DMA,"ax",%progbits
 3234              		.align	1
 3235              		.p2align 2,,3
 3236              		.global	HAL_TIM_Encoder_Start_DMA
 3237              		.syntax unified
 3238              		.thumb
 3239              		.thumb_func
 3240              		.fpu fpv4-sp-d16
 3242              	HAL_TIM_Encoder_Start_DMA:
 3243              		@ args = 4, pretend = 0, frame = 0
 3244              		@ frame_needed = 0, uses_anonymous_args = 0
 3245 0000 2DE9F041 		push	{r4, r5, r6, r7, r8, lr}
 3246 0004 90F83940 		ldrb	r4, [r0, #57]	@ zero_extendqisi2
 3247 0008 BDF81860 		ldrh	r6, [sp, #24]
 3248 000c E4B2     		uxtb	r4, r4
ARM GAS  /tmp/ccnO6l7I.s 			page 56


 3249 000e 022C     		cmp	r4, #2
 3250 0010 0FD0     		beq	.L438
 3251 0012 90F83940 		ldrb	r4, [r0, #57]	@ zero_extendqisi2
 3252 0016 012C     		cmp	r4, #1
 3253 0018 0ED0     		beq	.L446
 3254 001a 0429     		cmp	r1, #4
 3255 001c 1F46     		mov	r7, r3
 3256 001e 0C46     		mov	r4, r1
 3257 0020 0546     		mov	r5, r0
 3258 0022 15D0     		beq	.L435
 3259              	.L448:
 3260 0024 1829     		cmp	r1, #24
 3261 0026 50D0     		beq	.L436
 3262 0028 0029     		cmp	r1, #0
 3263 002a 30D0     		beq	.L447
 3264 002c 0020     		movs	r0, #0
 3265 002e BDE8F081 		pop	{r4, r5, r6, r7, r8, pc}
 3266              	.L438:
 3267 0032 2046     		mov	r0, r4
 3268 0034 BDE8F081 		pop	{r4, r5, r6, r7, r8, pc}
 3269              	.L446:
 3270 0038 002A     		cmp	r2, #0
 3271 003a 7CD0     		beq	.L433
 3272 003c 002B     		cmp	r3, #0
 3273 003e 7AD0     		beq	.L433
 3274              	.L434:
 3275 0040 0224     		movs	r4, #2
 3276 0042 0429     		cmp	r1, #4
 3277 0044 80F83940 		strb	r4, [r0, #57]
 3278 0048 1F46     		mov	r7, r3
 3279 004a 0C46     		mov	r4, r1
 3280 004c 0546     		mov	r5, r0
 3281 004e E9D1     		bne	.L448
 3282              	.L435:
 3283 0050 2968     		ldr	r1, [r5]
 3284 0052 406A     		ldr	r0, [r0, #36]
 3285 0054 3A4B     		ldr	r3, .L449
 3286 0056 3B4C     		ldr	r4, .L449+4
 3287 0058 C363     		str	r3, [r0, #60]
 3288 005a 3A46     		mov	r2, r7
 3289 005c 3346     		mov	r3, r6
 3290 005e C464     		str	r4, [r0, #76]
 3291 0060 3831     		adds	r1, r1, #56
 3292 0062 FFF7FEFF 		bl	HAL_DMA_Start_IT
 3293 0066 2B68     		ldr	r3, [r5]
 3294 0068 DA68     		ldr	r2, [r3, #12]
 3295 006a 42F48062 		orr	r2, r2, #1024
 3296 006e DA60     		str	r2, [r3, #12]
 3297 0070 1A68     		ldr	r2, [r3]
 3298 0072 42F00102 		orr	r2, r2, #1
 3299 0076 1A60     		str	r2, [r3]
 3300 0078 1A6A     		ldr	r2, [r3, #32]
 3301 007a 22F01002 		bic	r2, r2, #16
 3302 007e 1A62     		str	r2, [r3, #32]
 3303 0080 1A6A     		ldr	r2, [r3, #32]
 3304 0082 42F01002 		orr	r2, r2, #16
 3305 0086 1A62     		str	r2, [r3, #32]
ARM GAS  /tmp/ccnO6l7I.s 			page 57


 3306 0088 0020     		movs	r0, #0
 3307 008a BDE8F081 		pop	{r4, r5, r6, r7, r8, pc}
 3308              	.L447:
 3309 008e 2968     		ldr	r1, [r5]
 3310 0090 006A     		ldr	r0, [r0, #32]
 3311 0092 2B4B     		ldr	r3, .L449
 3312 0094 2B4F     		ldr	r7, .L449+4
 3313 0096 C363     		str	r3, [r0, #60]
 3314 0098 C764     		str	r7, [r0, #76]
 3315 009a 3346     		mov	r3, r6
 3316 009c 3431     		adds	r1, r1, #52
 3317 009e FFF7FEFF 		bl	HAL_DMA_Start_IT
 3318 00a2 2B68     		ldr	r3, [r5]
 3319 00a4 DA68     		ldr	r2, [r3, #12]
 3320 00a6 42F40072 		orr	r2, r2, #512
 3321 00aa DA60     		str	r2, [r3, #12]
 3322 00ac 1A68     		ldr	r2, [r3]
 3323 00ae 42F00102 		orr	r2, r2, #1
 3324 00b2 1A60     		str	r2, [r3]
 3325 00b4 1A6A     		ldr	r2, [r3, #32]
 3326 00b6 22F00102 		bic	r2, r2, #1
 3327 00ba 1A62     		str	r2, [r3, #32]
 3328 00bc 1A6A     		ldr	r2, [r3, #32]
 3329 00be 42F00102 		orr	r2, r2, #1
 3330 00c2 2046     		mov	r0, r4
 3331 00c4 1A62     		str	r2, [r3, #32]
 3332 00c6 BDE8F081 		pop	{r4, r5, r6, r7, r8, pc}
 3333              	.L436:
 3334 00ca 2968     		ldr	r1, [r5]
 3335 00cc 006A     		ldr	r0, [r0, #32]
 3336 00ce DFF87080 		ldr	r8, .L449
 3337 00d2 1C4C     		ldr	r4, .L449+4
 3338 00d4 C0F83C80 		str	r8, [r0, #60]
 3339 00d8 3346     		mov	r3, r6
 3340 00da C464     		str	r4, [r0, #76]
 3341 00dc 3431     		adds	r1, r1, #52
 3342 00de FFF7FEFF 		bl	HAL_DMA_Start_IT
 3343 00e2 2968     		ldr	r1, [r5]
 3344 00e4 686A     		ldr	r0, [r5, #36]
 3345 00e6 3346     		mov	r3, r6
 3346 00e8 3A46     		mov	r2, r7
 3347 00ea C0F83C80 		str	r8, [r0, #60]
 3348 00ee C464     		str	r4, [r0, #76]
 3349 00f0 3831     		adds	r1, r1, #56
 3350 00f2 FFF7FEFF 		bl	HAL_DMA_Start_IT
 3351 00f6 2B68     		ldr	r3, [r5]
 3352 00f8 1A68     		ldr	r2, [r3]
 3353 00fa 42F00102 		orr	r2, r2, #1
 3354 00fe 1A60     		str	r2, [r3]
 3355 0100 1A6A     		ldr	r2, [r3, #32]
 3356 0102 22F00102 		bic	r2, r2, #1
 3357 0106 1A62     		str	r2, [r3, #32]
 3358 0108 1A6A     		ldr	r2, [r3, #32]
 3359 010a 42F00102 		orr	r2, r2, #1
 3360 010e 1A62     		str	r2, [r3, #32]
 3361 0110 1A6A     		ldr	r2, [r3, #32]
 3362 0112 22F01002 		bic	r2, r2, #16
ARM GAS  /tmp/ccnO6l7I.s 			page 58


 3363 0116 1A62     		str	r2, [r3, #32]
 3364 0118 1A6A     		ldr	r2, [r3, #32]
 3365 011a 42F01002 		orr	r2, r2, #16
 3366 011e 1A62     		str	r2, [r3, #32]
 3367 0120 DA68     		ldr	r2, [r3, #12]
 3368 0122 42F40072 		orr	r2, r2, #512
 3369 0126 DA60     		str	r2, [r3, #12]
 3370 0128 DA68     		ldr	r2, [r3, #12]
 3371 012a 42F48062 		orr	r2, r2, #1024
 3372 012e DA60     		str	r2, [r3, #12]
 3373 0130 0020     		movs	r0, #0
 3374 0132 BDE8F081 		pop	{r4, r5, r6, r7, r8, pc}
 3375              	.L433:
 3376 0136 002E     		cmp	r6, #0
 3377 0138 82D0     		beq	.L434
 3378 013a 0120     		movs	r0, #1
 3379 013c BDE8F081 		pop	{r4, r5, r6, r7, r8, pc}
 3380              	.L450:
 3381              		.align	2
 3382              	.L449:
 3383 0140 00000000 		.word	TIM_DMACaptureCplt
 3384 0144 00000000 		.word	TIM_DMAError
 3386              		.section	.text.HAL_TIM_Encoder_Stop_DMA,"ax",%progbits
 3387              		.align	1
 3388              		.p2align 2,,3
 3389              		.global	HAL_TIM_Encoder_Stop_DMA
 3390              		.syntax unified
 3391              		.thumb
 3392              		.thumb_func
 3393              		.fpu fpv4-sp-d16
 3395              	HAL_TIM_Encoder_Stop_DMA:
 3396              		@ args = 0, pretend = 0, frame = 0
 3397              		@ frame_needed = 0, uses_anonymous_args = 0
 3398              		@ link register save eliminated.
 3399 0000 0368     		ldr	r3, [r0]
 3400 0002 1A6A     		ldr	r2, [r3, #32]
 3401 0004 D9B9     		cbnz	r1, .L452
 3402 0006 22F00102 		bic	r2, r2, #1
 3403 000a 1A62     		str	r2, [r3, #32]
 3404 000c 1A6A     		ldr	r2, [r3, #32]
 3405 000e 1A62     		str	r2, [r3, #32]
 3406 0010 DA68     		ldr	r2, [r3, #12]
 3407 0012 22F40072 		bic	r2, r2, #512
 3408 0016 DA60     		str	r2, [r3, #12]
 3409              	.L453:
 3410 0018 196A     		ldr	r1, [r3, #32]
 3411 001a 41F21112 		movw	r2, #4369
 3412 001e 1142     		tst	r1, r2
 3413 0020 08D1     		bne	.L455
 3414 0022 196A     		ldr	r1, [r3, #32]
 3415 0024 40F24442 		movw	r2, #1092
 3416 0028 1142     		tst	r1, r2
 3417 002a 03D1     		bne	.L455
 3418 002c 1A68     		ldr	r2, [r3]
 3419 002e 22F00102 		bic	r2, r2, #1
 3420 0032 1A60     		str	r2, [r3]
 3421              	.L455:
ARM GAS  /tmp/ccnO6l7I.s 			page 59


 3422 0034 0123     		movs	r3, #1
 3423 0036 80F83930 		strb	r3, [r0, #57]
 3424 003a 0020     		movs	r0, #0
 3425 003c 7047     		bx	lr
 3426              	.L452:
 3427 003e 0429     		cmp	r1, #4
 3428 0040 13D0     		beq	.L456
 3429 0042 22F00102 		bic	r2, r2, #1
 3430 0046 1A62     		str	r2, [r3, #32]
 3431 0048 1A6A     		ldr	r2, [r3, #32]
 3432 004a 1A62     		str	r2, [r3, #32]
 3433 004c 1A6A     		ldr	r2, [r3, #32]
 3434 004e 22F01002 		bic	r2, r2, #16
 3435 0052 1A62     		str	r2, [r3, #32]
 3436 0054 1A6A     		ldr	r2, [r3, #32]
 3437 0056 1A62     		str	r2, [r3, #32]
 3438 0058 DA68     		ldr	r2, [r3, #12]
 3439 005a 22F40072 		bic	r2, r2, #512
 3440 005e DA60     		str	r2, [r3, #12]
 3441 0060 DA68     		ldr	r2, [r3, #12]
 3442 0062 22F48062 		bic	r2, r2, #1024
 3443 0066 DA60     		str	r2, [r3, #12]
 3444 0068 D6E7     		b	.L453
 3445              	.L456:
 3446 006a 22F01002 		bic	r2, r2, #16
 3447 006e 1A62     		str	r2, [r3, #32]
 3448 0070 1A6A     		ldr	r2, [r3, #32]
 3449 0072 1A62     		str	r2, [r3, #32]
 3450 0074 DA68     		ldr	r2, [r3, #12]
 3451 0076 22F48062 		bic	r2, r2, #1024
 3452 007a DA60     		str	r2, [r3, #12]
 3453 007c CCE7     		b	.L453
 3455 007e 00BF     		.section	.text.HAL_TIM_OC_ConfigChannel,"ax",%progbits
 3456              		.align	1
 3457              		.p2align 2,,3
 3458              		.global	HAL_TIM_OC_ConfigChannel
 3459              		.syntax unified
 3460              		.thumb
 3461              		.thumb_func
 3462              		.fpu fpv4-sp-d16
 3464              	HAL_TIM_OC_ConfigChannel:
 3465              		@ args = 0, pretend = 0, frame = 0
 3466              		@ frame_needed = 0, uses_anonymous_args = 0
 3467 0000 90F83830 		ldrb	r3, [r0, #56]	@ zero_extendqisi2
 3468 0004 012B     		cmp	r3, #1
 3469 0006 34D0     		beq	.L469
 3470 0008 F0B5     		push	{r4, r5, r6, r7, lr}
 3471 000a 0223     		movs	r3, #2
 3472 000c 0124     		movs	r4, #1
 3473 000e 80F83840 		strb	r4, [r0, #56]
 3474 0012 80F83930 		strb	r3, [r0, #57]
 3475 0016 0C2A     		cmp	r2, #12
 3476 0018 23D8     		bhi	.L459
 3477 001a DFE802F0 		tbb	[pc, r2]
 3478              	.L461:
 3479 001e 48       		.byte	(.L460-.L461)/2
 3480 001f 22       		.byte	(.L459-.L461)/2
ARM GAS  /tmp/ccnO6l7I.s 			page 60


 3481 0020 22       		.byte	(.L459-.L461)/2
 3482 0021 22       		.byte	(.L459-.L461)/2
 3483 0022 07       		.byte	(.L462-.L461)/2
 3484 0023 22       		.byte	(.L459-.L461)/2
 3485 0024 22       		.byte	(.L459-.L461)/2
 3486 0025 22       		.byte	(.L459-.L461)/2
 3487 0026 64       		.byte	(.L463-.L461)/2
 3488 0027 22       		.byte	(.L459-.L461)/2
 3489 0028 22       		.byte	(.L459-.L461)/2
 3490 0029 22       		.byte	(.L459-.L461)/2
 3491 002a 2C       		.byte	(.L464-.L461)/2
 3492 002b 00       		.p2align 1
 3493              	.L462:
 3494 002c 0368     		ldr	r3, [r0]
 3495 002e 8F68     		ldr	r7, [r1, #8]
 3496 0030 1D6A     		ldr	r5, [r3, #32]
 3497 0032 0E68     		ldr	r6, [r1]
 3498 0034 DFF84CE1 		ldr	lr, .L478
 3499 0038 25F01005 		bic	r5, r5, #16
 3500 003c 1D62     		str	r5, [r3, #32]
 3501 003e 1A6A     		ldr	r2, [r3, #32]
 3502 0040 5D68     		ldr	r5, [r3, #4]
 3503 0042 9C69     		ldr	r4, [r3, #24]
 3504 0044 22F02002 		bic	r2, r2, #32
 3505 0048 24F4E644 		bic	r4, r4, #29440
 3506 004c 7345     		cmp	r3, lr
 3507 004e 42EA0712 		orr	r2, r2, r7, lsl #4
 3508 0052 44EA0624 		orr	r4, r4, r6, lsl #8
 3509 0056 77D0     		beq	.L474
 3510              	.L466:
 3511 0058 4968     		ldr	r1, [r1, #4]
 3512 005a 5D60     		str	r5, [r3, #4]
 3513 005c 9C61     		str	r4, [r3, #24]
 3514 005e 9963     		str	r1, [r3, #56]
 3515 0060 1A62     		str	r2, [r3, #32]
 3516              	.L459:
 3517 0062 0023     		movs	r3, #0
 3518 0064 0122     		movs	r2, #1
 3519 0066 80F83920 		strb	r2, [r0, #57]
 3520 006a 80F83830 		strb	r3, [r0, #56]
 3521 006e 1846     		mov	r0, r3
 3522 0070 F0BD     		pop	{r4, r5, r6, r7, pc}
 3523              	.L469:
 3524 0072 0220     		movs	r0, #2
 3525 0074 7047     		bx	lr
 3526              	.L464:
 3527 0076 0368     		ldr	r3, [r0]
 3528 0078 8F68     		ldr	r7, [r1, #8]
 3529 007a 1D6A     		ldr	r5, [r3, #32]
 3530 007c 0E68     		ldr	r6, [r1]
 3531 007e DFF804E1 		ldr	lr, .L478
 3532 0082 25F48055 		bic	r5, r5, #4096
 3533 0086 1D62     		str	r5, [r3, #32]
 3534 0088 1A6A     		ldr	r2, [r3, #32]
 3535 008a 5D68     		ldr	r5, [r3, #4]
 3536 008c DC69     		ldr	r4, [r3, #28]
 3537 008e 22F40052 		bic	r2, r2, #8192
ARM GAS  /tmp/ccnO6l7I.s 			page 61


 3538 0092 24F4E644 		bic	r4, r4, #29440
 3539 0096 7345     		cmp	r3, lr
 3540 0098 42EA0732 		orr	r2, r2, r7, lsl #12
 3541 009c 44EA0624 		orr	r4, r4, r6, lsl #8
 3542 00a0 3DD0     		beq	.L475
 3543              	.L468:
 3544 00a2 4968     		ldr	r1, [r1, #4]
 3545 00a4 5D60     		str	r5, [r3, #4]
 3546 00a6 DC61     		str	r4, [r3, #28]
 3547 00a8 1964     		str	r1, [r3, #64]
 3548 00aa 1A62     		str	r2, [r3, #32]
 3549 00ac D9E7     		b	.L459
 3550              	.L460:
 3551 00ae 0368     		ldr	r3, [r0]
 3552 00b0 D1F808C0 		ldr	ip, [r1, #8]
 3553 00b4 1D6A     		ldr	r5, [r3, #32]
 3554 00b6 0F68     		ldr	r7, [r1]
 3555 00b8 324E     		ldr	r6, .L478
 3556 00ba 25F00105 		bic	r5, r5, #1
 3557 00be 1D62     		str	r5, [r3, #32]
 3558 00c0 1A6A     		ldr	r2, [r3, #32]
 3559 00c2 5D68     		ldr	r5, [r3, #4]
 3560 00c4 9C69     		ldr	r4, [r3, #24]
 3561 00c6 22F00202 		bic	r2, r2, #2
 3562 00ca 24F07304 		bic	r4, r4, #115
 3563 00ce B342     		cmp	r3, r6
 3564 00d0 42EA0C02 		orr	r2, r2, ip
 3565 00d4 44EA0704 		orr	r4, r4, r7
 3566 00d8 45D0     		beq	.L476
 3567              	.L465:
 3568 00da 4968     		ldr	r1, [r1, #4]
 3569 00dc 5D60     		str	r5, [r3, #4]
 3570 00de 9C61     		str	r4, [r3, #24]
 3571 00e0 5963     		str	r1, [r3, #52]
 3572 00e2 1A62     		str	r2, [r3, #32]
 3573 00e4 BDE7     		b	.L459
 3574              	.L463:
 3575 00e6 0368     		ldr	r3, [r0]
 3576 00e8 8F68     		ldr	r7, [r1, #8]
 3577 00ea 1D6A     		ldr	r5, [r3, #32]
 3578 00ec 0E68     		ldr	r6, [r1]
 3579 00ee DFF894E0 		ldr	lr, .L478
 3580 00f2 25F48075 		bic	r5, r5, #256
 3581 00f6 1D62     		str	r5, [r3, #32]
 3582 00f8 1A6A     		ldr	r2, [r3, #32]
 3583 00fa 5D68     		ldr	r5, [r3, #4]
 3584 00fc DC69     		ldr	r4, [r3, #28]
 3585 00fe 22F40072 		bic	r2, r2, #512
 3586 0102 24F07304 		bic	r4, r4, #115
 3587 0106 7345     		cmp	r3, lr
 3588 0108 42EA0722 		orr	r2, r2, r7, lsl #8
 3589 010c 44EA0604 		orr	r4, r4, r6
 3590 0110 0BD0     		beq	.L477
 3591              	.L467:
 3592 0112 4968     		ldr	r1, [r1, #4]
 3593 0114 5D60     		str	r5, [r3, #4]
 3594 0116 DC61     		str	r4, [r3, #28]
ARM GAS  /tmp/ccnO6l7I.s 			page 62


 3595 0118 D963     		str	r1, [r3, #60]
 3596 011a 1A62     		str	r2, [r3, #32]
 3597 011c A1E7     		b	.L459
 3598              	.L475:
 3599 011e 4E69     		ldr	r6, [r1, #20]
 3600 0120 25F48045 		bic	r5, r5, #16384
 3601 0124 45EA8615 		orr	r5, r5, r6, lsl #6
 3602 0128 BBE7     		b	.L468
 3603              	.L477:
 3604 012a 25F44056 		bic	r6, r5, #12288
 3605 012e CD68     		ldr	r5, [r1, #12]
 3606 0130 4F69     		ldr	r7, [r1, #20]
 3607 0132 22F40062 		bic	r2, r2, #2048
 3608 0136 42EA0522 		orr	r2, r2, r5, lsl #8
 3609 013a 8D69     		ldr	r5, [r1, #24]
 3610 013c 3D43     		orrs	r5, r5, r7
 3611 013e 22F48062 		bic	r2, r2, #1024
 3612 0142 46EA0515 		orr	r5, r6, r5, lsl #4
 3613 0146 E4E7     		b	.L467
 3614              	.L474:
 3615 0148 25F44066 		bic	r6, r5, #3072
 3616 014c CD68     		ldr	r5, [r1, #12]
 3617 014e 4F69     		ldr	r7, [r1, #20]
 3618 0150 22F08002 		bic	r2, r2, #128
 3619 0154 42EA0512 		orr	r2, r2, r5, lsl #4
 3620 0158 8D69     		ldr	r5, [r1, #24]
 3621 015a 3D43     		orrs	r5, r5, r7
 3622 015c 22F04002 		bic	r2, r2, #64
 3623 0160 46EA8505 		orr	r5, r6, r5, lsl #2
 3624 0164 78E7     		b	.L466
 3625              	.L476:
 3626 0166 25F4407E 		bic	lr, r5, #768
 3627 016a CF68     		ldr	r7, [r1, #12]
 3628 016c 8E69     		ldr	r6, [r1, #24]
 3629 016e 4D69     		ldr	r5, [r1, #20]
 3630 0170 22F00802 		bic	r2, r2, #8
 3631 0174 3A43     		orrs	r2, r2, r7
 3632 0176 3543     		orrs	r5, r5, r6
 3633 0178 22F00402 		bic	r2, r2, #4
 3634 017c 45EA0E05 		orr	r5, r5, lr
 3635 0180 ABE7     		b	.L465
 3636              	.L479:
 3637 0182 00BF     		.align	2
 3638              	.L478:
 3639 0184 00000140 		.word	1073807360
 3641              		.section	.text.HAL_TIM_IC_ConfigChannel,"ax",%progbits
 3642              		.align	1
 3643              		.p2align 2,,3
 3644              		.global	HAL_TIM_IC_ConfigChannel
 3645              		.syntax unified
 3646              		.thumb
 3647              		.thumb_func
 3648              		.fpu fpv4-sp-d16
 3650              	HAL_TIM_IC_ConfigChannel:
 3651              		@ args = 0, pretend = 0, frame = 0
 3652              		@ frame_needed = 0, uses_anonymous_args = 0
 3653 0000 90F83830 		ldrb	r3, [r0, #56]	@ zero_extendqisi2
ARM GAS  /tmp/ccnO6l7I.s 			page 63


 3654 0004 012B     		cmp	r3, #1
 3655 0006 3AD0     		beq	.L489
 3656 0008 F0B5     		push	{r4, r5, r6, r7, lr}
 3657 000a 0223     		movs	r3, #2
 3658 000c 0124     		movs	r4, #1
 3659 000e 80F83930 		strb	r3, [r0, #57]
 3660 0012 80F83840 		strb	r4, [r0, #56]
 3661 0016 0368     		ldr	r3, [r0]
 3662 0018 002A     		cmp	r2, #0
 3663 001a 32D0     		beq	.L499
 3664 001c 042A     		cmp	r2, #4
 3665 001e 68D0     		beq	.L500
 3666 0020 082A     		cmp	r2, #8
 3667 0022 0A68     		ldr	r2, [r1]
 3668 0024 00F08F80 		beq	.L501
 3669 0028 1D6A     		ldr	r5, [r3, #32]
 3670 002a D1F804E0 		ldr	lr, [r1, #4]
 3671 002e CC68     		ldr	r4, [r1, #12]
 3672 0030 8E68     		ldr	r6, [r1, #8]
 3673 0032 25F48055 		bic	r5, r5, #4096
 3674 0036 1D62     		str	r5, [r3, #32]
 3675 0038 DD69     		ldr	r5, [r3, #28]
 3676 003a 1F6A     		ldr	r7, [r3, #32]
 3677 003c 25F44075 		bic	r5, r5, #768
 3678 0040 2103     		lsls	r1, r4, #12
 3679 0042 1203     		lsls	r2, r2, #12
 3680 0044 45EA0E24 		orr	r4, r5, lr, lsl #8
 3681 0048 02F42042 		and	r2, r2, #40960
 3682 004c 89B2     		uxth	r1, r1
 3683 004e 24F47044 		bic	r4, r4, #61440
 3684 0052 27F42045 		bic	r5, r7, #40960
 3685 0056 2A43     		orrs	r2, r2, r5
 3686 0058 2143     		orrs	r1, r1, r4
 3687 005a D961     		str	r1, [r3, #28]
 3688 005c 1A62     		str	r2, [r3, #32]
 3689 005e DA69     		ldr	r2, [r3, #28]
 3690 0060 22F44062 		bic	r2, r2, #3072
 3691 0064 DA61     		str	r2, [r3, #28]
 3692 0066 DA69     		ldr	r2, [r3, #28]
 3693 0068 42EA0626 		orr	r6, r2, r6, lsl #8
 3694 006c DE61     		str	r6, [r3, #28]
 3695              	.L485:
 3696 006e 0023     		movs	r3, #0
 3697 0070 0122     		movs	r2, #1
 3698 0072 80F83920 		strb	r2, [r0, #57]
 3699 0076 80F83830 		strb	r3, [r0, #56]
 3700 007a 1846     		mov	r0, r3
 3701 007c F0BD     		pop	{r4, r5, r6, r7, pc}
 3702              	.L489:
 3703 007e 0220     		movs	r0, #2
 3704 0080 7047     		bx	lr
 3705              	.L499:
 3706 0082 1E6A     		ldr	r6, [r3, #32]
 3707 0084 414F     		ldr	r7, .L502
 3708 0086 CC68     		ldr	r4, [r1, #12]
 3709 0088 26F00106 		bic	r6, r6, #1
 3710 008c 91E82040 		ldm	r1, {r5, lr}
ARM GAS  /tmp/ccnO6l7I.s 			page 64


 3711 0090 BB42     		cmp	r3, r7
 3712 0092 1E62     		str	r6, [r3, #32]
 3713 0094 9A69     		ldr	r2, [r3, #24]
 3714 0096 1E6A     		ldr	r6, [r3, #32]
 3715 0098 50D0     		beq	.L483
 3716 009a B3F1804F 		cmp	r3, #1073741824
 3717 009e 4DD0     		beq	.L483
 3718 00a0 A7F57C47 		sub	r7, r7, #64512
 3719 00a4 BB42     		cmp	r3, r7
 3720 00a6 49D0     		beq	.L483
 3721 00a8 07F58067 		add	r7, r7, #1024
 3722 00ac BB42     		cmp	r3, r7
 3723 00ae 45D0     		beq	.L483
 3724 00b0 07F58067 		add	r7, r7, #1024
 3725 00b4 BB42     		cmp	r3, r7
 3726 00b6 41D0     		beq	.L483
 3727 00b8 07F59A37 		add	r7, r7, #78848
 3728 00bc BB42     		cmp	r3, r7
 3729 00be 3DD0     		beq	.L483
 3730 00c0 22F00302 		bic	r2, r2, #3
 3731 00c4 42F00102 		orr	r2, r2, #1
 3732              	.L488:
 3733 00c8 2401     		lsls	r4, r4, #4
 3734 00ca E4B2     		uxtb	r4, r4
 3735 00cc 22F0F002 		bic	r2, r2, #240
 3736 00d0 26F00A06 		bic	r6, r6, #10
 3737 00d4 05F00A05 		and	r5, r5, #10
 3738 00d8 2243     		orrs	r2, r2, r4
 3739 00da 3543     		orrs	r5, r5, r6
 3740 00dc 9A61     		str	r2, [r3, #24]
 3741 00de 1D62     		str	r5, [r3, #32]
 3742 00e0 9C69     		ldr	r4, [r3, #24]
 3743 00e2 8D68     		ldr	r5, [r1, #8]
 3744 00e4 24F00C04 		bic	r4, r4, #12
 3745 00e8 9C61     		str	r4, [r3, #24]
 3746 00ea 9A69     		ldr	r2, [r3, #24]
 3747 00ec 2A43     		orrs	r2, r2, r5
 3748 00ee 9A61     		str	r2, [r3, #24]
 3749 00f0 BDE7     		b	.L485
 3750              	.L500:
 3751 00f2 1D6A     		ldr	r5, [r3, #32]
 3752 00f4 0A68     		ldr	r2, [r1]
 3753 00f6 D1F804E0 		ldr	lr, [r1, #4]
 3754 00fa CC68     		ldr	r4, [r1, #12]
 3755 00fc 8E68     		ldr	r6, [r1, #8]
 3756 00fe 25F01005 		bic	r5, r5, #16
 3757 0102 1D62     		str	r5, [r3, #32]
 3758 0104 9D69     		ldr	r5, [r3, #24]
 3759 0106 1F6A     		ldr	r7, [r3, #32]
 3760 0108 25F44075 		bic	r5, r5, #768
 3761 010c 2103     		lsls	r1, r4, #12
 3762 010e 1201     		lsls	r2, r2, #4
 3763 0110 45EA0E24 		orr	r4, r5, lr, lsl #8
 3764 0114 02F0A002 		and	r2, r2, #160
 3765 0118 89B2     		uxth	r1, r1
 3766 011a 24F47044 		bic	r4, r4, #61440
 3767 011e 27F0A005 		bic	r5, r7, #160
ARM GAS  /tmp/ccnO6l7I.s 			page 65


 3768 0122 2A43     		orrs	r2, r2, r5
 3769 0124 2143     		orrs	r1, r1, r4
 3770 0126 9961     		str	r1, [r3, #24]
 3771 0128 1A62     		str	r2, [r3, #32]
 3772 012a 9A69     		ldr	r2, [r3, #24]
 3773 012c 22F44062 		bic	r2, r2, #3072
 3774 0130 9A61     		str	r2, [r3, #24]
 3775 0132 9A69     		ldr	r2, [r3, #24]
 3776 0134 42EA0626 		orr	r6, r2, r6, lsl #8
 3777 0138 9E61     		str	r6, [r3, #24]
 3778 013a 98E7     		b	.L485
 3779              	.L483:
 3780 013c 22F00302 		bic	r2, r2, #3
 3781 0140 4EEA0202 		orr	r2, lr, r2
 3782 0144 C0E7     		b	.L488
 3783              	.L501:
 3784 0146 1F6A     		ldr	r7, [r3, #32]
 3785 0148 4D68     		ldr	r5, [r1, #4]
 3786 014a CC68     		ldr	r4, [r1, #12]
 3787 014c 8E68     		ldr	r6, [r1, #8]
 3788 014e 27F48077 		bic	r7, r7, #256
 3789 0152 1F62     		str	r7, [r3, #32]
 3790 0154 D969     		ldr	r1, [r3, #28]
 3791 0156 1F6A     		ldr	r7, [r3, #32]
 3792 0158 21F0030E 		bic	lr, r1, #3
 3793 015c 1202     		lsls	r2, r2, #8
 3794 015e 2101     		lsls	r1, r4, #4
 3795 0160 45EA0E04 		orr	r4, r5, lr
 3796 0164 02F42062 		and	r2, r2, #2560
 3797 0168 C9B2     		uxtb	r1, r1
 3798 016a 24F0F004 		bic	r4, r4, #240
 3799 016e 27F42065 		bic	r5, r7, #2560
 3800 0172 2A43     		orrs	r2, r2, r5
 3801 0174 2143     		orrs	r1, r1, r4
 3802 0176 D961     		str	r1, [r3, #28]
 3803 0178 1A62     		str	r2, [r3, #32]
 3804 017a DA69     		ldr	r2, [r3, #28]
 3805 017c 22F00C02 		bic	r2, r2, #12
 3806 0180 DA61     		str	r2, [r3, #28]
 3807 0182 DA69     		ldr	r2, [r3, #28]
 3808 0184 3243     		orrs	r2, r2, r6
 3809 0186 DA61     		str	r2, [r3, #28]
 3810 0188 71E7     		b	.L485
 3811              	.L503:
 3812 018a 00BF     		.align	2
 3813              	.L502:
 3814 018c 00000140 		.word	1073807360
 3816              		.section	.text.HAL_TIM_PWM_ConfigChannel,"ax",%progbits
 3817              		.align	1
 3818              		.p2align 2,,3
 3819              		.global	HAL_TIM_PWM_ConfigChannel
 3820              		.syntax unified
 3821              		.thumb
 3822              		.thumb_func
 3823              		.fpu fpv4-sp-d16
 3825              	HAL_TIM_PWM_ConfigChannel:
 3826              		@ args = 0, pretend = 0, frame = 0
ARM GAS  /tmp/ccnO6l7I.s 			page 66


 3827              		@ frame_needed = 0, uses_anonymous_args = 0
 3828 0000 90F83830 		ldrb	r3, [r0, #56]	@ zero_extendqisi2
 3829 0004 012B     		cmp	r3, #1
 3830 0006 44D0     		beq	.L516
 3831 0008 F0B5     		push	{r4, r5, r6, r7, lr}
 3832 000a 0223     		movs	r3, #2
 3833 000c 0124     		movs	r4, #1
 3834 000e 80F83840 		strb	r4, [r0, #56]
 3835 0012 80F83930 		strb	r3, [r0, #57]
 3836 0016 0C2A     		cmp	r2, #12
 3837 0018 33D8     		bhi	.L506
 3838 001a DFE802F0 		tbb	[pc, r2]
 3839              	.L508:
 3840 001e 67       		.byte	(.L507-.L508)/2
 3841 001f 32       		.byte	(.L506-.L508)/2
 3842 0020 32       		.byte	(.L506-.L508)/2
 3843 0021 32       		.byte	(.L506-.L508)/2
 3844 0022 07       		.byte	(.L509-.L508)/2
 3845 0023 32       		.byte	(.L506-.L508)/2
 3846 0024 32       		.byte	(.L506-.L508)/2
 3847 0025 32       		.byte	(.L506-.L508)/2
 3848 0026 91       		.byte	(.L510-.L508)/2
 3849 0027 32       		.byte	(.L506-.L508)/2
 3850 0028 32       		.byte	(.L506-.L508)/2
 3851 0029 32       		.byte	(.L506-.L508)/2
 3852 002a 3C       		.byte	(.L511-.L508)/2
 3853 002b 00       		.p2align 1
 3854              	.L509:
 3855 002c 0368     		ldr	r3, [r0]
 3856 002e 8F68     		ldr	r7, [r1, #8]
 3857 0030 1D6A     		ldr	r5, [r3, #32]
 3858 0032 0E68     		ldr	r6, [r1]
 3859 0034 DFF8C0C1 		ldr	ip, .L525
 3860 0038 25F01005 		bic	r5, r5, #16
 3861 003c 1D62     		str	r5, [r3, #32]
 3862 003e 1A6A     		ldr	r2, [r3, #32]
 3863 0040 D3F804E0 		ldr	lr, [r3, #4]
 3864 0044 9C69     		ldr	r4, [r3, #24]
 3865 0046 22F02002 		bic	r2, r2, #32
 3866 004a 24F4E644 		bic	r4, r4, #29440
 3867 004e 6345     		cmp	r3, ip
 3868 0050 42EA0712 		orr	r2, r2, r7, lsl #4
 3869 0054 44EA0624 		orr	r4, r4, r6, lsl #8
 3870 0058 00F0B180 		beq	.L521
 3871              	.L513:
 3872 005c 4D68     		ldr	r5, [r1, #4]
 3873 005e C3F804E0 		str	lr, [r3, #4]
 3874 0062 9C61     		str	r4, [r3, #24]
 3875 0064 9D63     		str	r5, [r3, #56]
 3876 0066 1A62     		str	r2, [r3, #32]
 3877 0068 9C69     		ldr	r4, [r3, #24]
 3878 006a 0D69     		ldr	r5, [r1, #16]
 3879 006c 44F40064 		orr	r4, r4, #2048
 3880 0070 9C61     		str	r4, [r3, #24]
 3881 0072 9969     		ldr	r1, [r3, #24]
 3882 0074 21F48061 		bic	r1, r1, #1024
 3883 0078 9961     		str	r1, [r3, #24]
ARM GAS  /tmp/ccnO6l7I.s 			page 67


 3884 007a 9A69     		ldr	r2, [r3, #24]
 3885 007c 42EA0522 		orr	r2, r2, r5, lsl #8
 3886 0080 9A61     		str	r2, [r3, #24]
 3887              	.L506:
 3888 0082 0023     		movs	r3, #0
 3889 0084 0122     		movs	r2, #1
 3890 0086 80F83920 		strb	r2, [r0, #57]
 3891 008a 80F83830 		strb	r3, [r0, #56]
 3892 008e 1846     		mov	r0, r3
 3893 0090 F0BD     		pop	{r4, r5, r6, r7, pc}
 3894              	.L516:
 3895 0092 0220     		movs	r0, #2
 3896 0094 7047     		bx	lr
 3897              	.L511:
 3898 0096 0368     		ldr	r3, [r0]
 3899 0098 8F68     		ldr	r7, [r1, #8]
 3900 009a 1D6A     		ldr	r5, [r3, #32]
 3901 009c 0E68     		ldr	r6, [r1]
 3902 009e DFF858E1 		ldr	lr, .L525
 3903 00a2 25F48055 		bic	r5, r5, #4096
 3904 00a6 1D62     		str	r5, [r3, #32]
 3905 00a8 1A6A     		ldr	r2, [r3, #32]
 3906 00aa D3F804C0 		ldr	ip, [r3, #4]
 3907 00ae DC69     		ldr	r4, [r3, #28]
 3908 00b0 22F40052 		bic	r2, r2, #8192
 3909 00b4 24F4E644 		bic	r4, r4, #29440
 3910 00b8 7345     		cmp	r3, lr
 3911 00ba 42EA0732 		orr	r2, r2, r7, lsl #12
 3912 00be 44EA0624 		orr	r4, r4, r6, lsl #8
 3913 00c2 67D0     		beq	.L522
 3914              	.L515:
 3915 00c4 4D68     		ldr	r5, [r1, #4]
 3916 00c6 C3F804C0 		str	ip, [r3, #4]
 3917 00ca DC61     		str	r4, [r3, #28]
 3918 00cc 1D64     		str	r5, [r3, #64]
 3919 00ce 1A62     		str	r2, [r3, #32]
 3920 00d0 DC69     		ldr	r4, [r3, #28]
 3921 00d2 0D69     		ldr	r5, [r1, #16]
 3922 00d4 44F40064 		orr	r4, r4, #2048
 3923 00d8 DC61     		str	r4, [r3, #28]
 3924 00da D969     		ldr	r1, [r3, #28]
 3925 00dc 21F48061 		bic	r1, r1, #1024
 3926 00e0 D961     		str	r1, [r3, #28]
 3927 00e2 DA69     		ldr	r2, [r3, #28]
 3928 00e4 42EA0522 		orr	r2, r2, r5, lsl #8
 3929 00e8 DA61     		str	r2, [r3, #28]
 3930 00ea CAE7     		b	.L506
 3931              	.L507:
 3932 00ec 0368     		ldr	r3, [r0]
 3933 00ee D1F808C0 		ldr	ip, [r1, #8]
 3934 00f2 1D6A     		ldr	r5, [r3, #32]
 3935 00f4 0F68     		ldr	r7, [r1]
 3936 00f6 404E     		ldr	r6, .L525
 3937 00f8 25F00105 		bic	r5, r5, #1
 3938 00fc 1D62     		str	r5, [r3, #32]
 3939 00fe 1A6A     		ldr	r2, [r3, #32]
 3940 0100 D3F804E0 		ldr	lr, [r3, #4]
ARM GAS  /tmp/ccnO6l7I.s 			page 68


 3941 0104 9C69     		ldr	r4, [r3, #24]
 3942 0106 22F00202 		bic	r2, r2, #2
 3943 010a 24F07304 		bic	r4, r4, #115
 3944 010e B342     		cmp	r3, r6
 3945 0110 42EA0C02 		orr	r2, r2, ip
 3946 0114 44EA0704 		orr	r4, r4, r7
 3947 0118 60D0     		beq	.L523
 3948              	.L512:
 3949 011a 4D68     		ldr	r5, [r1, #4]
 3950 011c C3F804E0 		str	lr, [r3, #4]
 3951 0120 9C61     		str	r4, [r3, #24]
 3952 0122 5D63     		str	r5, [r3, #52]
 3953 0124 1A62     		str	r2, [r3, #32]
 3954 0126 9C69     		ldr	r4, [r3, #24]
 3955 0128 0D69     		ldr	r5, [r1, #16]
 3956 012a 44F00804 		orr	r4, r4, #8
 3957 012e 9C61     		str	r4, [r3, #24]
 3958 0130 9969     		ldr	r1, [r3, #24]
 3959 0132 21F00401 		bic	r1, r1, #4
 3960 0136 9961     		str	r1, [r3, #24]
 3961 0138 9A69     		ldr	r2, [r3, #24]
 3962 013a 2A43     		orrs	r2, r2, r5
 3963 013c 9A61     		str	r2, [r3, #24]
 3964 013e A0E7     		b	.L506
 3965              	.L510:
 3966 0140 0368     		ldr	r3, [r0]
 3967 0142 8F68     		ldr	r7, [r1, #8]
 3968 0144 1D6A     		ldr	r5, [r3, #32]
 3969 0146 0E68     		ldr	r6, [r1]
 3970 0148 DFF8ACC0 		ldr	ip, .L525
 3971 014c 25F48075 		bic	r5, r5, #256
 3972 0150 1D62     		str	r5, [r3, #32]
 3973 0152 1A6A     		ldr	r2, [r3, #32]
 3974 0154 D3F804E0 		ldr	lr, [r3, #4]
 3975 0158 DC69     		ldr	r4, [r3, #28]
 3976 015a 22F40072 		bic	r2, r2, #512
 3977 015e 24F07304 		bic	r4, r4, #115
 3978 0162 6345     		cmp	r3, ip
 3979 0164 42EA0722 		orr	r2, r2, r7, lsl #8
 3980 0168 44EA0604 		orr	r4, r4, r6
 3981 016c 18D0     		beq	.L524
 3982              	.L514:
 3983 016e 4D68     		ldr	r5, [r1, #4]
 3984 0170 C3F804E0 		str	lr, [r3, #4]
 3985 0174 DC61     		str	r4, [r3, #28]
 3986 0176 DD63     		str	r5, [r3, #60]
 3987 0178 1A62     		str	r2, [r3, #32]
 3988 017a DC69     		ldr	r4, [r3, #28]
 3989 017c 0D69     		ldr	r5, [r1, #16]
 3990 017e 44F00804 		orr	r4, r4, #8
 3991 0182 DC61     		str	r4, [r3, #28]
 3992 0184 D969     		ldr	r1, [r3, #28]
 3993 0186 21F00401 		bic	r1, r1, #4
 3994 018a D961     		str	r1, [r3, #28]
 3995 018c DA69     		ldr	r2, [r3, #28]
 3996 018e 2A43     		orrs	r2, r2, r5
 3997 0190 DA61     		str	r2, [r3, #28]
ARM GAS  /tmp/ccnO6l7I.s 			page 69


 3998 0192 76E7     		b	.L506
 3999              	.L522:
 4000 0194 4D69     		ldr	r5, [r1, #20]
 4001 0196 2CF4804C 		bic	ip, ip, #16384
 4002 019a 4CEA851C 		orr	ip, ip, r5, lsl #6
 4003 019e 91E7     		b	.L515
 4004              	.L524:
 4005 01a0 4F69     		ldr	r7, [r1, #20]
 4006 01a2 8D69     		ldr	r5, [r1, #24]
 4007 01a4 CE68     		ldr	r6, [r1, #12]
 4008 01a6 22F40062 		bic	r2, r2, #2048
 4009 01aa 2EF4405E 		bic	lr, lr, #12288
 4010 01ae 42EA0622 		orr	r2, r2, r6, lsl #8
 4011 01b2 3D43     		orrs	r5, r5, r7
 4012 01b4 22F48062 		bic	r2, r2, #1024
 4013 01b8 4EEA051E 		orr	lr, lr, r5, lsl #4
 4014 01bc D7E7     		b	.L514
 4015              	.L521:
 4016 01be 4F69     		ldr	r7, [r1, #20]
 4017 01c0 8D69     		ldr	r5, [r1, #24]
 4018 01c2 CE68     		ldr	r6, [r1, #12]
 4019 01c4 22F08002 		bic	r2, r2, #128
 4020 01c8 2EF4406E 		bic	lr, lr, #3072
 4021 01cc 42EA0612 		orr	r2, r2, r6, lsl #4
 4022 01d0 3D43     		orrs	r5, r5, r7
 4023 01d2 22F04002 		bic	r2, r2, #64
 4024 01d6 4EEA850E 		orr	lr, lr, r5, lsl #2
 4025 01da 3FE7     		b	.L513
 4026              	.L523:
 4027 01dc CF68     		ldr	r7, [r1, #12]
 4028 01de 4D69     		ldr	r5, [r1, #20]
 4029 01e0 8E69     		ldr	r6, [r1, #24]
 4030 01e2 22F00802 		bic	r2, r2, #8
 4031 01e6 2EF4407E 		bic	lr, lr, #768
 4032 01ea 3A43     		orrs	r2, r2, r7
 4033 01ec 3543     		orrs	r5, r5, r6
 4034 01ee 22F00402 		bic	r2, r2, #4
 4035 01f2 45EA0E0E 		orr	lr, r5, lr
 4036 01f6 90E7     		b	.L512
 4037              	.L526:
 4038              		.align	2
 4039              	.L525:
 4040 01f8 00000140 		.word	1073807360
 4042              		.section	.text.HAL_TIM_OnePulse_ConfigChannel,"ax",%progbits
 4043              		.align	1
 4044              		.p2align 2,,3
 4045              		.global	HAL_TIM_OnePulse_ConfigChannel
 4046              		.syntax unified
 4047              		.thumb
 4048              		.thumb_func
 4049              		.fpu fpv4-sp-d16
 4051              	HAL_TIM_OnePulse_ConfigChannel:
 4052              		@ args = 0, pretend = 0, frame = 0
 4053              		@ frame_needed = 0, uses_anonymous_args = 0
 4054 0000 9A42     		cmp	r2, r3
 4055 0002 71D0     		beq	.L540
 4056 0004 2DE9F04F 		push	{r4, r5, r6, r7, r8, r9, r10, fp, lr}
ARM GAS  /tmp/ccnO6l7I.s 			page 70


 4057 0008 90F83840 		ldrb	r4, [r0, #56]	@ zero_extendqisi2
 4058 000c 012C     		cmp	r4, #1
 4059 000e 68D0     		beq	.L541
 4060 0010 0125     		movs	r5, #1
 4061 0012 0224     		movs	r4, #2
 4062 0014 80F83850 		strb	r5, [r0, #56]
 4063 0018 0D1D     		adds	r5, r1, #4
 4064 001a 80F83940 		strb	r4, [r0, #57]
 4065 001e 0E68     		ldr	r6, [r1]
 4066 0020 D1F814C0 		ldr	ip, [r1, #20]
 4067 0024 95E8A041 		ldm	r5, {r5, r7, r8, lr}
 4068 0028 002A     		cmp	r2, #0
 4069 002a 00F09B80 		beq	.L530
 4070 002e 042A     		cmp	r2, #4
 4071 0030 1BD1     		bne	.L529
 4072 0032 0268     		ldr	r2, [r0]
 4073 0034 DFF8A091 		ldr	r9, .L554
 4074 0038 146A     		ldr	r4, [r2, #32]
 4075 003a 24F01004 		bic	r4, r4, #16
 4076 003e 1462     		str	r4, [r2, #32]
 4077 0040 146A     		ldr	r4, [r2, #32]
 4078 0042 D2F804B0 		ldr	fp, [r2, #4]
 4079 0046 D2F818A0 		ldr	r10, [r2, #24]
 4080 004a 24F02004 		bic	r4, r4, #32
 4081 004e 2AF4E64A 		bic	r10, r10, #29440
 4082 0052 4A45     		cmp	r2, r9
 4083 0054 44EA0714 		orr	r4, r4, r7, lsl #4
 4084 0058 4AEA0626 		orr	r6, r10, r6, lsl #8
 4085 005c 00F0A280 		beq	.L552
 4086              	.L533:
 4087 0060 C2F804B0 		str	fp, [r2, #4]
 4088 0064 9661     		str	r6, [r2, #24]
 4089 0066 9563     		str	r5, [r2, #56]
 4090 0068 1462     		str	r4, [r2, #32]
 4091              	.L529:
 4092 006a 002B     		cmp	r3, #0
 4093 006c 3ED0     		beq	.L535
 4094 006e 042B     		cmp	r3, #4
 4095 0070 2ED1     		bne	.L534
 4096 0072 0368     		ldr	r3, [r0]
 4097 0074 8A69     		ldr	r2, [r1, #24]
 4098 0076 1D6A     		ldr	r5, [r3, #32]
 4099 0078 CE69     		ldr	r6, [r1, #28]
 4100 007a 096A     		ldr	r1, [r1, #32]
 4101 007c 25F01005 		bic	r5, r5, #16
 4102 0080 1D62     		str	r5, [r3, #32]
 4103 0082 9C69     		ldr	r4, [r3, #24]
 4104 0084 1D6A     		ldr	r5, [r3, #32]
 4105 0086 24F44074 		bic	r4, r4, #768
 4106 008a 1201     		lsls	r2, r2, #4
 4107 008c 0903     		lsls	r1, r1, #12
 4108 008e 44EA0624 		orr	r4, r4, r6, lsl #8
 4109 0092 02F0A002 		and	r2, r2, #160
 4110 0096 89B2     		uxth	r1, r1
 4111 0098 24F47044 		bic	r4, r4, #61440
 4112 009c 25F0A005 		bic	r5, r5, #160
 4113 00a0 2A43     		orrs	r2, r2, r5
ARM GAS  /tmp/ccnO6l7I.s 			page 71


 4114 00a2 2143     		orrs	r1, r1, r4
 4115 00a4 9961     		str	r1, [r3, #24]
 4116 00a6 1A62     		str	r2, [r3, #32]
 4117 00a8 9A69     		ldr	r2, [r3, #24]
 4118 00aa 22F44062 		bic	r2, r2, #3072
 4119 00ae 9A61     		str	r2, [r3, #24]
 4120 00b0 9A68     		ldr	r2, [r3, #8]
 4121 00b2 22F07002 		bic	r2, r2, #112
 4122 00b6 9A60     		str	r2, [r3, #8]
 4123 00b8 9A68     		ldr	r2, [r3, #8]
 4124 00ba 42F06002 		orr	r2, r2, #96
 4125              	.L551:
 4126 00be 9A60     		str	r2, [r3, #8]
 4127 00c0 9A68     		ldr	r2, [r3, #8]
 4128 00c2 22F00702 		bic	r2, r2, #7
 4129 00c6 9A60     		str	r2, [r3, #8]
 4130 00c8 9A68     		ldr	r2, [r3, #8]
 4131 00ca 42F00602 		orr	r2, r2, #6
 4132 00ce 9A60     		str	r2, [r3, #8]
 4133              	.L534:
 4134 00d0 0023     		movs	r3, #0
 4135 00d2 0122     		movs	r2, #1
 4136 00d4 80F83920 		strb	r2, [r0, #57]
 4137 00d8 80F83830 		strb	r3, [r0, #56]
 4138 00dc 1846     		mov	r0, r3
 4139 00de BDE8F08F 		pop	{r4, r5, r6, r7, r8, r9, r10, fp, pc}
 4140              	.L541:
 4141 00e2 0220     		movs	r0, #2
 4142 00e4 BDE8F08F 		pop	{r4, r5, r6, r7, r8, r9, r10, fp, pc}
 4143              	.L540:
 4144 00e8 0120     		movs	r0, #1
 4145 00ea 7047     		bx	lr
 4146              	.L535:
 4147 00ec 0368     		ldr	r3, [r0]
 4148 00ee 3A4F     		ldr	r7, .L554
 4149 00f0 1E6A     		ldr	r6, [r3, #32]
 4150 00f2 8C69     		ldr	r4, [r1, #24]
 4151 00f4 CD69     		ldr	r5, [r1, #28]
 4152 00f6 0A6A     		ldr	r2, [r1, #32]
 4153 00f8 26F00106 		bic	r6, r6, #1
 4154 00fc 1E62     		str	r6, [r3, #32]
 4155 00fe BB42     		cmp	r3, r7
 4156 0100 9969     		ldr	r1, [r3, #24]
 4157 0102 1E6A     		ldr	r6, [r3, #32]
 4158 0104 4AD0     		beq	.L537
 4159 0106 B3F1804F 		cmp	r3, #1073741824
 4160 010a 47D0     		beq	.L537
 4161 010c A7F57C47 		sub	r7, r7, #64512
 4162 0110 BB42     		cmp	r3, r7
 4163 0112 43D0     		beq	.L537
 4164 0114 07F58067 		add	r7, r7, #1024
 4165 0118 BB42     		cmp	r3, r7
 4166 011a 3FD0     		beq	.L537
 4167 011c 07F58067 		add	r7, r7, #1024
 4168 0120 BB42     		cmp	r3, r7
 4169 0122 3BD0     		beq	.L537
 4170 0124 07F59A37 		add	r7, r7, #78848
ARM GAS  /tmp/ccnO6l7I.s 			page 72


 4171 0128 BB42     		cmp	r3, r7
 4172 012a 37D0     		beq	.L537
 4173 012c 21F00301 		bic	r1, r1, #3
 4174 0130 41F00101 		orr	r1, r1, #1
 4175              	.L539:
 4176 0134 1201     		lsls	r2, r2, #4
 4177 0136 D2B2     		uxtb	r2, r2
 4178 0138 21F0F001 		bic	r1, r1, #240
 4179 013c 26F00A06 		bic	r6, r6, #10
 4180 0140 04F00A04 		and	r4, r4, #10
 4181 0144 0A43     		orrs	r2, r2, r1
 4182 0146 3443     		orrs	r4, r4, r6
 4183 0148 9A61     		str	r2, [r3, #24]
 4184 014a 1C62     		str	r4, [r3, #32]
 4185 014c 9A69     		ldr	r2, [r3, #24]
 4186 014e 22F00C02 		bic	r2, r2, #12
 4187 0152 9A61     		str	r2, [r3, #24]
 4188 0154 9A68     		ldr	r2, [r3, #8]
 4189 0156 22F07002 		bic	r2, r2, #112
 4190 015a 9A60     		str	r2, [r3, #8]
 4191 015c 9A68     		ldr	r2, [r3, #8]
 4192 015e 42F05002 		orr	r2, r2, #80
 4193 0162 ACE7     		b	.L551
 4194              	.L530:
 4195 0164 0268     		ldr	r2, [r0]
 4196 0166 DFF87090 		ldr	r9, .L554
 4197 016a 146A     		ldr	r4, [r2, #32]
 4198 016c 24F00104 		bic	r4, r4, #1
 4199 0170 1462     		str	r4, [r2, #32]
 4200 0172 146A     		ldr	r4, [r2, #32]
 4201 0174 D2F804B0 		ldr	fp, [r2, #4]
 4202 0178 D2F818A0 		ldr	r10, [r2, #24]
 4203 017c 24F00204 		bic	r4, r4, #2
 4204 0180 2AF0730A 		bic	r10, r10, #115
 4205 0184 4A45     		cmp	r2, r9
 4206 0186 44EA0704 		orr	r4, r4, r7
 4207 018a 46EA0A06 		orr	r6, r6, r10
 4208 018e 16D0     		beq	.L553
 4209              	.L532:
 4210 0190 C2F804B0 		str	fp, [r2, #4]
 4211 0194 9661     		str	r6, [r2, #24]
 4212 0196 5563     		str	r5, [r2, #52]
 4213 0198 1462     		str	r4, [r2, #32]
 4214 019a 66E7     		b	.L529
 4215              	.L537:
 4216 019c 21F00301 		bic	r1, r1, #3
 4217 01a0 2943     		orrs	r1, r1, r5
 4218 01a2 C7E7     		b	.L539
 4219              	.L552:
 4220 01a4 24F08004 		bic	r4, r4, #128
 4221 01a8 44EA0814 		orr	r4, r4, r8, lsl #4
 4222 01ac 2BF4406B 		bic	fp, fp, #3072
 4223 01b0 4EEA0C0E 		orr	lr, lr, ip
 4224 01b4 24F04004 		bic	r4, r4, #64
 4225 01b8 4BEA8E0B 		orr	fp, fp, lr, lsl #2
 4226 01bc 50E7     		b	.L533
 4227              	.L553:
ARM GAS  /tmp/ccnO6l7I.s 			page 73


 4228 01be 24F00804 		bic	r4, r4, #8
 4229 01c2 48EA0404 		orr	r4, r8, r4
 4230 01c6 2BF4407B 		bic	fp, fp, #768
 4231 01ca 4EEA0C0E 		orr	lr, lr, ip
 4232 01ce 24F00404 		bic	r4, r4, #4
 4233 01d2 4EEA0B0B 		orr	fp, lr, fp
 4234 01d6 DBE7     		b	.L532
 4235              	.L555:
 4236              		.align	2
 4237              	.L554:
 4238 01d8 00000140 		.word	1073807360
 4240              		.section	.text.HAL_TIM_DMABurst_WriteStart,"ax",%progbits
 4241              		.align	1
 4242              		.p2align 2,,3
 4243              		.global	HAL_TIM_DMABurst_WriteStart
 4244              		.syntax unified
 4245              		.thumb
 4246              		.thumb_func
 4247              		.fpu fpv4-sp-d16
 4249              	HAL_TIM_DMABurst_WriteStart:
 4250              		@ args = 4, pretend = 0, frame = 0
 4251              		@ frame_needed = 0, uses_anonymous_args = 0
 4252 0000 F8B5     		push	{r3, r4, r5, r6, r7, lr}
 4253 0002 90F83940 		ldrb	r4, [r0, #57]	@ zero_extendqisi2
 4254 0006 069D     		ldr	r5, [sp, #24]
 4255 0008 E4B2     		uxtb	r4, r4
 4256 000a 022C     		cmp	r4, #2
 4257 000c 19D0     		beq	.L570
 4258 000e 90F83940 		ldrb	r4, [r0, #57]	@ zero_extendqisi2
 4259 0012 E4B2     		uxtb	r4, r4
 4260 0014 012C     		cmp	r4, #1
 4261 0016 2AD0     		beq	.L575
 4262 0018 B2F5006F 		cmp	r2, #2048
 4263 001c 1646     		mov	r6, r2
 4264 001e 0F46     		mov	r7, r1
 4265 0020 0446     		mov	r4, r0
 4266 0022 2FD0     		beq	.L561
 4267              	.L578:
 4268 0024 0FD8     		bhi	.L562
 4269 0026 B2F5007F 		cmp	r2, #512
 4270 002a 40D0     		beq	.L563
 4271 002c B2F5806F 		cmp	r2, #1024
 4272 0030 41D0     		beq	.L564
 4273 0032 B2F5807F 		cmp	r2, #256
 4274 0036 0FD1     		bne	.L560
 4275 0038 C069     		ldr	r0, [r0, #28]
 4276 003a 2268     		ldr	r2, [r4]
 4277 003c 2449     		ldr	r1, .L579
 4278 003e 24E0     		b	.L572
 4279              	.L577:
 4280 0040 BDB1     		cbz	r5, .L559
 4281              	.L570:
 4282 0042 2046     		mov	r0, r4
 4283 0044 F8BD     		pop	{r3, r4, r5, r6, r7, pc}
 4284              	.L562:
 4285 0046 B2F5005F 		cmp	r2, #8192
 4286 004a 2CD0     		beq	.L566
ARM GAS  /tmp/ccnO6l7I.s 			page 74


 4287 004c B2F5804F 		cmp	r2, #16384
 4288 0050 39D0     		beq	.L567
 4289 0052 B2F5805F 		cmp	r2, #4096
 4290 0056 32D0     		beq	.L576
 4291              	.L560:
 4292 0058 2368     		ldr	r3, [r4]
 4293 005a 3D43     		orrs	r5, r5, r7
 4294 005c 9D64     		str	r5, [r3, #72]
 4295 005e DA68     		ldr	r2, [r3, #12]
 4296 0060 0121     		movs	r1, #1
 4297 0062 3243     		orrs	r2, r2, r6
 4298 0064 DA60     		str	r2, [r3, #12]
 4299 0066 0020     		movs	r0, #0
 4300 0068 84F83910 		strb	r1, [r4, #57]
 4301 006c F8BD     		pop	{r3, r4, r5, r6, r7, pc}
 4302              	.L575:
 4303 006e 002B     		cmp	r3, #0
 4304 0070 E6D0     		beq	.L577
 4305              	.L559:
 4306 0072 0224     		movs	r4, #2
 4307 0074 B2F5006F 		cmp	r2, #2048
 4308 0078 80F83940 		strb	r4, [r0, #57]
 4309 007c 1646     		mov	r6, r2
 4310 007e 0F46     		mov	r7, r1
 4311 0080 0446     		mov	r4, r0
 4312 0082 CFD1     		bne	.L578
 4313              	.L561:
 4314 0084 806A     		ldr	r0, [r0, #40]
 4315 0086 2268     		ldr	r2, [r4]
 4316 0088 1249     		ldr	r1, .L579+4
 4317              	.L572:
 4318 008a DFF854C0 		ldr	ip, .L579+16
 4319 008e C163     		str	r1, [r0, #60]
 4320 0090 4FEA152E 		lsr	lr, r5, #8
 4321 0094 1946     		mov	r1, r3
 4322 0096 C0F84CC0 		str	ip, [r0, #76]
 4323 009a 4C32     		adds	r2, r2, #76
 4324 009c 0EF10103 		add	r3, lr, #1
 4325 00a0 FFF7FEFF 		bl	HAL_DMA_Start_IT
 4326 00a4 D8E7     		b	.L560
 4327              	.L566:
 4328 00a6 006B     		ldr	r0, [r0, #48]
 4329 00a8 2268     		ldr	r2, [r4]
 4330 00aa 0B49     		ldr	r1, .L579+8
 4331 00ac EDE7     		b	.L572
 4332              	.L563:
 4333 00ae 006A     		ldr	r0, [r0, #32]
 4334 00b0 2268     		ldr	r2, [r4]
 4335 00b2 0849     		ldr	r1, .L579+4
 4336 00b4 E9E7     		b	.L572
 4337              	.L564:
 4338 00b6 406A     		ldr	r0, [r0, #36]
 4339 00b8 2268     		ldr	r2, [r4]
 4340 00ba 0649     		ldr	r1, .L579+4
 4341 00bc E5E7     		b	.L572
 4342              	.L576:
 4343 00be C06A     		ldr	r0, [r0, #44]
ARM GAS  /tmp/ccnO6l7I.s 			page 75


 4344 00c0 2268     		ldr	r2, [r4]
 4345 00c2 0449     		ldr	r1, .L579+4
 4346 00c4 E1E7     		b	.L572
 4347              	.L567:
 4348 00c6 406B     		ldr	r0, [r0, #52]
 4349 00c8 2268     		ldr	r2, [r4]
 4350 00ca 0449     		ldr	r1, .L579+12
 4351 00cc DDE7     		b	.L572
 4352              	.L580:
 4353 00ce 00BF     		.align	2
 4354              	.L579:
 4355 00d0 00000000 		.word	TIM_DMAPeriodElapsedCplt
 4356 00d4 00000000 		.word	TIM_DMADelayPulseCplt
 4357 00d8 00000000 		.word	TIMEx_DMACommutationCplt
 4358 00dc 00000000 		.word	TIM_DMATriggerCplt
 4359 00e0 00000000 		.word	TIM_DMAError
 4361              		.section	.text.HAL_TIM_DMABurst_WriteStop,"ax",%progbits
 4362              		.align	1
 4363              		.p2align 2,,3
 4364              		.global	HAL_TIM_DMABurst_WriteStop
 4365              		.syntax unified
 4366              		.thumb
 4367              		.thumb_func
 4368              		.fpu fpv4-sp-d16
 4370              	HAL_TIM_DMABurst_WriteStop:
 4371              		@ args = 0, pretend = 0, frame = 0
 4372              		@ frame_needed = 0, uses_anonymous_args = 0
 4373 0000 B1F5006F 		cmp	r1, #2048
 4374 0004 38B5     		push	{r3, r4, r5, lr}
 4375 0006 0C46     		mov	r4, r1
 4376 0008 0546     		mov	r5, r0
 4377 000a 30D0     		beq	.L583
 4378 000c 12D9     		bls	.L594
 4379 000e B1F5005F 		cmp	r1, #8192
 4380 0012 24D0     		beq	.L588
 4381 0014 B1F5804F 		cmp	r1, #16384
 4382 0018 1DD0     		beq	.L589
 4383 001a B1F5805F 		cmp	r1, #4096
 4384 001e 02D1     		bne	.L582
 4385 0020 C06A     		ldr	r0, [r0, #44]
 4386 0022 FFF7FEFF 		bl	HAL_DMA_Abort
 4387              	.L582:
 4388 0026 2B68     		ldr	r3, [r5]
 4389 0028 D968     		ldr	r1, [r3, #12]
 4390 002a 21EA0404 		bic	r4, r1, r4
 4391 002e DC60     		str	r4, [r3, #12]
 4392 0030 0020     		movs	r0, #0
 4393 0032 38BD     		pop	{r3, r4, r5, pc}
 4394              	.L594:
 4395 0034 B1F5007F 		cmp	r1, #512
 4396 0038 15D0     		beq	.L585
 4397 003a B1F5806F 		cmp	r1, #1024
 4398 003e 06D0     		beq	.L586
 4399 0040 B1F5807F 		cmp	r1, #256
 4400 0044 EFD1     		bne	.L582
 4401 0046 C069     		ldr	r0, [r0, #28]
 4402 0048 FFF7FEFF 		bl	HAL_DMA_Abort
ARM GAS  /tmp/ccnO6l7I.s 			page 76


 4403 004c EBE7     		b	.L582
 4404              	.L586:
 4405 004e 406A     		ldr	r0, [r0, #36]
 4406 0050 FFF7FEFF 		bl	HAL_DMA_Abort
 4407 0054 E7E7     		b	.L582
 4408              	.L589:
 4409 0056 406B     		ldr	r0, [r0, #52]
 4410 0058 FFF7FEFF 		bl	HAL_DMA_Abort
 4411 005c E3E7     		b	.L582
 4412              	.L588:
 4413 005e 006B     		ldr	r0, [r0, #48]
 4414 0060 FFF7FEFF 		bl	HAL_DMA_Abort
 4415 0064 DFE7     		b	.L582
 4416              	.L585:
 4417 0066 006A     		ldr	r0, [r0, #32]
 4418 0068 FFF7FEFF 		bl	HAL_DMA_Abort
 4419 006c DBE7     		b	.L582
 4420              	.L583:
 4421 006e 806A     		ldr	r0, [r0, #40]
 4422 0070 FFF7FEFF 		bl	HAL_DMA_Abort
 4423 0074 D7E7     		b	.L582
 4425 0076 00BF     		.section	.text.HAL_TIM_DMABurst_ReadStart,"ax",%progbits
 4426              		.align	1
 4427              		.p2align 2,,3
 4428              		.global	HAL_TIM_DMABurst_ReadStart
 4429              		.syntax unified
 4430              		.thumb
 4431              		.thumb_func
 4432              		.fpu fpv4-sp-d16
 4434              	HAL_TIM_DMABurst_ReadStart:
 4435              		@ args = 4, pretend = 0, frame = 0
 4436              		@ frame_needed = 0, uses_anonymous_args = 0
 4437 0000 F8B5     		push	{r3, r4, r5, r6, r7, lr}
 4438 0002 90F83940 		ldrb	r4, [r0, #57]	@ zero_extendqisi2
 4439 0006 069D     		ldr	r5, [sp, #24]
 4440 0008 E4B2     		uxtb	r4, r4
 4441 000a 022C     		cmp	r4, #2
 4442 000c 19D0     		beq	.L609
 4443 000e 90F83940 		ldrb	r4, [r0, #57]	@ zero_extendqisi2
 4444 0012 E4B2     		uxtb	r4, r4
 4445 0014 012C     		cmp	r4, #1
 4446 0016 2AD0     		beq	.L614
 4447 0018 B2F5006F 		cmp	r2, #2048
 4448 001c 1646     		mov	r6, r2
 4449 001e 0F46     		mov	r7, r1
 4450 0020 0446     		mov	r4, r0
 4451 0022 2FD0     		beq	.L600
 4452              	.L617:
 4453 0024 0FD8     		bhi	.L601
 4454 0026 B2F5007F 		cmp	r2, #512
 4455 002a 40D0     		beq	.L602
 4456 002c B2F5806F 		cmp	r2, #1024
 4457 0030 41D0     		beq	.L603
 4458 0032 B2F5807F 		cmp	r2, #256
 4459 0036 0FD1     		bne	.L599
 4460 0038 C069     		ldr	r0, [r0, #28]
 4461 003a 2168     		ldr	r1, [r4]
ARM GAS  /tmp/ccnO6l7I.s 			page 77


 4462 003c 244A     		ldr	r2, .L618
 4463 003e 24E0     		b	.L611
 4464              	.L616:
 4465 0040 BDB1     		cbz	r5, .L598
 4466              	.L609:
 4467 0042 2046     		mov	r0, r4
 4468 0044 F8BD     		pop	{r3, r4, r5, r6, r7, pc}
 4469              	.L601:
 4470 0046 B2F5005F 		cmp	r2, #8192
 4471 004a 2CD0     		beq	.L605
 4472 004c B2F5804F 		cmp	r2, #16384
 4473 0050 39D0     		beq	.L606
 4474 0052 B2F5805F 		cmp	r2, #4096
 4475 0056 32D0     		beq	.L615
 4476              	.L599:
 4477 0058 2368     		ldr	r3, [r4]
 4478 005a 3D43     		orrs	r5, r5, r7
 4479 005c 9D64     		str	r5, [r3, #72]
 4480 005e DA68     		ldr	r2, [r3, #12]
 4481 0060 0121     		movs	r1, #1
 4482 0062 3243     		orrs	r2, r2, r6
 4483 0064 DA60     		str	r2, [r3, #12]
 4484 0066 0020     		movs	r0, #0
 4485 0068 84F83910 		strb	r1, [r4, #57]
 4486 006c F8BD     		pop	{r3, r4, r5, r6, r7, pc}
 4487              	.L614:
 4488 006e 002B     		cmp	r3, #0
 4489 0070 E6D0     		beq	.L616
 4490              	.L598:
 4491 0072 0224     		movs	r4, #2
 4492 0074 B2F5006F 		cmp	r2, #2048
 4493 0078 80F83940 		strb	r4, [r0, #57]
 4494 007c 1646     		mov	r6, r2
 4495 007e 0F46     		mov	r7, r1
 4496 0080 0446     		mov	r4, r0
 4497 0082 CFD1     		bne	.L617
 4498              	.L600:
 4499 0084 806A     		ldr	r0, [r0, #40]
 4500 0086 2168     		ldr	r1, [r4]
 4501 0088 124A     		ldr	r2, .L618+4
 4502              	.L611:
 4503 008a DFF854C0 		ldr	ip, .L618+16
 4504 008e C263     		str	r2, [r0, #60]
 4505 0090 4FEA152E 		lsr	lr, r5, #8
 4506 0094 1A46     		mov	r2, r3
 4507 0096 C0F84CC0 		str	ip, [r0, #76]
 4508 009a 4C31     		adds	r1, r1, #76
 4509 009c 0EF10103 		add	r3, lr, #1
 4510 00a0 FFF7FEFF 		bl	HAL_DMA_Start_IT
 4511 00a4 D8E7     		b	.L599
 4512              	.L605:
 4513 00a6 006B     		ldr	r0, [r0, #48]
 4514 00a8 2168     		ldr	r1, [r4]
 4515 00aa 0B4A     		ldr	r2, .L618+8
 4516 00ac EDE7     		b	.L611
 4517              	.L602:
 4518 00ae 006A     		ldr	r0, [r0, #32]
ARM GAS  /tmp/ccnO6l7I.s 			page 78


 4519 00b0 2168     		ldr	r1, [r4]
 4520 00b2 084A     		ldr	r2, .L618+4
 4521 00b4 E9E7     		b	.L611
 4522              	.L603:
 4523 00b6 406A     		ldr	r0, [r0, #36]
 4524 00b8 2168     		ldr	r1, [r4]
 4525 00ba 064A     		ldr	r2, .L618+4
 4526 00bc E5E7     		b	.L611
 4527              	.L615:
 4528 00be C06A     		ldr	r0, [r0, #44]
 4529 00c0 2168     		ldr	r1, [r4]
 4530 00c2 044A     		ldr	r2, .L618+4
 4531 00c4 E1E7     		b	.L611
 4532              	.L606:
 4533 00c6 406B     		ldr	r0, [r0, #52]
 4534 00c8 2168     		ldr	r1, [r4]
 4535 00ca 044A     		ldr	r2, .L618+12
 4536 00cc DDE7     		b	.L611
 4537              	.L619:
 4538 00ce 00BF     		.align	2
 4539              	.L618:
 4540 00d0 00000000 		.word	TIM_DMAPeriodElapsedCplt
 4541 00d4 00000000 		.word	TIM_DMACaptureCplt
 4542 00d8 00000000 		.word	TIMEx_DMACommutationCplt
 4543 00dc 00000000 		.word	TIM_DMATriggerCplt
 4544 00e0 00000000 		.word	TIM_DMAError
 4546              		.section	.text.HAL_TIM_DMABurst_ReadStop,"ax",%progbits
 4547              		.align	1
 4548              		.p2align 2,,3
 4549              		.global	HAL_TIM_DMABurst_ReadStop
 4550              		.syntax unified
 4551              		.thumb
 4552              		.thumb_func
 4553              		.fpu fpv4-sp-d16
 4555              	HAL_TIM_DMABurst_ReadStop:
 4556              		@ args = 0, pretend = 0, frame = 0
 4557              		@ frame_needed = 0, uses_anonymous_args = 0
 4558 0000 B1F5006F 		cmp	r1, #2048
 4559 0004 38B5     		push	{r3, r4, r5, lr}
 4560 0006 0C46     		mov	r4, r1
 4561 0008 0546     		mov	r5, r0
 4562 000a 30D0     		beq	.L622
 4563 000c 12D9     		bls	.L633
 4564 000e B1F5005F 		cmp	r1, #8192
 4565 0012 24D0     		beq	.L627
 4566 0014 B1F5804F 		cmp	r1, #16384
 4567 0018 1DD0     		beq	.L628
 4568 001a B1F5805F 		cmp	r1, #4096
 4569 001e 02D1     		bne	.L621
 4570 0020 C06A     		ldr	r0, [r0, #44]
 4571 0022 FFF7FEFF 		bl	HAL_DMA_Abort
 4572              	.L621:
 4573 0026 2B68     		ldr	r3, [r5]
 4574 0028 D968     		ldr	r1, [r3, #12]
 4575 002a 21EA0404 		bic	r4, r1, r4
 4576 002e DC60     		str	r4, [r3, #12]
 4577 0030 0020     		movs	r0, #0
ARM GAS  /tmp/ccnO6l7I.s 			page 79


 4578 0032 38BD     		pop	{r3, r4, r5, pc}
 4579              	.L633:
 4580 0034 B1F5007F 		cmp	r1, #512
 4581 0038 15D0     		beq	.L624
 4582 003a B1F5806F 		cmp	r1, #1024
 4583 003e 06D0     		beq	.L625
 4584 0040 B1F5807F 		cmp	r1, #256
 4585 0044 EFD1     		bne	.L621
 4586 0046 C069     		ldr	r0, [r0, #28]
 4587 0048 FFF7FEFF 		bl	HAL_DMA_Abort
 4588 004c EBE7     		b	.L621
 4589              	.L625:
 4590 004e 406A     		ldr	r0, [r0, #36]
 4591 0050 FFF7FEFF 		bl	HAL_DMA_Abort
 4592 0054 E7E7     		b	.L621
 4593              	.L628:
 4594 0056 406B     		ldr	r0, [r0, #52]
 4595 0058 FFF7FEFF 		bl	HAL_DMA_Abort
 4596 005c E3E7     		b	.L621
 4597              	.L627:
 4598 005e 006B     		ldr	r0, [r0, #48]
 4599 0060 FFF7FEFF 		bl	HAL_DMA_Abort
 4600 0064 DFE7     		b	.L621
 4601              	.L624:
 4602 0066 006A     		ldr	r0, [r0, #32]
 4603 0068 FFF7FEFF 		bl	HAL_DMA_Abort
 4604 006c DBE7     		b	.L621
 4605              	.L622:
 4606 006e 806A     		ldr	r0, [r0, #40]
 4607 0070 FFF7FEFF 		bl	HAL_DMA_Abort
 4608 0074 D7E7     		b	.L621
 4610 0076 00BF     		.section	.text.HAL_TIM_GenerateEvent,"ax",%progbits
 4611              		.align	1
 4612              		.p2align 2,,3
 4613              		.global	HAL_TIM_GenerateEvent
 4614              		.syntax unified
 4615              		.thumb
 4616              		.thumb_func
 4617              		.fpu fpv4-sp-d16
 4619              	HAL_TIM_GenerateEvent:
 4620              		@ args = 0, pretend = 0, frame = 0
 4621              		@ frame_needed = 0, uses_anonymous_args = 0
 4622              		@ link register save eliminated.
 4623 0000 90F83820 		ldrb	r2, [r0, #56]	@ zero_extendqisi2
 4624 0004 012A     		cmp	r2, #1
 4625 0006 0FD0     		beq	.L636
 4626 0008 30B4     		push	{r4, r5}
 4627 000a 0346     		mov	r3, r0
 4628 000c 0568     		ldr	r5, [r0]
 4629 000e 0124     		movs	r4, #1
 4630 0010 0220     		movs	r0, #2
 4631 0012 0022     		movs	r2, #0
 4632 0014 83F83900 		strb	r0, [r3, #57]
 4633 0018 6961     		str	r1, [r5, #20]
 4634 001a 1046     		mov	r0, r2
 4635 001c 83F83940 		strb	r4, [r3, #57]
 4636 0020 83F83820 		strb	r2, [r3, #56]
ARM GAS  /tmp/ccnO6l7I.s 			page 80


 4637 0024 30BC     		pop	{r4, r5}
 4638 0026 7047     		bx	lr
 4639              	.L636:
 4640 0028 0220     		movs	r0, #2
 4641 002a 7047     		bx	lr
 4643              		.section	.text.HAL_TIM_ConfigOCrefClear,"ax",%progbits
 4644              		.align	1
 4645              		.p2align 2,,3
 4646              		.global	HAL_TIM_ConfigOCrefClear
 4647              		.syntax unified
 4648              		.thumb
 4649              		.thumb_func
 4650              		.fpu fpv4-sp-d16
 4652              	HAL_TIM_ConfigOCrefClear:
 4653              		@ args = 0, pretend = 0, frame = 0
 4654              		@ frame_needed = 0, uses_anonymous_args = 0
 4655              		@ link register save eliminated.
 4656 0000 90F83830 		ldrb	r3, [r0, #56]	@ zero_extendqisi2
 4657 0004 012B     		cmp	r3, #1
 4658 0006 25D0     		beq	.L654
 4659 0008 4B68     		ldr	r3, [r1, #4]
 4660 000a F0B4     		push	{r4, r5, r6, r7}
 4661 000c 0125     		movs	r5, #1
 4662 000e 0224     		movs	r4, #2
 4663 0010 AB42     		cmp	r3, r5
 4664 0012 80F83850 		strb	r5, [r0, #56]
 4665 0016 80F83940 		strb	r4, [r0, #57]
 4666 001a 1DD0     		beq	.L659
 4667              	.L643:
 4668 001c 0C2A     		cmp	r2, #12
 4669 001e 10D8     		bhi	.L644
 4670 0020 DFE802F0 		tbb	[pc, r2]
 4671              	.L646:
 4672 0024 27       		.byte	(.L645-.L646)/2
 4673 0025 0F       		.byte	(.L644-.L646)/2
 4674 0026 0F       		.byte	(.L644-.L646)/2
 4675 0027 0F       		.byte	(.L644-.L646)/2
 4676 0028 2F       		.byte	(.L647-.L646)/2
 4677 0029 0F       		.byte	(.L644-.L646)/2
 4678 002a 0F       		.byte	(.L644-.L646)/2
 4679 002b 0F       		.byte	(.L644-.L646)/2
 4680 002c 07       		.byte	(.L648-.L646)/2
 4681 002d 0F       		.byte	(.L644-.L646)/2
 4682 002e 0F       		.byte	(.L644-.L646)/2
 4683 002f 0F       		.byte	(.L644-.L646)/2
 4684 0030 37       		.byte	(.L649-.L646)/2
 4685 0031 00       		.p2align 1
 4686              	.L648:
 4687 0032 0B68     		ldr	r3, [r1]
 4688 0034 0268     		ldr	r2, [r0]
 4689 0036 002B     		cmp	r3, #0
 4690 0038 42D0     		beq	.L652
 4691 003a D369     		ldr	r3, [r2, #28]
 4692 003c 43F08003 		orr	r3, r3, #128
 4693 0040 D361     		str	r3, [r2, #28]
 4694              	.L644:
 4695 0042 0023     		movs	r3, #0
ARM GAS  /tmp/ccnO6l7I.s 			page 81


 4696 0044 0122     		movs	r2, #1
 4697 0046 80F83920 		strb	r2, [r0, #57]
 4698 004a 80F83830 		strb	r3, [r0, #56]
 4699 004e F0BC     		pop	{r4, r5, r6, r7}
 4700 0050 1846     		mov	r0, r3
 4701 0052 7047     		bx	lr
 4702              	.L654:
 4703 0054 0220     		movs	r0, #2
 4704 0056 7047     		bx	lr
 4705              	.L659:
 4706 0058 0668     		ldr	r6, [r0]
 4707 005a CB68     		ldr	r3, [r1, #12]
 4708 005c 8F68     		ldr	r7, [r1, #8]
 4709 005e B468     		ldr	r4, [r6, #8]
 4710 0060 0D69     		ldr	r5, [r1, #16]
 4711 0062 3B43     		orrs	r3, r3, r7
 4712 0064 24F47F44 		bic	r4, r4, #65280
 4713 0068 43EA0523 		orr	r3, r3, r5, lsl #8
 4714 006c 2343     		orrs	r3, r3, r4
 4715 006e B360     		str	r3, [r6, #8]
 4716 0070 D4E7     		b	.L643
 4717              	.L645:
 4718 0072 0B68     		ldr	r3, [r1]
 4719 0074 0268     		ldr	r2, [r0]
 4720 0076 A3B1     		cbz	r3, .L650
 4721 0078 9369     		ldr	r3, [r2, #24]
 4722 007a 43F08003 		orr	r3, r3, #128
 4723 007e 9361     		str	r3, [r2, #24]
 4724 0080 DFE7     		b	.L644
 4725              	.L647:
 4726 0082 0B68     		ldr	r3, [r1]
 4727 0084 0268     		ldr	r2, [r0]
 4728 0086 B3B1     		cbz	r3, .L651
 4729 0088 9369     		ldr	r3, [r2, #24]
 4730 008a 43F40043 		orr	r3, r3, #32768
 4731 008e 9361     		str	r3, [r2, #24]
 4732 0090 D7E7     		b	.L644
 4733              	.L649:
 4734 0092 0B68     		ldr	r3, [r1]
 4735 0094 0268     		ldr	r2, [r0]
 4736 0096 4BB1     		cbz	r3, .L653
 4737 0098 D369     		ldr	r3, [r2, #28]
 4738 009a 43F40043 		orr	r3, r3, #32768
 4739 009e D361     		str	r3, [r2, #28]
 4740 00a0 CFE7     		b	.L644
 4741              	.L650:
 4742 00a2 9369     		ldr	r3, [r2, #24]
 4743 00a4 23F08003 		bic	r3, r3, #128
 4744 00a8 9361     		str	r3, [r2, #24]
 4745 00aa CAE7     		b	.L644
 4746              	.L653:
 4747 00ac D369     		ldr	r3, [r2, #28]
 4748 00ae 23F40043 		bic	r3, r3, #32768
 4749 00b2 D361     		str	r3, [r2, #28]
 4750 00b4 C5E7     		b	.L644
 4751              	.L651:
 4752 00b6 9369     		ldr	r3, [r2, #24]
ARM GAS  /tmp/ccnO6l7I.s 			page 82


 4753 00b8 23F40043 		bic	r3, r3, #32768
 4754 00bc 9361     		str	r3, [r2, #24]
 4755 00be C0E7     		b	.L644
 4756              	.L652:
 4757 00c0 D369     		ldr	r3, [r2, #28]
 4758 00c2 23F08003 		bic	r3, r3, #128
 4759 00c6 D361     		str	r3, [r2, #28]
 4760 00c8 BBE7     		b	.L644
 4762 00ca 00BF     		.section	.text.HAL_TIM_ConfigClockSource,"ax",%progbits
 4763              		.align	1
 4764              		.p2align 2,,3
 4765              		.global	HAL_TIM_ConfigClockSource
 4766              		.syntax unified
 4767              		.thumb
 4768              		.thumb_func
 4769              		.fpu fpv4-sp-d16
 4771              	HAL_TIM_ConfigClockSource:
 4772              		@ args = 0, pretend = 0, frame = 0
 4773              		@ frame_needed = 0, uses_anonymous_args = 0
 4774              		@ link register save eliminated.
 4775 0000 90F83830 		ldrb	r3, [r0, #56]	@ zero_extendqisi2
 4776 0004 012B     		cmp	r3, #1
 4777 0006 40D0     		beq	.L676
 4778 0008 0222     		movs	r2, #2
 4779 000a 0368     		ldr	r3, [r0]
 4780 000c F0B4     		push	{r4, r5, r6, r7}
 4781 000e 80F83920 		strb	r2, [r0, #57]
 4782 0012 9A68     		ldr	r2, [r3, #8]
 4783 0014 0C68     		ldr	r4, [r1]
 4784 0016 22F47F42 		bic	r2, r2, #65280
 4785 001a 22F07702 		bic	r2, r2, #119
 4786 001e 0125     		movs	r5, #1
 4787 0020 402C     		cmp	r4, #64
 4788 0022 80F83850 		strb	r5, [r0, #56]
 4789 0026 9A60     		str	r2, [r3, #8]
 4790 0028 73D0     		beq	.L663
 4791 002a 18D9     		bls	.L681
 4792 002c 702C     		cmp	r4, #112
 4793 002e 60D0     		beq	.L670
 4794 0030 2DD9     		bls	.L682
 4795 0032 B4F5805F 		cmp	r4, #4096
 4796 0036 57D0     		beq	.L674
 4797 0038 B4F5005F 		cmp	r4, #8192
 4798 003c 1CD1     		bne	.L662
 4799 003e 8A68     		ldr	r2, [r1, #8]
 4800 0040 4D68     		ldr	r5, [r1, #4]
 4801 0042 CC68     		ldr	r4, [r1, #12]
 4802 0044 9968     		ldr	r1, [r3, #8]
 4803 0046 2A43     		orrs	r2, r2, r5
 4804 0048 42EA0422 		orr	r2, r2, r4, lsl #8
 4805 004c 21F47F41 		bic	r1, r1, #65280
 4806 0050 0A43     		orrs	r2, r2, r1
 4807 0052 9A60     		str	r2, [r3, #8]
 4808 0054 9A68     		ldr	r2, [r3, #8]
 4809 0056 42F48042 		orr	r2, r2, #16384
 4810 005a 9A60     		str	r2, [r3, #8]
 4811 005c 0CE0     		b	.L662
ARM GAS  /tmp/ccnO6l7I.s 			page 83


 4812              	.L681:
 4813 005e 102C     		cmp	r4, #16
 4814 0060 32D0     		beq	.L665
 4815 0062 38D9     		bls	.L683
 4816 0064 202C     		cmp	r4, #32
 4817 0066 6CD0     		beq	.L668
 4818 0068 302C     		cmp	r4, #48
 4819 006a 05D1     		bne	.L662
 4820 006c 9A68     		ldr	r2, [r3, #8]
 4821 006e 22F07002 		bic	r2, r2, #112
 4822 0072 42F03702 		orr	r2, r2, #55
 4823 0076 9A60     		str	r2, [r3, #8]
 4824              	.L662:
 4825 0078 0023     		movs	r3, #0
 4826 007a 0122     		movs	r2, #1
 4827 007c 80F83920 		strb	r2, [r0, #57]
 4828 0080 80F83830 		strb	r3, [r0, #56]
 4829 0084 F0BC     		pop	{r4, r5, r6, r7}
 4830 0086 1846     		mov	r0, r3
 4831 0088 7047     		bx	lr
 4832              	.L676:
 4833 008a 0220     		movs	r0, #2
 4834 008c 7047     		bx	lr
 4835              	.L682:
 4836 008e 502C     		cmp	r4, #80
 4837 0090 5ED0     		beq	.L672
 4838 0092 602C     		cmp	r4, #96
 4839 0094 F0D1     		bne	.L662
 4840 0096 1C6A     		ldr	r4, [r3, #32]
 4841 0098 4D68     		ldr	r5, [r1, #4]
 4842 009a CE68     		ldr	r6, [r1, #12]
 4843 009c 24F01004 		bic	r4, r4, #16
 4844 00a0 1C62     		str	r4, [r3, #32]
 4845 00a2 9969     		ldr	r1, [r3, #24]
 4846 00a4 1A6A     		ldr	r2, [r3, #32]
 4847 00a6 21F47041 		bic	r1, r1, #61440
 4848 00aa 22F0A002 		bic	r2, r2, #160
 4849 00ae 42EA0512 		orr	r2, r2, r5, lsl #4
 4850 00b2 41EA0631 		orr	r1, r1, r6, lsl #12
 4851 00b6 9961     		str	r1, [r3, #24]
 4852 00b8 1A62     		str	r2, [r3, #32]
 4853 00ba 9A68     		ldr	r2, [r3, #8]
 4854 00bc 22F07002 		bic	r2, r2, #112
 4855 00c0 42F06702 		orr	r2, r2, #103
 4856 00c4 9A60     		str	r2, [r3, #8]
 4857 00c6 D7E7     		b	.L662
 4858              	.L665:
 4859 00c8 9A68     		ldr	r2, [r3, #8]
 4860 00ca 22F07002 		bic	r2, r2, #112
 4861 00ce 42F01702 		orr	r2, r2, #23
 4862 00d2 9A60     		str	r2, [r3, #8]
 4863 00d4 D0E7     		b	.L662
 4864              	.L683:
 4865 00d6 002C     		cmp	r4, #0
 4866 00d8 CED1     		bne	.L662
 4867 00da 9A68     		ldr	r2, [r3, #8]
 4868 00dc 22F07002 		bic	r2, r2, #112
ARM GAS  /tmp/ccnO6l7I.s 			page 84


 4869 00e0 42F00702 		orr	r2, r2, #7
 4870 00e4 9A60     		str	r2, [r3, #8]
 4871 00e6 C7E7     		b	.L662
 4872              	.L674:
 4873 00e8 9A68     		ldr	r2, [r3, #8]
 4874 00ea 22F00702 		bic	r2, r2, #7
 4875 00ee 9A60     		str	r2, [r3, #8]
 4876 00f0 C2E7     		b	.L662
 4877              	.L670:
 4878 00f2 8A68     		ldr	r2, [r1, #8]
 4879 00f4 4D68     		ldr	r5, [r1, #4]
 4880 00f6 CC68     		ldr	r4, [r1, #12]
 4881 00f8 9968     		ldr	r1, [r3, #8]
 4882 00fa 2A43     		orrs	r2, r2, r5
 4883 00fc 42EA0422 		orr	r2, r2, r4, lsl #8
 4884 0100 21F47F41 		bic	r1, r1, #65280
 4885 0104 0A43     		orrs	r2, r2, r1
 4886 0106 9A60     		str	r2, [r3, #8]
 4887 0108 9A68     		ldr	r2, [r3, #8]
 4888 010a 42F07702 		orr	r2, r2, #119
 4889 010e 9A60     		str	r2, [r3, #8]
 4890 0110 B2E7     		b	.L662
 4891              	.L663:
 4892 0112 1D6A     		ldr	r5, [r3, #32]
 4893 0114 1E6A     		ldr	r6, [r3, #32]
 4894 0116 4C68     		ldr	r4, [r1, #4]
 4895 0118 CF68     		ldr	r7, [r1, #12]
 4896 011a 26F00106 		bic	r6, r6, #1
 4897 011e 1E62     		str	r6, [r3, #32]
 4898 0120 9A69     		ldr	r2, [r3, #24]
 4899 0122 25F00A01 		bic	r1, r5, #10
 4900 0126 22F0F002 		bic	r2, r2, #240
 4901 012a 42EA0712 		orr	r2, r2, r7, lsl #4
 4902 012e 2143     		orrs	r1, r1, r4
 4903 0130 9A61     		str	r2, [r3, #24]
 4904 0132 1962     		str	r1, [r3, #32]
 4905 0134 9A68     		ldr	r2, [r3, #8]
 4906 0136 22F07002 		bic	r2, r2, #112
 4907 013a 42F04702 		orr	r2, r2, #71
 4908 013e 9A60     		str	r2, [r3, #8]
 4909 0140 9AE7     		b	.L662
 4910              	.L668:
 4911 0142 9A68     		ldr	r2, [r3, #8]
 4912 0144 22F07002 		bic	r2, r2, #112
 4913 0148 42F02702 		orr	r2, r2, #39
 4914 014c 9A60     		str	r2, [r3, #8]
 4915 014e 93E7     		b	.L662
 4916              	.L672:
 4917 0150 1D6A     		ldr	r5, [r3, #32]
 4918 0152 1E6A     		ldr	r6, [r3, #32]
 4919 0154 4C68     		ldr	r4, [r1, #4]
 4920 0156 CF68     		ldr	r7, [r1, #12]
 4921 0158 26F00106 		bic	r6, r6, #1
 4922 015c 1E62     		str	r6, [r3, #32]
 4923 015e 9A69     		ldr	r2, [r3, #24]
 4924 0160 25F00A01 		bic	r1, r5, #10
 4925 0164 22F0F002 		bic	r2, r2, #240
ARM GAS  /tmp/ccnO6l7I.s 			page 85


 4926 0168 42EA0712 		orr	r2, r2, r7, lsl #4
 4927 016c 2143     		orrs	r1, r1, r4
 4928 016e 9A61     		str	r2, [r3, #24]
 4929 0170 1962     		str	r1, [r3, #32]
 4930 0172 9A68     		ldr	r2, [r3, #8]
 4931 0174 22F07002 		bic	r2, r2, #112
 4932 0178 42F05702 		orr	r2, r2, #87
 4933 017c 9A60     		str	r2, [r3, #8]
 4934 017e 7BE7     		b	.L662
 4936              		.section	.text.HAL_TIM_ConfigTI1Input,"ax",%progbits
 4937              		.align	1
 4938              		.p2align 2,,3
 4939              		.global	HAL_TIM_ConfigTI1Input
 4940              		.syntax unified
 4941              		.thumb
 4942              		.thumb_func
 4943              		.fpu fpv4-sp-d16
 4945              	HAL_TIM_ConfigTI1Input:
 4946              		@ args = 0, pretend = 0, frame = 0
 4947              		@ frame_needed = 0, uses_anonymous_args = 0
 4948              		@ link register save eliminated.
 4949 0000 0268     		ldr	r2, [r0]
 4950 0002 5368     		ldr	r3, [r2, #4]
 4951 0004 23F08003 		bic	r3, r3, #128
 4952 0008 1943     		orrs	r1, r1, r3
 4953 000a 5160     		str	r1, [r2, #4]
 4954 000c 0020     		movs	r0, #0
 4955 000e 7047     		bx	lr
 4957              		.section	.text.HAL_TIM_SlaveConfigSynchronization,"ax",%progbits
 4958              		.align	1
 4959              		.p2align 2,,3
 4960              		.global	HAL_TIM_SlaveConfigSynchronization
 4961              		.syntax unified
 4962              		.thumb
 4963              		.thumb_func
 4964              		.fpu fpv4-sp-d16
 4966              	HAL_TIM_SlaveConfigSynchronization:
 4967              		@ args = 0, pretend = 0, frame = 0
 4968              		@ frame_needed = 0, uses_anonymous_args = 0
 4969              		@ link register save eliminated.
 4970 0000 90F83830 		ldrb	r3, [r0, #56]	@ zero_extendqisi2
 4971 0004 012B     		cmp	r3, #1
 4972 0006 01D1     		bne	.L698
 4973 0008 0220     		movs	r0, #2
 4974 000a 7047     		bx	lr
 4975              	.L698:
 4976 000c 0246     		mov	r2, r0
 4977 000e 0220     		movs	r0, #2
 4978 0010 1368     		ldr	r3, [r2]
 4979 0012 70B4     		push	{r4, r5, r6}
 4980 0014 82F83900 		strb	r0, [r2, #57]
 4981 0018 91E83000 		ldm	r1, {r4, r5}
 4982 001c 9868     		ldr	r0, [r3, #8]
 4983 001e 20F07000 		bic	r0, r0, #112
 4984 0022 2843     		orrs	r0, r0, r5
 4985 0024 20F00700 		bic	r0, r0, #7
 4986 0028 2043     		orrs	r0, r0, r4
ARM GAS  /tmp/ccnO6l7I.s 			page 86


 4987 002a 502D     		cmp	r5, #80
 4988 002c 4FF00104 		mov	r4, #1
 4989 0030 82F83840 		strb	r4, [r2, #56]
 4990 0034 9860     		str	r0, [r3, #8]
 4991 0036 44D0     		beq	.L688
 4992 0038 20D9     		bls	.L699
 4993 003a 602D     		cmp	r5, #96
 4994 003c 2ED0     		beq	.L691
 4995 003e 702D     		cmp	r5, #112
 4996 0040 0BD1     		bne	.L687
 4997 0042 C868     		ldr	r0, [r1, #12]
 4998 0044 8E68     		ldr	r6, [r1, #8]
 4999 0046 0D69     		ldr	r5, [r1, #16]
 5000 0048 9C68     		ldr	r4, [r3, #8]
 5001 004a 40EA0601 		orr	r1, r0, r6
 5002 004e 41EA0521 		orr	r1, r1, r5, lsl #8
 5003 0052 24F47F40 		bic	r0, r4, #65280
 5004 0056 0143     		orrs	r1, r1, r0
 5005 0058 9960     		str	r1, [r3, #8]
 5006              	.L687:
 5007 005a D968     		ldr	r1, [r3, #12]
 5008 005c 21F04001 		bic	r1, r1, #64
 5009 0060 D960     		str	r1, [r3, #12]
 5010 0062 D968     		ldr	r1, [r3, #12]
 5011 0064 0024     		movs	r4, #0
 5012 0066 0125     		movs	r5, #1
 5013 0068 21F48041 		bic	r1, r1, #16384
 5014 006c D960     		str	r1, [r3, #12]
 5015 006e 2046     		mov	r0, r4
 5016 0070 82F83950 		strb	r5, [r2, #57]
 5017 0074 82F83840 		strb	r4, [r2, #56]
 5018 0078 70BC     		pop	{r4, r5, r6}
 5019 007a 7047     		bx	lr
 5020              	.L699:
 5021 007c 402D     		cmp	r5, #64
 5022 007e ECD1     		bne	.L687
 5023 0080 1C6A     		ldr	r4, [r3, #32]
 5024 0082 186A     		ldr	r0, [r3, #32]
 5025 0084 0D69     		ldr	r5, [r1, #16]
 5026 0086 20F00100 		bic	r0, r0, #1
 5027 008a 1862     		str	r0, [r3, #32]
 5028 008c 9969     		ldr	r1, [r3, #24]
 5029 008e 21F0F001 		bic	r1, r1, #240
 5030 0092 41EA0511 		orr	r1, r1, r5, lsl #4
 5031 0096 9961     		str	r1, [r3, #24]
 5032 0098 1C62     		str	r4, [r3, #32]
 5033 009a DEE7     		b	.L687
 5034              	.L691:
 5035 009c 1C6A     		ldr	r4, [r3, #32]
 5036 009e 8D68     		ldr	r5, [r1, #8]
 5037 00a0 0E69     		ldr	r6, [r1, #16]
 5038 00a2 24F01004 		bic	r4, r4, #16
 5039 00a6 1C62     		str	r4, [r3, #32]
 5040 00a8 9869     		ldr	r0, [r3, #24]
 5041 00aa 196A     		ldr	r1, [r3, #32]
 5042 00ac 20F47040 		bic	r0, r0, #61440
 5043 00b0 21F0A001 		bic	r1, r1, #160
ARM GAS  /tmp/ccnO6l7I.s 			page 87


 5044 00b4 40EA0630 		orr	r0, r0, r6, lsl #12
 5045 00b8 41EA0511 		orr	r1, r1, r5, lsl #4
 5046 00bc 9861     		str	r0, [r3, #24]
 5047 00be 1962     		str	r1, [r3, #32]
 5048 00c0 CBE7     		b	.L687
 5049              	.L688:
 5050 00c2 1C6A     		ldr	r4, [r3, #32]
 5051 00c4 1D6A     		ldr	r5, [r3, #32]
 5052 00c6 8868     		ldr	r0, [r1, #8]
 5053 00c8 0E69     		ldr	r6, [r1, #16]
 5054 00ca 25F00105 		bic	r5, r5, #1
 5055 00ce 1D62     		str	r5, [r3, #32]
 5056 00d0 9969     		ldr	r1, [r3, #24]
 5057 00d2 24F00A04 		bic	r4, r4, #10
 5058 00d6 21F0F001 		bic	r1, r1, #240
 5059 00da 2043     		orrs	r0, r0, r4
 5060 00dc 41EA0611 		orr	r1, r1, r6, lsl #4
 5061 00e0 9961     		str	r1, [r3, #24]
 5062 00e2 1862     		str	r0, [r3, #32]
 5063 00e4 B9E7     		b	.L687
 5065 00e6 00BF     		.section	.text.HAL_TIM_SlaveConfigSynchronization_IT,"ax",%progbits
 5066              		.align	1
 5067              		.p2align 2,,3
 5068              		.global	HAL_TIM_SlaveConfigSynchronization_IT
 5069              		.syntax unified
 5070              		.thumb
 5071              		.thumb_func
 5072              		.fpu fpv4-sp-d16
 5074              	HAL_TIM_SlaveConfigSynchronization_IT:
 5075              		@ args = 0, pretend = 0, frame = 0
 5076              		@ frame_needed = 0, uses_anonymous_args = 0
 5077              		@ link register save eliminated.
 5078 0000 90F83830 		ldrb	r3, [r0, #56]	@ zero_extendqisi2
 5079 0004 012B     		cmp	r3, #1
 5080 0006 01D1     		bne	.L713
 5081 0008 0220     		movs	r0, #2
 5082 000a 7047     		bx	lr
 5083              	.L713:
 5084 000c 0246     		mov	r2, r0
 5085 000e 0220     		movs	r0, #2
 5086 0010 1368     		ldr	r3, [r2]
 5087 0012 70B4     		push	{r4, r5, r6}
 5088 0014 82F83900 		strb	r0, [r2, #57]
 5089 0018 91E83000 		ldm	r1, {r4, r5}
 5090 001c 9868     		ldr	r0, [r3, #8]
 5091 001e 20F07000 		bic	r0, r0, #112
 5092 0022 2843     		orrs	r0, r0, r5
 5093 0024 20F00700 		bic	r0, r0, #7
 5094 0028 2043     		orrs	r0, r0, r4
 5095 002a 502D     		cmp	r5, #80
 5096 002c 4FF00104 		mov	r4, #1
 5097 0030 82F83840 		strb	r4, [r2, #56]
 5098 0034 9860     		str	r0, [r3, #8]
 5099 0036 44D0     		beq	.L703
 5100 0038 20D9     		bls	.L714
 5101 003a 602D     		cmp	r5, #96
 5102 003c 2ED0     		beq	.L706
ARM GAS  /tmp/ccnO6l7I.s 			page 88


 5103 003e 702D     		cmp	r5, #112
 5104 0040 0BD1     		bne	.L702
 5105 0042 C868     		ldr	r0, [r1, #12]
 5106 0044 8E68     		ldr	r6, [r1, #8]
 5107 0046 0D69     		ldr	r5, [r1, #16]
 5108 0048 9C68     		ldr	r4, [r3, #8]
 5109 004a 40EA0601 		orr	r1, r0, r6
 5110 004e 41EA0521 		orr	r1, r1, r5, lsl #8
 5111 0052 24F47F40 		bic	r0, r4, #65280
 5112 0056 0143     		orrs	r1, r1, r0
 5113 0058 9960     		str	r1, [r3, #8]
 5114              	.L702:
 5115 005a D968     		ldr	r1, [r3, #12]
 5116 005c 41F04001 		orr	r1, r1, #64
 5117 0060 D960     		str	r1, [r3, #12]
 5118 0062 D968     		ldr	r1, [r3, #12]
 5119 0064 0024     		movs	r4, #0
 5120 0066 0125     		movs	r5, #1
 5121 0068 21F48041 		bic	r1, r1, #16384
 5122 006c D960     		str	r1, [r3, #12]
 5123 006e 2046     		mov	r0, r4
 5124 0070 82F83950 		strb	r5, [r2, #57]
 5125 0074 82F83840 		strb	r4, [r2, #56]
 5126 0078 70BC     		pop	{r4, r5, r6}
 5127 007a 7047     		bx	lr
 5128              	.L714:
 5129 007c 402D     		cmp	r5, #64
 5130 007e ECD1     		bne	.L702
 5131 0080 1C6A     		ldr	r4, [r3, #32]
 5132 0082 186A     		ldr	r0, [r3, #32]
 5133 0084 0D69     		ldr	r5, [r1, #16]
 5134 0086 20F00100 		bic	r0, r0, #1
 5135 008a 1862     		str	r0, [r3, #32]
 5136 008c 9969     		ldr	r1, [r3, #24]
 5137 008e 21F0F001 		bic	r1, r1, #240
 5138 0092 41EA0511 		orr	r1, r1, r5, lsl #4
 5139 0096 9961     		str	r1, [r3, #24]
 5140 0098 1C62     		str	r4, [r3, #32]
 5141 009a DEE7     		b	.L702
 5142              	.L706:
 5143 009c 1C6A     		ldr	r4, [r3, #32]
 5144 009e 8D68     		ldr	r5, [r1, #8]
 5145 00a0 0E69     		ldr	r6, [r1, #16]
 5146 00a2 24F01004 		bic	r4, r4, #16
 5147 00a6 1C62     		str	r4, [r3, #32]
 5148 00a8 9869     		ldr	r0, [r3, #24]
 5149 00aa 196A     		ldr	r1, [r3, #32]
 5150 00ac 20F47040 		bic	r0, r0, #61440
 5151 00b0 21F0A001 		bic	r1, r1, #160
 5152 00b4 40EA0630 		orr	r0, r0, r6, lsl #12
 5153 00b8 41EA0511 		orr	r1, r1, r5, lsl #4
 5154 00bc 9861     		str	r0, [r3, #24]
 5155 00be 1962     		str	r1, [r3, #32]
 5156 00c0 CBE7     		b	.L702
 5157              	.L703:
 5158 00c2 1C6A     		ldr	r4, [r3, #32]
 5159 00c4 1D6A     		ldr	r5, [r3, #32]
ARM GAS  /tmp/ccnO6l7I.s 			page 89


 5160 00c6 8868     		ldr	r0, [r1, #8]
 5161 00c8 0E69     		ldr	r6, [r1, #16]
 5162 00ca 25F00105 		bic	r5, r5, #1
 5163 00ce 1D62     		str	r5, [r3, #32]
 5164 00d0 9969     		ldr	r1, [r3, #24]
 5165 00d2 24F00A04 		bic	r4, r4, #10
 5166 00d6 21F0F001 		bic	r1, r1, #240
 5167 00da 2043     		orrs	r0, r0, r4
 5168 00dc 41EA0611 		orr	r1, r1, r6, lsl #4
 5169 00e0 9961     		str	r1, [r3, #24]
 5170 00e2 1862     		str	r0, [r3, #32]
 5171 00e4 B9E7     		b	.L702
 5173 00e6 00BF     		.section	.text.HAL_TIM_ReadCapturedValue,"ax",%progbits
 5174              		.align	1
 5175              		.p2align 2,,3
 5176              		.global	HAL_TIM_ReadCapturedValue
 5177              		.syntax unified
 5178              		.thumb
 5179              		.thumb_func
 5180              		.fpu fpv4-sp-d16
 5182              	HAL_TIM_ReadCapturedValue:
 5183              		@ args = 0, pretend = 0, frame = 0
 5184              		@ frame_needed = 0, uses_anonymous_args = 0
 5185              		@ link register save eliminated.
 5186 0000 90F83820 		ldrb	r2, [r0, #56]	@ zero_extendqisi2
 5187 0004 012A     		cmp	r2, #1
 5188 0006 0346     		mov	r3, r0
 5189 0008 0AD0     		beq	.L723
 5190 000a 0C29     		cmp	r1, #12
 5191 000c 22D8     		bhi	.L724
 5192 000e DFE801F0 		tbb	[pc, r1]
 5193              	.L719:
 5194 0012 0F       		.byte	(.L718-.L719)/2
 5195 0013 21       		.byte	(.L724-.L719)/2
 5196 0014 21       		.byte	(.L724-.L719)/2
 5197 0015 21       		.byte	(.L724-.L719)/2
 5198 0016 15       		.byte	(.L720-.L719)/2
 5199 0017 21       		.byte	(.L724-.L719)/2
 5200 0018 21       		.byte	(.L724-.L719)/2
 5201 0019 21       		.byte	(.L724-.L719)/2
 5202 001a 1B       		.byte	(.L721-.L719)/2
 5203 001b 21       		.byte	(.L724-.L719)/2
 5204 001c 21       		.byte	(.L724-.L719)/2
 5205 001d 21       		.byte	(.L724-.L719)/2
 5206 001e 09       		.byte	(.L722-.L719)/2
 5207 001f 00       		.p2align 1
 5208              	.L723:
 5209 0020 0220     		movs	r0, #2
 5210 0022 7047     		bx	lr
 5211              	.L722:
 5212 0024 0268     		ldr	r2, [r0]
 5213 0026 106C     		ldr	r0, [r2, #64]
 5214              	.L717:
 5215 0028 0022     		movs	r2, #0
 5216 002a 83F83820 		strb	r2, [r3, #56]
 5217 002e 7047     		bx	lr
 5218              	.L718:
ARM GAS  /tmp/ccnO6l7I.s 			page 90


 5219 0030 0268     		ldr	r2, [r0]
 5220 0032 506B     		ldr	r0, [r2, #52]
 5221 0034 0022     		movs	r2, #0
 5222 0036 83F83820 		strb	r2, [r3, #56]
 5223 003a 7047     		bx	lr
 5224              	.L720:
 5225 003c 0268     		ldr	r2, [r0]
 5226 003e 906B     		ldr	r0, [r2, #56]
 5227 0040 0022     		movs	r2, #0
 5228 0042 83F83820 		strb	r2, [r3, #56]
 5229 0046 7047     		bx	lr
 5230              	.L721:
 5231 0048 0268     		ldr	r2, [r0]
 5232 004a D06B     		ldr	r0, [r2, #60]
 5233 004c 0022     		movs	r2, #0
 5234 004e 83F83820 		strb	r2, [r3, #56]
 5235 0052 7047     		bx	lr
 5236              	.L724:
 5237 0054 0020     		movs	r0, #0
 5238 0056 E7E7     		b	.L717
 5240              		.section	.text.HAL_TIM_PeriodElapsedCallback,"ax",%progbits
 5241              		.align	1
 5242              		.p2align 2,,3
 5243              		.weak	HAL_TIM_PeriodElapsedCallback
 5244              		.syntax unified
 5245              		.thumb
 5246              		.thumb_func
 5247              		.fpu fpv4-sp-d16
 5249              	HAL_TIM_PeriodElapsedCallback:
 5250              		@ args = 0, pretend = 0, frame = 0
 5251              		@ frame_needed = 0, uses_anonymous_args = 0
 5252              		@ link register save eliminated.
 5253 0000 7047     		bx	lr
 5255 0002 00BF     		.section	.text.TIM_DMAPeriodElapsedCplt,"ax",%progbits
 5256              		.align	1
 5257              		.p2align 2,,3
 5258              		.syntax unified
 5259              		.thumb
 5260              		.thumb_func
 5261              		.fpu fpv4-sp-d16
 5263              	TIM_DMAPeriodElapsedCplt:
 5264              		@ args = 0, pretend = 0, frame = 0
 5265              		@ frame_needed = 0, uses_anonymous_args = 0
 5266 0000 08B5     		push	{r3, lr}
 5267 0002 806B     		ldr	r0, [r0, #56]
 5268 0004 0123     		movs	r3, #1
 5269 0006 80F83930 		strb	r3, [r0, #57]
 5270 000a FFF7FEFF 		bl	HAL_TIM_PeriodElapsedCallback
 5271 000e 08BD     		pop	{r3, pc}
 5273              		.section	.text.HAL_TIM_OC_DelayElapsedCallback,"ax",%progbits
 5274              		.align	1
 5275              		.p2align 2,,3
 5276              		.weak	HAL_TIM_OC_DelayElapsedCallback
 5277              		.syntax unified
 5278              		.thumb
 5279              		.thumb_func
 5280              		.fpu fpv4-sp-d16
ARM GAS  /tmp/ccnO6l7I.s 			page 91


 5282              	HAL_TIM_OC_DelayElapsedCallback:
 5283              		@ args = 0, pretend = 0, frame = 0
 5284              		@ frame_needed = 0, uses_anonymous_args = 0
 5285              		@ link register save eliminated.
 5286 0000 7047     		bx	lr
 5288 0002 00BF     		.section	.text.HAL_TIM_IC_CaptureCallback,"ax",%progbits
 5289              		.align	1
 5290              		.p2align 2,,3
 5291              		.weak	HAL_TIM_IC_CaptureCallback
 5292              		.syntax unified
 5293              		.thumb
 5294              		.thumb_func
 5295              		.fpu fpv4-sp-d16
 5297              	HAL_TIM_IC_CaptureCallback:
 5298              		@ args = 0, pretend = 0, frame = 0
 5299              		@ frame_needed = 0, uses_anonymous_args = 0
 5300              		@ link register save eliminated.
 5301 0000 7047     		bx	lr
 5303 0002 00BF     		.section	.text.TIM_DMACaptureCplt,"ax",%progbits
 5304              		.align	1
 5305              		.p2align 2,,3
 5306              		.global	TIM_DMACaptureCplt
 5307              		.syntax unified
 5308              		.thumb
 5309              		.thumb_func
 5310              		.fpu fpv4-sp-d16
 5312              	TIM_DMACaptureCplt:
 5313              		@ args = 0, pretend = 0, frame = 0
 5314              		@ frame_needed = 0, uses_anonymous_args = 0
 5315 0000 10B5     		push	{r4, lr}
 5316 0002 846B     		ldr	r4, [r0, #56]
 5317 0004 226A     		ldr	r2, [r4, #32]
 5318 0006 0123     		movs	r3, #1
 5319 0008 9042     		cmp	r0, r2
 5320 000a 84F83930 		strb	r3, [r4, #57]
 5321 000e 0FD0     		beq	.L736
 5322 0010 636A     		ldr	r3, [r4, #36]
 5323 0012 9842     		cmp	r0, r3
 5324 0014 13D0     		beq	.L737
 5325 0016 A36A     		ldr	r3, [r4, #40]
 5326 0018 9842     		cmp	r0, r3
 5327 001a 13D0     		beq	.L738
 5328 001c E36A     		ldr	r3, [r4, #44]
 5329 001e 9842     		cmp	r0, r3
 5330 0020 05D0     		beq	.L739
 5331              	.L732:
 5332 0022 2046     		mov	r0, r4
 5333 0024 FFF7FEFF 		bl	HAL_TIM_IC_CaptureCallback
 5334 0028 0023     		movs	r3, #0
 5335 002a 2376     		strb	r3, [r4, #24]
 5336 002c 10BD     		pop	{r4, pc}
 5337              	.L739:
 5338 002e 0823     		movs	r3, #8
 5339              	.L736:
 5340 0030 2376     		strb	r3, [r4, #24]
 5341 0032 2046     		mov	r0, r4
 5342 0034 FFF7FEFF 		bl	HAL_TIM_IC_CaptureCallback
ARM GAS  /tmp/ccnO6l7I.s 			page 92


 5343 0038 0023     		movs	r3, #0
 5344 003a 2376     		strb	r3, [r4, #24]
 5345 003c 10BD     		pop	{r4, pc}
 5346              	.L737:
 5347 003e 0223     		movs	r3, #2
 5348 0040 2376     		strb	r3, [r4, #24]
 5349 0042 EEE7     		b	.L732
 5350              	.L738:
 5351 0044 0423     		movs	r3, #4
 5352 0046 2376     		strb	r3, [r4, #24]
 5353 0048 EBE7     		b	.L732
 5355 004a 00BF     		.section	.text.HAL_TIM_PWM_PulseFinishedCallback,"ax",%progbits
 5356              		.align	1
 5357              		.p2align 2,,3
 5358              		.weak	HAL_TIM_PWM_PulseFinishedCallback
 5359              		.syntax unified
 5360              		.thumb
 5361              		.thumb_func
 5362              		.fpu fpv4-sp-d16
 5364              	HAL_TIM_PWM_PulseFinishedCallback:
 5365              		@ args = 0, pretend = 0, frame = 0
 5366              		@ frame_needed = 0, uses_anonymous_args = 0
 5367              		@ link register save eliminated.
 5368 0000 7047     		bx	lr
 5370 0002 00BF     		.section	.text.TIM_DMADelayPulseCplt,"ax",%progbits
 5371              		.align	1
 5372              		.p2align 2,,3
 5373              		.global	TIM_DMADelayPulseCplt
 5374              		.syntax unified
 5375              		.thumb
 5376              		.thumb_func
 5377              		.fpu fpv4-sp-d16
 5379              	TIM_DMADelayPulseCplt:
 5380              		@ args = 0, pretend = 0, frame = 0
 5381              		@ frame_needed = 0, uses_anonymous_args = 0
 5382 0000 10B5     		push	{r4, lr}
 5383 0002 846B     		ldr	r4, [r0, #56]
 5384 0004 226A     		ldr	r2, [r4, #32]
 5385 0006 0123     		movs	r3, #1
 5386 0008 9042     		cmp	r0, r2
 5387 000a 84F83930 		strb	r3, [r4, #57]
 5388 000e 0FD0     		beq	.L747
 5389 0010 636A     		ldr	r3, [r4, #36]
 5390 0012 9842     		cmp	r0, r3
 5391 0014 13D0     		beq	.L748
 5392 0016 A36A     		ldr	r3, [r4, #40]
 5393 0018 9842     		cmp	r0, r3
 5394 001a 13D0     		beq	.L749
 5395 001c E36A     		ldr	r3, [r4, #44]
 5396 001e 9842     		cmp	r0, r3
 5397 0020 05D0     		beq	.L750
 5398              	.L743:
 5399 0022 2046     		mov	r0, r4
 5400 0024 FFF7FEFF 		bl	HAL_TIM_PWM_PulseFinishedCallback
 5401 0028 0023     		movs	r3, #0
 5402 002a 2376     		strb	r3, [r4, #24]
 5403 002c 10BD     		pop	{r4, pc}
ARM GAS  /tmp/ccnO6l7I.s 			page 93


 5404              	.L750:
 5405 002e 0823     		movs	r3, #8
 5406              	.L747:
 5407 0030 2376     		strb	r3, [r4, #24]
 5408 0032 2046     		mov	r0, r4
 5409 0034 FFF7FEFF 		bl	HAL_TIM_PWM_PulseFinishedCallback
 5410 0038 0023     		movs	r3, #0
 5411 003a 2376     		strb	r3, [r4, #24]
 5412 003c 10BD     		pop	{r4, pc}
 5413              	.L748:
 5414 003e 0223     		movs	r3, #2
 5415 0040 2376     		strb	r3, [r4, #24]
 5416 0042 EEE7     		b	.L743
 5417              	.L749:
 5418 0044 0423     		movs	r3, #4
 5419 0046 2376     		strb	r3, [r4, #24]
 5420 0048 EBE7     		b	.L743
 5422 004a 00BF     		.section	.text.HAL_TIM_TriggerCallback,"ax",%progbits
 5423              		.align	1
 5424              		.p2align 2,,3
 5425              		.weak	HAL_TIM_TriggerCallback
 5426              		.syntax unified
 5427              		.thumb
 5428              		.thumb_func
 5429              		.fpu fpv4-sp-d16
 5431              	HAL_TIM_TriggerCallback:
 5432              		@ args = 0, pretend = 0, frame = 0
 5433              		@ frame_needed = 0, uses_anonymous_args = 0
 5434              		@ link register save eliminated.
 5435 0000 7047     		bx	lr
 5437 0002 00BF     		.section	.text.HAL_TIM_IRQHandler,"ax",%progbits
 5438              		.align	1
 5439              		.p2align 2,,3
 5440              		.global	HAL_TIM_IRQHandler
 5441              		.syntax unified
 5442              		.thumb
 5443              		.thumb_func
 5444              		.fpu fpv4-sp-d16
 5446              	HAL_TIM_IRQHandler:
 5447              		@ args = 0, pretend = 0, frame = 0
 5448              		@ frame_needed = 0, uses_anonymous_args = 0
 5449 0000 0368     		ldr	r3, [r0]
 5450 0002 1A69     		ldr	r2, [r3, #16]
 5451 0004 9107     		lsls	r1, r2, #30
 5452 0006 10B5     		push	{r4, lr}
 5453 0008 0446     		mov	r4, r0
 5454 000a 02D5     		bpl	.L753
 5455 000c DA68     		ldr	r2, [r3, #12]
 5456 000e 9207     		lsls	r2, r2, #30
 5457 0010 62D4     		bmi	.L818
 5458              	.L753:
 5459 0012 1A69     		ldr	r2, [r3, #16]
 5460 0014 5007     		lsls	r0, r2, #29
 5461 0016 02D5     		bpl	.L756
 5462 0018 DA68     		ldr	r2, [r3, #12]
 5463 001a 5107     		lsls	r1, r2, #29
 5464 001c 49D4     		bmi	.L819
ARM GAS  /tmp/ccnO6l7I.s 			page 94


 5465              	.L756:
 5466 001e 1A69     		ldr	r2, [r3, #16]
 5467 0020 1207     		lsls	r2, r2, #28
 5468 0022 02D5     		bpl	.L759
 5469 0024 DA68     		ldr	r2, [r3, #12]
 5470 0026 1007     		lsls	r0, r2, #28
 5471 0028 31D4     		bmi	.L820
 5472              	.L759:
 5473 002a 1A69     		ldr	r2, [r3, #16]
 5474 002c D206     		lsls	r2, r2, #27
 5475 002e 02D5     		bpl	.L762
 5476 0030 DA68     		ldr	r2, [r3, #12]
 5477 0032 D006     		lsls	r0, r2, #27
 5478 0034 18D4     		bmi	.L821
 5479              	.L762:
 5480 0036 1A69     		ldr	r2, [r3, #16]
 5481 0038 D107     		lsls	r1, r2, #31
 5482 003a 02D5     		bpl	.L765
 5483 003c DA68     		ldr	r2, [r3, #12]
 5484 003e D207     		lsls	r2, r2, #31
 5485 0040 6BD4     		bmi	.L822
 5486              	.L765:
 5487 0042 1A69     		ldr	r2, [r3, #16]
 5488 0044 1006     		lsls	r0, r2, #24
 5489 0046 02D5     		bpl	.L766
 5490 0048 DA68     		ldr	r2, [r3, #12]
 5491 004a 1106     		lsls	r1, r2, #24
 5492 004c 6DD4     		bmi	.L823
 5493              	.L766:
 5494 004e 1A69     		ldr	r2, [r3, #16]
 5495 0050 5206     		lsls	r2, r2, #25
 5496 0052 02D5     		bpl	.L767
 5497 0054 DA68     		ldr	r2, [r3, #12]
 5498 0056 5006     		lsls	r0, r2, #25
 5499 0058 57D4     		bmi	.L824
 5500              	.L767:
 5501 005a 1A69     		ldr	r2, [r3, #16]
 5502 005c 9106     		lsls	r1, r2, #26
 5503 005e 02D5     		bpl	.L752
 5504 0060 DA68     		ldr	r2, [r3, #12]
 5505 0062 9206     		lsls	r2, r2, #26
 5506 0064 49D4     		bmi	.L825
 5507              	.L752:
 5508 0066 10BD     		pop	{r4, pc}
 5509              	.L821:
 5510 0068 6FF01002 		mvn	r2, #16
 5511 006c 1A61     		str	r2, [r3, #16]
 5512 006e DB69     		ldr	r3, [r3, #28]
 5513 0070 0822     		movs	r2, #8
 5514 0072 13F4407F 		tst	r3, #768
 5515 0076 2276     		strb	r2, [r4, #24]
 5516 0078 2046     		mov	r0, r4
 5517 007a 61D1     		bne	.L826
 5518 007c FFF7FEFF 		bl	HAL_TIM_OC_DelayElapsedCallback
 5519 0080 2046     		mov	r0, r4
 5520 0082 FFF7FEFF 		bl	HAL_TIM_PWM_PulseFinishedCallback
 5521              	.L764:
ARM GAS  /tmp/ccnO6l7I.s 			page 95


 5522 0086 0022     		movs	r2, #0
 5523 0088 2368     		ldr	r3, [r4]
 5524 008a 2276     		strb	r2, [r4, #24]
 5525 008c D3E7     		b	.L762
 5526              	.L820:
 5527 008e 6FF00802 		mvn	r2, #8
 5528 0092 1A61     		str	r2, [r3, #16]
 5529 0094 DB69     		ldr	r3, [r3, #28]
 5530 0096 0422     		movs	r2, #4
 5531 0098 9907     		lsls	r1, r3, #30
 5532 009a 2276     		strb	r2, [r4, #24]
 5533 009c 2046     		mov	r0, r4
 5534 009e 55D1     		bne	.L827
 5535 00a0 FFF7FEFF 		bl	HAL_TIM_OC_DelayElapsedCallback
 5536 00a4 2046     		mov	r0, r4
 5537 00a6 FFF7FEFF 		bl	HAL_TIM_PWM_PulseFinishedCallback
 5538              	.L761:
 5539 00aa 0022     		movs	r2, #0
 5540 00ac 2368     		ldr	r3, [r4]
 5541 00ae 2276     		strb	r2, [r4, #24]
 5542 00b0 BBE7     		b	.L759
 5543              	.L819:
 5544 00b2 6FF00402 		mvn	r2, #4
 5545 00b6 1A61     		str	r2, [r3, #16]
 5546 00b8 9B69     		ldr	r3, [r3, #24]
 5547 00ba 0222     		movs	r2, #2
 5548 00bc 13F4407F 		tst	r3, #768
 5549 00c0 2276     		strb	r2, [r4, #24]
 5550 00c2 2046     		mov	r0, r4
 5551 00c4 3FD1     		bne	.L828
 5552 00c6 FFF7FEFF 		bl	HAL_TIM_OC_DelayElapsedCallback
 5553 00ca 2046     		mov	r0, r4
 5554 00cc FFF7FEFF 		bl	HAL_TIM_PWM_PulseFinishedCallback
 5555              	.L758:
 5556 00d0 0022     		movs	r2, #0
 5557 00d2 2368     		ldr	r3, [r4]
 5558 00d4 2276     		strb	r2, [r4, #24]
 5559 00d6 A2E7     		b	.L756
 5560              	.L818:
 5561 00d8 6FF00202 		mvn	r2, #2
 5562 00dc 1A61     		str	r2, [r3, #16]
 5563 00de 9B69     		ldr	r3, [r3, #24]
 5564 00e0 0122     		movs	r2, #1
 5565 00e2 9B07     		lsls	r3, r3, #30
 5566 00e4 0276     		strb	r2, [r0, #24]
 5567 00e6 28D1     		bne	.L829
 5568 00e8 FFF7FEFF 		bl	HAL_TIM_OC_DelayElapsedCallback
 5569 00ec 2046     		mov	r0, r4
 5570 00ee FFF7FEFF 		bl	HAL_TIM_PWM_PulseFinishedCallback
 5571              	.L755:
 5572 00f2 0022     		movs	r2, #0
 5573 00f4 2368     		ldr	r3, [r4]
 5574 00f6 2276     		strb	r2, [r4, #24]
 5575 00f8 8BE7     		b	.L753
 5576              	.L825:
 5577 00fa 6FF02002 		mvn	r2, #32
 5578 00fe 2046     		mov	r0, r4
ARM GAS  /tmp/ccnO6l7I.s 			page 96


 5579 0100 1A61     		str	r2, [r3, #16]
 5580 0102 BDE81040 		pop	{r4, lr}
 5581 0106 FFF7FEBF 		b	HAL_TIMEx_CommutationCallback
 5582              	.L824:
 5583 010a 6FF04002 		mvn	r2, #64
 5584 010e 1A61     		str	r2, [r3, #16]
 5585 0110 2046     		mov	r0, r4
 5586 0112 FFF7FEFF 		bl	HAL_TIM_TriggerCallback
 5587 0116 2368     		ldr	r3, [r4]
 5588 0118 9FE7     		b	.L767
 5589              	.L822:
 5590 011a 6FF00102 		mvn	r2, #1
 5591 011e 1A61     		str	r2, [r3, #16]
 5592 0120 2046     		mov	r0, r4
 5593 0122 FFF7FEFF 		bl	HAL_TIM_PeriodElapsedCallback
 5594 0126 2368     		ldr	r3, [r4]
 5595 0128 8BE7     		b	.L765
 5596              	.L823:
 5597 012a 6FF08002 		mvn	r2, #128
 5598 012e 1A61     		str	r2, [r3, #16]
 5599 0130 2046     		mov	r0, r4
 5600 0132 FFF7FEFF 		bl	HAL_TIMEx_BreakCallback
 5601 0136 2368     		ldr	r3, [r4]
 5602 0138 89E7     		b	.L766
 5603              	.L829:
 5604 013a FFF7FEFF 		bl	HAL_TIM_IC_CaptureCallback
 5605 013e D8E7     		b	.L755
 5606              	.L826:
 5607 0140 FFF7FEFF 		bl	HAL_TIM_IC_CaptureCallback
 5608 0144 9FE7     		b	.L764
 5609              	.L828:
 5610 0146 FFF7FEFF 		bl	HAL_TIM_IC_CaptureCallback
 5611 014a C1E7     		b	.L758
 5612              	.L827:
 5613 014c FFF7FEFF 		bl	HAL_TIM_IC_CaptureCallback
 5614 0150 ABE7     		b	.L761
 5616 0152 00BF     		.section	.text.TIM_DMATriggerCplt,"ax",%progbits
 5617              		.align	1
 5618              		.p2align 2,,3
 5619              		.syntax unified
 5620              		.thumb
 5621              		.thumb_func
 5622              		.fpu fpv4-sp-d16
 5624              	TIM_DMATriggerCplt:
 5625              		@ args = 0, pretend = 0, frame = 0
 5626              		@ frame_needed = 0, uses_anonymous_args = 0
 5627 0000 08B5     		push	{r3, lr}
 5628 0002 806B     		ldr	r0, [r0, #56]
 5629 0004 0123     		movs	r3, #1
 5630 0006 80F83930 		strb	r3, [r0, #57]
 5631 000a FFF7FEFF 		bl	HAL_TIM_TriggerCallback
 5632 000e 08BD     		pop	{r3, pc}
 5634              		.section	.text.HAL_TIM_ErrorCallback,"ax",%progbits
 5635              		.align	1
 5636              		.p2align 2,,3
 5637              		.weak	HAL_TIM_ErrorCallback
 5638              		.syntax unified
ARM GAS  /tmp/ccnO6l7I.s 			page 97


 5639              		.thumb
 5640              		.thumb_func
 5641              		.fpu fpv4-sp-d16
 5643              	HAL_TIM_ErrorCallback:
 5644              		@ args = 0, pretend = 0, frame = 0
 5645              		@ frame_needed = 0, uses_anonymous_args = 0
 5646              		@ link register save eliminated.
 5647 0000 7047     		bx	lr
 5649 0002 00BF     		.section	.text.TIM_DMAError,"ax",%progbits
 5650              		.align	1
 5651              		.p2align 2,,3
 5652              		.global	TIM_DMAError
 5653              		.syntax unified
 5654              		.thumb
 5655              		.thumb_func
 5656              		.fpu fpv4-sp-d16
 5658              	TIM_DMAError:
 5659              		@ args = 0, pretend = 0, frame = 0
 5660              		@ frame_needed = 0, uses_anonymous_args = 0
 5661 0000 08B5     		push	{r3, lr}
 5662 0002 806B     		ldr	r0, [r0, #56]
 5663 0004 0123     		movs	r3, #1
 5664 0006 80F83930 		strb	r3, [r0, #57]
 5665 000a FFF7FEFF 		bl	HAL_TIM_ErrorCallback
 5666 000e 08BD     		pop	{r3, pc}
 5668              		.section	.text.HAL_TIM_Base_GetState,"ax",%progbits
 5669              		.align	1
 5670              		.p2align 2,,3
 5671              		.global	HAL_TIM_Base_GetState
 5672              		.syntax unified
 5673              		.thumb
 5674              		.thumb_func
 5675              		.fpu fpv4-sp-d16
 5677              	HAL_TIM_Base_GetState:
 5678              		@ args = 0, pretend = 0, frame = 0
 5679              		@ frame_needed = 0, uses_anonymous_args = 0
 5680              		@ link register save eliminated.
 5681 0000 90F83900 		ldrb	r0, [r0, #57]	@ zero_extendqisi2
 5682 0004 7047     		bx	lr
 5684 0006 00BF     		.section	.text.HAL_TIM_OC_GetState,"ax",%progbits
 5685              		.align	1
 5686              		.p2align 2,,3
 5687              		.global	HAL_TIM_OC_GetState
 5688              		.syntax unified
 5689              		.thumb
 5690              		.thumb_func
 5691              		.fpu fpv4-sp-d16
 5693              	HAL_TIM_OC_GetState:
 5694              		@ args = 0, pretend = 0, frame = 0
 5695              		@ frame_needed = 0, uses_anonymous_args = 0
 5696              		@ link register save eliminated.
 5697 0000 90F83900 		ldrb	r0, [r0, #57]	@ zero_extendqisi2
 5698 0004 7047     		bx	lr
 5700 0006 00BF     		.section	.text.HAL_TIM_PWM_GetState,"ax",%progbits
 5701              		.align	1
 5702              		.p2align 2,,3
 5703              		.global	HAL_TIM_PWM_GetState
ARM GAS  /tmp/ccnO6l7I.s 			page 98


 5704              		.syntax unified
 5705              		.thumb
 5706              		.thumb_func
 5707              		.fpu fpv4-sp-d16
 5709              	HAL_TIM_PWM_GetState:
 5710              		@ args = 0, pretend = 0, frame = 0
 5711              		@ frame_needed = 0, uses_anonymous_args = 0
 5712              		@ link register save eliminated.
 5713 0000 90F83900 		ldrb	r0, [r0, #57]	@ zero_extendqisi2
 5714 0004 7047     		bx	lr
 5716 0006 00BF     		.section	.text.HAL_TIM_IC_GetState,"ax",%progbits
 5717              		.align	1
 5718              		.p2align 2,,3
 5719              		.global	HAL_TIM_IC_GetState
 5720              		.syntax unified
 5721              		.thumb
 5722              		.thumb_func
 5723              		.fpu fpv4-sp-d16
 5725              	HAL_TIM_IC_GetState:
 5726              		@ args = 0, pretend = 0, frame = 0
 5727              		@ frame_needed = 0, uses_anonymous_args = 0
 5728              		@ link register save eliminated.
 5729 0000 90F83900 		ldrb	r0, [r0, #57]	@ zero_extendqisi2
 5730 0004 7047     		bx	lr
 5732 0006 00BF     		.section	.text.HAL_TIM_OnePulse_GetState,"ax",%progbits
 5733              		.align	1
 5734              		.p2align 2,,3
 5735              		.global	HAL_TIM_OnePulse_GetState
 5736              		.syntax unified
 5737              		.thumb
 5738              		.thumb_func
 5739              		.fpu fpv4-sp-d16
 5741              	HAL_TIM_OnePulse_GetState:
 5742              		@ args = 0, pretend = 0, frame = 0
 5743              		@ frame_needed = 0, uses_anonymous_args = 0
 5744              		@ link register save eliminated.
 5745 0000 90F83900 		ldrb	r0, [r0, #57]	@ zero_extendqisi2
 5746 0004 7047     		bx	lr
 5748 0006 00BF     		.section	.text.HAL_TIM_Encoder_GetState,"ax",%progbits
 5749              		.align	1
 5750              		.p2align 2,,3
 5751              		.global	HAL_TIM_Encoder_GetState
 5752              		.syntax unified
 5753              		.thumb
 5754              		.thumb_func
 5755              		.fpu fpv4-sp-d16
 5757              	HAL_TIM_Encoder_GetState:
 5758              		@ args = 0, pretend = 0, frame = 0
 5759              		@ frame_needed = 0, uses_anonymous_args = 0
 5760              		@ link register save eliminated.
 5761 0000 90F83900 		ldrb	r0, [r0, #57]	@ zero_extendqisi2
 5762 0004 7047     		bx	lr
 5764 0006 00BF     		.section	.text.TIM_Base_SetConfig,"ax",%progbits
 5765              		.align	1
 5766              		.p2align 2,,3
 5767              		.global	TIM_Base_SetConfig
 5768              		.syntax unified
ARM GAS  /tmp/ccnO6l7I.s 			page 99


 5769              		.thumb
 5770              		.thumb_func
 5771              		.fpu fpv4-sp-d16
 5773              	TIM_Base_SetConfig:
 5774              		@ args = 0, pretend = 0, frame = 0
 5775              		@ frame_needed = 0, uses_anonymous_args = 0
 5776              		@ link register save eliminated.
 5777 0000 264A     		ldr	r2, .L854
 5778 0002 0368     		ldr	r3, [r0]
 5779 0004 9042     		cmp	r0, r2
 5780 0006 F0B4     		push	{r4, r5, r6, r7}
 5781 0008 34D0     		beq	.L842
 5782 000a B0F1804F 		cmp	r0, #1073741824
 5783 000e 20D0     		beq	.L845
 5784 0010 A2F57C42 		sub	r2, r2, #64512
 5785 0014 9042     		cmp	r0, r2
 5786 0016 1CD0     		beq	.L845
 5787 0018 02F58062 		add	r2, r2, #1024
 5788 001c 9042     		cmp	r0, r2
 5789 001e 18D0     		beq	.L845
 5790 0020 02F58062 		add	r2, r2, #1024
 5791 0024 9042     		cmp	r0, r2
 5792 0026 14D0     		beq	.L845
 5793 0028 02F59A32 		add	r2, r2, #78848
 5794 002c 9042     		cmp	r0, r2
 5795 002e 14D0     		beq	.L850
 5796 0030 02F58062 		add	r2, r2, #1024
 5797 0034 9042     		cmp	r0, r2
 5798 0036 10D0     		beq	.L850
 5799 0038 02F58062 		add	r2, r2, #1024
 5800 003c 9042     		cmp	r0, r2
 5801 003e 0CD0     		beq	.L850
 5802 0040 8C68     		ldr	r4, [r1, #8]
 5803 0042 0A68     		ldr	r2, [r1]
 5804 0044 0360     		str	r3, [r0]
 5805 0046 0123     		movs	r3, #1
 5806 0048 C462     		str	r4, [r0, #44]
 5807 004a 8262     		str	r2, [r0, #40]
 5808 004c F0BC     		pop	{r4, r5, r6, r7}
 5809 004e 4361     		str	r3, [r0, #20]
 5810 0050 7047     		bx	lr
 5811              	.L845:
 5812 0052 4A68     		ldr	r2, [r1, #4]
 5813 0054 23F07003 		bic	r3, r3, #112
 5814 0058 1343     		orrs	r3, r3, r2
 5815              	.L850:
 5816 005a CD68     		ldr	r5, [r1, #12]
 5817 005c 8C68     		ldr	r4, [r1, #8]
 5818 005e 0A68     		ldr	r2, [r1]
 5819 0060 23F44073 		bic	r3, r3, #768
 5820 0064 2B43     		orrs	r3, r3, r5
 5821 0066 0360     		str	r3, [r0]
 5822 0068 0123     		movs	r3, #1
 5823 006a C462     		str	r4, [r0, #44]
 5824 006c 8262     		str	r2, [r0, #40]
 5825 006e F0BC     		pop	{r4, r5, r6, r7}
 5826 0070 4361     		str	r3, [r0, #20]
ARM GAS  /tmp/ccnO6l7I.s 			page 100


 5827 0072 7047     		bx	lr
 5828              	.L842:
 5829 0074 4F68     		ldr	r7, [r1, #4]
 5830 0076 CE68     		ldr	r6, [r1, #12]
 5831 0078 8D68     		ldr	r5, [r1, #8]
 5832 007a 0C68     		ldr	r4, [r1]
 5833 007c 0A69     		ldr	r2, [r1, #16]
 5834 007e 23F07003 		bic	r3, r3, #112
 5835 0082 3B43     		orrs	r3, r3, r7
 5836 0084 23F44073 		bic	r3, r3, #768
 5837 0088 3343     		orrs	r3, r3, r6
 5838 008a 0360     		str	r3, [r0]
 5839 008c 0123     		movs	r3, #1
 5840 008e C562     		str	r5, [r0, #44]
 5841 0090 8462     		str	r4, [r0, #40]
 5842 0092 0263     		str	r2, [r0, #48]
 5843 0094 F0BC     		pop	{r4, r5, r6, r7}
 5844 0096 4361     		str	r3, [r0, #20]
 5845 0098 7047     		bx	lr
 5846              	.L855:
 5847 009a 00BF     		.align	2
 5848              	.L854:
 5849 009c 00000140 		.word	1073807360
 5851              		.section	.text.TIM_TI1_SetConfig,"ax",%progbits
 5852              		.align	1
 5853              		.p2align 2,,3
 5854              		.global	TIM_TI1_SetConfig
 5855              		.syntax unified
 5856              		.thumb
 5857              		.thumb_func
 5858              		.fpu fpv4-sp-d16
 5860              	TIM_TI1_SetConfig:
 5861              		@ args = 0, pretend = 0, frame = 0
 5862              		@ frame_needed = 0, uses_anonymous_args = 0
 5863              		@ link register save eliminated.
 5864 0000 70B4     		push	{r4, r5, r6}
 5865 0002 046A     		ldr	r4, [r0, #32]
 5866 0004 184E     		ldr	r6, .L866
 5867 0006 24F00104 		bic	r4, r4, #1
 5868 000a 0462     		str	r4, [r0, #32]
 5869 000c B042     		cmp	r0, r6
 5870 000e 8469     		ldr	r4, [r0, #24]
 5871 0010 056A     		ldr	r5, [r0, #32]
 5872 0012 17D0     		beq	.L857
 5873 0014 B0F1804F 		cmp	r0, #1073741824
 5874 0018 14D0     		beq	.L857
 5875 001a A6F57C46 		sub	r6, r6, #64512
 5876 001e B042     		cmp	r0, r6
 5877 0020 10D0     		beq	.L857
 5878 0022 06F58066 		add	r6, r6, #1024
 5879 0026 B042     		cmp	r0, r6
 5880 0028 0CD0     		beq	.L857
 5881 002a 06F58066 		add	r6, r6, #1024
 5882 002e B042     		cmp	r0, r6
 5883 0030 08D0     		beq	.L857
 5884 0032 06F59A36 		add	r6, r6, #78848
 5885 0036 B042     		cmp	r0, r6
ARM GAS  /tmp/ccnO6l7I.s 			page 101


 5886 0038 04D0     		beq	.L857
 5887 003a 24F00302 		bic	r2, r4, #3
 5888 003e 42F00102 		orr	r2, r2, #1
 5889 0042 02E0     		b	.L859
 5890              	.L857:
 5891 0044 24F00304 		bic	r4, r4, #3
 5892 0048 2243     		orrs	r2, r2, r4
 5893              	.L859:
 5894 004a 1B01     		lsls	r3, r3, #4
 5895 004c 25F00A05 		bic	r5, r5, #10
 5896 0050 DBB2     		uxtb	r3, r3
 5897 0052 22F0F002 		bic	r2, r2, #240
 5898 0056 01F00A01 		and	r1, r1, #10
 5899 005a 2943     		orrs	r1, r1, r5
 5900 005c 1A43     		orrs	r2, r2, r3
 5901 005e 8261     		str	r2, [r0, #24]
 5902 0060 70BC     		pop	{r4, r5, r6}
 5903 0062 0162     		str	r1, [r0, #32]
 5904 0064 7047     		bx	lr
 5905              	.L867:
 5906 0066 00BF     		.align	2
 5907              	.L866:
 5908 0068 00000140 		.word	1073807360
 5910              		.section	.text.TIM_OC2_SetConfig,"ax",%progbits
 5911              		.align	1
 5912              		.p2align 2,,3
 5913              		.global	TIM_OC2_SetConfig
 5914              		.syntax unified
 5915              		.thumb
 5916              		.thumb_func
 5917              		.fpu fpv4-sp-d16
 5919              	TIM_OC2_SetConfig:
 5920              		@ args = 0, pretend = 0, frame = 0
 5921              		@ frame_needed = 0, uses_anonymous_args = 0
 5922 0000 F0B5     		push	{r4, r5, r6, r7, lr}
 5923 0002 046A     		ldr	r4, [r0, #32]
 5924 0004 D1F808E0 		ldr	lr, [r1, #8]
 5925 0008 0E68     		ldr	r6, [r1]
 5926 000a 134D     		ldr	r5, .L872
 5927 000c 24F01004 		bic	r4, r4, #16
 5928 0010 0462     		str	r4, [r0, #32]
 5929 0012 036A     		ldr	r3, [r0, #32]
 5930 0014 4768     		ldr	r7, [r0, #4]
 5931 0016 8269     		ldr	r2, [r0, #24]
 5932 0018 23F02003 		bic	r3, r3, #32
 5933 001c 22F4E642 		bic	r2, r2, #29440
 5934 0020 A842     		cmp	r0, r5
 5935 0022 43EA0E13 		orr	r3, r3, lr, lsl #4
 5936 0026 42EA0622 		orr	r2, r2, r6, lsl #8
 5937 002a 05D0     		beq	.L871
 5938              	.L869:
 5939 002c 4968     		ldr	r1, [r1, #4]
 5940 002e 4760     		str	r7, [r0, #4]
 5941 0030 8261     		str	r2, [r0, #24]
 5942 0032 8163     		str	r1, [r0, #56]
 5943 0034 0362     		str	r3, [r0, #32]
 5944 0036 F0BD     		pop	{r4, r5, r6, r7, pc}
ARM GAS  /tmp/ccnO6l7I.s 			page 102


 5945              	.L871:
 5946 0038 CE68     		ldr	r6, [r1, #12]
 5947 003a 4C69     		ldr	r4, [r1, #20]
 5948 003c 8D69     		ldr	r5, [r1, #24]
 5949 003e 23F08003 		bic	r3, r3, #128
 5950 0042 27F44067 		bic	r7, r7, #3072
 5951 0046 43EA0613 		orr	r3, r3, r6, lsl #4
 5952 004a 2C43     		orrs	r4, r4, r5
 5953 004c 23F04003 		bic	r3, r3, #64
 5954 0050 47EA8407 		orr	r7, r7, r4, lsl #2
 5955 0054 EAE7     		b	.L869
 5956              	.L873:
 5957 0056 00BF     		.align	2
 5958              	.L872:
 5959 0058 00000140 		.word	1073807360
 5961              		.section	.text.TIM_CCxChannelCmd,"ax",%progbits
 5962              		.align	1
 5963              		.p2align 2,,3
 5964              		.global	TIM_CCxChannelCmd
 5965              		.syntax unified
 5966              		.thumb
 5967              		.thumb_func
 5968              		.fpu fpv4-sp-d16
 5970              	TIM_CCxChannelCmd:
 5971              		@ args = 0, pretend = 0, frame = 0
 5972              		@ frame_needed = 0, uses_anonymous_args = 0
 5973              		@ link register save eliminated.
 5974 0000 036A     		ldr	r3, [r0, #32]
 5975 0002 10B4     		push	{r4}
 5976 0004 0124     		movs	r4, #1
 5977 0006 8C40     		lsls	r4, r4, r1
 5978 0008 23EA0403 		bic	r3, r3, r4
 5979 000c 0362     		str	r3, [r0, #32]
 5980 000e 036A     		ldr	r3, [r0, #32]
 5981 0010 5DF8044B 		ldr	r4, [sp], #4
 5982 0014 8A40     		lsls	r2, r2, r1
 5983 0016 1A43     		orrs	r2, r2, r3
 5984 0018 0262     		str	r2, [r0, #32]
 5985 001a 7047     		bx	lr
 5987              		.ident	"GCC: (Arch Repository) 6.3.0"
ARM GAS  /tmp/ccnO6l7I.s 			page 103

