ARM GAS  /tmp/ccWQvKle.s 			page 1


   1              		.cpu cortex-m4
   2              		.eabi_attribute 27, 1
   3              		.eabi_attribute 28, 1
   4              		.eabi_attribute 23, 1
   5              		.eabi_attribute 24, 1
   6              		.eabi_attribute 25, 1
   7              		.eabi_attribute 26, 1
   8              		.eabi_attribute 30, 2
   9              		.eabi_attribute 34, 1
  10              		.eabi_attribute 18, 4
  11              		.file	"stm32f4xx_hal_i2c.c"
  12              		.section	.text.unlikely.I2C_WaitOnMasterAddressFlagUntilTimeout.constprop.10,"ax",%progbits
  13              		.align	1
  14              		.syntax unified
  15              		.thumb
  16              		.thumb_func
  17              		.fpu fpv4-sp-d16
  19              	I2C_WaitOnMasterAddressFlagUntilTimeout.constprop.10:
  20              		@ args = 0, pretend = 0, frame = 0
  21              		@ frame_needed = 0, uses_anonymous_args = 0
  22 0000 F8B5     		push	{r3, r4, r5, r6, r7, lr}
  23 0002 0446     		mov	r4, r0
  24 0004 0D46     		mov	r5, r1
  25 0006 1646     		mov	r6, r2
  26              	.L2:
  27 0008 2368     		ldr	r3, [r4]
  28              	.L5:
  29 000a 5869     		ldr	r0, [r3, #20]
  30 000c C043     		mvns	r0, r0
  31 000e 10F00200 		ands	r0, r0, #2
  32 0012 26D0     		beq	.L13
  33 0014 5A69     		ldr	r2, [r3, #20]
  34 0016 5105     		lsls	r1, r2, #21
  35 0018 11D5     		bpl	.L3
  36 001a 1A68     		ldr	r2, [r3]
  37 001c 0021     		movs	r1, #0
  38 001e 6FF48067 		mvn	r7, #1024
  39 0022 42F40072 		orr	r2, r2, #512
  40 0026 0426     		movs	r6, #4
  41 0028 2025     		movs	r5, #32
  42 002a 1A60     		str	r2, [r3]
  43 002c 0120     		movs	r0, #1
  44 002e 5F61     		str	r7, [r3, #20]
  45 0030 2664     		str	r6, [r4, #64]
  46 0032 84F83C10 		strb	r1, [r4, #60]
  47 0036 2163     		str	r1, [r4, #48]
  48 0038 84F83D50 		strb	r5, [r4, #61]
  49 003c F8BD     		pop	{r3, r4, r5, r6, r7, pc}
  50              	.L3:
  51 003e 6A1C     		adds	r2, r5, #1
  52 0040 E3D0     		beq	.L5
  53 0042 45B9     		cbnz	r5, .L6
  54              	.L7:
  55 0044 0023     		movs	r3, #0
  56 0046 2022     		movs	r2, #32
  57 0048 2363     		str	r3, [r4, #48]
  58 004a 84F83C30 		strb	r3, [r4, #60]
ARM GAS  /tmp/ccWQvKle.s 			page 2


  59 004e 84F83D20 		strb	r2, [r4, #61]
  60 0052 0320     		movs	r0, #3
  61 0054 F8BD     		pop	{r3, r4, r5, r6, r7, pc}
  62              	.L6:
  63 0056 FFF7FEFF 		bl	HAL_GetTick
  64 005a 801B     		subs	r0, r0, r6
  65 005c 8542     		cmp	r5, r0
  66 005e D3D2     		bcs	.L2
  67 0060 F0E7     		b	.L7
  68              	.L13:
  69 0062 F8BD     		pop	{r3, r4, r5, r6, r7, pc}
  71              		.section	.text.I2C_RequestMemoryWrite,"ax",%progbits
  72              		.align	1
  73              		.p2align 2,,3
  74              		.syntax unified
  75              		.thumb
  76              		.thumb_func
  77              		.fpu fpv4-sp-d16
  79              	I2C_RequestMemoryWrite:
  80              		@ args = 8, pretend = 0, frame = 8
  81              		@ frame_needed = 0, uses_anonymous_args = 0
  82 0000 2DE9F041 		push	{r4, r5, r6, r7, r8, lr}
  83 0004 0546     		mov	r5, r0
  84 0006 0068     		ldr	r0, [r0]
  85 0008 82B0     		sub	sp, sp, #8
  86 000a 8846     		mov	r8, r1
  87 000c 0168     		ldr	r1, [r0]
  88 000e 089C     		ldr	r4, [sp, #32]
  89 0010 41F48071 		orr	r1, r1, #256
  90 0014 1646     		mov	r6, r2
  91 0016 1F46     		mov	r7, r3
  92 0018 0160     		str	r1, [r0]
  93              	.L15:
  94 001a 621C     		adds	r2, r4, #1
  95 001c 41D1     		bne	.L19
  96              	.L20:
  97 001e 4369     		ldr	r3, [r0, #20]
  98 0020 DB07     		lsls	r3, r3, #31
  99 0022 FCD5     		bpl	.L20
 100              	.L21:
 101 0024 08F0FE01 		and	r1, r8, #254
 102 0028 0161     		str	r1, [r0, #16]
 103              	.L53:
 104 002a 631C     		adds	r3, r4, #1
 105 002c 14D0     		beq	.L30
 106 002e 4369     		ldr	r3, [r0, #20]
 107 0030 9B07     		lsls	r3, r3, #30
 108 0032 14D4     		bmi	.L28
 109 0034 4369     		ldr	r3, [r0, #20]
 110 0036 5A05     		lsls	r2, r3, #21
 111 0038 3FD4     		bmi	.L29
 112 003a 002C     		cmp	r4, #0
 113 003c 00F09380 		beq	.L26
 114 0040 FFF7FEFF 		bl	HAL_GetTick
 115 0044 099B     		ldr	r3, [sp, #36]
 116 0046 C01A     		subs	r0, r0, r3
 117 0048 8442     		cmp	r4, r0
ARM GAS  /tmp/ccWQvKle.s 			page 3


 118 004a C0F08C80 		bcc	.L26
 119 004e 2868     		ldr	r0, [r5]
 120 0050 EBE7     		b	.L53
 121              	.L65:
 122 0052 4369     		ldr	r3, [r0, #20]
 123 0054 5A05     		lsls	r2, r3, #21
 124 0056 30D4     		bmi	.L29
 125              	.L30:
 126 0058 4369     		ldr	r3, [r0, #20]
 127 005a 9907     		lsls	r1, r3, #30
 128 005c F9D5     		bpl	.L65
 129              	.L28:
 130 005e 0023     		movs	r3, #0
 131 0060 0193     		str	r3, [sp, #4]
 132 0062 4369     		ldr	r3, [r0, #20]
 133 0064 0193     		str	r3, [sp, #4]
 134 0066 8369     		ldr	r3, [r0, #24]
 135 0068 0193     		str	r3, [sp, #4]
 136 006a 019B     		ldr	r3, [sp, #4]
 137              	.L54:
 138 006c 621C     		adds	r2, r4, #1
 139 006e 5CD1     		bne	.L36
 140              	.L39:
 141 0070 4369     		ldr	r3, [r0, #20]
 142 0072 1B06     		lsls	r3, r3, #24
 143 0074 48D4     		bmi	.L37
 144 0076 4369     		ldr	r3, [r0, #20]
 145 0078 5905     		lsls	r1, r3, #21
 146 007a F9D5     		bpl	.L39
 147              	.L50:
 148 007c 0023     		movs	r3, #0
 149 007e 6FF48064 		mvn	r4, #1024
 150 0082 0421     		movs	r1, #4
 151 0084 2022     		movs	r2, #32
 152 0086 4461     		str	r4, [r0, #20]
 153 0088 2964     		str	r1, [r5, #64]
 154 008a 85F83C30 		strb	r3, [r5, #60]
 155 008e 2B63     		str	r3, [r5, #48]
 156 0090 85F83D20 		strb	r2, [r5, #61]
 157              	.L45:
 158 0094 2B6C     		ldr	r3, [r5, #64]
 159 0096 042B     		cmp	r3, #4
 160 0098 2FD0     		beq	.L66
 161              	.L41:
 162 009a 0320     		movs	r0, #3
 163              	.L60:
 164 009c 02B0     		add	sp, sp, #8
 165              		@ sp needed
 166 009e BDE8F081 		pop	{r4, r5, r6, r7, r8, pc}
 167              	.L19:
 168 00a2 4369     		ldr	r3, [r0, #20]
 169 00a4 D907     		lsls	r1, r3, #31
 170 00a6 BDD4     		bmi	.L21
 171 00a8 E4B1     		cbz	r4, .L18
 172 00aa FFF7FEFF 		bl	HAL_GetTick
 173 00ae 099B     		ldr	r3, [sp, #36]
 174 00b0 C01A     		subs	r0, r0, r3
ARM GAS  /tmp/ccWQvKle.s 			page 4


 175 00b2 8442     		cmp	r4, r0
 176 00b4 16D3     		bcc	.L18
 177 00b6 2868     		ldr	r0, [r5]
 178 00b8 AFE7     		b	.L15
 179              	.L29:
 180 00ba 0368     		ldr	r3, [r0]
 181 00bc 0022     		movs	r2, #0
 182 00be 6FF48066 		mvn	r6, #1024
 183 00c2 43F40073 		orr	r3, r3, #512
 184 00c6 0424     		movs	r4, #4
 185 00c8 2021     		movs	r1, #32
 186 00ca 0360     		str	r3, [r0]
 187 00cc 4661     		str	r6, [r0, #20]
 188 00ce 2C64     		str	r4, [r5, #64]
 189 00d0 85F83C20 		strb	r2, [r5, #60]
 190 00d4 2A63     		str	r2, [r5, #48]
 191 00d6 85F83D10 		strb	r1, [r5, #61]
 192              	.L24:
 193 00da 2B6C     		ldr	r3, [r5, #64]
 194 00dc 042B     		cmp	r3, #4
 195 00de DCD1     		bne	.L41
 196 00e0 0120     		movs	r0, #1
 197 00e2 DBE7     		b	.L60
 198              	.L18:
 199 00e4 0023     		movs	r3, #0
 200 00e6 2022     		movs	r2, #32
 201 00e8 2B63     		str	r3, [r5, #48]
 202 00ea 85F83C30 		strb	r3, [r5, #60]
 203 00ee 85F83D20 		strb	r2, [r5, #61]
 204 00f2 0320     		movs	r0, #3
 205 00f4 85F83E30 		strb	r3, [r5, #62]
 206 00f8 D0E7     		b	.L60
 207              	.L66:
 208 00fa 2A68     		ldr	r2, [r5]
 209 00fc 1368     		ldr	r3, [r2]
 210 00fe 43F40073 		orr	r3, r3, #512
 211 0102 1360     		str	r3, [r2]
 212 0104 0120     		movs	r0, #1
 213 0106 C9E7     		b	.L60
 214              	.L37:
 215 0108 012F     		cmp	r7, #1
 216 010a 0AD0     		beq	.L49
 217 010c 330A     		lsrs	r3, r6, #8
 218 010e 0361     		str	r3, [r0, #16]
 219              	.L43:
 220 0110 671C     		adds	r7, r4, #1
 221 0112 19D1     		bne	.L48
 222              	.L51:
 223 0114 4369     		ldr	r3, [r0, #20]
 224 0116 1906     		lsls	r1, r3, #24
 225 0118 03D4     		bmi	.L49
 226 011a 4369     		ldr	r3, [r0, #20]
 227 011c 5A05     		lsls	r2, r3, #21
 228 011e ADD4     		bmi	.L50
 229 0120 F8E7     		b	.L51
 230              	.L49:
 231 0122 F6B2     		uxtb	r6, r6
ARM GAS  /tmp/ccWQvKle.s 			page 5


 232 0124 0661     		str	r6, [r0, #16]
 233 0126 0020     		movs	r0, #0
 234 0128 B8E7     		b	.L60
 235              	.L36:
 236 012a 4369     		ldr	r3, [r0, #20]
 237 012c 1A06     		lsls	r2, r3, #24
 238 012e EBD4     		bmi	.L37
 239 0130 4369     		ldr	r3, [r0, #20]
 240 0132 5905     		lsls	r1, r3, #21
 241 0134 A2D4     		bmi	.L50
 242 0136 F4B1     		cbz	r4, .L47
 243 0138 FFF7FEFF 		bl	HAL_GetTick
 244 013c 099B     		ldr	r3, [sp, #36]
 245 013e C01A     		subs	r0, r0, r3
 246 0140 8442     		cmp	r4, r0
 247 0142 18D3     		bcc	.L47
 248 0144 2868     		ldr	r0, [r5]
 249 0146 91E7     		b	.L54
 250              	.L48:
 251 0148 4369     		ldr	r3, [r0, #20]
 252 014a 1B06     		lsls	r3, r3, #24
 253 014c E9D4     		bmi	.L49
 254 014e 4369     		ldr	r3, [r0, #20]
 255 0150 5B05     		lsls	r3, r3, #21
 256 0152 93D4     		bmi	.L50
 257 0154 7CB1     		cbz	r4, .L47
 258 0156 FFF7FEFF 		bl	HAL_GetTick
 259 015a 099B     		ldr	r3, [sp, #36]
 260 015c C01A     		subs	r0, r0, r3
 261 015e 8442     		cmp	r4, r0
 262 0160 09D3     		bcc	.L47
 263 0162 2868     		ldr	r0, [r5]
 264 0164 D4E7     		b	.L43
 265              	.L26:
 266 0166 0023     		movs	r3, #0
 267 0168 2022     		movs	r2, #32
 268 016a 2B63     		str	r3, [r5, #48]
 269 016c 85F83C30 		strb	r3, [r5, #60]
 270 0170 85F83D20 		strb	r2, [r5, #61]
 271 0174 B1E7     		b	.L24
 272              	.L47:
 273 0176 2B6C     		ldr	r3, [r5, #64]
 274 0178 0022     		movs	r2, #0
 275 017a 43F02003 		orr	r3, r3, #32
 276 017e 2021     		movs	r1, #32
 277 0180 2B64     		str	r3, [r5, #64]
 278 0182 85F83C20 		strb	r2, [r5, #60]
 279 0186 2A63     		str	r2, [r5, #48]
 280 0188 85F83D10 		strb	r1, [r5, #61]
 281 018c 82E7     		b	.L45
 283 018e 00BF     		.section	.text.I2C_RequestMemoryRead,"ax",%progbits
 284              		.align	1
 285              		.p2align 2,,3
 286              		.syntax unified
 287              		.thumb
 288              		.thumb_func
 289              		.fpu fpv4-sp-d16
ARM GAS  /tmp/ccWQvKle.s 			page 6


 291              	I2C_RequestMemoryRead:
 292              		@ args = 8, pretend = 0, frame = 8
 293              		@ frame_needed = 0, uses_anonymous_args = 0
 294 0000 2DE9F043 		push	{r4, r5, r6, r7, r8, r9, lr}
 295 0004 0446     		mov	r4, r0
 296 0006 0068     		ldr	r0, [r0]
 297 0008 8946     		mov	r9, r1
 298 000a 0168     		ldr	r1, [r0]
 299 000c 41F48061 		orr	r1, r1, #1024
 300 0010 0160     		str	r1, [r0]
 301 0012 83B0     		sub	sp, sp, #12
 302 0014 0168     		ldr	r1, [r0]
 303 0016 0A9E     		ldr	r6, [sp, #40]
 304 0018 0B9D     		ldr	r5, [sp, #44]
 305 001a 41F48071 		orr	r1, r1, #256
 306 001e 1746     		mov	r7, r2
 307 0020 9846     		mov	r8, r3
 308 0022 0160     		str	r1, [r0]
 309              	.L68:
 310 0024 711C     		adds	r1, r6, #1
 311 0026 42D1     		bne	.L72
 312              	.L73:
 313 0028 4369     		ldr	r3, [r0, #20]
 314 002a DA07     		lsls	r2, r3, #31
 315 002c FCD5     		bpl	.L73
 316              	.L74:
 317 002e 5FFA89F9 		uxtb	r9, r9
 318 0032 09F0FE03 		and	r3, r9, #254
 319 0036 0361     		str	r3, [r0, #16]
 320              	.L124:
 321 0038 721C     		adds	r2, r6, #1
 322 003a 13D0     		beq	.L83
 323 003c 4369     		ldr	r3, [r0, #20]
 324 003e 9A07     		lsls	r2, r3, #30
 325 0040 13D4     		bmi	.L81
 326 0042 4369     		ldr	r3, [r0, #20]
 327 0044 5905     		lsls	r1, r3, #21
 328 0046 3DD4     		bmi	.L82
 329 0048 002E     		cmp	r6, #0
 330 004a 00F0A880 		beq	.L79
 331 004e FFF7FEFF 		bl	HAL_GetTick
 332 0052 401B     		subs	r0, r0, r5
 333 0054 8642     		cmp	r6, r0
 334 0056 C0F0A280 		bcc	.L79
 335 005a 2068     		ldr	r0, [r4]
 336 005c ECE7     		b	.L124
 337              	.L143:
 338 005e 4369     		ldr	r3, [r0, #20]
 339 0060 5905     		lsls	r1, r3, #21
 340 0062 2FD4     		bmi	.L82
 341              	.L83:
 342 0064 4369     		ldr	r3, [r0, #20]
 343 0066 9B07     		lsls	r3, r3, #30
 344 0068 F9D5     		bpl	.L143
 345              	.L81:
 346 006a 0023     		movs	r3, #0
 347 006c 0193     		str	r3, [sp, #4]
ARM GAS  /tmp/ccWQvKle.s 			page 7


 348 006e 4369     		ldr	r3, [r0, #20]
 349 0070 0193     		str	r3, [sp, #4]
 350 0072 8369     		ldr	r3, [r0, #24]
 351 0074 0193     		str	r3, [sp, #4]
 352 0076 019B     		ldr	r3, [sp, #4]
 353              	.L125:
 354 0078 711C     		adds	r1, r6, #1
 355 007a 63D1     		bne	.L89
 356              	.L92:
 357 007c 4369     		ldr	r3, [r0, #20]
 358 007e 1A06     		lsls	r2, r3, #24
 359 0080 47D4     		bmi	.L90
 360 0082 4369     		ldr	r3, [r0, #20]
 361 0084 5B05     		lsls	r3, r3, #21
 362 0086 F9D5     		bpl	.L92
 363              	.L114:
 364 0088 0023     		movs	r3, #0
 365 008a 6FF48065 		mvn	r5, #1024
 366 008e 0421     		movs	r1, #4
 367 0090 2022     		movs	r2, #32
 368 0092 4561     		str	r5, [r0, #20]
 369 0094 2164     		str	r1, [r4, #64]
 370 0096 84F83C30 		strb	r3, [r4, #60]
 371 009a 2363     		str	r3, [r4, #48]
 372 009c 84F83D20 		strb	r2, [r4, #61]
 373              	.L108:
 374 00a0 236C     		ldr	r3, [r4, #64]
 375 00a2 042B     		cmp	r3, #4
 376 00a4 2ED0     		beq	.L144
 377              	.L94:
 378 00a6 0320     		movs	r0, #3
 379              	.L136:
 380 00a8 03B0     		add	sp, sp, #12
 381              		@ sp needed
 382 00aa BDE8F083 		pop	{r4, r5, r6, r7, r8, r9, pc}
 383              	.L72:
 384 00ae 4369     		ldr	r3, [r0, #20]
 385 00b0 DB07     		lsls	r3, r3, #31
 386 00b2 BCD4     		bmi	.L74
 387 00b4 DEB1     		cbz	r6, .L119
 388 00b6 FFF7FEFF 		bl	HAL_GetTick
 389 00ba 401B     		subs	r0, r0, r5
 390 00bc 8642     		cmp	r6, r0
 391 00be 16D3     		bcc	.L119
 392 00c0 2068     		ldr	r0, [r4]
 393 00c2 AFE7     		b	.L68
 394              	.L82:
 395 00c4 0368     		ldr	r3, [r0]
 396 00c6 0022     		movs	r2, #0
 397 00c8 6FF48066 		mvn	r6, #1024
 398 00cc 43F40073 		orr	r3, r3, #512
 399 00d0 0425     		movs	r5, #4
 400 00d2 2021     		movs	r1, #32
 401 00d4 0360     		str	r3, [r0]
 402 00d6 4661     		str	r6, [r0, #20]
 403 00d8 2564     		str	r5, [r4, #64]
 404 00da 84F83C20 		strb	r2, [r4, #60]
ARM GAS  /tmp/ccWQvKle.s 			page 8


 405 00de 2263     		str	r2, [r4, #48]
 406 00e0 84F83D10 		strb	r1, [r4, #61]
 407              	.L127:
 408 00e4 236C     		ldr	r3, [r4, #64]
 409 00e6 042B     		cmp	r3, #4
 410 00e8 DDD1     		bne	.L94
 411 00ea 0120     		movs	r0, #1
 412 00ec DCE7     		b	.L136
 413              	.L119:
 414 00ee 0023     		movs	r3, #0
 415 00f0 2022     		movs	r2, #32
 416 00f2 2363     		str	r3, [r4, #48]
 417 00f4 84F83C30 		strb	r3, [r4, #60]
 418 00f8 84F83D20 		strb	r2, [r4, #61]
 419 00fc 0320     		movs	r0, #3
 420 00fe 84F83E30 		strb	r3, [r4, #62]
 421 0102 D1E7     		b	.L136
 422              	.L144:
 423 0104 2268     		ldr	r2, [r4]
 424 0106 1368     		ldr	r3, [r2]
 425 0108 43F40073 		orr	r3, r3, #512
 426 010c 1360     		str	r3, [r2]
 427 010e 0120     		movs	r0, #1
 428 0110 CAE7     		b	.L136
 429              	.L90:
 430 0112 B8F1010F 		cmp	r8, #1
 431 0116 0AD0     		beq	.L103
 432 0118 3B0A     		lsrs	r3, r7, #8
 433 011a 0361     		str	r3, [r0, #16]
 434              	.L97:
 435 011c 731C     		adds	r3, r6, #1
 436 011e 2FD1     		bne	.L102
 437              	.L105:
 438 0120 4369     		ldr	r3, [r0, #20]
 439 0122 1906     		lsls	r1, r3, #24
 440 0124 03D4     		bmi	.L103
 441 0126 4369     		ldr	r3, [r0, #20]
 442 0128 5A05     		lsls	r2, r3, #21
 443 012a ADD4     		bmi	.L114
 444 012c F8E7     		b	.L105
 445              	.L103:
 446 012e FFB2     		uxtb	r7, r7
 447 0130 0761     		str	r7, [r0, #16]
 448              	.L111:
 449 0132 711C     		adds	r1, r6, #1
 450 0134 15D1     		bne	.L112
 451              	.L115:
 452 0136 4369     		ldr	r3, [r0, #20]
 453 0138 1A06     		lsls	r2, r3, #24
 454 013a 38D4     		bmi	.L113
 455 013c 4369     		ldr	r3, [r0, #20]
 456 013e 5B05     		lsls	r3, r3, #21
 457 0140 A2D4     		bmi	.L114
 458 0142 F8E7     		b	.L115
 459              	.L89:
 460 0144 4369     		ldr	r3, [r0, #20]
 461 0146 1906     		lsls	r1, r3, #24
ARM GAS  /tmp/ccWQvKle.s 			page 9


 462 0148 E3D4     		bmi	.L90
 463 014a 4369     		ldr	r3, [r0, #20]
 464 014c 5B05     		lsls	r3, r3, #21
 465 014e 9BD4     		bmi	.L114
 466 0150 002E     		cmp	r6, #0
 467 0152 4DD0     		beq	.L110
 468 0154 FFF7FEFF 		bl	HAL_GetTick
 469 0158 401B     		subs	r0, r0, r5
 470 015a 8642     		cmp	r6, r0
 471 015c 48D3     		bcc	.L110
 472 015e 2068     		ldr	r0, [r4]
 473 0160 8AE7     		b	.L125
 474              	.L112:
 475 0162 4369     		ldr	r3, [r0, #20]
 476 0164 1F06     		lsls	r7, r3, #24
 477 0166 22D4     		bmi	.L113
 478 0168 4369     		ldr	r3, [r0, #20]
 479 016a 5F05     		lsls	r7, r3, #21
 480 016c 8CD4     		bmi	.L114
 481 016e 002E     		cmp	r6, #0
 482 0170 3ED0     		beq	.L110
 483 0172 FFF7FEFF 		bl	HAL_GetTick
 484 0176 401B     		subs	r0, r0, r5
 485 0178 8642     		cmp	r6, r0
 486 017a 39D3     		bcc	.L110
 487 017c 2068     		ldr	r0, [r4]
 488 017e D8E7     		b	.L111
 489              	.L102:
 490 0180 4369     		ldr	r3, [r0, #20]
 491 0182 1B06     		lsls	r3, r3, #24
 492 0184 D3D4     		bmi	.L103
 493 0186 4369     		ldr	r3, [r0, #20]
 494 0188 5A05     		lsls	r2, r3, #21
 495 018a 3FF57DAF 		bmi	.L114
 496 018e 7EB3     		cbz	r6, .L110
 497 0190 FFF7FEFF 		bl	HAL_GetTick
 498 0194 401B     		subs	r0, r0, r5
 499 0196 8642     		cmp	r6, r0
 500 0198 2AD3     		bcc	.L110
 501 019a 2068     		ldr	r0, [r4]
 502 019c BEE7     		b	.L97
 503              	.L79:
 504 019e 0023     		movs	r3, #0
 505 01a0 2022     		movs	r2, #32
 506 01a2 2363     		str	r3, [r4, #48]
 507 01a4 84F83C30 		strb	r3, [r4, #60]
 508 01a8 84F83D20 		strb	r2, [r4, #61]
 509 01ac 9AE7     		b	.L127
 510              	.L113:
 511 01ae 0368     		ldr	r3, [r0]
 512 01b0 43F48073 		orr	r3, r3, #256
 513 01b4 0360     		str	r3, [r0]
 514              	.L117:
 515 01b6 711C     		adds	r1, r6, #1
 516 01b8 0ED1     		bne	.L120
 517              	.L121:
 518 01ba 4369     		ldr	r3, [r0, #20]
ARM GAS  /tmp/ccWQvKle.s 			page 10


 519 01bc DA07     		lsls	r2, r3, #31
 520 01be FCD5     		bpl	.L121
 521              	.L122:
 522 01c0 49F00109 		orr	r9, r9, #1
 523 01c4 C0F81090 		str	r9, [r0, #16]
 524 01c8 2A46     		mov	r2, r5
 525 01ca 3146     		mov	r1, r6
 526 01cc 2046     		mov	r0, r4
 527 01ce FFF7FEFF 		bl	I2C_WaitOnMasterAddressFlagUntilTimeout.constprop.10
 528 01d2 0028     		cmp	r0, #0
 529 01d4 86D1     		bne	.L127
 530 01d6 67E7     		b	.L136
 531              	.L120:
 532 01d8 4369     		ldr	r3, [r0, #20]
 533 01da DB07     		lsls	r3, r3, #31
 534 01dc F0D4     		bmi	.L122
 535 01de 002E     		cmp	r6, #0
 536 01e0 85D0     		beq	.L119
 537 01e2 FFF7FEFF 		bl	HAL_GetTick
 538 01e6 401B     		subs	r0, r0, r5
 539 01e8 8642     		cmp	r6, r0
 540 01ea 80D3     		bcc	.L119
 541 01ec 2068     		ldr	r0, [r4]
 542 01ee E2E7     		b	.L117
 543              	.L110:
 544 01f0 236C     		ldr	r3, [r4, #64]
 545 01f2 0022     		movs	r2, #0
 546 01f4 43F02003 		orr	r3, r3, #32
 547 01f8 2021     		movs	r1, #32
 548 01fa 2364     		str	r3, [r4, #64]
 549 01fc 84F83C20 		strb	r2, [r4, #60]
 550 0200 2263     		str	r2, [r4, #48]
 551 0202 84F83D10 		strb	r1, [r4, #61]
 552 0206 4BE7     		b	.L108
 554              		.section	.text.HAL_I2C_MspInit,"ax",%progbits
 555              		.align	1
 556              		.p2align 2,,3
 557              		.weak	HAL_I2C_MspInit
 558              		.syntax unified
 559              		.thumb
 560              		.thumb_func
 561              		.fpu fpv4-sp-d16
 563              	HAL_I2C_MspInit:
 564              		@ args = 0, pretend = 0, frame = 0
 565              		@ frame_needed = 0, uses_anonymous_args = 0
 566              		@ link register save eliminated.
 567 0000 7047     		bx	lr
 569 0002 00BF     		.section	.text.HAL_I2C_Init,"ax",%progbits
 570              		.align	1
 571              		.p2align 2,,3
 572              		.global	HAL_I2C_Init
 573              		.syntax unified
 574              		.thumb
 575              		.thumb_func
 576              		.fpu fpv4-sp-d16
 578              	HAL_I2C_Init:
 579              		@ args = 0, pretend = 0, frame = 0
ARM GAS  /tmp/ccWQvKle.s 			page 11


 580              		@ frame_needed = 0, uses_anonymous_args = 0
 581 0000 0028     		cmp	r0, #0
 582 0002 6CD0     		beq	.L154
 583 0004 F8B5     		push	{r3, r4, r5, r6, r7, lr}
 584 0006 90F83D30 		ldrb	r3, [r0, #61]	@ zero_extendqisi2
 585 000a 0446     		mov	r4, r0
 586 000c 03F0FF02 		and	r2, r3, #255
 587 0010 002B     		cmp	r3, #0
 588 0012 4FD0     		beq	.L165
 589              	.L148:
 590 0014 2268     		ldr	r2, [r4]
 591 0016 334D     		ldr	r5, .L167
 592 0018 2423     		movs	r3, #36
 593 001a 84F83D30 		strb	r3, [r4, #61]
 594 001e 1368     		ldr	r3, [r2]
 595 0020 23F00103 		bic	r3, r3, #1
 596 0024 1360     		str	r3, [r2]
 597 0026 FFF7FEFF 		bl	HAL_RCC_GetPCLK1Freq
 598 002a 2F4A     		ldr	r2, .L167+4
 599 002c 6168     		ldr	r1, [r4, #4]
 600 002e 2368     		ldr	r3, [r4]
 601 0030 A2FB0062 		umull	r6, r2, r2, r0
 602 0034 920C     		lsrs	r2, r2, #18
 603 0036 A942     		cmp	r1, r5
 604 0038 5A60     		str	r2, [r3, #4]
 605 003a 26D8     		bhi	.L149
 606 003c 4900     		lsls	r1, r1, #1
 607 003e B0FBF1F0 		udiv	r0, r0, r1
 608 0042 C0F30B01 		ubfx	r1, r0, #0, #12
 609 0046 0132     		adds	r2, r2, #1
 610 0048 0329     		cmp	r1, #3
 611 004a 1A62     		str	r2, [r3, #32]
 612 004c 98BF     		it	ls
 613 004e 0420     		movls	r0, #4
 614              	.L150:
 615 0050 E569     		ldr	r5, [r4, #28]
 616 0052 D4F820E0 		ldr	lr, [r4, #32]
 617 0056 2169     		ldr	r1, [r4, #16]
 618 0058 E768     		ldr	r7, [r4, #12]
 619 005a 6269     		ldr	r2, [r4, #20]
 620 005c A669     		ldr	r6, [r4, #24]
 621 005e D861     		str	r0, [r3, #28]
 622 0060 45EA0E05 		orr	r5, r5, lr
 623 0064 3943     		orrs	r1, r1, r7
 624 0066 3243     		orrs	r2, r2, r6
 625 0068 1D60     		str	r5, [r3]
 626 006a 9960     		str	r1, [r3, #8]
 627 006c DA60     		str	r2, [r3, #12]
 628 006e 1968     		ldr	r1, [r3]
 629 0070 0022     		movs	r2, #0
 630 0072 41F00101 		orr	r1, r1, #1
 631 0076 2025     		movs	r5, #32
 632 0078 1960     		str	r1, [r3]
 633 007a 1046     		mov	r0, r2
 634 007c 2264     		str	r2, [r4, #64]
 635 007e 84F83D50 		strb	r5, [r4, #61]
 636 0082 2263     		str	r2, [r4, #48]
ARM GAS  /tmp/ccWQvKle.s 			page 12


 637 0084 84F83E20 		strb	r2, [r4, #62]
 638 0088 F8BD     		pop	{r3, r4, r5, r6, r7, pc}
 639              	.L149:
 640 008a 4FF49675 		mov	r5, #300
 641 008e 174F     		ldr	r7, .L167+8
 642 0090 A668     		ldr	r6, [r4, #8]
 643 0092 05FB02F2 		mul	r2, r5, r2
 644 0096 A7FB0252 		umull	r5, r2, r7, r2
 645 009a 9209     		lsrs	r2, r2, #6
 646 009c 0132     		adds	r2, r2, #1
 647 009e 1A62     		str	r2, [r3, #32]
 648 00a0 6EB9     		cbnz	r6, .L151
 649 00a2 01EB4101 		add	r1, r1, r1, lsl #1
 650 00a6 B0FBF1F0 		udiv	r0, r0, r1
 651 00aa C0F30B02 		ubfx	r2, r0, #0, #12
 652 00ae 9AB9     		cbnz	r2, .L166
 653              	.L156:
 654 00b0 0120     		movs	r0, #1
 655 00b2 CDE7     		b	.L150
 656              	.L165:
 657 00b4 80F83C20 		strb	r2, [r0, #60]
 658 00b8 FFF7FEFF 		bl	HAL_I2C_MspInit
 659 00bc AAE7     		b	.L148
 660              	.L151:
 661 00be 01EB8101 		add	r1, r1, r1, lsl #2
 662 00c2 01EB8101 		add	r1, r1, r1, lsl #2
 663 00c6 B0FBF1F0 		udiv	r0, r0, r1
 664 00ca C0F30B02 		ubfx	r2, r0, #0, #12
 665 00ce 002A     		cmp	r2, #0
 666 00d0 EED0     		beq	.L156
 667 00d2 40F44040 		orr	r0, r0, #49152
 668 00d6 BBE7     		b	.L150
 669              	.L166:
 670 00d8 40F40040 		orr	r0, r0, #32768
 671 00dc B8E7     		b	.L150
 672              	.L154:
 673 00de 0120     		movs	r0, #1
 674 00e0 7047     		bx	lr
 675              	.L168:
 676 00e2 00BF     		.align	2
 677              	.L167:
 678 00e4 A0860100 		.word	100000
 679 00e8 83DE1B43 		.word	1125899907
 680 00ec D34D6210 		.word	274877907
 682              		.section	.text.HAL_I2C_MspDeInit,"ax",%progbits
 683              		.align	1
 684              		.p2align 2,,3
 685              		.weak	HAL_I2C_MspDeInit
 686              		.syntax unified
 687              		.thumb
 688              		.thumb_func
 689              		.fpu fpv4-sp-d16
 691              	HAL_I2C_MspDeInit:
 692              		@ args = 0, pretend = 0, frame = 0
 693              		@ frame_needed = 0, uses_anonymous_args = 0
 694              		@ link register save eliminated.
 695 0000 7047     		bx	lr
ARM GAS  /tmp/ccWQvKle.s 			page 13


 697 0002 00BF     		.section	.text.HAL_I2C_DeInit,"ax",%progbits
 698              		.align	1
 699              		.p2align 2,,3
 700              		.global	HAL_I2C_DeInit
 701              		.syntax unified
 702              		.thumb
 703              		.thumb_func
 704              		.fpu fpv4-sp-d16
 706              	HAL_I2C_DeInit:
 707              		@ args = 0, pretend = 0, frame = 0
 708              		@ frame_needed = 0, uses_anonymous_args = 0
 709 0000 B0B1     		cbz	r0, .L172
 710 0002 0268     		ldr	r2, [r0]
 711 0004 2423     		movs	r3, #36
 712 0006 10B5     		push	{r4, lr}
 713 0008 80F83D30 		strb	r3, [r0, #61]
 714 000c 1368     		ldr	r3, [r2]
 715 000e 23F00103 		bic	r3, r3, #1
 716 0012 0446     		mov	r4, r0
 717 0014 1360     		str	r3, [r2]
 718 0016 FFF7FEFF 		bl	HAL_I2C_MspDeInit
 719 001a 0023     		movs	r3, #0
 720 001c 2364     		str	r3, [r4, #64]
 721 001e 84F83C30 		strb	r3, [r4, #60]
 722 0022 84F83D30 		strb	r3, [r4, #61]
 723 0026 1846     		mov	r0, r3
 724 0028 2363     		str	r3, [r4, #48]
 725 002a 84F83E30 		strb	r3, [r4, #62]
 726 002e 10BD     		pop	{r4, pc}
 727              	.L172:
 728 0030 0120     		movs	r0, #1
 729 0032 7047     		bx	lr
 731              		.section	.text.HAL_I2C_Master_Transmit,"ax",%progbits
 732              		.align	1
 733              		.p2align 2,,3
 734              		.global	HAL_I2C_Master_Transmit
 735              		.syntax unified
 736              		.thumb
 737              		.thumb_func
 738              		.fpu fpv4-sp-d16
 740              	HAL_I2C_Master_Transmit:
 741              		@ args = 4, pretend = 0, frame = 8
 742              		@ frame_needed = 0, uses_anonymous_args = 0
 743 0000 2DE9F043 		push	{r4, r5, r6, r7, r8, r9, lr}
 744 0004 0446     		mov	r4, r0
 745 0006 83B0     		sub	sp, sp, #12
 746 0008 1E46     		mov	r6, r3
 747 000a 8846     		mov	r8, r1
 748 000c 1746     		mov	r7, r2
 749 000e FFF7FEFF 		bl	HAL_GetTick
 750 0012 94F83D30 		ldrb	r3, [r4, #61]	@ zero_extendqisi2
 751 0016 202B     		cmp	r3, #32
 752 0018 03D0     		beq	.L274
 753              	.L240:
 754 001a 0220     		movs	r0, #2
 755              	.L270:
 756 001c 03B0     		add	sp, sp, #12
ARM GAS  /tmp/ccWQvKle.s 			page 14


 757              		@ sp needed
 758 001e BDE8F083 		pop	{r4, r5, r6, r7, r8, r9, pc}
 759              	.L274:
 760 0022 8146     		mov	r9, r0
 761 0024 06E0     		b	.L178
 762              	.L180:
 763 0026 FFF7FEFF 		bl	HAL_GetTick
 764 002a A0EB0900 		sub	r0, r0, r9
 765 002e 1928     		cmp	r0, #25
 766 0030 00F29880 		bhi	.L281
 767              	.L178:
 768 0034 2368     		ldr	r3, [r4]
 769 0036 9A69     		ldr	r2, [r3, #24]
 770 0038 D243     		mvns	r2, r2
 771 003a 12F00205 		ands	r5, r2, #2
 772 003e F2D0     		beq	.L180
 773 0040 94F83C20 		ldrb	r2, [r4, #60]	@ zero_extendqisi2
 774 0044 012A     		cmp	r2, #1
 775 0046 E8D0     		beq	.L240
 776 0048 1A68     		ldr	r2, [r3]
 777 004a 0121     		movs	r1, #1
 778 004c D207     		lsls	r2, r2, #31
 779 004e 84F83C10 		strb	r1, [r4, #60]
 780 0052 02D4     		bmi	.L182
 781 0054 1A68     		ldr	r2, [r3]
 782 0056 0A43     		orrs	r2, r2, r1
 783 0058 1A60     		str	r2, [r3]
 784              	.L182:
 785 005a 1A68     		ldr	r2, [r3]
 786 005c A149     		ldr	r1, .L285
 787 005e 22F40062 		bic	r2, r2, #2048
 788 0062 1A60     		str	r2, [r3]
 789 0064 2122     		movs	r2, #33
 790 0066 84F83D20 		strb	r2, [r4, #61]
 791 006a 1022     		movs	r2, #16
 792 006c 84F83E20 		strb	r2, [r4, #62]
 793 0070 0022     		movs	r2, #0
 794 0072 2264     		str	r2, [r4, #64]
 795 0074 6685     		strh	r6, [r4, #42]	@ movhi
 796 0076 E162     		str	r1, [r4, #44]
 797 0078 618D     		ldrh	r1, [r4, #42]
 798 007a E26A     		ldr	r2, [r4, #44]
 799 007c 6762     		str	r7, [r4, #36]
 800 007e 042A     		cmp	r2, #4
 801 0080 2185     		strh	r1, [r4, #40]	@ movhi
 802 0082 00F0AD80 		beq	.L276
 803 0086 012A     		cmp	r2, #1
 804 0088 00F0AA80 		beq	.L276
 805 008c 12F5803F 		cmn	r2, #65536
 806 0090 00F0A680 		beq	.L276
 807 0094 226B     		ldr	r2, [r4, #48]
 808 0096 122A     		cmp	r2, #18
 809 0098 00F0A280 		beq	.L276
 810              	.L189:
 811 009c 0A9A     		ldr	r2, [sp, #40]
 812 009e 0132     		adds	r2, r2, #1
 813 00a0 40F08E80 		bne	.L190
ARM GAS  /tmp/ccWQvKle.s 			page 15


 814              	.L191:
 815 00a4 5A69     		ldr	r2, [r3, #20]
 816 00a6 D507     		lsls	r5, r2, #31
 817 00a8 FCD5     		bpl	.L191
 818              	.L192:
 819 00aa 2269     		ldr	r2, [r4, #16]
 820 00ac B2F5804F 		cmp	r2, #16384
 821 00b0 40F0C380 		bne	.L273
 822 00b4 08F0FE02 		and	r2, r8, #254
 823 00b8 1A61     		str	r2, [r3, #16]
 824              	.L209:
 825 00ba 0A9A     		ldr	r2, [sp, #40]
 826 00bc 0132     		adds	r2, r2, #1
 827 00be 04D0     		beq	.L213
 828 00c0 DCE0     		b	.L210
 829              	.L282:
 830 00c2 5A69     		ldr	r2, [r3, #20]
 831 00c4 5205     		lsls	r2, r2, #21
 832 00c6 00F19080 		bmi	.L212
 833              	.L213:
 834 00ca 5A69     		ldr	r2, [r3, #20]
 835 00cc 9107     		lsls	r1, r2, #30
 836 00ce F8D5     		bpl	.L282
 837              	.L211:
 838 00d0 0022     		movs	r2, #0
 839 00d2 0192     		str	r2, [sp, #4]
 840 00d4 5A69     		ldr	r2, [r3, #20]
 841 00d6 0192     		str	r2, [sp, #4]
 842 00d8 9A69     		ldr	r2, [r3, #24]
 843 00da 0192     		str	r2, [sp, #4]
 844 00dc 019A     		ldr	r2, [sp, #4]
 845              	.L244:
 846 00de 228D     		ldrh	r2, [r4, #40]
 847 00e0 002A     		cmp	r2, #0
 848 00e2 00F09D80 		beq	.L283
 849              	.L239:
 850 00e6 0A9A     		ldr	r2, [sp, #40]
 851 00e8 0132     		adds	r2, r2, #1
 852 00ea 45D1     		bne	.L220
 853              	.L223:
 854 00ec 5A69     		ldr	r2, [r3, #20]
 855 00ee 1006     		lsls	r0, r2, #24
 856 00f0 14D4     		bmi	.L221
 857 00f2 5A69     		ldr	r2, [r3, #20]
 858 00f4 5105     		lsls	r1, r2, #21
 859 00f6 F9D5     		bpl	.L223
 860              	.L234:
 861 00f8 0022     		movs	r2, #0
 862 00fa 6FF48065 		mvn	r5, #1024
 863 00fe 0420     		movs	r0, #4
 864 0100 2021     		movs	r1, #32
 865 0102 5D61     		str	r5, [r3, #20]
 866 0104 2064     		str	r0, [r4, #64]
 867 0106 84F83C20 		strb	r2, [r4, #60]
 868 010a 2263     		str	r2, [r4, #48]
 869 010c 84F83D10 		strb	r1, [r4, #61]
 870              	.L217:
ARM GAS  /tmp/ccWQvKle.s 			page 16


 871 0110 236C     		ldr	r3, [r4, #64]
 872 0112 042B     		cmp	r3, #4
 873 0114 00F0DF80 		beq	.L277
 874              	.L237:
 875 0118 0320     		movs	r0, #3
 876 011a 7FE7     		b	.L270
 877              	.L221:
 878 011c 616A     		ldr	r1, [r4, #36]
 879 011e 208D     		ldrh	r0, [r4, #40]
 880 0120 4A1C     		adds	r2, r1, #1
 881 0122 6262     		str	r2, [r4, #36]
 882 0124 0A78     		ldrb	r2, [r1]	@ zero_extendqisi2
 883 0126 1A61     		str	r2, [r3, #16]
 884 0128 628D     		ldrh	r2, [r4, #42]
 885 012a 013A     		subs	r2, r2, #1
 886 012c 92B2     		uxth	r2, r2
 887 012e 6285     		strh	r2, [r4, #42]	@ movhi
 888 0130 5A69     		ldr	r2, [r3, #20]
 889 0132 451E     		subs	r5, r0, #1
 890 0134 5707     		lsls	r7, r2, #29
 891 0136 2585     		strh	r5, [r4, #40]	@ movhi
 892 0138 0AD5     		bpl	.L231
 893 013a 4EB1     		cbz	r6, .L231
 894 013c 8A1C     		adds	r2, r1, #2
 895 013e 6262     		str	r2, [r4, #36]
 896 0140 4A78     		ldrb	r2, [r1, #1]	@ zero_extendqisi2
 897 0142 1A61     		str	r2, [r3, #16]
 898 0144 628D     		ldrh	r2, [r4, #42]
 899 0146 013A     		subs	r2, r2, #1
 900 0148 0238     		subs	r0, r0, #2
 901 014a 92B2     		uxth	r2, r2
 902 014c 2085     		strh	r0, [r4, #40]	@ movhi
 903 014e 6285     		strh	r2, [r4, #42]	@ movhi
 904              	.L231:
 905 0150 0A9A     		ldr	r2, [sp, #40]
 906 0152 0132     		adds	r2, r2, #1
 907 0154 22D1     		bne	.L232
 908              	.L235:
 909 0156 5A69     		ldr	r2, [r3, #20]
 910 0158 5007     		lsls	r0, r2, #29
 911 015a C0D4     		bmi	.L244
 912 015c 5A69     		ldr	r2, [r3, #20]
 913 015e 5105     		lsls	r1, r2, #21
 914 0160 CAD4     		bmi	.L234
 915 0162 F8E7     		b	.L235
 916              	.L281:
 917 0164 2023     		movs	r3, #32
 918 0166 2563     		str	r5, [r4, #48]
 919 0168 84F83C50 		strb	r5, [r4, #60]
 920 016c 84F83D30 		strb	r3, [r4, #61]
 921 0170 0220     		movs	r0, #2
 922 0172 84F83E50 		strb	r5, [r4, #62]
 923 0176 51E7     		b	.L270
 924              	.L220:
 925 0178 5A69     		ldr	r2, [r3, #20]
 926 017a 1206     		lsls	r2, r2, #24
 927 017c CED4     		bmi	.L221
ARM GAS  /tmp/ccWQvKle.s 			page 17


 928 017e 5A69     		ldr	r2, [r3, #20]
 929 0180 5505     		lsls	r5, r2, #21
 930 0182 B9D4     		bmi	.L234
 931 0184 0A9B     		ldr	r3, [sp, #40]
 932 0186 002B     		cmp	r3, #0
 933 0188 6CD0     		beq	.L230
 934 018a FFF7FEFF 		bl	HAL_GetTick
 935 018e 0A9B     		ldr	r3, [sp, #40]
 936 0190 A0EB0900 		sub	r0, r0, r9
 937 0194 8342     		cmp	r3, r0
 938 0196 65D3     		bcc	.L230
 939 0198 2368     		ldr	r3, [r4]
 940 019a A4E7     		b	.L239
 941              	.L232:
 942 019c 5A69     		ldr	r2, [r3, #20]
 943 019e 5207     		lsls	r2, r2, #29
 944 01a0 9DD4     		bmi	.L244
 945 01a2 5A69     		ldr	r2, [r3, #20]
 946 01a4 5505     		lsls	r5, r2, #21
 947 01a6 A7D4     		bmi	.L234
 948 01a8 0A9B     		ldr	r3, [sp, #40]
 949 01aa 002B     		cmp	r3, #0
 950 01ac 5AD0     		beq	.L230
 951 01ae FFF7FEFF 		bl	HAL_GetTick
 952 01b2 0A9B     		ldr	r3, [sp, #40]
 953 01b4 A0EB0900 		sub	r0, r0, r9
 954 01b8 8342     		cmp	r3, r0
 955 01ba 53D3     		bcc	.L230
 956 01bc 2368     		ldr	r3, [r4]
 957 01be C7E7     		b	.L231
 958              	.L190:
 959 01c0 5A69     		ldr	r2, [r3, #20]
 960 01c2 D007     		lsls	r0, r2, #31
 961 01c4 3FF571AF 		bmi	.L192
 962 01c8 0A9B     		ldr	r3, [sp, #40]
 963 01ca 002B     		cmp	r3, #0
 964 01cc 79D0     		beq	.L188
 965 01ce FFF7FEFF 		bl	HAL_GetTick
 966 01d2 0A9B     		ldr	r3, [sp, #40]
 967 01d4 A0EB0900 		sub	r0, r0, r9
 968 01d8 8342     		cmp	r3, r0
 969 01da 72D3     		bcc	.L188
 970 01dc 2368     		ldr	r3, [r4]
 971 01de 5DE7     		b	.L189
 972              	.L276:
 973 01e0 1A68     		ldr	r2, [r3]
 974 01e2 42F48072 		orr	r2, r2, #256
 975 01e6 1A60     		str	r2, [r3]
 976 01e8 58E7     		b	.L189
 977              	.L212:
 978 01ea 1A68     		ldr	r2, [r3]
 979 01ec 0021     		movs	r1, #0
 980 01ee 6FF48066 		mvn	r6, #1024
 981 01f2 42F40072 		orr	r2, r2, #512
 982 01f6 0425     		movs	r5, #4
 983 01f8 2020     		movs	r0, #32
 984 01fa 1A60     		str	r2, [r3]
ARM GAS  /tmp/ccWQvKle.s 			page 18


 985 01fc 5E61     		str	r6, [r3, #20]
 986 01fe 2564     		str	r5, [r4, #64]
 987 0200 84F83C10 		strb	r1, [r4, #60]
 988 0204 2163     		str	r1, [r4, #48]
 989 0206 84F83D00 		strb	r0, [r4, #61]
 990              	.L206:
 991 020a 236C     		ldr	r3, [r4, #64]
 992              	.L187:
 993 020c 236C     		ldr	r3, [r4, #64]
 994 020e 042B     		cmp	r3, #4
 995 0210 4FF00003 		mov	r3, #0
 996 0214 84F83C30 		strb	r3, [r4, #60]
 997 0218 7FF47EAF 		bne	.L237
 998              	.L278:
 999 021c 0120     		movs	r0, #1
 1000 021e FDE6     		b	.L270
 1001              	.L283:
 1002 0220 1968     		ldr	r1, [r3]
 1003 0222 2025     		movs	r5, #32
 1004 0224 41F40071 		orr	r1, r1, #512
 1005 0228 1960     		str	r1, [r3]
 1006 022a 1046     		mov	r0, r2
 1007 022c 84F83D50 		strb	r5, [r4, #61]
 1008 0230 84F83C20 		strb	r2, [r4, #60]
 1009 0234 84F83E20 		strb	r2, [r4, #62]
 1010 0238 F0E6     		b	.L270
 1011              	.L273:
 1012 023a 4FEAE812 		asr	r2, r8, #7
 1013 023e 02F00602 		and	r2, r2, #6
 1014 0242 42F0F002 		orr	r2, r2, #240
 1015 0246 1A61     		str	r2, [r3, #16]
 1016              	.L195:
 1017 0248 0A9A     		ldr	r2, [sp, #40]
 1018 024a 0132     		adds	r2, r2, #1
 1019 024c 03D0     		beq	.L203
 1020 024e 27E0     		b	.L200
 1021              	.L284:
 1022 0250 5A69     		ldr	r2, [r3, #20]
 1023 0252 5705     		lsls	r7, r2, #21
 1024 0254 C9D4     		bmi	.L212
 1025              	.L203:
 1026 0256 5A69     		ldr	r2, [r3, #20]
 1027 0258 1207     		lsls	r2, r2, #28
 1028 025a F9D5     		bpl	.L284
 1029              	.L201:
 1030 025c 5FFA88F2 		uxtb	r2, r8
 1031 0260 1A61     		str	r2, [r3, #16]
 1032 0262 2AE7     		b	.L209
 1033              	.L230:
 1034 0264 236C     		ldr	r3, [r4, #64]
 1035 0266 0022     		movs	r2, #0
 1036 0268 43F02003 		orr	r3, r3, #32
 1037 026c 2021     		movs	r1, #32
 1038 026e 2364     		str	r3, [r4, #64]
 1039 0270 84F83C20 		strb	r2, [r4, #60]
 1040 0274 2263     		str	r2, [r4, #48]
 1041 0276 84F83D10 		strb	r1, [r4, #61]
ARM GAS  /tmp/ccWQvKle.s 			page 19


 1042 027a 49E7     		b	.L217
 1043              	.L210:
 1044 027c 5A69     		ldr	r2, [r3, #20]
 1045 027e 9707     		lsls	r7, r2, #30
 1046 0280 3FF526AF 		bmi	.L211
 1047 0284 5A69     		ldr	r2, [r3, #20]
 1048 0286 5005     		lsls	r0, r2, #21
 1049 0288 AFD4     		bmi	.L212
 1050 028a 0A9B     		ldr	r3, [sp, #40]
 1051 028c 63B3     		cbz	r3, .L208
 1052 028e FFF7FEFF 		bl	HAL_GetTick
 1053 0292 0A9B     		ldr	r3, [sp, #40]
 1054 0294 A0EB0900 		sub	r0, r0, r9
 1055 0298 8342     		cmp	r3, r0
 1056 029a 25D3     		bcc	.L208
 1057 029c 2368     		ldr	r3, [r4]
 1058 029e 0CE7     		b	.L209
 1059              	.L200:
 1060 02a0 5A69     		ldr	r2, [r3, #20]
 1061 02a2 1507     		lsls	r5, r2, #28
 1062 02a4 DAD4     		bmi	.L201
 1063 02a6 5A69     		ldr	r2, [r3, #20]
 1064 02a8 5105     		lsls	r1, r2, #21
 1065 02aa 9ED4     		bmi	.L212
 1066 02ac 0A9B     		ldr	r3, [sp, #40]
 1067 02ae DBB1     		cbz	r3, .L208
 1068 02b0 FFF7FEFF 		bl	HAL_GetTick
 1069 02b4 0A9B     		ldr	r3, [sp, #40]
 1070 02b6 A0EB0900 		sub	r0, r0, r9
 1071 02ba 8342     		cmp	r3, r0
 1072 02bc 14D3     		bcc	.L208
 1073 02be 2368     		ldr	r3, [r4]
 1074 02c0 C2E7     		b	.L195
 1075              	.L188:
 1076 02c2 0023     		movs	r3, #0
 1077 02c4 2022     		movs	r2, #32
 1078 02c6 2363     		str	r3, [r4, #48]
 1079 02c8 84F83C30 		strb	r3, [r4, #60]
 1080 02cc 84F83D20 		strb	r2, [r4, #61]
 1081 02d0 84F83E30 		strb	r3, [r4, #62]
 1082 02d4 9AE7     		b	.L187
 1083              	.L277:
 1084 02d6 2268     		ldr	r2, [r4]
 1085 02d8 1368     		ldr	r3, [r2]
 1086 02da 43F40073 		orr	r3, r3, #512
 1087 02de 1360     		str	r3, [r2]
 1088 02e0 9CE7     		b	.L278
 1089              	.L286:
 1090 02e2 00BF     		.align	2
 1091              	.L285:
 1092 02e4 0000FFFF 		.word	-65536
 1093              	.L208:
 1094 02e8 0023     		movs	r3, #0
 1095 02ea 2022     		movs	r2, #32
 1096 02ec 2363     		str	r3, [r4, #48]
 1097 02ee 84F83C30 		strb	r3, [r4, #60]
 1098 02f2 84F83D20 		strb	r2, [r4, #61]
ARM GAS  /tmp/ccWQvKle.s 			page 20


 1099 02f6 88E7     		b	.L206
 1101              		.section	.text.HAL_I2C_Master_Receive,"ax",%progbits
 1102              		.align	1
 1103              		.p2align 2,,3
 1104              		.global	HAL_I2C_Master_Receive
 1105              		.syntax unified
 1106              		.thumb
 1107              		.thumb_func
 1108              		.fpu fpv4-sp-d16
 1110              	HAL_I2C_Master_Receive:
 1111              		@ args = 4, pretend = 0, frame = 24
 1112              		@ frame_needed = 0, uses_anonymous_args = 0
 1113 0000 2DE9F047 		push	{r4, r5, r6, r7, r8, r9, r10, lr}
 1114 0004 0446     		mov	r4, r0
 1115 0006 86B0     		sub	sp, sp, #24
 1116 0008 9846     		mov	r8, r3
 1117 000a 8946     		mov	r9, r1
 1118 000c 1746     		mov	r7, r2
 1119 000e 0E9D     		ldr	r5, [sp, #56]
 1120 0010 FFF7FEFF 		bl	HAL_GetTick
 1121 0014 94F83D30 		ldrb	r3, [r4, #61]	@ zero_extendqisi2
 1122 0018 202B     		cmp	r3, #32
 1123 001a 03D0     		beq	.L433
 1124              	.L376:
 1125 001c 0220     		movs	r0, #2
 1126              	.L424:
 1127 001e 06B0     		add	sp, sp, #24
 1128              		@ sp needed
 1129 0020 BDE8F087 		pop	{r4, r5, r6, r7, r8, r9, r10, pc}
 1130              	.L433:
 1131 0024 0646     		mov	r6, r0
 1132 0026 04E0     		b	.L288
 1133              	.L290:
 1134 0028 FFF7FEFF 		bl	HAL_GetTick
 1135 002c 801B     		subs	r0, r0, r6
 1136 002e 1928     		cmp	r0, #25
 1137 0030 64D8     		bhi	.L443
 1138              	.L288:
 1139 0032 2368     		ldr	r3, [r4]
 1140 0034 9A69     		ldr	r2, [r3, #24]
 1141 0036 D243     		mvns	r2, r2
 1142 0038 12F0020A 		ands	r10, r2, #2
 1143 003c 1946     		mov	r1, r3
 1144 003e F3D0     		beq	.L290
 1145 0040 94F83C20 		ldrb	r2, [r4, #60]	@ zero_extendqisi2
 1146 0044 012A     		cmp	r2, #1
 1147 0046 E9D0     		beq	.L376
 1148 0048 1A68     		ldr	r2, [r3]
 1149 004a 0120     		movs	r0, #1
 1150 004c D207     		lsls	r2, r2, #31
 1151 004e 84F83C00 		strb	r0, [r4, #60]
 1152 0052 02D4     		bmi	.L292
 1153 0054 1A68     		ldr	r2, [r3]
 1154 0056 0243     		orrs	r2, r2, r0
 1155 0058 1A60     		str	r2, [r3]
 1156              	.L292:
 1157 005a 1A68     		ldr	r2, [r3]
ARM GAS  /tmp/ccWQvKle.s 			page 21


 1158 005c 9D48     		ldr	r0, .L453
 1159 005e 22F40062 		bic	r2, r2, #2048
 1160 0062 1A60     		str	r2, [r3]
 1161 0064 2222     		movs	r2, #34
 1162 0066 84F83D20 		strb	r2, [r4, #61]
 1163 006a 1022     		movs	r2, #16
 1164 006c 84F83E20 		strb	r2, [r4, #62]
 1165 0070 0022     		movs	r2, #0
 1166 0072 2264     		str	r2, [r4, #64]
 1167 0074 A4F82A80 		strh	r8, [r4, #42]	@ movhi
 1168 0078 E062     		str	r0, [r4, #44]
 1169 007a B4F82AE0 		ldrh	lr, [r4, #42]
 1170 007e E06A     		ldr	r0, [r4, #44]
 1171 0080 1A68     		ldr	r2, [r3]
 1172 0082 6762     		str	r7, [r4, #36]
 1173 0084 42F48062 		orr	r2, r2, #1024
 1174 0088 0428     		cmp	r0, #4
 1175 008a A4F828E0 		strh	lr, [r4, #40]	@ movhi
 1176 008e 1A60     		str	r2, [r3]
 1177 0090 4ED0     		beq	.L435
 1178 0092 0128     		cmp	r0, #1
 1179 0094 4CD0     		beq	.L435
 1180 0096 10F5803F 		cmn	r0, #65536
 1181 009a 49D0     		beq	.L435
 1182 009c 226B     		ldr	r2, [r4, #48]
 1183 009e 112A     		cmp	r2, #17
 1184 00a0 46D0     		beq	.L435
 1185              	.L299:
 1186 00a2 6F1C     		adds	r7, r5, #1
 1187 00a4 35D1     		bne	.L300
 1188              	.L301:
 1189 00a6 5A69     		ldr	r2, [r3, #20]
 1190 00a8 D007     		lsls	r0, r2, #31
 1191 00aa FCD5     		bpl	.L301
 1192              	.L302:
 1193 00ac 2269     		ldr	r2, [r4, #16]
 1194 00ae B2F5804F 		cmp	r2, #16384
 1195 00b2 40F00581 		bne	.L430
 1196 00b6 49F00102 		orr	r2, r9, #1
 1197 00ba D2B2     		uxtb	r2, r2
 1198 00bc 1A61     		str	r2, [r3, #16]
 1199              	.L327:
 1200 00be 6A1C     		adds	r2, r5, #1
 1201 00c0 04D0     		beq	.L331
 1202 00c2 52E1     		b	.L328
 1203              	.L444:
 1204 00c4 5A69     		ldr	r2, [r3, #20]
 1205 00c6 5005     		lsls	r0, r2, #21
 1206 00c8 00F17081 		bmi	.L330
 1207              	.L331:
 1208 00cc 5A69     		ldr	r2, [r3, #20]
 1209 00ce 9707     		lsls	r7, r2, #30
 1210 00d0 F8D5     		bpl	.L444
 1211              	.L329:
 1212 00d2 228D     		ldrh	r2, [r4, #40]
 1213 00d4 8ABB     		cbnz	r2, .L445
 1214 00d6 0192     		str	r2, [sp, #4]
ARM GAS  /tmp/ccWQvKle.s 			page 22


 1215 00d8 5A69     		ldr	r2, [r3, #20]
 1216 00da 0192     		str	r2, [sp, #4]
 1217 00dc 9A69     		ldr	r2, [r3, #24]
 1218 00de 0192     		str	r2, [sp, #4]
 1219 00e0 019A     		ldr	r2, [sp, #4]
 1220 00e2 1A68     		ldr	r2, [r3]
 1221 00e4 42F40072 		orr	r2, r2, #512
 1222 00e8 1A60     		str	r2, [r3]
 1223              	.L334:
 1224 00ea 0020     		movs	r0, #0
 1225 00ec 2023     		movs	r3, #32
 1226 00ee 84F83D30 		strb	r3, [r4, #61]
 1227 00f2 84F83C00 		strb	r0, [r4, #60]
 1228 00f6 84F83E00 		strb	r0, [r4, #62]
 1229 00fa 90E7     		b	.L424
 1230              	.L443:
 1231 00fc 2023     		movs	r3, #32
 1232 00fe C4F830A0 		str	r10, [r4, #48]
 1233 0102 84F83CA0 		strb	r10, [r4, #60]
 1234 0106 84F83D30 		strb	r3, [r4, #61]
 1235 010a 0220     		movs	r0, #2
 1236 010c 84F83EA0 		strb	r10, [r4, #62]
 1237 0110 85E7     		b	.L424
 1238              	.L300:
 1239 0112 5A69     		ldr	r2, [r3, #20]
 1240 0114 D207     		lsls	r2, r2, #31
 1241 0116 C9D4     		bmi	.L302
 1242 0118 002D     		cmp	r5, #0
 1243 011a 00F06781 		beq	.L318
 1244 011e FFF7FEFF 		bl	HAL_GetTick
 1245 0122 801B     		subs	r0, r0, r6
 1246 0124 8542     		cmp	r5, r0
 1247 0126 C0F06181 		bcc	.L318
 1248 012a 2368     		ldr	r3, [r4]
 1249 012c 1946     		mov	r1, r3
 1250 012e B8E7     		b	.L299
 1251              	.L435:
 1252 0130 1A68     		ldr	r2, [r3]
 1253 0132 42F48072 		orr	r2, r2, #256
 1254 0136 1A60     		str	r2, [r3]
 1255 0138 B3E7     		b	.L299
 1256              	.L445:
 1257 013a 012A     		cmp	r2, #1
 1258 013c 1968     		ldr	r1, [r3]
 1259 013e 00F04681 		beq	.L446
 1260 0142 022A     		cmp	r2, #2
 1261 0144 00F05C81 		beq	.L447
 1262 0148 41F48061 		orr	r1, r1, #1024
 1263 014c 0020     		movs	r0, #0
 1264 014e 1960     		str	r1, [r3]
 1265 0150 0490     		str	r0, [sp, #16]
 1266 0152 5969     		ldr	r1, [r3, #20]
 1267 0154 0491     		str	r1, [sp, #16]
 1268 0156 9969     		ldr	r1, [r3, #24]
 1269 0158 0491     		str	r1, [sp, #16]
 1270 015a 0499     		ldr	r1, [sp, #16]
 1271              	.L338:
ARM GAS  /tmp/ccWQvKle.s 			page 23


 1272 015c 032A     		cmp	r2, #3
 1273 015e 76D8     		bhi	.L339
 1274 0160 012A     		cmp	r2, #1
 1275 0162 00F0D480 		beq	.L448
 1276 0166 022A     		cmp	r2, #2
 1277 0168 46D0     		beq	.L349
 1278              	.L350:
 1279 016a 681C     		adds	r0, r5, #1
 1280 016c 50D1     		bne	.L359
 1281              	.L360:
 1282 016e 5A69     		ldr	r2, [r3, #20]
 1283 0170 5107     		lsls	r1, r2, #29
 1284 0172 FCD5     		bpl	.L360
 1285              	.L361:
 1286 0174 1A68     		ldr	r2, [r3]
 1287 0176 616A     		ldr	r1, [r4, #36]
 1288 0178 22F48062 		bic	r2, r2, #1024
 1289 017c 1A60     		str	r2, [r3]
 1290 017e 1B69     		ldr	r3, [r3, #16]
 1291 0180 4A1C     		adds	r2, r1, #1
 1292 0182 6262     		str	r2, [r4, #36]
 1293 0184 0B70     		strb	r3, [r1]
 1294 0186 638D     		ldrh	r3, [r4, #42]
 1295 0188 228D     		ldrh	r2, [r4, #40]
 1296 018a 013B     		subs	r3, r3, #1
 1297 018c 9BB2     		uxth	r3, r3
 1298 018e 013A     		subs	r2, r2, #1
 1299 0190 6385     		strh	r3, [r4, #42]	@ movhi
 1300 0192 2285     		strh	r2, [r4, #40]	@ movhi
 1301              	.L384:
 1302 0194 6B1C     		adds	r3, r5, #1
 1303 0196 2268     		ldr	r2, [r4]
 1304 0198 45D1     		bne	.L365
 1305              	.L366:
 1306 019a 5369     		ldr	r3, [r2, #20]
 1307 019c 5F07     		lsls	r7, r3, #29
 1308 019e FCD5     		bpl	.L366
 1309              	.L367:
 1310 01a0 1368     		ldr	r3, [r2]
 1311 01a2 616A     		ldr	r1, [r4, #36]
 1312 01a4 43F40073 		orr	r3, r3, #512
 1313 01a8 1360     		str	r3, [r2]
 1314 01aa 1369     		ldr	r3, [r2, #16]
 1315              	.L438:
 1316 01ac 4A1C     		adds	r2, r1, #1
 1317 01ae 6262     		str	r2, [r4, #36]
 1318 01b0 0B70     		strb	r3, [r1]
 1319 01b2 638D     		ldrh	r3, [r4, #42]
 1320 01b4 228D     		ldrh	r2, [r4, #40]
 1321 01b6 606A     		ldr	r0, [r4, #36]
 1322 01b8 2168     		ldr	r1, [r4]
 1323 01ba 013B     		subs	r3, r3, #1
 1324 01bc 9BB2     		uxth	r3, r3
 1325 01be 6385     		strh	r3, [r4, #42]	@ movhi
 1326 01c0 0969     		ldr	r1, [r1, #16]
 1327 01c2 531E     		subs	r3, r2, #1
 1328 01c4 421C     		adds	r2, r0, #1
ARM GAS  /tmp/ccWQvKle.s 			page 24


 1329 01c6 2385     		strh	r3, [r4, #40]	@ movhi
 1330 01c8 6262     		str	r2, [r4, #36]
 1331 01ca 0170     		strb	r1, [r0]
 1332              	.L436:
 1333 01cc 228D     		ldrh	r2, [r4, #40]
 1334 01ce 638D     		ldrh	r3, [r4, #42]
 1335 01d0 013A     		subs	r2, r2, #1
 1336 01d2 013B     		subs	r3, r3, #1
 1337 01d4 92B2     		uxth	r2, r2
 1338 01d6 9BB2     		uxth	r3, r3
 1339 01d8 2285     		strh	r2, [r4, #40]	@ movhi
 1340 01da 6385     		strh	r3, [r4, #42]	@ movhi
 1341              	.L383:
 1342 01dc 002A     		cmp	r2, #0
 1343 01de 84D0     		beq	.L334
 1344 01e0 2368     		ldr	r3, [r4]
 1345 01e2 BBE7     		b	.L338
 1346              	.L353:
 1347 01e4 5A69     		ldr	r2, [r3, #20]
 1348 01e6 5707     		lsls	r7, r2, #29
 1349 01e8 0BD4     		bmi	.L355
 1350 01ea 2DB3     		cbz	r5, .L364
 1351 01ec FFF7FEFF 		bl	HAL_GetTick
 1352 01f0 801B     		subs	r0, r0, r6
 1353 01f2 8542     		cmp	r5, r0
 1354 01f4 20D3     		bcc	.L364
 1355 01f6 2368     		ldr	r3, [r4]
 1356              	.L349:
 1357 01f8 691C     		adds	r1, r5, #1
 1358 01fa F3D1     		bne	.L353
 1359              	.L354:
 1360 01fc 5A69     		ldr	r2, [r3, #20]
 1361 01fe 5207     		lsls	r2, r2, #29
 1362 0200 FCD5     		bpl	.L354
 1363              	.L355:
 1364 0202 1A68     		ldr	r2, [r3]
 1365 0204 616A     		ldr	r1, [r4, #36]
 1366 0206 42F40072 		orr	r2, r2, #512
 1367 020a 1A60     		str	r2, [r3]
 1368 020c 1B69     		ldr	r3, [r3, #16]
 1369 020e CDE7     		b	.L438
 1370              	.L359:
 1371 0210 5A69     		ldr	r2, [r3, #20]
 1372 0212 5207     		lsls	r2, r2, #29
 1373 0214 AED4     		bmi	.L361
 1374 0216 7DB1     		cbz	r5, .L364
 1375 0218 FFF7FEFF 		bl	HAL_GetTick
 1376 021c 801B     		subs	r0, r0, r6
 1377 021e 8542     		cmp	r5, r0
 1378 0220 0AD3     		bcc	.L364
 1379 0222 2368     		ldr	r3, [r4]
 1380 0224 A1E7     		b	.L350
 1381              	.L365:
 1382 0226 5369     		ldr	r3, [r2, #20]
 1383 0228 5807     		lsls	r0, r3, #29
 1384 022a B9D4     		bmi	.L367
 1385 022c 25B1     		cbz	r5, .L364
ARM GAS  /tmp/ccWQvKle.s 			page 25


 1386 022e FFF7FEFF 		bl	HAL_GetTick
 1387 0232 801B     		subs	r0, r0, r6
 1388 0234 8542     		cmp	r5, r0
 1389 0236 ADD2     		bcs	.L384
 1390              	.L364:
 1391 0238 0023     		movs	r3, #0
 1392 023a 2022     		movs	r2, #32
 1393 023c 2363     		str	r3, [r4, #48]
 1394 023e 84F83C30 		strb	r3, [r4, #60]
 1395 0242 84F83D20 		strb	r2, [r4, #61]
 1396 0246 0320     		movs	r0, #3
 1397 0248 84F83E30 		strb	r3, [r4, #62]
 1398 024c E7E6     		b	.L424
 1399              	.L339:
 1400 024e 4DB9     		cbnz	r5, .L428
 1401 0250 22E0     		b	.L371
 1402              	.L449:
 1403 0252 5A69     		ldr	r2, [r3, #20]
 1404 0254 D706     		lsls	r7, r2, #27
 1405 0256 68D4     		bmi	.L373
 1406 0258 FFF7FEFF 		bl	HAL_GetTick
 1407 025c 801B     		subs	r0, r0, r6
 1408 025e 8542     		cmp	r5, r0
 1409 0260 20D3     		bcc	.L369
 1410 0262 2368     		ldr	r3, [r4]
 1411              	.L428:
 1412 0264 5A69     		ldr	r2, [r3, #20]
 1413 0266 5206     		lsls	r2, r2, #25
 1414 0268 F3D5     		bpl	.L449
 1415              	.L372:
 1416 026a 626A     		ldr	r2, [r4, #36]
 1417 026c 1B69     		ldr	r3, [r3, #16]
 1418 026e 511C     		adds	r1, r2, #1
 1419 0270 6162     		str	r1, [r4, #36]
 1420 0272 1370     		strb	r3, [r2]
 1421 0274 618D     		ldrh	r1, [r4, #42]
 1422 0276 2368     		ldr	r3, [r4]
 1423 0278 228D     		ldrh	r2, [r4, #40]
 1424 027a 0139     		subs	r1, r1, #1
 1425 027c 89B2     		uxth	r1, r1
 1426 027e 6185     		strh	r1, [r4, #42]	@ movhi
 1427 0280 5969     		ldr	r1, [r3, #20]
 1428 0282 013A     		subs	r2, r2, #1
 1429 0284 92B2     		uxth	r2, r2
 1430 0286 4907     		lsls	r1, r1, #29
 1431 0288 2285     		strh	r2, [r4, #40]	@ movhi
 1432 028a A7D5     		bpl	.L383
 1433              	.L386:
 1434 028c 626A     		ldr	r2, [r4, #36]
 1435 028e 1B69     		ldr	r3, [r3, #16]
 1436 0290 511C     		adds	r1, r2, #1
 1437 0292 6162     		str	r1, [r4, #36]
 1438 0294 1370     		strb	r3, [r2]
 1439 0296 99E7     		b	.L436
 1440              	.L371:
 1441 0298 5A69     		ldr	r2, [r3, #20]
 1442 029a 5006     		lsls	r0, r2, #25
ARM GAS  /tmp/ccWQvKle.s 			page 26


 1443 029c E5D4     		bmi	.L372
 1444              	.L375:
 1445 029e 5A69     		ldr	r2, [r3, #20]
 1446 02a0 D106     		lsls	r1, r2, #27
 1447 02a2 42D4     		bmi	.L373
 1448              	.L369:
 1449 02a4 236C     		ldr	r3, [r4, #64]
 1450 02a6 2022     		movs	r2, #32
 1451 02a8 1343     		orrs	r3, r3, r2
 1452 02aa 0021     		movs	r1, #0
 1453 02ac 2364     		str	r3, [r4, #64]
 1454 02ae 84F83C10 		strb	r1, [r4, #60]
 1455 02b2 84F83D20 		strb	r2, [r4, #61]
 1456              	.L343:
 1457 02b6 236C     		ldr	r3, [r4, #64]
 1458 02b8 202B     		cmp	r3, #32
 1459 02ba 26D0     		beq	.L385
 1460              	.L382:
 1461 02bc 0120     		movs	r0, #1
 1462 02be AEE6     		b	.L424
 1463              	.L430:
 1464 02c0 4FEAE917 		asr	r7, r9, #7
 1465 02c4 07F00607 		and	r7, r7, #6
 1466 02c8 47F0F002 		orr	r2, r7, #240
 1467 02cc 1A61     		str	r2, [r3, #16]
 1468              	.L305:
 1469 02ce 681C     		adds	r0, r5, #1
 1470 02d0 05D0     		beq	.L313
 1471 02d2 3AE0     		b	.L310
 1472              	.L454:
 1473              		.align	2
 1474              	.L453:
 1475 02d4 0000FFFF 		.word	-65536
 1476              	.L450:
 1477 02d8 4B69     		ldr	r3, [r1, #20]
 1478 02da 5B05     		lsls	r3, r3, #21
 1479 02dc 55D4     		bmi	.L312
 1480              	.L313:
 1481 02de 4B69     		ldr	r3, [r1, #20]
 1482 02e0 1A07     		lsls	r2, r3, #28
 1483 02e2 F9D5     		bpl	.L450
 1484              	.L311:
 1485 02e4 5FFA89F3 		uxtb	r3, r9
 1486 02e8 0B61     		str	r3, [r1, #16]
 1487 02ea 3246     		mov	r2, r6
 1488 02ec 2946     		mov	r1, r5
 1489 02ee 2046     		mov	r0, r4
 1490 02f0 FFF7FEFF 		bl	I2C_WaitOnMasterAddressFlagUntilTimeout.constprop.10
 1491 02f4 0028     		cmp	r0, #0
 1492 02f6 00F09280 		beq	.L451
 1493              	.L324:
 1494 02fa 236C     		ldr	r3, [r4, #64]
 1495              	.L315:
 1496 02fc 236C     		ldr	r3, [r4, #64]
 1497 02fe 042B     		cmp	r3, #4
 1498 0300 4FF00003 		mov	r3, #0
 1499 0304 84F83C30 		strb	r3, [r4, #60]
ARM GAS  /tmp/ccWQvKle.s 			page 27


 1500 0308 D8D0     		beq	.L382
 1501              	.L385:
 1502 030a 0320     		movs	r0, #3
 1503 030c 87E6     		b	.L424
 1504              	.L448:
 1505 030e 35B9     		cbnz	r5, .L427
 1506 0310 17E0     		b	.L344
 1507              	.L452:
 1508 0312 FFF7FEFF 		bl	HAL_GetTick
 1509 0316 801B     		subs	r0, r0, r6
 1510 0318 8542     		cmp	r5, r0
 1511 031a C3D3     		bcc	.L369
 1512 031c 2368     		ldr	r3, [r4]
 1513              	.L427:
 1514 031e 5A69     		ldr	r2, [r3, #20]
 1515 0320 5206     		lsls	r2, r2, #25
 1516 0322 B3D4     		bmi	.L386
 1517 0324 5A69     		ldr	r2, [r3, #20]
 1518 0326 D706     		lsls	r7, r2, #27
 1519 0328 F3D5     		bpl	.L452
 1520              	.L373:
 1521 032a 0022     		movs	r2, #0
 1522 032c 6FF01000 		mvn	r0, #16
 1523 0330 2021     		movs	r1, #32
 1524 0332 5861     		str	r0, [r3, #20]
 1525 0334 2264     		str	r2, [r4, #64]
 1526 0336 84F83C20 		strb	r2, [r4, #60]
 1527 033a 2263     		str	r2, [r4, #48]
 1528 033c 84F83D10 		strb	r1, [r4, #61]
 1529 0340 B9E7     		b	.L343
 1530              	.L344:
 1531 0342 5A69     		ldr	r2, [r3, #20]
 1532 0344 5006     		lsls	r0, r2, #25
 1533 0346 AAD5     		bpl	.L375
 1534 0348 A0E7     		b	.L386
 1535              	.L310:
 1536 034a 4B69     		ldr	r3, [r1, #20]
 1537 034c 1807     		lsls	r0, r3, #28
 1538 034e C9D4     		bmi	.L311
 1539 0350 4B69     		ldr	r3, [r1, #20]
 1540 0352 5B05     		lsls	r3, r3, #21
 1541 0354 19D4     		bmi	.L312
 1542 0356 002D     		cmp	r5, #0
 1543 0358 00F08180 		beq	.L326
 1544 035c FFF7FEFF 		bl	HAL_GetTick
 1545 0360 801B     		subs	r0, r0, r6
 1546 0362 8542     		cmp	r5, r0
 1547 0364 7BD3     		bcc	.L326
 1548 0366 2168     		ldr	r1, [r4]
 1549 0368 B1E7     		b	.L305
 1550              	.L328:
 1551 036a 5A69     		ldr	r2, [r3, #20]
 1552 036c 9107     		lsls	r1, r2, #30
 1553 036e 3FF5B0AE 		bmi	.L329
 1554 0372 5A69     		ldr	r2, [r3, #20]
 1555 0374 5105     		lsls	r1, r2, #21
 1556 0376 19D4     		bmi	.L330
ARM GAS  /tmp/ccWQvKle.s 			page 28


 1557 0378 002D     		cmp	r5, #0
 1558 037a 70D0     		beq	.L326
 1559 037c FFF7FEFF 		bl	HAL_GetTick
 1560 0380 801B     		subs	r0, r0, r6
 1561 0382 8542     		cmp	r5, r0
 1562 0384 6BD3     		bcc	.L326
 1563 0386 2368     		ldr	r3, [r4]
 1564 0388 99E6     		b	.L327
 1565              	.L312:
 1566 038a 0B68     		ldr	r3, [r1]
 1567 038c 0022     		movs	r2, #0
 1568 038e 6FF48066 		mvn	r6, #1024
 1569 0392 43F40073 		orr	r3, r3, #512
 1570 0396 0425     		movs	r5, #4
 1571 0398 2020     		movs	r0, #32
 1572 039a 0B60     		str	r3, [r1]
 1573 039c 4E61     		str	r6, [r1, #20]
 1574 039e 2564     		str	r5, [r4, #64]
 1575 03a0 84F83C20 		strb	r2, [r4, #60]
 1576 03a4 2263     		str	r2, [r4, #48]
 1577 03a6 84F83D00 		strb	r0, [r4, #61]
 1578 03aa A6E7     		b	.L324
 1579              	.L330:
 1580 03ac 1A68     		ldr	r2, [r3]
 1581 03ae 0021     		movs	r1, #0
 1582 03b0 6FF48066 		mvn	r6, #1024
 1583 03b4 42F40072 		orr	r2, r2, #512
 1584 03b8 0425     		movs	r5, #4
 1585 03ba 2020     		movs	r0, #32
 1586 03bc 1A60     		str	r2, [r3]
 1587 03be 5E61     		str	r6, [r3, #20]
 1588 03c0 2564     		str	r5, [r4, #64]
 1589 03c2 84F83C10 		strb	r1, [r4, #60]
 1590 03c6 2163     		str	r1, [r4, #48]
 1591 03c8 84F83D00 		strb	r0, [r4, #61]
 1592 03cc 95E7     		b	.L324
 1593              	.L446:
 1594 03ce 21F48061 		bic	r1, r1, #1024
 1595 03d2 0020     		movs	r0, #0
 1596 03d4 1960     		str	r1, [r3]
 1597 03d6 0290     		str	r0, [sp, #8]
 1598 03d8 5969     		ldr	r1, [r3, #20]
 1599 03da 0291     		str	r1, [sp, #8]
 1600 03dc 9969     		ldr	r1, [r3, #24]
 1601 03de 0291     		str	r1, [sp, #8]
 1602 03e0 0299     		ldr	r1, [sp, #8]
 1603 03e2 1968     		ldr	r1, [r3]
 1604 03e4 41F40071 		orr	r1, r1, #512
 1605 03e8 1960     		str	r1, [r3]
 1606 03ea B7E6     		b	.L338
 1607              	.L318:
 1608 03ec 0023     		movs	r3, #0
 1609 03ee 2022     		movs	r2, #32
 1610 03f0 2363     		str	r3, [r4, #48]
 1611 03f2 84F83C30 		strb	r3, [r4, #60]
 1612 03f6 84F83D20 		strb	r2, [r4, #61]
 1613 03fa 84F83E30 		strb	r3, [r4, #62]
ARM GAS  /tmp/ccWQvKle.s 			page 29


 1614 03fe 7DE7     		b	.L315
 1615              	.L447:
 1616 0400 21F48061 		bic	r1, r1, #1024
 1617 0404 1960     		str	r1, [r3]
 1618 0406 1968     		ldr	r1, [r3]
 1619 0408 0020     		movs	r0, #0
 1620 040a 41F40061 		orr	r1, r1, #2048
 1621 040e 1960     		str	r1, [r3]
 1622 0410 0390     		str	r0, [sp, #12]
 1623 0412 5969     		ldr	r1, [r3, #20]
 1624 0414 0391     		str	r1, [sp, #12]
 1625 0416 9969     		ldr	r1, [r3, #24]
 1626 0418 0391     		str	r1, [sp, #12]
 1627 041a 0399     		ldr	r1, [sp, #12]
 1628 041c 9EE6     		b	.L338
 1629              	.L451:
 1630 041e 2368     		ldr	r3, [r4]
 1631 0420 0590     		str	r0, [sp, #20]
 1632 0422 5A69     		ldr	r2, [r3, #20]
 1633 0424 0592     		str	r2, [sp, #20]
 1634 0426 9A69     		ldr	r2, [r3, #24]
 1635 0428 0592     		str	r2, [sp, #20]
 1636 042a 059A     		ldr	r2, [sp, #20]
 1637 042c 1A68     		ldr	r2, [r3]
 1638 042e 42F48072 		orr	r2, r2, #256
 1639 0432 1A60     		str	r2, [r3]
 1640              	.L316:
 1641 0434 691C     		adds	r1, r5, #1
 1642 0436 06D1     		bne	.L319
 1643              	.L320:
 1644 0438 5A69     		ldr	r2, [r3, #20]
 1645 043a D207     		lsls	r2, r2, #31
 1646 043c FCD5     		bpl	.L320
 1647              	.L321:
 1648 043e 47F0F107 		orr	r7, r7, #241
 1649 0442 1F61     		str	r7, [r3, #16]
 1650 0444 3BE6     		b	.L327
 1651              	.L319:
 1652 0446 5A69     		ldr	r2, [r3, #20]
 1653 0448 D007     		lsls	r0, r2, #31
 1654 044a F8D4     		bmi	.L321
 1655 044c 002D     		cmp	r5, #0
 1656 044e CDD0     		beq	.L318
 1657 0450 FFF7FEFF 		bl	HAL_GetTick
 1658 0454 801B     		subs	r0, r0, r6
 1659 0456 8542     		cmp	r5, r0
 1660 0458 C8D3     		bcc	.L318
 1661 045a 2368     		ldr	r3, [r4]
 1662 045c EAE7     		b	.L316
 1663              	.L326:
 1664 045e 0023     		movs	r3, #0
 1665 0460 2022     		movs	r2, #32
 1666 0462 2363     		str	r3, [r4, #48]
 1667 0464 84F83C30 		strb	r3, [r4, #60]
 1668 0468 84F83D20 		strb	r2, [r4, #61]
 1669 046c 45E7     		b	.L324
 1671 046e 00BF     		.section	.text.HAL_I2C_Slave_Transmit,"ax",%progbits
ARM GAS  /tmp/ccWQvKle.s 			page 30


 1672              		.align	1
 1673              		.p2align 2,,3
 1674              		.global	HAL_I2C_Slave_Transmit
 1675              		.syntax unified
 1676              		.thumb
 1677              		.thumb_func
 1678              		.fpu fpv4-sp-d16
 1680              	HAL_I2C_Slave_Transmit:
 1681              		@ args = 0, pretend = 0, frame = 8
 1682              		@ frame_needed = 0, uses_anonymous_args = 0
 1683 0000 2DE9F041 		push	{r4, r5, r6, r7, r8, lr}
 1684 0004 0446     		mov	r4, r0
 1685 0006 82B0     		sub	sp, sp, #8
 1686 0008 1D46     		mov	r5, r3
 1687 000a 0F46     		mov	r7, r1
 1688 000c 9046     		mov	r8, r2
 1689 000e FFF7FEFF 		bl	HAL_GetTick
 1690 0012 94F83D30 		ldrb	r3, [r4, #61]	@ zero_extendqisi2
 1691 0016 202B     		cmp	r3, #32
 1692 0018 03D0     		beq	.L514
 1693              	.L496:
 1694 001a 0220     		movs	r0, #2
 1695              	.L512:
 1696 001c 02B0     		add	sp, sp, #8
 1697              		@ sp needed
 1698 001e BDE8F081 		pop	{r4, r5, r6, r7, r8, pc}
 1699              	.L514:
 1700 0022 002F     		cmp	r7, #0
 1701 0024 58D0     		beq	.L458
 1702 0026 B8F1000F 		cmp	r8, #0
 1703 002a 55D0     		beq	.L458
 1704 002c 94F83C30 		ldrb	r3, [r4, #60]	@ zero_extendqisi2
 1705 0030 012B     		cmp	r3, #1
 1706 0032 F2D0     		beq	.L496
 1707 0034 2368     		ldr	r3, [r4]
 1708 0036 1A68     		ldr	r2, [r3]
 1709 0038 0121     		movs	r1, #1
 1710 003a D207     		lsls	r2, r2, #31
 1711 003c 0646     		mov	r6, r0
 1712 003e 84F83C10 		strb	r1, [r4, #60]
 1713 0042 02D4     		bmi	.L459
 1714 0044 1A68     		ldr	r2, [r3]
 1715 0046 0A43     		orrs	r2, r2, r1
 1716 0048 1A60     		str	r2, [r3]
 1717              	.L459:
 1718 004a 1A68     		ldr	r2, [r3]
 1719 004c 6649     		ldr	r1, .L515
 1720 004e 22F40062 		bic	r2, r2, #2048
 1721 0052 1A60     		str	r2, [r3]
 1722 0054 2122     		movs	r2, #33
 1723 0056 84F83D20 		strb	r2, [r4, #61]
 1724 005a 2022     		movs	r2, #32
 1725 005c 84F83E20 		strb	r2, [r4, #62]
 1726 0060 0022     		movs	r2, #0
 1727 0062 2264     		str	r2, [r4, #64]
 1728 0064 A4F82A80 		strh	r8, [r4, #42]	@ movhi
 1729 0068 E162     		str	r1, [r4, #44]
ARM GAS  /tmp/ccWQvKle.s 			page 31


 1730 006a 618D     		ldrh	r1, [r4, #42]
 1731 006c 1A68     		ldr	r2, [r3]
 1732 006e 6762     		str	r7, [r4, #36]
 1733 0070 42F48062 		orr	r2, r2, #1024
 1734 0074 2185     		strh	r1, [r4, #40]	@ movhi
 1735 0076 1A60     		str	r2, [r3]
 1736              	.L460:
 1737 0078 681C     		adds	r0, r5, #1
 1738 007a 40F09D80 		bne	.L463
 1739              	.L464:
 1740 007e 5A69     		ldr	r2, [r3, #20]
 1741 0080 9107     		lsls	r1, r2, #30
 1742 0082 FCD5     		bpl	.L464
 1743              	.L465:
 1744 0084 0022     		movs	r2, #0
 1745 0086 0092     		str	r2, [sp]
 1746 0088 5A69     		ldr	r2, [r3, #20]
 1747 008a 0092     		str	r2, [sp]
 1748 008c 2269     		ldr	r2, [r4, #16]
 1749 008e 9969     		ldr	r1, [r3, #24]
 1750 0090 0091     		str	r1, [sp]
 1751 0092 B2F5404F 		cmp	r2, #49152
 1752 0096 0099     		ldr	r1, [sp]
 1753 0098 4BD0     		beq	.L493
 1754              	.L492:
 1755 009a 228D     		ldrh	r2, [r4, #40]
 1756              	.L482:
 1757 009c 4AB3     		cbz	r2, .L485
 1758              	.L484:
 1759 009e 6F1C     		adds	r7, r5, #1
 1760 00a0 70D1     		bne	.L477
 1761              	.L480:
 1762 00a2 5A69     		ldr	r2, [r3, #20]
 1763 00a4 1006     		lsls	r0, r2, #24
 1764 00a6 51D4     		bmi	.L478
 1765 00a8 5A69     		ldr	r2, [r3, #20]
 1766 00aa 5105     		lsls	r1, r2, #21
 1767 00ac F9D5     		bpl	.L480
 1768              	.L479:
 1769 00ae 0022     		movs	r2, #0
 1770 00b0 6FF48065 		mvn	r5, #1024
 1771 00b4 0420     		movs	r0, #4
 1772 00b6 2021     		movs	r1, #32
 1773 00b8 5D61     		str	r5, [r3, #20]
 1774 00ba 2064     		str	r0, [r4, #64]
 1775 00bc 84F83C20 		strb	r2, [r4, #60]
 1776 00c0 2263     		str	r2, [r4, #48]
 1777 00c2 84F83D10 		strb	r1, [r4, #61]
 1778              	.L474:
 1779 00c6 1A68     		ldr	r2, [r3]
 1780 00c8 22F48062 		bic	r2, r2, #1024
 1781 00cc 1A60     		str	r2, [r3]
 1782 00ce 236C     		ldr	r3, [r4, #64]
 1783 00d0 042B     		cmp	r3, #4
 1784 00d2 01D0     		beq	.L458
 1785 00d4 0320     		movs	r0, #3
 1786 00d6 A1E7     		b	.L512
ARM GAS  /tmp/ccWQvKle.s 			page 32


 1787              	.L458:
 1788 00d8 0120     		movs	r0, #1
 1789 00da 9FE7     		b	.L512
 1790              	.L488:
 1791 00dc 5A69     		ldr	r2, [r3, #20]
 1792 00de 5205     		lsls	r2, r2, #21
 1793 00e0 0CD4     		bmi	.L490
 1794 00e2 002D     		cmp	r5, #0
 1795 00e4 74D0     		beq	.L487
 1796 00e6 FFF7FEFF 		bl	HAL_GetTick
 1797 00ea 801B     		subs	r0, r0, r6
 1798 00ec 8542     		cmp	r5, r0
 1799 00ee 6FD3     		bcc	.L487
 1800 00f0 2368     		ldr	r3, [r4]
 1801              	.L485:
 1802 00f2 681C     		adds	r0, r5, #1
 1803 00f4 F2D1     		bne	.L488
 1804              	.L489:
 1805 00f6 5A69     		ldr	r2, [r3, #20]
 1806 00f8 5105     		lsls	r1, r2, #21
 1807 00fa FCD5     		bpl	.L489
 1808              	.L490:
 1809 00fc 6FF48062 		mvn	r2, #1024
 1810 0100 5A61     		str	r2, [r3, #20]
 1811 0102 1968     		ldr	r1, [r3]
 1812 0104 2025     		movs	r5, #32
 1813 0106 1140     		ands	r1, r1, r2
 1814 0108 0022     		movs	r2, #0
 1815 010a 1960     		str	r1, [r3]
 1816 010c 1046     		mov	r0, r2
 1817 010e 84F83D50 		strb	r5, [r4, #61]
 1818 0112 84F83C20 		strb	r2, [r4, #60]
 1819 0116 84F83E20 		strb	r2, [r4, #62]
 1820 011a 7FE7     		b	.L512
 1821              	.L469:
 1822 011c 5A69     		ldr	r2, [r3, #20]
 1823 011e 9107     		lsls	r1, r2, #30
 1824 0120 0CD4     		bmi	.L471
 1825 0122 002D     		cmp	r5, #0
 1826 0124 54D0     		beq	.L487
 1827 0126 FFF7FEFF 		bl	HAL_GetTick
 1828 012a 801B     		subs	r0, r0, r6
 1829 012c 8542     		cmp	r5, r0
 1830 012e 4FD3     		bcc	.L487
 1831 0130 2368     		ldr	r3, [r4]
 1832              	.L493:
 1833 0132 6F1C     		adds	r7, r5, #1
 1834 0134 F2D1     		bne	.L469
 1835              	.L470:
 1836 0136 5A69     		ldr	r2, [r3, #20]
 1837 0138 9007     		lsls	r0, r2, #30
 1838 013a FCD5     		bpl	.L470
 1839              	.L471:
 1840 013c 0022     		movs	r2, #0
 1841 013e 0192     		str	r2, [sp, #4]
 1842 0140 5A69     		ldr	r2, [r3, #20]
 1843 0142 0192     		str	r2, [sp, #4]
ARM GAS  /tmp/ccWQvKle.s 			page 33


 1844 0144 9A69     		ldr	r2, [r3, #24]
 1845 0146 0192     		str	r2, [sp, #4]
 1846 0148 019A     		ldr	r2, [sp, #4]
 1847 014a A6E7     		b	.L492
 1848              	.L478:
 1849 014c 616A     		ldr	r1, [r4, #36]
 1850 014e 208D     		ldrh	r0, [r4, #40]
 1851 0150 4A1C     		adds	r2, r1, #1
 1852 0152 6262     		str	r2, [r4, #36]
 1853 0154 0A78     		ldrb	r2, [r1]	@ zero_extendqisi2
 1854 0156 1A61     		str	r2, [r3, #16]
 1855 0158 628D     		ldrh	r2, [r4, #42]
 1856 015a 013A     		subs	r2, r2, #1
 1857 015c 92B2     		uxth	r2, r2
 1858 015e 6285     		strh	r2, [r4, #42]	@ movhi
 1859 0160 5F69     		ldr	r7, [r3, #20]
 1860 0162 421E     		subs	r2, r0, #1
 1861 0164 92B2     		uxth	r2, r2
 1862 0166 7F07     		lsls	r7, r7, #29
 1863 0168 2285     		strh	r2, [r4, #40]	@ movhi
 1864 016a 97D5     		bpl	.L482
 1865 016c 8A1C     		adds	r2, r1, #2
 1866 016e 6262     		str	r2, [r4, #36]
 1867 0170 4A78     		ldrb	r2, [r1, #1]	@ zero_extendqisi2
 1868 0172 1A61     		str	r2, [r3, #16]
 1869 0174 618D     		ldrh	r1, [r4, #42]
 1870 0176 821E     		subs	r2, r0, #2
 1871 0178 0139     		subs	r1, r1, #1
 1872 017a 92B2     		uxth	r2, r2
 1873 017c 89B2     		uxth	r1, r1
 1874 017e 2285     		strh	r2, [r4, #40]	@ movhi
 1875 0180 6185     		strh	r1, [r4, #42]	@ movhi
 1876 0182 8BE7     		b	.L482
 1877              	.L477:
 1878 0184 5A69     		ldr	r2, [r3, #20]
 1879 0186 1206     		lsls	r2, r2, #24
 1880 0188 E0D4     		bmi	.L478
 1881 018a 5A69     		ldr	r2, [r3, #20]
 1882 018c 5205     		lsls	r2, r2, #21
 1883 018e 8ED4     		bmi	.L479
 1884 0190 35B1     		cbz	r5, .L475
 1885 0192 FFF7FEFF 		bl	HAL_GetTick
 1886 0196 801B     		subs	r0, r0, r6
 1887 0198 8542     		cmp	r5, r0
 1888 019a 2368     		ldr	r3, [r4]
 1889 019c BFF47FAF 		bcs	.L484
 1890              	.L475:
 1891 01a0 226C     		ldr	r2, [r4, #64]
 1892 01a2 0021     		movs	r1, #0
 1893 01a4 42F02002 		orr	r2, r2, #32
 1894 01a8 2020     		movs	r0, #32
 1895 01aa 2264     		str	r2, [r4, #64]
 1896 01ac 84F83C10 		strb	r1, [r4, #60]
 1897 01b0 2163     		str	r1, [r4, #48]
 1898 01b2 84F83D00 		strb	r0, [r4, #61]
 1899 01b6 86E7     		b	.L474
 1900              	.L463:
ARM GAS  /tmp/ccWQvKle.s 			page 34


 1901 01b8 5A69     		ldr	r2, [r3, #20]
 1902 01ba 9207     		lsls	r2, r2, #30
 1903 01bc 3FF562AF 		bmi	.L465
 1904 01c0 35B1     		cbz	r5, .L487
 1905 01c2 FFF7FEFF 		bl	HAL_GetTick
 1906 01c6 801B     		subs	r0, r0, r6
 1907 01c8 8542     		cmp	r5, r0
 1908 01ca 01D3     		bcc	.L487
 1909 01cc 2368     		ldr	r3, [r4]
 1910 01ce 53E7     		b	.L460
 1911              	.L487:
 1912 01d0 0023     		movs	r3, #0
 1913 01d2 2022     		movs	r2, #32
 1914 01d4 2363     		str	r3, [r4, #48]
 1915 01d6 84F83C30 		strb	r3, [r4, #60]
 1916 01da 84F83D20 		strb	r2, [r4, #61]
 1917 01de 0320     		movs	r0, #3
 1918 01e0 84F83E30 		strb	r3, [r4, #62]
 1919 01e4 1AE7     		b	.L512
 1920              	.L516:
 1921 01e6 00BF     		.align	2
 1922              	.L515:
 1923 01e8 0000FFFF 		.word	-65536
 1925              		.section	.text.HAL_I2C_Slave_Receive,"ax",%progbits
 1926              		.align	1
 1927              		.p2align 2,,3
 1928              		.global	HAL_I2C_Slave_Receive
 1929              		.syntax unified
 1930              		.thumb
 1931              		.thumb_func
 1932              		.fpu fpv4-sp-d16
 1934              	HAL_I2C_Slave_Receive:
 1935              		@ args = 0, pretend = 0, frame = 8
 1936              		@ frame_needed = 0, uses_anonymous_args = 0
 1937 0000 2DE9F041 		push	{r4, r5, r6, r7, r8, lr}
 1938 0004 0446     		mov	r4, r0
 1939 0006 82B0     		sub	sp, sp, #8
 1940 0008 1D46     		mov	r5, r3
 1941 000a 0F46     		mov	r7, r1
 1942 000c 9046     		mov	r8, r2
 1943 000e FFF7FEFF 		bl	HAL_GetTick
 1944 0012 94F83D30 		ldrb	r3, [r4, #61]	@ zero_extendqisi2
 1945 0016 202B     		cmp	r3, #32
 1946 0018 03D0     		beq	.L574
 1947              	.L549:
 1948 001a 0220     		movs	r0, #2
 1949              	.L570:
 1950 001c 02B0     		add	sp, sp, #8
 1951              		@ sp needed
 1952 001e BDE8F081 		pop	{r4, r5, r6, r7, r8, pc}
 1953              	.L574:
 1954 0022 002F     		cmp	r7, #0
 1955 0024 00F08680 		beq	.L519
 1956 0028 B8F1000F 		cmp	r8, #0
 1957 002c 00F08280 		beq	.L519
 1958 0030 94F83C30 		ldrb	r3, [r4, #60]	@ zero_extendqisi2
 1959 0034 012B     		cmp	r3, #1
ARM GAS  /tmp/ccWQvKle.s 			page 35


 1960 0036 F0D0     		beq	.L549
 1961 0038 2268     		ldr	r2, [r4]
 1962 003a 1168     		ldr	r1, [r2]
 1963 003c 0646     		mov	r6, r0
 1964 003e C907     		lsls	r1, r1, #31
 1965 0040 4FF00100 		mov	r0, #1
 1966 0044 1346     		mov	r3, r2
 1967 0046 84F83C00 		strb	r0, [r4, #60]
 1968 004a 02D4     		bmi	.L520
 1969 004c 1168     		ldr	r1, [r2]
 1970 004e 0143     		orrs	r1, r1, r0
 1971 0050 1160     		str	r1, [r2]
 1972              	.L520:
 1973 0052 1168     		ldr	r1, [r2]
 1974 0054 6F48     		ldr	r0, .L578
 1975 0056 21F40061 		bic	r1, r1, #2048
 1976 005a 1160     		str	r1, [r2]
 1977 005c 2221     		movs	r1, #34
 1978 005e 84F83D10 		strb	r1, [r4, #61]
 1979 0062 2021     		movs	r1, #32
 1980 0064 84F83E10 		strb	r1, [r4, #62]
 1981 0068 0021     		movs	r1, #0
 1982 006a 2164     		str	r1, [r4, #64]
 1983 006c A4F82A80 		strh	r8, [r4, #42]	@ movhi
 1984 0070 E062     		str	r0, [r4, #44]
 1985 0072 608D     		ldrh	r0, [r4, #42]
 1986 0074 1168     		ldr	r1, [r2]
 1987 0076 6762     		str	r7, [r4, #36]
 1988 0078 41F48061 		orr	r1, r1, #1024
 1989 007c 2085     		strh	r0, [r4, #40]	@ movhi
 1990 007e 1160     		str	r1, [r2]
 1991              	.L521:
 1992 0080 6F1C     		adds	r7, r5, #1
 1993 0082 7DD1     		bne	.L524
 1994              	.L525:
 1995 0084 5169     		ldr	r1, [r2, #20]
 1996 0086 8807     		lsls	r0, r1, #30
 1997 0088 FCD5     		bpl	.L525
 1998              	.L526:
 1999 008a 0021     		movs	r1, #0
 2000 008c 0091     		str	r1, [sp]
 2001 008e 5169     		ldr	r1, [r2, #20]
 2002 0090 0091     		str	r1, [sp]
 2003 0092 9169     		ldr	r1, [r2, #24]
 2004 0094 0091     		str	r1, [sp]
 2005 0096 0099     		ldr	r1, [sp]
 2006 0098 218D     		ldrh	r1, [r4, #40]
 2007              	.L547:
 2008 009a 0029     		cmp	r1, #0
 2009 009c 2FD0     		beq	.L532
 2010 009e 4DB9     		cbnz	r5, .L536
 2011 00a0 5CE0     		b	.L533
 2012              	.L575:
 2013 00a2 5A69     		ldr	r2, [r3, #20]
 2014 00a4 D106     		lsls	r1, r2, #27
 2015 00a6 5FD4     		bmi	.L534
 2016 00a8 FFF7FEFF 		bl	HAL_GetTick
ARM GAS  /tmp/ccWQvKle.s 			page 36


 2017 00ac 801B     		subs	r0, r0, r6
 2018 00ae 8542     		cmp	r5, r0
 2019 00b0 2368     		ldr	r3, [r4]
 2020 00b2 41D3     		bcc	.L528
 2021              	.L536:
 2022 00b4 5A69     		ldr	r2, [r3, #20]
 2023 00b6 5006     		lsls	r0, r2, #25
 2024 00b8 F3D5     		bpl	.L575
 2025              	.L531:
 2026 00ba 626A     		ldr	r2, [r4, #36]
 2027 00bc 1B69     		ldr	r3, [r3, #16]
 2028 00be 511C     		adds	r1, r2, #1
 2029 00c0 6162     		str	r1, [r4, #36]
 2030 00c2 1370     		strb	r3, [r2]
 2031 00c4 628D     		ldrh	r2, [r4, #42]
 2032 00c6 2368     		ldr	r3, [r4]
 2033 00c8 218D     		ldrh	r1, [r4, #40]
 2034 00ca 013A     		subs	r2, r2, #1
 2035 00cc 92B2     		uxth	r2, r2
 2036 00ce 6285     		strh	r2, [r4, #42]	@ movhi
 2037 00d0 5869     		ldr	r0, [r3, #20]
 2038 00d2 0139     		subs	r1, r1, #1
 2039 00d4 89B2     		uxth	r1, r1
 2040 00d6 4007     		lsls	r0, r0, #29
 2041 00d8 2185     		strh	r1, [r4, #40]	@ movhi
 2042 00da 1A46     		mov	r2, r3
 2043 00dc DDD5     		bpl	.L547
 2044 00de 626A     		ldr	r2, [r4, #36]
 2045 00e0 1B69     		ldr	r3, [r3, #16]
 2046 00e2 511C     		adds	r1, r2, #1
 2047 00e4 6162     		str	r1, [r4, #36]
 2048 00e6 1370     		strb	r3, [r2]
 2049 00e8 218D     		ldrh	r1, [r4, #40]
 2050 00ea 628D     		ldrh	r2, [r4, #42]
 2051 00ec 2368     		ldr	r3, [r4]
 2052 00ee 0139     		subs	r1, r1, #1
 2053 00f0 013A     		subs	r2, r2, #1
 2054 00f2 92B2     		uxth	r2, r2
 2055 00f4 89B2     		uxth	r1, r1
 2056 00f6 6285     		strh	r2, [r4, #42]	@ movhi
 2057 00f8 2185     		strh	r1, [r4, #40]	@ movhi
 2058 00fa 1A46     		mov	r2, r3
 2059 00fc CDE7     		b	.L547
 2060              	.L532:
 2061 00fe 002D     		cmp	r5, #0
 2062 0100 72D0     		beq	.L537
 2063              	.L541:
 2064 0102 5A69     		ldr	r2, [r3, #20]
 2065 0104 D206     		lsls	r2, r2, #27
 2066 0106 4ED4     		bmi	.L538
 2067 0108 5A69     		ldr	r2, [r3, #20]
 2068 010a 5705     		lsls	r7, r2, #21
 2069 010c 44D5     		bpl	.L576
 2070              	.L539:
 2071 010e 0022     		movs	r2, #0
 2072 0110 6FF48065 		mvn	r5, #1024
 2073 0114 0420     		movs	r0, #4
ARM GAS  /tmp/ccWQvKle.s 			page 37


 2074 0116 2021     		movs	r1, #32
 2075 0118 5D61     		str	r5, [r3, #20]
 2076 011a 2064     		str	r0, [r4, #64]
 2077 011c 84F83C20 		strb	r2, [r4, #60]
 2078 0120 2263     		str	r2, [r4, #48]
 2079 0122 84F83D10 		strb	r1, [r4, #61]
 2080              	.L542:
 2081 0126 1A68     		ldr	r2, [r3]
 2082 0128 22F48062 		bic	r2, r2, #1024
 2083 012c 1A60     		str	r2, [r3]
 2084 012e 236C     		ldr	r3, [r4, #64]
 2085 0130 042B     		cmp	r3, #4
 2086 0132 11D1     		bne	.L545
 2087              	.L519:
 2088 0134 0120     		movs	r0, #1
 2089 0136 71E7     		b	.L570
 2090              	.L528:
 2091 0138 226C     		ldr	r2, [r4, #64]
 2092 013a 2021     		movs	r1, #32
 2093 013c 0A43     		orrs	r2, r2, r1
 2094 013e 0020     		movs	r0, #0
 2095 0140 2264     		str	r2, [r4, #64]
 2096 0142 84F83C00 		strb	r0, [r4, #60]
 2097 0146 84F83D10 		strb	r1, [r4, #61]
 2098              	.L529:
 2099 014a 1A68     		ldr	r2, [r3]
 2100 014c 22F48062 		bic	r2, r2, #1024
 2101 0150 1A60     		str	r2, [r3]
 2102 0152 236C     		ldr	r3, [r4, #64]
 2103 0154 202B     		cmp	r3, #32
 2104 0156 EDD1     		bne	.L519
 2105              	.L545:
 2106 0158 0320     		movs	r0, #3
 2107 015a 5FE7     		b	.L570
 2108              	.L533:
 2109 015c 5169     		ldr	r1, [r2, #20]
 2110 015e 4F06     		lsls	r7, r1, #25
 2111 0160 ABD4     		bmi	.L531
 2112 0162 5269     		ldr	r2, [r2, #20]
 2113 0164 D206     		lsls	r2, r2, #27
 2114 0166 E7D5     		bpl	.L528
 2115              	.L534:
 2116 0168 0022     		movs	r2, #0
 2117 016a 6FF01000 		mvn	r0, #16
 2118 016e 2021     		movs	r1, #32
 2119 0170 5861     		str	r0, [r3, #20]
 2120 0172 2264     		str	r2, [r4, #64]
 2121 0174 84F83C20 		strb	r2, [r4, #60]
 2122 0178 2263     		str	r2, [r4, #48]
 2123 017a 84F83D10 		strb	r1, [r4, #61]
 2124 017e E4E7     		b	.L529
 2125              	.L524:
 2126 0180 5169     		ldr	r1, [r2, #20]
 2127 0182 8907     		lsls	r1, r1, #30
 2128 0184 81D4     		bmi	.L526
 2129 0186 25B3     		cbz	r5, .L523
 2130 0188 FFF7FEFF 		bl	HAL_GetTick
ARM GAS  /tmp/ccWQvKle.s 			page 38


 2131 018c 801B     		subs	r0, r0, r6
 2132 018e 8542     		cmp	r5, r0
 2133 0190 1FD3     		bcc	.L523
 2134 0192 2268     		ldr	r2, [r4]
 2135 0194 1346     		mov	r3, r2
 2136 0196 73E7     		b	.L521
 2137              	.L576:
 2138 0198 FFF7FEFF 		bl	HAL_GetTick
 2139 019c 801B     		subs	r0, r0, r6
 2140 019e 8542     		cmp	r5, r0
 2141 01a0 35D3     		bcc	.L577
 2142 01a2 2368     		ldr	r3, [r4]
 2143 01a4 ADE7     		b	.L541
 2144              	.L538:
 2145 01a6 0022     		movs	r2, #0
 2146 01a8 0192     		str	r2, [sp, #4]
 2147 01aa 5969     		ldr	r1, [r3, #20]
 2148 01ac 0191     		str	r1, [sp, #4]
 2149 01ae 1968     		ldr	r1, [r3]
 2150 01b0 41F00101 		orr	r1, r1, #1
 2151 01b4 1960     		str	r1, [r3]
 2152 01b6 0199     		ldr	r1, [sp, #4]
 2153 01b8 1968     		ldr	r1, [r3]
 2154 01ba 2025     		movs	r5, #32
 2155 01bc 21F48061 		bic	r1, r1, #1024
 2156 01c0 1960     		str	r1, [r3]
 2157 01c2 1046     		mov	r0, r2
 2158 01c4 84F83D50 		strb	r5, [r4, #61]
 2159 01c8 84F83C20 		strb	r2, [r4, #60]
 2160 01cc 84F83E20 		strb	r2, [r4, #62]
 2161 01d0 24E7     		b	.L570
 2162              	.L523:
 2163 01d2 0023     		movs	r3, #0
 2164 01d4 2022     		movs	r2, #32
 2165 01d6 2363     		str	r3, [r4, #48]
 2166 01d8 84F83C30 		strb	r3, [r4, #60]
 2167 01dc 84F83D20 		strb	r2, [r4, #61]
 2168 01e0 0320     		movs	r0, #3
 2169 01e2 84F83E30 		strb	r3, [r4, #62]
 2170 01e6 19E7     		b	.L570
 2171              	.L537:
 2172 01e8 5169     		ldr	r1, [r2, #20]
 2173 01ea CD06     		lsls	r5, r1, #27
 2174 01ec DBD4     		bmi	.L538
 2175 01ee 5169     		ldr	r1, [r2, #20]
 2176 01f0 4E05     		lsls	r6, r1, #21
 2177 01f2 8CD4     		bmi	.L539
 2178              	.L540:
 2179 01f4 216C     		ldr	r1, [r4, #64]
 2180 01f6 0020     		movs	r0, #0
 2181 01f8 41F02001 		orr	r1, r1, #32
 2182 01fc 2025     		movs	r5, #32
 2183 01fe 2164     		str	r1, [r4, #64]
 2184 0200 1346     		mov	r3, r2
 2185 0202 2063     		str	r0, [r4, #48]
 2186 0204 84F83C00 		strb	r0, [r4, #60]
 2187 0208 84F83D50 		strb	r5, [r4, #61]
ARM GAS  /tmp/ccWQvKle.s 			page 39


 2188 020c 8BE7     		b	.L542
 2189              	.L577:
 2190 020e 2268     		ldr	r2, [r4]
 2191 0210 F0E7     		b	.L540
 2192              	.L579:
 2193 0212 00BF     		.align	2
 2194              	.L578:
 2195 0214 0000FFFF 		.word	-65536
 2197              		.section	.text.HAL_I2C_Master_Transmit_IT,"ax",%progbits
 2198              		.align	1
 2199              		.p2align 2,,3
 2200              		.global	HAL_I2C_Master_Transmit_IT
 2201              		.syntax unified
 2202              		.thumb
 2203              		.thumb_func
 2204              		.fpu fpv4-sp-d16
 2206              	HAL_I2C_Master_Transmit_IT:
 2207              		@ args = 0, pretend = 0, frame = 8
 2208              		@ frame_needed = 0, uses_anonymous_args = 0
 2209 0000 F0B5     		push	{r4, r5, r6, r7, lr}
 2210 0002 83B0     		sub	sp, sp, #12
 2211 0004 0024     		movs	r4, #0
 2212 0006 0194     		str	r4, [sp, #4]
 2213 0008 90F83D40 		ldrb	r4, [r0, #61]	@ zero_extendqisi2
 2214 000c 202C     		cmp	r4, #32
 2215 000e 02D0     		beq	.L581
 2216              	.L585:
 2217 0010 0220     		movs	r0, #2
 2218              	.L582:
 2219 0012 03B0     		add	sp, sp, #12
 2220              		@ sp needed
 2221 0014 F0BD     		pop	{r4, r5, r6, r7, pc}
 2222              	.L581:
 2223 0016 254C     		ldr	r4, .L593
 2224 0018 254D     		ldr	r5, .L593+4
 2225 001a 2468     		ldr	r4, [r4]
 2226 001c E408     		lsrs	r4, r4, #3
 2227 001e A5FB0454 		umull	r5, r4, r5, r4
 2228 0022 240A     		lsrs	r4, r4, #8
 2229 0024 04EB8404 		add	r4, r4, r4, lsl #2
 2230 0028 04EB8404 		add	r4, r4, r4, lsl #2
 2231 002c 0194     		str	r4, [sp, #4]
 2232 002e 03E0     		b	.L584
 2233              	.L583:
 2234 0030 0468     		ldr	r4, [r0]
 2235 0032 A569     		ldr	r5, [r4, #24]
 2236 0034 AE07     		lsls	r6, r5, #30
 2237 0036 0CD5     		bpl	.L592
 2238              	.L584:
 2239 0038 019C     		ldr	r4, [sp, #4]
 2240 003a 651E     		subs	r5, r4, #1
 2241 003c 0195     		str	r5, [sp, #4]
 2242 003e 002C     		cmp	r4, #0
 2243 0040 F6D1     		bne	.L583
 2244 0042 2023     		movs	r3, #32
 2245 0044 0463     		str	r4, [r0, #48]
 2246 0046 80F83C40 		strb	r4, [r0, #60]
ARM GAS  /tmp/ccWQvKle.s 			page 40


 2247 004a 80F83D30 		strb	r3, [r0, #61]
 2248 004e 0320     		movs	r0, #3
 2249 0050 DFE7     		b	.L582
 2250              	.L592:
 2251 0052 90F83C50 		ldrb	r5, [r0, #60]	@ zero_extendqisi2
 2252 0056 012D     		cmp	r5, #1
 2253 0058 DAD0     		beq	.L585
 2254 005a 2568     		ldr	r5, [r4]
 2255 005c 0126     		movs	r6, #1
 2256 005e ED07     		lsls	r5, r5, #31
 2257 0060 80F83C60 		strb	r6, [r0, #60]
 2258 0064 02D4     		bmi	.L586
 2259 0066 2568     		ldr	r5, [r4]
 2260 0068 3543     		orrs	r5, r5, r6
 2261 006a 2560     		str	r5, [r4]
 2262              	.L586:
 2263 006c 2568     		ldr	r5, [r4]
 2264 006e 114E     		ldr	r6, .L593+8
 2265 0070 25F40065 		bic	r5, r5, #2048
 2266 0074 2560     		str	r5, [r4]
 2267 0076 4FF0210E 		mov	lr, #33
 2268 007a 0025     		movs	r5, #0
 2269 007c 1027     		movs	r7, #16
 2270 007e 80F83DE0 		strb	lr, [r0, #61]
 2271 0082 80F83E70 		strb	r7, [r0, #62]
 2272 0086 0564     		str	r5, [r0, #64]
 2273 0088 4385     		strh	r3, [r0, #42]	@ movhi
 2274 008a C662     		str	r6, [r0, #44]
 2275 008c 468D     		ldrh	r6, [r0, #42]
 2276 008e 4164     		str	r1, [r0, #68]
 2277 0090 2368     		ldr	r3, [r4]
 2278 0092 4262     		str	r2, [r0, #36]
 2279 0094 43F48073 		orr	r3, r3, #256
 2280 0098 0685     		strh	r6, [r0, #40]	@ movhi
 2281 009a 2360     		str	r3, [r4]
 2282 009c 6368     		ldr	r3, [r4, #4]
 2283 009e 80F83C50 		strb	r5, [r0, #60]
 2284 00a2 43F4E063 		orr	r3, r3, #1792
 2285 00a6 2846     		mov	r0, r5
 2286 00a8 6360     		str	r3, [r4, #4]
 2287 00aa B2E7     		b	.L582
 2288              	.L594:
 2289              		.align	2
 2290              	.L593:
 2291 00ac 00000000 		.word	SystemCoreClock
 2292 00b0 89B5F814 		.word	351843721
 2293 00b4 0000FFFF 		.word	-65536
 2295              		.section	.text.HAL_I2C_Master_Receive_IT,"ax",%progbits
 2296              		.align	1
 2297              		.p2align 2,,3
 2298              		.global	HAL_I2C_Master_Receive_IT
 2299              		.syntax unified
 2300              		.thumb
 2301              		.thumb_func
 2302              		.fpu fpv4-sp-d16
 2304              	HAL_I2C_Master_Receive_IT:
 2305              		@ args = 0, pretend = 0, frame = 8
ARM GAS  /tmp/ccWQvKle.s 			page 41


 2306              		@ frame_needed = 0, uses_anonymous_args = 0
 2307 0000 F0B5     		push	{r4, r5, r6, r7, lr}
 2308 0002 83B0     		sub	sp, sp, #12
 2309 0004 0024     		movs	r4, #0
 2310 0006 0194     		str	r4, [sp, #4]
 2311 0008 90F83D40 		ldrb	r4, [r0, #61]	@ zero_extendqisi2
 2312 000c 202C     		cmp	r4, #32
 2313 000e 02D0     		beq	.L596
 2314              	.L600:
 2315 0010 0220     		movs	r0, #2
 2316              	.L597:
 2317 0012 03B0     		add	sp, sp, #12
 2318              		@ sp needed
 2319 0014 F0BD     		pop	{r4, r5, r6, r7, pc}
 2320              	.L596:
 2321 0016 274C     		ldr	r4, .L608
 2322 0018 274D     		ldr	r5, .L608+4
 2323 001a 2468     		ldr	r4, [r4]
 2324 001c E408     		lsrs	r4, r4, #3
 2325 001e A5FB0454 		umull	r5, r4, r5, r4
 2326 0022 240A     		lsrs	r4, r4, #8
 2327 0024 04EB8404 		add	r4, r4, r4, lsl #2
 2328 0028 04EB8404 		add	r4, r4, r4, lsl #2
 2329 002c 0194     		str	r4, [sp, #4]
 2330 002e 03E0     		b	.L599
 2331              	.L598:
 2332 0030 0468     		ldr	r4, [r0]
 2333 0032 A569     		ldr	r5, [r4, #24]
 2334 0034 AE07     		lsls	r6, r5, #30
 2335 0036 0CD5     		bpl	.L607
 2336              	.L599:
 2337 0038 019C     		ldr	r4, [sp, #4]
 2338 003a 651E     		subs	r5, r4, #1
 2339 003c 0195     		str	r5, [sp, #4]
 2340 003e 002C     		cmp	r4, #0
 2341 0040 F6D1     		bne	.L598
 2342 0042 2023     		movs	r3, #32
 2343 0044 0463     		str	r4, [r0, #48]
 2344 0046 80F83C40 		strb	r4, [r0, #60]
 2345 004a 80F83D30 		strb	r3, [r0, #61]
 2346 004e 0320     		movs	r0, #3
 2347 0050 DFE7     		b	.L597
 2348              	.L607:
 2349 0052 90F83C50 		ldrb	r5, [r0, #60]	@ zero_extendqisi2
 2350 0056 012D     		cmp	r5, #1
 2351 0058 DAD0     		beq	.L600
 2352 005a 2568     		ldr	r5, [r4]
 2353 005c 0126     		movs	r6, #1
 2354 005e ED07     		lsls	r5, r5, #31
 2355 0060 80F83C60 		strb	r6, [r0, #60]
 2356 0064 02D4     		bmi	.L601
 2357 0066 2568     		ldr	r5, [r4]
 2358 0068 3543     		orrs	r5, r5, r6
 2359 006a 2560     		str	r5, [r4]
 2360              	.L601:
 2361 006c 2568     		ldr	r5, [r4]
 2362 006e 134E     		ldr	r6, .L608+8
ARM GAS  /tmp/ccWQvKle.s 			page 42


 2363 0070 25F40065 		bic	r5, r5, #2048
 2364 0074 2560     		str	r5, [r4]
 2365 0076 4FF0220E 		mov	lr, #34
 2366 007a 0025     		movs	r5, #0
 2367 007c 1027     		movs	r7, #16
 2368 007e 80F83DE0 		strb	lr, [r0, #61]
 2369 0082 80F83E70 		strb	r7, [r0, #62]
 2370 0086 0564     		str	r5, [r0, #64]
 2371 0088 4385     		strh	r3, [r0, #42]	@ movhi
 2372 008a C662     		str	r6, [r0, #44]
 2373 008c 468D     		ldrh	r6, [r0, #42]
 2374 008e 4164     		str	r1, [r0, #68]
 2375 0090 2368     		ldr	r3, [r4]
 2376 0092 4262     		str	r2, [r0, #36]
 2377 0094 43F48063 		orr	r3, r3, #1024
 2378 0098 0685     		strh	r6, [r0, #40]	@ movhi
 2379 009a 2360     		str	r3, [r4]
 2380 009c 2368     		ldr	r3, [r4]
 2381 009e 43F48073 		orr	r3, r3, #256
 2382 00a2 2360     		str	r3, [r4]
 2383 00a4 6368     		ldr	r3, [r4, #4]
 2384 00a6 80F83C50 		strb	r5, [r0, #60]
 2385 00aa 43F4E063 		orr	r3, r3, #1792
 2386 00ae 2846     		mov	r0, r5
 2387 00b0 6360     		str	r3, [r4, #4]
 2388 00b2 AEE7     		b	.L597
 2389              	.L609:
 2390              		.align	2
 2391              	.L608:
 2392 00b4 00000000 		.word	SystemCoreClock
 2393 00b8 89B5F814 		.word	351843721
 2394 00bc 0000FFFF 		.word	-65536
 2396              		.section	.text.HAL_I2C_Master_Sequential_Transmit_IT,"ax",%progbits
 2397              		.align	1
 2398              		.p2align 2,,3
 2399              		.global	HAL_I2C_Master_Sequential_Transmit_IT
 2400              		.syntax unified
 2401              		.thumb
 2402              		.thumb_func
 2403              		.fpu fpv4-sp-d16
 2405              	HAL_I2C_Master_Sequential_Transmit_IT:
 2406              		@ args = 4, pretend = 0, frame = 8
 2407              		@ frame_needed = 0, uses_anonymous_args = 0
 2408              		@ link register save eliminated.
 2409 0000 F0B4     		push	{r4, r5, r6, r7}
 2410 0002 82B0     		sub	sp, sp, #8
 2411 0004 0024     		movs	r4, #0
 2412 0006 0094     		str	r4, [sp]
 2413 0008 0194     		str	r4, [sp, #4]
 2414 000a 90F83D40 		ldrb	r4, [r0, #61]	@ zero_extendqisi2
 2415 000e 202C     		cmp	r4, #32
 2416 0010 03D0     		beq	.L611
 2417              	.L614:
 2418 0012 0220     		movs	r0, #2
 2419              	.L612:
 2420 0014 02B0     		add	sp, sp, #8
 2421              		@ sp needed
ARM GAS  /tmp/ccWQvKle.s 			page 43


 2422 0016 F0BC     		pop	{r4, r5, r6, r7}
 2423 0018 7047     		bx	lr
 2424              	.L611:
 2425 001a 069C     		ldr	r4, [sp, #24]
 2426 001c 042C     		cmp	r4, #4
 2427 001e 3AD0     		beq	.L613
 2428 0020 012C     		cmp	r4, #1
 2429 0022 38D0     		beq	.L613
 2430              	.L618:
 2431 0024 90F83C40 		ldrb	r4, [r0, #60]	@ zero_extendqisi2
 2432 0028 012C     		cmp	r4, #1
 2433 002a F2D0     		beq	.L614
 2434 002c 0468     		ldr	r4, [r0]
 2435 002e 2568     		ldr	r5, [r4]
 2436 0030 0126     		movs	r6, #1
 2437 0032 ED07     		lsls	r5, r5, #31
 2438 0034 80F83C60 		strb	r6, [r0, #60]
 2439 0038 02D4     		bmi	.L619
 2440 003a 2568     		ldr	r5, [r4]
 2441 003c 3543     		orrs	r5, r5, r6
 2442 003e 2560     		str	r5, [r4]
 2443              	.L619:
 2444 0040 2568     		ldr	r5, [r4]
 2445 0042 25F40065 		bic	r5, r5, #2048
 2446 0046 2560     		str	r5, [r4]
 2447 0048 2127     		movs	r7, #33
 2448 004a 0025     		movs	r5, #0
 2449 004c 1026     		movs	r6, #16
 2450 004e 80F83D70 		strb	r7, [r0, #61]
 2451 0052 80F83E60 		strb	r6, [r0, #62]
 2452 0056 0564     		str	r5, [r0, #64]
 2453 0058 4385     		strh	r3, [r0, #42]	@ movhi
 2454 005a 069B     		ldr	r3, [sp, #24]
 2455 005c C362     		str	r3, [r0, #44]
 2456 005e 458D     		ldrh	r5, [r0, #42]
 2457 0060 4164     		str	r1, [r0, #68]
 2458 0062 036B     		ldr	r3, [r0, #48]
 2459 0064 0093     		str	r3, [sp]
 2460 0066 009B     		ldr	r3, [sp]
 2461 0068 4262     		str	r2, [r0, #36]
 2462 006a 122B     		cmp	r3, #18
 2463 006c 0585     		strh	r5, [r0, #40]	@ movhi
 2464 006e 01D0     		beq	.L620
 2465 0070 009B     		ldr	r3, [sp]
 2466 0072 3BB9     		cbnz	r3, .L621
 2467              	.L620:
 2468 0074 069B     		ldr	r3, [sp, #24]
 2469 0076 042B     		cmp	r3, #4
 2470 0078 2BD0     		beq	.L642
 2471 007a 012B     		cmp	r3, #1
 2472 007c 29D0     		beq	.L642
 2473 007e 009B     		ldr	r3, [sp]
 2474 0080 122B     		cmp	r3, #18
 2475 0082 26D0     		beq	.L642
 2476              	.L621:
 2477 0084 6268     		ldr	r2, [r4, #4]
 2478 0086 0023     		movs	r3, #0
ARM GAS  /tmp/ccWQvKle.s 			page 44


 2479 0088 42F4E062 		orr	r2, r2, #1792
 2480 008c 80F83C30 		strb	r3, [r0, #60]
 2481 0090 1846     		mov	r0, r3
 2482 0092 6260     		str	r2, [r4, #4]
 2483 0094 BEE7     		b	.L612
 2484              	.L613:
 2485 0096 114C     		ldr	r4, .L643
 2486 0098 114D     		ldr	r5, .L643+4
 2487 009a 2468     		ldr	r4, [r4]
 2488 009c E408     		lsrs	r4, r4, #3
 2489 009e A5FB0454 		umull	r5, r4, r5, r4
 2490 00a2 240A     		lsrs	r4, r4, #8
 2491 00a4 04EB8404 		add	r4, r4, r4, lsl #2
 2492 00a8 04EB8404 		add	r4, r4, r4, lsl #2
 2493 00ac 0194     		str	r4, [sp, #4]
 2494 00ae 03E0     		b	.L617
 2495              	.L616:
 2496 00b0 0468     		ldr	r4, [r0]
 2497 00b2 A469     		ldr	r4, [r4, #24]
 2498 00b4 A607     		lsls	r6, r4, #30
 2499 00b6 B5D5     		bpl	.L618
 2500              	.L617:
 2501 00b8 019C     		ldr	r4, [sp, #4]
 2502 00ba 651E     		subs	r5, r4, #1
 2503 00bc 0195     		str	r5, [sp, #4]
 2504 00be 002C     		cmp	r4, #0
 2505 00c0 F6D1     		bne	.L616
 2506 00c2 2023     		movs	r3, #32
 2507 00c4 0463     		str	r4, [r0, #48]
 2508 00c6 80F83C40 		strb	r4, [r0, #60]
 2509 00ca 80F83D30 		strb	r3, [r0, #61]
 2510 00ce 0320     		movs	r0, #3
 2511 00d0 A0E7     		b	.L612
 2512              	.L642:
 2513 00d2 2368     		ldr	r3, [r4]
 2514 00d4 43F48073 		orr	r3, r3, #256
 2515 00d8 2360     		str	r3, [r4]
 2516 00da D3E7     		b	.L621
 2517              	.L644:
 2518              		.align	2
 2519              	.L643:
 2520 00dc 00000000 		.word	SystemCoreClock
 2521 00e0 89B5F814 		.word	351843721
 2523              		.section	.text.HAL_I2C_Master_Sequential_Receive_IT,"ax",%progbits
 2524              		.align	1
 2525              		.p2align 2,,3
 2526              		.global	HAL_I2C_Master_Sequential_Receive_IT
 2527              		.syntax unified
 2528              		.thumb
 2529              		.thumb_func
 2530              		.fpu fpv4-sp-d16
 2532              	HAL_I2C_Master_Sequential_Receive_IT:
 2533              		@ args = 4, pretend = 0, frame = 8
 2534              		@ frame_needed = 0, uses_anonymous_args = 0
 2535              		@ link register save eliminated.
 2536 0000 F0B4     		push	{r4, r5, r6, r7}
 2537 0002 82B0     		sub	sp, sp, #8
ARM GAS  /tmp/ccWQvKle.s 			page 45


 2538 0004 0024     		movs	r4, #0
 2539 0006 0194     		str	r4, [sp, #4]
 2540 0008 90F83D40 		ldrb	r4, [r0, #61]	@ zero_extendqisi2
 2541 000c 202C     		cmp	r4, #32
 2542 000e 03D0     		beq	.L646
 2543              	.L649:
 2544 0010 0220     		movs	r0, #2
 2545              	.L647:
 2546 0012 02B0     		add	sp, sp, #8
 2547              		@ sp needed
 2548 0014 F0BC     		pop	{r4, r5, r6, r7}
 2549 0016 7047     		bx	lr
 2550              	.L646:
 2551 0018 069C     		ldr	r4, [sp, #24]
 2552 001a 042C     		cmp	r4, #4
 2553 001c 3BD0     		beq	.L648
 2554 001e 012C     		cmp	r4, #1
 2555 0020 39D0     		beq	.L648
 2556              	.L653:
 2557 0022 90F83C40 		ldrb	r4, [r0, #60]	@ zero_extendqisi2
 2558 0026 012C     		cmp	r4, #1
 2559 0028 F2D0     		beq	.L649
 2560 002a 0468     		ldr	r4, [r0]
 2561 002c 2568     		ldr	r5, [r4]
 2562 002e 0126     		movs	r6, #1
 2563 0030 ED07     		lsls	r5, r5, #31
 2564 0032 80F83C60 		strb	r6, [r0, #60]
 2565 0036 02D4     		bmi	.L654
 2566 0038 2568     		ldr	r5, [r4]
 2567 003a 3543     		orrs	r5, r5, r6
 2568 003c 2560     		str	r5, [r4]
 2569              	.L654:
 2570 003e 2568     		ldr	r5, [r4]
 2571 0040 25F40065 		bic	r5, r5, #2048
 2572 0044 2560     		str	r5, [r4]
 2573 0046 2227     		movs	r7, #34
 2574 0048 0025     		movs	r5, #0
 2575 004a 1026     		movs	r6, #16
 2576 004c 80F83D70 		strb	r7, [r0, #61]
 2577 0050 80F83E60 		strb	r6, [r0, #62]
 2578 0054 0564     		str	r5, [r0, #64]
 2579 0056 4385     		strh	r3, [r0, #42]	@ movhi
 2580 0058 069B     		ldr	r3, [sp, #24]
 2581 005a C362     		str	r3, [r0, #44]
 2582 005c 458D     		ldrh	r5, [r0, #42]
 2583 005e 4164     		str	r1, [r0, #68]
 2584 0060 036B     		ldr	r3, [r0, #48]
 2585 0062 4262     		str	r2, [r0, #36]
 2586 0064 112B     		cmp	r3, #17
 2587 0066 0585     		strh	r5, [r0, #40]	@ movhi
 2588 0068 01D0     		beq	.L655
 2589 006a 036B     		ldr	r3, [r0, #48]
 2590 006c 53B9     		cbnz	r3, .L656
 2591              	.L655:
 2592 006e 069B     		ldr	r3, [sp, #24]
 2593 0070 042B     		cmp	r3, #4
 2594 0072 2ED0     		beq	.L680
ARM GAS  /tmp/ccWQvKle.s 			page 46


 2595 0074 012B     		cmp	r3, #1
 2596 0076 2CD0     		beq	.L680
 2597 0078 13F5803F 		cmn	r3, #65536
 2598 007c 29D0     		beq	.L680
 2599 007e 036B     		ldr	r3, [r0, #48]
 2600 0080 112B     		cmp	r3, #17
 2601 0082 26D0     		beq	.L680
 2602              	.L656:
 2603 0084 6268     		ldr	r2, [r4, #4]
 2604 0086 0023     		movs	r3, #0
 2605 0088 42F4E062 		orr	r2, r2, #1792
 2606 008c 80F83C30 		strb	r3, [r0, #60]
 2607 0090 1846     		mov	r0, r3
 2608 0092 6260     		str	r2, [r4, #4]
 2609 0094 BDE7     		b	.L647
 2610              	.L648:
 2611 0096 134C     		ldr	r4, .L681
 2612 0098 134D     		ldr	r5, .L681+4
 2613 009a 2468     		ldr	r4, [r4]
 2614 009c E408     		lsrs	r4, r4, #3
 2615 009e A5FB0454 		umull	r5, r4, r5, r4
 2616 00a2 240A     		lsrs	r4, r4, #8
 2617 00a4 04EB8404 		add	r4, r4, r4, lsl #2
 2618 00a8 04EB8404 		add	r4, r4, r4, lsl #2
 2619 00ac 0194     		str	r4, [sp, #4]
 2620 00ae 03E0     		b	.L652
 2621              	.L651:
 2622 00b0 0468     		ldr	r4, [r0]
 2623 00b2 A469     		ldr	r4, [r4, #24]
 2624 00b4 A607     		lsls	r6, r4, #30
 2625 00b6 B4D5     		bpl	.L653
 2626              	.L652:
 2627 00b8 019C     		ldr	r4, [sp, #4]
 2628 00ba 651E     		subs	r5, r4, #1
 2629 00bc 0195     		str	r5, [sp, #4]
 2630 00be 002C     		cmp	r4, #0
 2631 00c0 F6D1     		bne	.L651
 2632 00c2 2023     		movs	r3, #32
 2633 00c4 0463     		str	r4, [r0, #48]
 2634 00c6 80F83C40 		strb	r4, [r0, #60]
 2635 00ca 80F83D30 		strb	r3, [r0, #61]
 2636 00ce 0320     		movs	r0, #3
 2637 00d0 9FE7     		b	.L647
 2638              	.L680:
 2639 00d2 2368     		ldr	r3, [r4]
 2640 00d4 43F48063 		orr	r3, r3, #1024
 2641 00d8 2360     		str	r3, [r4]
 2642 00da 2368     		ldr	r3, [r4]
 2643 00dc 43F48073 		orr	r3, r3, #256
 2644 00e0 2360     		str	r3, [r4]
 2645 00e2 CFE7     		b	.L656
 2646              	.L682:
 2647              		.align	2
 2648              	.L681:
 2649 00e4 00000000 		.word	SystemCoreClock
 2650 00e8 89B5F814 		.word	351843721
 2652              		.section	.text.HAL_I2C_Slave_Transmit_IT,"ax",%progbits
ARM GAS  /tmp/ccWQvKle.s 			page 47


 2653              		.align	1
 2654              		.p2align 2,,3
 2655              		.global	HAL_I2C_Slave_Transmit_IT
 2656              		.syntax unified
 2657              		.thumb
 2658              		.thumb_func
 2659              		.fpu fpv4-sp-d16
 2661              	HAL_I2C_Slave_Transmit_IT:
 2662              		@ args = 0, pretend = 0, frame = 8
 2663              		@ frame_needed = 0, uses_anonymous_args = 0
 2664              		@ link register save eliminated.
 2665 0000 F0B4     		push	{r4, r5, r6, r7}
 2666 0002 82B0     		sub	sp, sp, #8
 2667 0004 0023     		movs	r3, #0
 2668 0006 0193     		str	r3, [sp, #4]
 2669 0008 90F83D30 		ldrb	r3, [r0, #61]	@ zero_extendqisi2
 2670 000c 202B     		cmp	r3, #32
 2671 000e 03D0     		beq	.L684
 2672              	.L688:
 2673 0010 0220     		movs	r0, #2
 2674              	.L685:
 2675 0012 02B0     		add	sp, sp, #8
 2676              		@ sp needed
 2677 0014 F0BC     		pop	{r4, r5, r6, r7}
 2678 0016 7047     		bx	lr
 2679              	.L684:
 2680 0018 F1B1     		cbz	r1, .L691
 2681 001a EAB1     		cbz	r2, .L691
 2682 001c 254B     		ldr	r3, .L698
 2683 001e 264C     		ldr	r4, .L698+4
 2684 0020 1B68     		ldr	r3, [r3]
 2685 0022 DB08     		lsrs	r3, r3, #3
 2686 0024 A4FB0343 		umull	r4, r3, r4, r3
 2687 0028 1B0A     		lsrs	r3, r3, #8
 2688 002a 03EB8303 		add	r3, r3, r3, lsl #2
 2689 002e 03EB8303 		add	r3, r3, r3, lsl #2
 2690 0032 0193     		str	r3, [sp, #4]
 2691 0034 03E0     		b	.L687
 2692              	.L686:
 2693 0036 0368     		ldr	r3, [r0]
 2694 0038 9C69     		ldr	r4, [r3, #24]
 2695 003a A507     		lsls	r5, r4, #30
 2696 003c 0ED5     		bpl	.L697
 2697              	.L687:
 2698 003e 019B     		ldr	r3, [sp, #4]
 2699 0040 5C1E     		subs	r4, r3, #1
 2700 0042 0194     		str	r4, [sp, #4]
 2701 0044 002B     		cmp	r3, #0
 2702 0046 F6D1     		bne	.L686
 2703 0048 2022     		movs	r2, #32
 2704 004a 0363     		str	r3, [r0, #48]
 2705 004c 80F83C30 		strb	r3, [r0, #60]
 2706 0050 80F83D20 		strb	r2, [r0, #61]
 2707 0054 0320     		movs	r0, #3
 2708 0056 DCE7     		b	.L685
 2709              	.L691:
 2710 0058 0120     		movs	r0, #1
ARM GAS  /tmp/ccWQvKle.s 			page 48


 2711 005a DAE7     		b	.L685
 2712              	.L697:
 2713 005c 90F83C40 		ldrb	r4, [r0, #60]	@ zero_extendqisi2
 2714 0060 012C     		cmp	r4, #1
 2715 0062 D5D0     		beq	.L688
 2716 0064 1C68     		ldr	r4, [r3]
 2717 0066 0125     		movs	r5, #1
 2718 0068 E407     		lsls	r4, r4, #31
 2719 006a 80F83C50 		strb	r5, [r0, #60]
 2720 006e 02D4     		bmi	.L689
 2721 0070 1C68     		ldr	r4, [r3]
 2722 0072 2C43     		orrs	r4, r4, r5
 2723 0074 1C60     		str	r4, [r3]
 2724              	.L689:
 2725 0076 1C68     		ldr	r4, [r3]
 2726 0078 104D     		ldr	r5, .L698+8
 2727 007a 24F40064 		bic	r4, r4, #2048
 2728 007e 1C60     		str	r4, [r3]
 2729 0080 2127     		movs	r7, #33
 2730 0082 0024     		movs	r4, #0
 2731 0084 2026     		movs	r6, #32
 2732 0086 80F83D70 		strb	r7, [r0, #61]
 2733 008a 80F83E60 		strb	r6, [r0, #62]
 2734 008e 0464     		str	r4, [r0, #64]
 2735 0090 4285     		strh	r2, [r0, #42]	@ movhi
 2736 0092 C562     		str	r5, [r0, #44]
 2737 0094 458D     		ldrh	r5, [r0, #42]
 2738 0096 1A68     		ldr	r2, [r3]
 2739 0098 4162     		str	r1, [r0, #36]
 2740 009a 42F48062 		orr	r2, r2, #1024
 2741 009e 0585     		strh	r5, [r0, #40]	@ movhi
 2742 00a0 1A60     		str	r2, [r3]
 2743 00a2 5A68     		ldr	r2, [r3, #4]
 2744 00a4 80F83C40 		strb	r4, [r0, #60]
 2745 00a8 42F4E062 		orr	r2, r2, #1792
 2746 00ac 2046     		mov	r0, r4
 2747 00ae 5A60     		str	r2, [r3, #4]
 2748 00b0 AFE7     		b	.L685
 2749              	.L699:
 2750 00b2 00BF     		.align	2
 2751              	.L698:
 2752 00b4 00000000 		.word	SystemCoreClock
 2753 00b8 89B5F814 		.word	351843721
 2754 00bc 0000FFFF 		.word	-65536
 2756              		.section	.text.HAL_I2C_Slave_Receive_IT,"ax",%progbits
 2757              		.align	1
 2758              		.p2align 2,,3
 2759              		.global	HAL_I2C_Slave_Receive_IT
 2760              		.syntax unified
 2761              		.thumb
 2762              		.thumb_func
 2763              		.fpu fpv4-sp-d16
 2765              	HAL_I2C_Slave_Receive_IT:
 2766              		@ args = 0, pretend = 0, frame = 8
 2767              		@ frame_needed = 0, uses_anonymous_args = 0
 2768              		@ link register save eliminated.
 2769 0000 F0B4     		push	{r4, r5, r6, r7}
ARM GAS  /tmp/ccWQvKle.s 			page 49


 2770 0002 82B0     		sub	sp, sp, #8
 2771 0004 0023     		movs	r3, #0
 2772 0006 0193     		str	r3, [sp, #4]
 2773 0008 90F83D30 		ldrb	r3, [r0, #61]	@ zero_extendqisi2
 2774 000c 202B     		cmp	r3, #32
 2775 000e 03D0     		beq	.L701
 2776              	.L705:
 2777 0010 0220     		movs	r0, #2
 2778              	.L702:
 2779 0012 02B0     		add	sp, sp, #8
 2780              		@ sp needed
 2781 0014 F0BC     		pop	{r4, r5, r6, r7}
 2782 0016 7047     		bx	lr
 2783              	.L701:
 2784 0018 F1B1     		cbz	r1, .L708
 2785 001a EAB1     		cbz	r2, .L708
 2786 001c 244B     		ldr	r3, .L715
 2787 001e 254C     		ldr	r4, .L715+4
 2788 0020 1B68     		ldr	r3, [r3]
 2789 0022 DB08     		lsrs	r3, r3, #3
 2790 0024 A4FB0343 		umull	r4, r3, r4, r3
 2791 0028 1B0A     		lsrs	r3, r3, #8
 2792 002a 03EB8303 		add	r3, r3, r3, lsl #2
 2793 002e 03EB8303 		add	r3, r3, r3, lsl #2
 2794 0032 0193     		str	r3, [sp, #4]
 2795 0034 03E0     		b	.L704
 2796              	.L703:
 2797 0036 0368     		ldr	r3, [r0]
 2798 0038 9C69     		ldr	r4, [r3, #24]
 2799 003a A507     		lsls	r5, r4, #30
 2800 003c 0ED5     		bpl	.L714
 2801              	.L704:
 2802 003e 019B     		ldr	r3, [sp, #4]
 2803 0040 5C1E     		subs	r4, r3, #1
 2804 0042 0194     		str	r4, [sp, #4]
 2805 0044 002B     		cmp	r3, #0
 2806 0046 F6D1     		bne	.L703
 2807 0048 2022     		movs	r2, #32
 2808 004a 0363     		str	r3, [r0, #48]
 2809 004c 80F83C30 		strb	r3, [r0, #60]
 2810 0050 80F83D20 		strb	r2, [r0, #61]
 2811 0054 0320     		movs	r0, #3
 2812 0056 DCE7     		b	.L702
 2813              	.L708:
 2814 0058 0120     		movs	r0, #1
 2815 005a DAE7     		b	.L702
 2816              	.L714:
 2817 005c 90F83C40 		ldrb	r4, [r0, #60]	@ zero_extendqisi2
 2818 0060 012C     		cmp	r4, #1
 2819 0062 D5D0     		beq	.L705
 2820 0064 1C68     		ldr	r4, [r3]
 2821 0066 0125     		movs	r5, #1
 2822 0068 E407     		lsls	r4, r4, #31
 2823 006a 80F83C50 		strb	r5, [r0, #60]
 2824 006e 02D4     		bmi	.L706
 2825 0070 1C68     		ldr	r4, [r3]
 2826 0072 2C43     		orrs	r4, r4, r5
ARM GAS  /tmp/ccWQvKle.s 			page 50


 2827 0074 1C60     		str	r4, [r3]
 2828              	.L706:
 2829 0076 1C68     		ldr	r4, [r3]
 2830 0078 0F4D     		ldr	r5, .L715+8
 2831 007a 24F40064 		bic	r4, r4, #2048
 2832 007e 1C60     		str	r4, [r3]
 2833 0080 2227     		movs	r7, #34
 2834 0082 0024     		movs	r4, #0
 2835 0084 2026     		movs	r6, #32
 2836 0086 80F83D70 		strb	r7, [r0, #61]
 2837 008a 80F83E60 		strb	r6, [r0, #62]
 2838 008e 0464     		str	r4, [r0, #64]
 2839 0090 4285     		strh	r2, [r0, #42]	@ movhi
 2840 0092 C562     		str	r5, [r0, #44]
 2841 0094 1D68     		ldr	r5, [r3]
 2842 0096 0285     		strh	r2, [r0, #40]	@ movhi
 2843 0098 45F48065 		orr	r5, r5, #1024
 2844 009c 4162     		str	r1, [r0, #36]
 2845 009e 1D60     		str	r5, [r3]
 2846 00a0 5A68     		ldr	r2, [r3, #4]
 2847 00a2 80F83C40 		strb	r4, [r0, #60]
 2848 00a6 42F4E062 		orr	r2, r2, #1792
 2849 00aa 2046     		mov	r0, r4
 2850 00ac 5A60     		str	r2, [r3, #4]
 2851 00ae B0E7     		b	.L702
 2852              	.L716:
 2853              		.align	2
 2854              	.L715:
 2855 00b0 00000000 		.word	SystemCoreClock
 2856 00b4 89B5F814 		.word	351843721
 2857 00b8 0000FFFF 		.word	-65536
 2859              		.section	.text.HAL_I2C_Slave_Sequential_Transmit_IT,"ax",%progbits
 2860              		.align	1
 2861              		.p2align 2,,3
 2862              		.global	HAL_I2C_Slave_Sequential_Transmit_IT
 2863              		.syntax unified
 2864              		.thumb
 2865              		.thumb_func
 2866              		.fpu fpv4-sp-d16
 2868              	HAL_I2C_Slave_Sequential_Transmit_IT:
 2869              		@ args = 0, pretend = 0, frame = 8
 2870              		@ frame_needed = 0, uses_anonymous_args = 0
 2871              		@ link register save eliminated.
 2872 0000 F0B4     		push	{r4, r5, r6, r7}
 2873 0002 90F83D40 		ldrb	r4, [r0, #61]	@ zero_extendqisi2
 2874 0006 282C     		cmp	r4, #40
 2875 0008 82B0     		sub	sp, sp, #8
 2876 000a 03D0     		beq	.L725
 2877              	.L723:
 2878 000c 0220     		movs	r0, #2
 2879              	.L718:
 2880 000e 02B0     		add	sp, sp, #8
 2881              		@ sp needed
 2882 0010 F0BC     		pop	{r4, r5, r6, r7}
 2883 0012 7047     		bx	lr
 2884              	.L725:
 2885 0014 0029     		cmp	r1, #0
ARM GAS  /tmp/ccWQvKle.s 			page 51


 2886 0016 2ED0     		beq	.L722
 2887 0018 002A     		cmp	r2, #0
 2888 001a 2CD0     		beq	.L722
 2889 001c 90F83C40 		ldrb	r4, [r0, #60]	@ zero_extendqisi2
 2890 0020 012C     		cmp	r4, #1
 2891 0022 F3D0     		beq	.L723
 2892 0024 0568     		ldr	r5, [r0]
 2893 0026 2C68     		ldr	r4, [r5]
 2894 0028 0126     		movs	r6, #1
 2895 002a E407     		lsls	r4, r4, #31
 2896 002c 80F83C60 		strb	r6, [r0, #60]
 2897 0030 02D4     		bmi	.L719
 2898 0032 2C68     		ldr	r4, [r5]
 2899 0034 3443     		orrs	r4, r4, r6
 2900 0036 2C60     		str	r4, [r5]
 2901              	.L719:
 2902 0038 2C68     		ldr	r4, [r5]
 2903 003a 24F40064 		bic	r4, r4, #2048
 2904 003e 2C60     		str	r4, [r5]
 2905 0040 2927     		movs	r7, #41
 2906 0042 0024     		movs	r4, #0
 2907 0044 2026     		movs	r6, #32
 2908 0046 80F83D70 		strb	r7, [r0, #61]
 2909 004a 80F83E60 		strb	r6, [r0, #62]
 2910 004e 0464     		str	r4, [r0, #64]
 2911 0050 4285     		strh	r2, [r0, #42]	@ movhi
 2912 0052 C362     		str	r3, [r0, #44]
 2913 0054 428D     		ldrh	r2, [r0, #42]
 2914 0056 0194     		str	r4, [sp, #4]
 2915 0058 6B69     		ldr	r3, [r5, #20]
 2916 005a 0193     		str	r3, [sp, #4]
 2917 005c AB69     		ldr	r3, [r5, #24]
 2918 005e 0193     		str	r3, [sp, #4]
 2919 0060 019B     		ldr	r3, [sp, #4]
 2920 0062 6B68     		ldr	r3, [r5, #4]
 2921 0064 4162     		str	r1, [r0, #36]
 2922 0066 43F4E063 		orr	r3, r3, #1792
 2923 006a 0285     		strh	r2, [r0, #40]	@ movhi
 2924 006c 80F83C40 		strb	r4, [r0, #60]
 2925 0070 2046     		mov	r0, r4
 2926 0072 6B60     		str	r3, [r5, #4]
 2927 0074 CBE7     		b	.L718
 2928              	.L722:
 2929 0076 0120     		movs	r0, #1
 2930 0078 C9E7     		b	.L718
 2932 007a 00BF     		.section	.text.HAL_I2C_Slave_Sequential_Receive_IT,"ax",%progbits
 2933              		.align	1
 2934              		.p2align 2,,3
 2935              		.global	HAL_I2C_Slave_Sequential_Receive_IT
 2936              		.syntax unified
 2937              		.thumb
 2938              		.thumb_func
 2939              		.fpu fpv4-sp-d16
 2941              	HAL_I2C_Slave_Sequential_Receive_IT:
 2942              		@ args = 0, pretend = 0, frame = 8
 2943              		@ frame_needed = 0, uses_anonymous_args = 0
 2944              		@ link register save eliminated.
ARM GAS  /tmp/ccWQvKle.s 			page 52


 2945 0000 F0B4     		push	{r4, r5, r6, r7}
 2946 0002 90F83D40 		ldrb	r4, [r0, #61]	@ zero_extendqisi2
 2947 0006 282C     		cmp	r4, #40
 2948 0008 82B0     		sub	sp, sp, #8
 2949 000a 03D0     		beq	.L734
 2950              	.L732:
 2951 000c 0220     		movs	r0, #2
 2952              	.L727:
 2953 000e 02B0     		add	sp, sp, #8
 2954              		@ sp needed
 2955 0010 F0BC     		pop	{r4, r5, r6, r7}
 2956 0012 7047     		bx	lr
 2957              	.L734:
 2958 0014 0029     		cmp	r1, #0
 2959 0016 2ED0     		beq	.L731
 2960 0018 002A     		cmp	r2, #0
 2961 001a 2CD0     		beq	.L731
 2962 001c 90F83C40 		ldrb	r4, [r0, #60]	@ zero_extendqisi2
 2963 0020 012C     		cmp	r4, #1
 2964 0022 F3D0     		beq	.L732
 2965 0024 0568     		ldr	r5, [r0]
 2966 0026 2C68     		ldr	r4, [r5]
 2967 0028 0126     		movs	r6, #1
 2968 002a E407     		lsls	r4, r4, #31
 2969 002c 80F83C60 		strb	r6, [r0, #60]
 2970 0030 02D4     		bmi	.L728
 2971 0032 2C68     		ldr	r4, [r5]
 2972 0034 3443     		orrs	r4, r4, r6
 2973 0036 2C60     		str	r4, [r5]
 2974              	.L728:
 2975 0038 2C68     		ldr	r4, [r5]
 2976 003a 24F40064 		bic	r4, r4, #2048
 2977 003e 2C60     		str	r4, [r5]
 2978 0040 2A27     		movs	r7, #42
 2979 0042 0024     		movs	r4, #0
 2980 0044 2026     		movs	r6, #32
 2981 0046 80F83D70 		strb	r7, [r0, #61]
 2982 004a 80F83E60 		strb	r6, [r0, #62]
 2983 004e 0464     		str	r4, [r0, #64]
 2984 0050 4285     		strh	r2, [r0, #42]	@ movhi
 2985 0052 C362     		str	r3, [r0, #44]
 2986 0054 428D     		ldrh	r2, [r0, #42]
 2987 0056 0194     		str	r4, [sp, #4]
 2988 0058 6B69     		ldr	r3, [r5, #20]
 2989 005a 0193     		str	r3, [sp, #4]
 2990 005c AB69     		ldr	r3, [r5, #24]
 2991 005e 0193     		str	r3, [sp, #4]
 2992 0060 019B     		ldr	r3, [sp, #4]
 2993 0062 6B68     		ldr	r3, [r5, #4]
 2994 0064 4162     		str	r1, [r0, #36]
 2995 0066 43F4E063 		orr	r3, r3, #1792
 2996 006a 0285     		strh	r2, [r0, #40]	@ movhi
 2997 006c 80F83C40 		strb	r4, [r0, #60]
 2998 0070 2046     		mov	r0, r4
 2999 0072 6B60     		str	r3, [r5, #4]
 3000 0074 CBE7     		b	.L727
 3001              	.L731:
ARM GAS  /tmp/ccWQvKle.s 			page 53


 3002 0076 0120     		movs	r0, #1
 3003 0078 C9E7     		b	.L727
 3005 007a 00BF     		.section	.text.HAL_I2C_EnableListen_IT,"ax",%progbits
 3006              		.align	1
 3007              		.p2align 2,,3
 3008              		.global	HAL_I2C_EnableListen_IT
 3009              		.syntax unified
 3010              		.thumb
 3011              		.thumb_func
 3012              		.fpu fpv4-sp-d16
 3014              	HAL_I2C_EnableListen_IT:
 3015              		@ args = 0, pretend = 0, frame = 0
 3016              		@ frame_needed = 0, uses_anonymous_args = 0
 3017              		@ link register save eliminated.
 3018 0000 90F83D30 		ldrb	r3, [r0, #61]	@ zero_extendqisi2
 3019 0004 202B     		cmp	r3, #32
 3020 0006 01D0     		beq	.L739
 3021 0008 0220     		movs	r0, #2
 3022 000a 7047     		bx	lr
 3023              	.L739:
 3024 000c 2822     		movs	r2, #40
 3025 000e 0368     		ldr	r3, [r0]
 3026 0010 80F83D20 		strb	r2, [r0, #61]
 3027 0014 1A68     		ldr	r2, [r3]
 3028 0016 D207     		lsls	r2, r2, #31
 3029 0018 03D4     		bmi	.L737
 3030 001a 1A68     		ldr	r2, [r3]
 3031 001c 42F00102 		orr	r2, r2, #1
 3032 0020 1A60     		str	r2, [r3]
 3033              	.L737:
 3034 0022 1A68     		ldr	r2, [r3]
 3035 0024 42F48062 		orr	r2, r2, #1024
 3036 0028 1A60     		str	r2, [r3]
 3037 002a 5A68     		ldr	r2, [r3, #4]
 3038 002c 42F44072 		orr	r2, r2, #768
 3039 0030 5A60     		str	r2, [r3, #4]
 3040 0032 0020     		movs	r0, #0
 3041 0034 7047     		bx	lr
 3043 0036 00BF     		.section	.text.HAL_I2C_DisableListen_IT,"ax",%progbits
 3044              		.align	1
 3045              		.p2align 2,,3
 3046              		.global	HAL_I2C_DisableListen_IT
 3047              		.syntax unified
 3048              		.thumb
 3049              		.thumb_func
 3050              		.fpu fpv4-sp-d16
 3052              	HAL_I2C_DisableListen_IT:
 3053              		@ args = 0, pretend = 0, frame = 0
 3054              		@ frame_needed = 0, uses_anonymous_args = 0
 3055              		@ link register save eliminated.
 3056 0000 90F83D30 		ldrb	r3, [r0, #61]	@ zero_extendqisi2
 3057 0004 282B     		cmp	r3, #40
 3058 0006 01D0     		beq	.L747
 3059 0008 0220     		movs	r0, #2
 3060 000a 7047     		bx	lr
 3061              	.L747:
 3062 000c 90F83D30 		ldrb	r3, [r0, #61]	@ zero_extendqisi2
ARM GAS  /tmp/ccWQvKle.s 			page 54


 3063 0010 90F83E10 		ldrb	r1, [r0, #62]	@ zero_extendqisi2
 3064 0014 0268     		ldr	r2, [r0]
 3065 0016 03F00303 		and	r3, r3, #3
 3066 001a 10B4     		push	{r4}
 3067 001c 1943     		orrs	r1, r1, r3
 3068 001e 2024     		movs	r4, #32
 3069 0020 0023     		movs	r3, #0
 3070 0022 0163     		str	r1, [r0, #48]
 3071 0024 80F83D40 		strb	r4, [r0, #61]
 3072 0028 80F83E30 		strb	r3, [r0, #62]
 3073 002c 1168     		ldr	r1, [r2]
 3074 002e 5DF8044B 		ldr	r4, [sp], #4
 3075 0032 21F48061 		bic	r1, r1, #1024
 3076 0036 1160     		str	r1, [r2]
 3077 0038 5168     		ldr	r1, [r2, #4]
 3078 003a 21F44071 		bic	r1, r1, #768
 3079 003e 1846     		mov	r0, r3
 3080 0040 5160     		str	r1, [r2, #4]
 3081 0042 7047     		bx	lr
 3083              		.section	.text.HAL_I2C_Master_Transmit_DMA,"ax",%progbits
 3084              		.align	1
 3085              		.p2align 2,,3
 3086              		.global	HAL_I2C_Master_Transmit_DMA
 3087              		.syntax unified
 3088              		.thumb
 3089              		.thumb_func
 3090              		.fpu fpv4-sp-d16
 3092              	HAL_I2C_Master_Transmit_DMA:
 3093              		@ args = 0, pretend = 0, frame = 8
 3094              		@ frame_needed = 0, uses_anonymous_args = 0
 3095 0000 F0B5     		push	{r4, r5, r6, r7, lr}
 3096 0002 83B0     		sub	sp, sp, #12
 3097 0004 0024     		movs	r4, #0
 3098 0006 0194     		str	r4, [sp, #4]
 3099 0008 90F83D40 		ldrb	r4, [r0, #61]	@ zero_extendqisi2
 3100 000c 202C     		cmp	r4, #32
 3101 000e 02D0     		beq	.L749
 3102              	.L753:
 3103 0010 0220     		movs	r0, #2
 3104              	.L750:
 3105 0012 03B0     		add	sp, sp, #12
 3106              		@ sp needed
 3107 0014 F0BD     		pop	{r4, r5, r6, r7, pc}
 3108              	.L749:
 3109 0016 3B4C     		ldr	r4, .L763
 3110 0018 3B4D     		ldr	r5, .L763+4
 3111 001a 2468     		ldr	r4, [r4]
 3112 001c E408     		lsrs	r4, r4, #3
 3113 001e A5FB0454 		umull	r5, r4, r5, r4
 3114 0022 240A     		lsrs	r4, r4, #8
 3115 0024 04EB8404 		add	r4, r4, r4, lsl #2
 3116 0028 04EB8404 		add	r4, r4, r4, lsl #2
 3117 002c 0194     		str	r4, [sp, #4]
 3118 002e 03E0     		b	.L752
 3119              	.L751:
 3120 0030 0468     		ldr	r4, [r0]
 3121 0032 A569     		ldr	r5, [r4, #24]
ARM GAS  /tmp/ccWQvKle.s 			page 55


 3122 0034 AE07     		lsls	r6, r5, #30
 3123 0036 0CD5     		bpl	.L761
 3124              	.L752:
 3125 0038 019C     		ldr	r4, [sp, #4]
 3126 003a 651E     		subs	r5, r4, #1
 3127 003c 0195     		str	r5, [sp, #4]
 3128 003e 002C     		cmp	r4, #0
 3129 0040 F6D1     		bne	.L751
 3130 0042 2023     		movs	r3, #32
 3131 0044 0463     		str	r4, [r0, #48]
 3132 0046 80F83C40 		strb	r4, [r0, #60]
 3133 004a 80F83D30 		strb	r3, [r0, #61]
 3134 004e 0320     		movs	r0, #3
 3135 0050 DFE7     		b	.L750
 3136              	.L761:
 3137 0052 90F83C50 		ldrb	r5, [r0, #60]	@ zero_extendqisi2
 3138 0056 012D     		cmp	r5, #1
 3139 0058 DAD0     		beq	.L753
 3140 005a 2568     		ldr	r5, [r4]
 3141 005c 0126     		movs	r6, #1
 3142 005e ED07     		lsls	r5, r5, #31
 3143 0060 80F83C60 		strb	r6, [r0, #60]
 3144 0064 02D4     		bmi	.L754
 3145 0066 2568     		ldr	r5, [r4]
 3146 0068 3543     		orrs	r5, r5, r6
 3147 006a 2560     		str	r5, [r4]
 3148              	.L754:
 3149 006c 2568     		ldr	r5, [r4]
 3150 006e 274E     		ldr	r6, .L763+8
 3151 0070 25F40065 		bic	r5, r5, #2048
 3152 0074 2560     		str	r5, [r4]
 3153 0076 4FF0210E 		mov	lr, #33
 3154 007a 1027     		movs	r7, #16
 3155 007c 0025     		movs	r5, #0
 3156 007e 80F83DE0 		strb	lr, [r0, #61]
 3157 0082 80F83E70 		strb	r7, [r0, #62]
 3158 0086 0564     		str	r5, [r0, #64]
 3159 0088 4385     		strh	r3, [r0, #42]	@ movhi
 3160 008a C662     		str	r6, [r0, #44]
 3161 008c 438D     		ldrh	r3, [r0, #42]
 3162 008e 4262     		str	r2, [r0, #36]
 3163 0090 9BB2     		uxth	r3, r3
 3164 0092 0385     		strh	r3, [r0, #40]	@ movhi
 3165 0094 4164     		str	r1, [r0, #68]
 3166 0096 7BB9     		cbnz	r3, .L762
 3167 0098 2268     		ldr	r2, [r4]
 3168 009a 42F48062 		orr	r2, r2, #1024
 3169 009e 2260     		str	r2, [r4]
 3170 00a0 2268     		ldr	r2, [r4]
 3171 00a2 42F48072 		orr	r2, r2, #256
 3172 00a6 2260     		str	r2, [r4]
 3173 00a8 6268     		ldr	r2, [r4, #4]
 3174 00aa 80F83C30 		strb	r3, [r0, #60]
 3175 00ae 42F4E062 		orr	r2, r2, #1792
 3176 00b2 1846     		mov	r0, r3
 3177 00b4 6260     		str	r2, [r4, #4]
 3178 00b6 ACE7     		b	.L750
ARM GAS  /tmp/ccWQvKle.s 			page 56


 3179              	.L762:
 3180 00b8 0646     		mov	r6, r0
 3181 00ba 406B     		ldr	r0, [r0, #52]
 3182 00bc DFF854E0 		ldr	lr, .L763+16
 3183 00c0 134F     		ldr	r7, .L763+12
 3184 00c2 0564     		str	r5, [r0, #64]
 3185 00c4 1146     		mov	r1, r2
 3186 00c6 4564     		str	r5, [r0, #68]
 3187 00c8 04F11002 		add	r2, r4, #16
 3188 00cc 8564     		str	r5, [r0, #72]
 3189 00ce 0565     		str	r5, [r0, #80]
 3190 00d0 C0F83CE0 		str	lr, [r0, #60]
 3191 00d4 C764     		str	r7, [r0, #76]
 3192 00d6 FFF7FEFF 		bl	HAL_DMA_Start_IT
 3193 00da 3368     		ldr	r3, [r6]
 3194 00dc 1A68     		ldr	r2, [r3]
 3195 00de 42F48062 		orr	r2, r2, #1024
 3196 00e2 1A60     		str	r2, [r3]
 3197 00e4 1A68     		ldr	r2, [r3]
 3198 00e6 42F48072 		orr	r2, r2, #256
 3199 00ea 1A60     		str	r2, [r3]
 3200 00ec 5A68     		ldr	r2, [r3, #4]
 3201 00ee 86F83C50 		strb	r5, [r6, #60]
 3202 00f2 42F44072 		orr	r2, r2, #768
 3203 00f6 5A60     		str	r2, [r3, #4]
 3204 00f8 5A68     		ldr	r2, [r3, #4]
 3205 00fa 42F40062 		orr	r2, r2, #2048
 3206 00fe 2846     		mov	r0, r5
 3207 0100 5A60     		str	r2, [r3, #4]
 3208 0102 86E7     		b	.L750
 3209              	.L764:
 3210              		.align	2
 3211              	.L763:
 3212 0104 00000000 		.word	SystemCoreClock
 3213 0108 89B5F814 		.word	351843721
 3214 010c 0000FFFF 		.word	-65536
 3215 0110 00000000 		.word	I2C_DMAError
 3216 0114 00000000 		.word	I2C_DMAXferCplt
 3218              		.section	.text.HAL_I2C_Master_Receive_DMA,"ax",%progbits
 3219              		.align	1
 3220              		.p2align 2,,3
 3221              		.global	HAL_I2C_Master_Receive_DMA
 3222              		.syntax unified
 3223              		.thumb
 3224              		.thumb_func
 3225              		.fpu fpv4-sp-d16
 3227              	HAL_I2C_Master_Receive_DMA:
 3228              		@ args = 0, pretend = 0, frame = 8
 3229              		@ frame_needed = 0, uses_anonymous_args = 0
 3230 0000 F0B5     		push	{r4, r5, r6, r7, lr}
 3231 0002 83B0     		sub	sp, sp, #12
 3232 0004 0024     		movs	r4, #0
 3233 0006 0194     		str	r4, [sp, #4]
 3234 0008 90F83D40 		ldrb	r4, [r0, #61]	@ zero_extendqisi2
 3235 000c 202C     		cmp	r4, #32
 3236 000e 02D0     		beq	.L766
 3237              	.L770:
ARM GAS  /tmp/ccWQvKle.s 			page 57


 3238 0010 0220     		movs	r0, #2
 3239              	.L767:
 3240 0012 03B0     		add	sp, sp, #12
 3241              		@ sp needed
 3242 0014 F0BD     		pop	{r4, r5, r6, r7, pc}
 3243              	.L766:
 3244 0016 3B4C     		ldr	r4, .L780
 3245 0018 3B4D     		ldr	r5, .L780+4
 3246 001a 2468     		ldr	r4, [r4]
 3247 001c E408     		lsrs	r4, r4, #3
 3248 001e A5FB0454 		umull	r5, r4, r5, r4
 3249 0022 240A     		lsrs	r4, r4, #8
 3250 0024 04EB8404 		add	r4, r4, r4, lsl #2
 3251 0028 04EB8404 		add	r4, r4, r4, lsl #2
 3252 002c 0194     		str	r4, [sp, #4]
 3253 002e 03E0     		b	.L769
 3254              	.L768:
 3255 0030 0468     		ldr	r4, [r0]
 3256 0032 A569     		ldr	r5, [r4, #24]
 3257 0034 AE07     		lsls	r6, r5, #30
 3258 0036 0CD5     		bpl	.L778
 3259              	.L769:
 3260 0038 019C     		ldr	r4, [sp, #4]
 3261 003a 651E     		subs	r5, r4, #1
 3262 003c 0195     		str	r5, [sp, #4]
 3263 003e 002C     		cmp	r4, #0
 3264 0040 F6D1     		bne	.L768
 3265 0042 2023     		movs	r3, #32
 3266 0044 0463     		str	r4, [r0, #48]
 3267 0046 80F83C40 		strb	r4, [r0, #60]
 3268 004a 80F83D30 		strb	r3, [r0, #61]
 3269 004e 0320     		movs	r0, #3
 3270 0050 DFE7     		b	.L767
 3271              	.L778:
 3272 0052 90F83C50 		ldrb	r5, [r0, #60]	@ zero_extendqisi2
 3273 0056 012D     		cmp	r5, #1
 3274 0058 DAD0     		beq	.L770
 3275 005a 2568     		ldr	r5, [r4]
 3276 005c 0126     		movs	r6, #1
 3277 005e ED07     		lsls	r5, r5, #31
 3278 0060 80F83C60 		strb	r6, [r0, #60]
 3279 0064 02D4     		bmi	.L771
 3280 0066 2568     		ldr	r5, [r4]
 3281 0068 3543     		orrs	r5, r5, r6
 3282 006a 2560     		str	r5, [r4]
 3283              	.L771:
 3284 006c 2568     		ldr	r5, [r4]
 3285 006e 274E     		ldr	r6, .L780+8
 3286 0070 25F40065 		bic	r5, r5, #2048
 3287 0074 2560     		str	r5, [r4]
 3288 0076 4FF0220E 		mov	lr, #34
 3289 007a 1027     		movs	r7, #16
 3290 007c 0025     		movs	r5, #0
 3291 007e 80F83DE0 		strb	lr, [r0, #61]
 3292 0082 80F83E70 		strb	r7, [r0, #62]
 3293 0086 0564     		str	r5, [r0, #64]
 3294 0088 4385     		strh	r3, [r0, #42]	@ movhi
ARM GAS  /tmp/ccWQvKle.s 			page 58


 3295 008a C662     		str	r6, [r0, #44]
 3296 008c 438D     		ldrh	r3, [r0, #42]
 3297 008e 4262     		str	r2, [r0, #36]
 3298 0090 9BB2     		uxth	r3, r3
 3299 0092 0385     		strh	r3, [r0, #40]	@ movhi
 3300 0094 4164     		str	r1, [r0, #68]
 3301 0096 7BB9     		cbnz	r3, .L779
 3302 0098 2268     		ldr	r2, [r4]
 3303 009a 42F48062 		orr	r2, r2, #1024
 3304 009e 2260     		str	r2, [r4]
 3305 00a0 2268     		ldr	r2, [r4]
 3306 00a2 42F48072 		orr	r2, r2, #256
 3307 00a6 2260     		str	r2, [r4]
 3308 00a8 6268     		ldr	r2, [r4, #4]
 3309 00aa 80F83C30 		strb	r3, [r0, #60]
 3310 00ae 42F4E062 		orr	r2, r2, #1792
 3311 00b2 1846     		mov	r0, r3
 3312 00b4 6260     		str	r2, [r4, #4]
 3313 00b6 ACE7     		b	.L767
 3314              	.L779:
 3315 00b8 0646     		mov	r6, r0
 3316 00ba 806B     		ldr	r0, [r0, #56]
 3317 00bc DFF854E0 		ldr	lr, .L780+16
 3318 00c0 134F     		ldr	r7, .L780+12
 3319 00c2 0564     		str	r5, [r0, #64]
 3320 00c4 04F11001 		add	r1, r4, #16
 3321 00c8 4564     		str	r5, [r0, #68]
 3322 00ca 8564     		str	r5, [r0, #72]
 3323 00cc 0565     		str	r5, [r0, #80]
 3324 00ce C0F83CE0 		str	lr, [r0, #60]
 3325 00d2 C764     		str	r7, [r0, #76]
 3326 00d4 FFF7FEFF 		bl	HAL_DMA_Start_IT
 3327 00d8 3368     		ldr	r3, [r6]
 3328 00da 1A68     		ldr	r2, [r3]
 3329 00dc 42F48062 		orr	r2, r2, #1024
 3330 00e0 1A60     		str	r2, [r3]
 3331 00e2 1A68     		ldr	r2, [r3]
 3332 00e4 42F48072 		orr	r2, r2, #256
 3333 00e8 1A60     		str	r2, [r3]
 3334 00ea 5A68     		ldr	r2, [r3, #4]
 3335 00ec 86F83C50 		strb	r5, [r6, #60]
 3336 00f0 42F44072 		orr	r2, r2, #768
 3337 00f4 5A60     		str	r2, [r3, #4]
 3338 00f6 5A68     		ldr	r2, [r3, #4]
 3339 00f8 42F40062 		orr	r2, r2, #2048
 3340 00fc 2846     		mov	r0, r5
 3341 00fe 5A60     		str	r2, [r3, #4]
 3342 0100 87E7     		b	.L767
 3343              	.L781:
 3344 0102 00BF     		.align	2
 3345              	.L780:
 3346 0104 00000000 		.word	SystemCoreClock
 3347 0108 89B5F814 		.word	351843721
 3348 010c 0000FFFF 		.word	-65536
 3349 0110 00000000 		.word	I2C_DMAError
 3350 0114 00000000 		.word	I2C_DMAXferCplt
 3352              		.section	.text.HAL_I2C_Slave_Transmit_DMA,"ax",%progbits
ARM GAS  /tmp/ccWQvKle.s 			page 59


 3353              		.align	1
 3354              		.p2align 2,,3
 3355              		.global	HAL_I2C_Slave_Transmit_DMA
 3356              		.syntax unified
 3357              		.thumb
 3358              		.thumb_func
 3359              		.fpu fpv4-sp-d16
 3361              	HAL_I2C_Slave_Transmit_DMA:
 3362              		@ args = 0, pretend = 0, frame = 8
 3363              		@ frame_needed = 0, uses_anonymous_args = 0
 3364 0000 F0B5     		push	{r4, r5, r6, r7, lr}
 3365 0002 83B0     		sub	sp, sp, #12
 3366 0004 0023     		movs	r3, #0
 3367 0006 0193     		str	r3, [sp, #4]
 3368 0008 90F83D30 		ldrb	r3, [r0, #61]	@ zero_extendqisi2
 3369 000c 202B     		cmp	r3, #32
 3370 000e 02D0     		beq	.L783
 3371              	.L787:
 3372 0010 0220     		movs	r0, #2
 3373              	.L784:
 3374 0012 03B0     		add	sp, sp, #12
 3375              		@ sp needed
 3376 0014 F0BD     		pop	{r4, r5, r6, r7, pc}
 3377              	.L783:
 3378 0016 F1B1     		cbz	r1, .L790
 3379 0018 EAB1     		cbz	r2, .L790
 3380 001a 304B     		ldr	r3, .L797
 3381 001c 304C     		ldr	r4, .L797+4
 3382 001e 1B68     		ldr	r3, [r3]
 3383 0020 DB08     		lsrs	r3, r3, #3
 3384 0022 A4FB0343 		umull	r4, r3, r4, r3
 3385 0026 1B0A     		lsrs	r3, r3, #8
 3386 0028 03EB8303 		add	r3, r3, r3, lsl #2
 3387 002c 03EB8303 		add	r3, r3, r3, lsl #2
 3388 0030 0193     		str	r3, [sp, #4]
 3389 0032 03E0     		b	.L786
 3390              	.L785:
 3391 0034 0368     		ldr	r3, [r0]
 3392 0036 9C69     		ldr	r4, [r3, #24]
 3393 0038 A507     		lsls	r5, r4, #30
 3394 003a 0ED5     		bpl	.L796
 3395              	.L786:
 3396 003c 019B     		ldr	r3, [sp, #4]
 3397 003e 5C1E     		subs	r4, r3, #1
 3398 0040 0194     		str	r4, [sp, #4]
 3399 0042 002B     		cmp	r3, #0
 3400 0044 F6D1     		bne	.L785
 3401 0046 2022     		movs	r2, #32
 3402 0048 0363     		str	r3, [r0, #48]
 3403 004a 80F83C30 		strb	r3, [r0, #60]
 3404 004e 80F83D20 		strb	r2, [r0, #61]
 3405 0052 0320     		movs	r0, #3
 3406 0054 DDE7     		b	.L784
 3407              	.L790:
 3408 0056 0120     		movs	r0, #1
 3409 0058 DBE7     		b	.L784
 3410              	.L796:
ARM GAS  /tmp/ccWQvKle.s 			page 60


 3411 005a 90F83C40 		ldrb	r4, [r0, #60]	@ zero_extendqisi2
 3412 005e 012C     		cmp	r4, #1
 3413 0060 D6D0     		beq	.L787
 3414 0062 1C68     		ldr	r4, [r3]
 3415 0064 0125     		movs	r5, #1
 3416 0066 E407     		lsls	r4, r4, #31
 3417 0068 80F83C50 		strb	r5, [r0, #60]
 3418 006c 02D4     		bmi	.L788
 3419 006e 1C68     		ldr	r4, [r3]
 3420 0070 2C43     		orrs	r4, r4, r5
 3421 0072 1C60     		str	r4, [r3]
 3422              	.L788:
 3423 0074 1C68     		ldr	r4, [r3]
 3424 0076 1B4F     		ldr	r7, .L797+8
 3425 0078 1B4E     		ldr	r6, .L797+12
 3426 007a 0546     		mov	r5, r0
 3427 007c 9646     		mov	lr, r2
 3428 007e 1A46     		mov	r2, r3
 3429 0080 24F40064 		bic	r4, r4, #2048
 3430 0084 2123     		movs	r3, #33
 3431 0086 406B     		ldr	r0, [r0, #52]
 3432 0088 42F8104B 		str	r4, [r2], #16
 3433 008c 85F83D30 		strb	r3, [r5, #61]
 3434 0090 0024     		movs	r4, #0
 3435 0092 2023     		movs	r3, #32
 3436 0094 85F83E30 		strb	r3, [r5, #62]
 3437 0098 2C64     		str	r4, [r5, #64]
 3438 009a A5F82AE0 		strh	lr, [r5, #42]	@ movhi
 3439 009e EF62     		str	r7, [r5, #44]
 3440 00a0 6B8D     		ldrh	r3, [r5, #42]
 3441 00a2 124F     		ldr	r7, .L797+16
 3442 00a4 6962     		str	r1, [r5, #36]
 3443 00a6 9BB2     		uxth	r3, r3
 3444 00a8 2B85     		strh	r3, [r5, #40]	@ movhi
 3445 00aa 0464     		str	r4, [r0, #64]
 3446 00ac 4464     		str	r4, [r0, #68]
 3447 00ae 8464     		str	r4, [r0, #72]
 3448 00b0 0465     		str	r4, [r0, #80]
 3449 00b2 C663     		str	r6, [r0, #60]
 3450 00b4 C764     		str	r7, [r0, #76]
 3451 00b6 FFF7FEFF 		bl	HAL_DMA_Start_IT
 3452 00ba 2B68     		ldr	r3, [r5]
 3453 00bc 1A68     		ldr	r2, [r3]
 3454 00be 42F48062 		orr	r2, r2, #1024
 3455 00c2 1A60     		str	r2, [r3]
 3456 00c4 5A68     		ldr	r2, [r3, #4]
 3457 00c6 85F83C40 		strb	r4, [r5, #60]
 3458 00ca 42F44072 		orr	r2, r2, #768
 3459 00ce 5A60     		str	r2, [r3, #4]
 3460 00d0 5A68     		ldr	r2, [r3, #4]
 3461 00d2 42F40062 		orr	r2, r2, #2048
 3462 00d6 2046     		mov	r0, r4
 3463 00d8 5A60     		str	r2, [r3, #4]
 3464 00da 9AE7     		b	.L784
 3465              	.L798:
 3466              		.align	2
 3467              	.L797:
ARM GAS  /tmp/ccWQvKle.s 			page 61


 3468 00dc 00000000 		.word	SystemCoreClock
 3469 00e0 89B5F814 		.word	351843721
 3470 00e4 0000FFFF 		.word	-65536
 3471 00e8 00000000 		.word	I2C_DMAXferCplt
 3472 00ec 00000000 		.word	I2C_DMAError
 3474              		.section	.text.HAL_I2C_Slave_Receive_DMA,"ax",%progbits
 3475              		.align	1
 3476              		.p2align 2,,3
 3477              		.global	HAL_I2C_Slave_Receive_DMA
 3478              		.syntax unified
 3479              		.thumb
 3480              		.thumb_func
 3481              		.fpu fpv4-sp-d16
 3483              	HAL_I2C_Slave_Receive_DMA:
 3484              		@ args = 0, pretend = 0, frame = 8
 3485              		@ frame_needed = 0, uses_anonymous_args = 0
 3486 0000 F0B5     		push	{r4, r5, r6, r7, lr}
 3487 0002 83B0     		sub	sp, sp, #12
 3488 0004 0023     		movs	r3, #0
 3489 0006 0193     		str	r3, [sp, #4]
 3490 0008 90F83D30 		ldrb	r3, [r0, #61]	@ zero_extendqisi2
 3491 000c 202B     		cmp	r3, #32
 3492 000e 02D0     		beq	.L800
 3493              	.L804:
 3494 0010 0220     		movs	r0, #2
 3495              	.L801:
 3496 0012 03B0     		add	sp, sp, #12
 3497              		@ sp needed
 3498 0014 F0BD     		pop	{r4, r5, r6, r7, pc}
 3499              	.L800:
 3500 0016 F1B1     		cbz	r1, .L807
 3501 0018 EAB1     		cbz	r2, .L807
 3502 001a 314B     		ldr	r3, .L814
 3503 001c 314C     		ldr	r4, .L814+4
 3504 001e 1B68     		ldr	r3, [r3]
 3505 0020 DB08     		lsrs	r3, r3, #3
 3506 0022 A4FB0343 		umull	r4, r3, r4, r3
 3507 0026 1B0A     		lsrs	r3, r3, #8
 3508 0028 03EB8303 		add	r3, r3, r3, lsl #2
 3509 002c 03EB8303 		add	r3, r3, r3, lsl #2
 3510 0030 0193     		str	r3, [sp, #4]
 3511 0032 03E0     		b	.L803
 3512              	.L802:
 3513 0034 0368     		ldr	r3, [r0]
 3514 0036 9C69     		ldr	r4, [r3, #24]
 3515 0038 A507     		lsls	r5, r4, #30
 3516 003a 0ED5     		bpl	.L813
 3517              	.L803:
 3518 003c 019B     		ldr	r3, [sp, #4]
 3519 003e 5C1E     		subs	r4, r3, #1
 3520 0040 0194     		str	r4, [sp, #4]
 3521 0042 002B     		cmp	r3, #0
 3522 0044 F6D1     		bne	.L802
 3523 0046 2022     		movs	r2, #32
 3524 0048 0363     		str	r3, [r0, #48]
 3525 004a 80F83C30 		strb	r3, [r0, #60]
 3526 004e 80F83D20 		strb	r2, [r0, #61]
ARM GAS  /tmp/ccWQvKle.s 			page 62


 3527 0052 0320     		movs	r0, #3
 3528 0054 DDE7     		b	.L801
 3529              	.L807:
 3530 0056 0120     		movs	r0, #1
 3531 0058 DBE7     		b	.L801
 3532              	.L813:
 3533 005a 90F83C40 		ldrb	r4, [r0, #60]	@ zero_extendqisi2
 3534 005e 012C     		cmp	r4, #1
 3535 0060 D6D0     		beq	.L804
 3536 0062 1C68     		ldr	r4, [r3]
 3537 0064 0125     		movs	r5, #1
 3538 0066 E407     		lsls	r4, r4, #31
 3539 0068 80F83C50 		strb	r5, [r0, #60]
 3540 006c 02D4     		bmi	.L805
 3541 006e 1C68     		ldr	r4, [r3]
 3542 0070 2C43     		orrs	r4, r4, r5
 3543 0072 1C60     		str	r4, [r3]
 3544              	.L805:
 3545 0074 1C68     		ldr	r4, [r3]
 3546 0076 1C4F     		ldr	r7, .L814+8
 3547 0078 1C4E     		ldr	r6, .L814+12
 3548 007a 0546     		mov	r5, r0
 3549 007c 9646     		mov	lr, r2
 3550 007e 0A46     		mov	r2, r1
 3551 0080 1946     		mov	r1, r3
 3552 0082 24F40064 		bic	r4, r4, #2048
 3553 0086 2223     		movs	r3, #34
 3554 0088 806B     		ldr	r0, [r0, #56]
 3555 008a 41F8104B 		str	r4, [r1], #16
 3556 008e 85F83D30 		strb	r3, [r5, #61]
 3557 0092 0024     		movs	r4, #0
 3558 0094 2023     		movs	r3, #32
 3559 0096 85F83E30 		strb	r3, [r5, #62]
 3560 009a 2C64     		str	r4, [r5, #64]
 3561 009c A5F82AE0 		strh	lr, [r5, #42]	@ movhi
 3562 00a0 EF62     		str	r7, [r5, #44]
 3563 00a2 6B8D     		ldrh	r3, [r5, #42]
 3564 00a4 124F     		ldr	r7, .L814+16
 3565 00a6 6A62     		str	r2, [r5, #36]
 3566 00a8 9BB2     		uxth	r3, r3
 3567 00aa 2B85     		strh	r3, [r5, #40]	@ movhi
 3568 00ac 0464     		str	r4, [r0, #64]
 3569 00ae 4464     		str	r4, [r0, #68]
 3570 00b0 8464     		str	r4, [r0, #72]
 3571 00b2 0465     		str	r4, [r0, #80]
 3572 00b4 C663     		str	r6, [r0, #60]
 3573 00b6 C764     		str	r7, [r0, #76]
 3574 00b8 FFF7FEFF 		bl	HAL_DMA_Start_IT
 3575 00bc 2B68     		ldr	r3, [r5]
 3576 00be 1A68     		ldr	r2, [r3]
 3577 00c0 42F48062 		orr	r2, r2, #1024
 3578 00c4 1A60     		str	r2, [r3]
 3579 00c6 5A68     		ldr	r2, [r3, #4]
 3580 00c8 85F83C40 		strb	r4, [r5, #60]
 3581 00cc 42F44072 		orr	r2, r2, #768
 3582 00d0 5A60     		str	r2, [r3, #4]
 3583 00d2 5A68     		ldr	r2, [r3, #4]
ARM GAS  /tmp/ccWQvKle.s 			page 63


 3584 00d4 42F40062 		orr	r2, r2, #2048
 3585 00d8 2046     		mov	r0, r4
 3586 00da 5A60     		str	r2, [r3, #4]
 3587 00dc 99E7     		b	.L801
 3588              	.L815:
 3589 00de 00BF     		.align	2
 3590              	.L814:
 3591 00e0 00000000 		.word	SystemCoreClock
 3592 00e4 89B5F814 		.word	351843721
 3593 00e8 0000FFFF 		.word	-65536
 3594 00ec 00000000 		.word	I2C_DMAXferCplt
 3595 00f0 00000000 		.word	I2C_DMAError
 3597              		.section	.text.HAL_I2C_Mem_Write,"ax",%progbits
 3598              		.align	1
 3599              		.p2align 2,,3
 3600              		.global	HAL_I2C_Mem_Write
 3601              		.syntax unified
 3602              		.thumb
 3603              		.thumb_func
 3604              		.fpu fpv4-sp-d16
 3606              	HAL_I2C_Mem_Write:
 3607              		@ args = 12, pretend = 0, frame = 0
 3608              		@ frame_needed = 0, uses_anonymous_args = 0
 3609 0000 2DE9F047 		push	{r4, r5, r6, r7, r8, r9, r10, lr}
 3610 0004 0446     		mov	r4, r0
 3611 0006 82B0     		sub	sp, sp, #8
 3612 0008 9846     		mov	r8, r3
 3613 000a 0E46     		mov	r6, r1
 3614 000c 1746     		mov	r7, r2
 3615 000e BDF82C90 		ldrh	r9, [sp, #44]
 3616 0012 FFF7FEFF 		bl	HAL_GetTick
 3617 0016 94F83D30 		ldrb	r3, [r4, #61]	@ zero_extendqisi2
 3618 001a 202B     		cmp	r3, #32
 3619 001c 04D0     		beq	.L869
 3620              	.L849:
 3621 001e 0226     		movs	r6, #2
 3622              	.L866:
 3623 0020 3046     		mov	r0, r6
 3624 0022 02B0     		add	sp, sp, #8
 3625              		@ sp needed
 3626 0024 BDE8F087 		pop	{r4, r5, r6, r7, r8, r9, r10, pc}
 3627              	.L869:
 3628 0028 0546     		mov	r5, r0
 3629 002a 05E0     		b	.L817
 3630              	.L819:
 3631 002c FFF7FEFF 		bl	HAL_GetTick
 3632 0030 401B     		subs	r0, r0, r5
 3633 0032 1928     		cmp	r0, #25
 3634 0034 00F28B80 		bhi	.L874
 3635              	.L817:
 3636 0038 2268     		ldr	r2, [r4]
 3637 003a 9369     		ldr	r3, [r2, #24]
 3638 003c DB43     		mvns	r3, r3
 3639 003e 13F0020A 		ands	r10, r3, #2
 3640 0042 F3D0     		beq	.L819
 3641 0044 94F83C30 		ldrb	r3, [r4, #60]	@ zero_extendqisi2
 3642 0048 012B     		cmp	r3, #1
ARM GAS  /tmp/ccWQvKle.s 			page 64


 3643 004a E8D0     		beq	.L849
 3644 004c 1368     		ldr	r3, [r2]
 3645 004e 0121     		movs	r1, #1
 3646 0050 DB07     		lsls	r3, r3, #31
 3647 0052 84F83C10 		strb	r1, [r4, #60]
 3648 0056 02D4     		bmi	.L821
 3649 0058 1368     		ldr	r3, [r2]
 3650 005a 0B43     		orrs	r3, r3, r1
 3651 005c 1360     		str	r3, [r2]
 3652              	.L821:
 3653 005e 1368     		ldr	r3, [r2]
 3654 0060 5B49     		ldr	r1, .L875
 3655 0062 23F40063 		bic	r3, r3, #2048
 3656 0066 1360     		str	r3, [r2]
 3657 0068 4FF0000A 		mov	r10, #0
 3658 006c 2122     		movs	r2, #33
 3659 006e 4023     		movs	r3, #64
 3660 0070 84F83D20 		strb	r2, [r4, #61]
 3661 0074 84F83E30 		strb	r3, [r4, #62]
 3662 0078 C4F840A0 		str	r10, [r4, #64]
 3663 007c A4F82A90 		strh	r9, [r4, #42]	@ movhi
 3664 0080 E162     		str	r1, [r4, #44]
 3665 0082 608D     		ldrh	r0, [r4, #42]
 3666 0084 0A9B     		ldr	r3, [sp, #40]
 3667 0086 6362     		str	r3, [r4, #36]
 3668 0088 3146     		mov	r1, r6
 3669 008a 0C9E     		ldr	r6, [sp, #48]
 3670 008c 0096     		str	r6, [sp]
 3671 008e 0195     		str	r5, [sp, #4]
 3672 0090 4346     		mov	r3, r8
 3673 0092 2085     		strh	r0, [r4, #40]	@ movhi
 3674 0094 3A46     		mov	r2, r7
 3675 0096 2046     		mov	r0, r4
 3676 0098 FFF7FEFF 		bl	I2C_RequestMemoryWrite
 3677 009c 0646     		mov	r6, r0
 3678 009e 0028     		cmp	r0, #0
 3679 00a0 70D1     		bne	.L822
 3680 00a2 2368     		ldr	r3, [r4]
 3681 00a4 228D     		ldrh	r2, [r4, #40]
 3682              	.L823:
 3683 00a6 002A     		cmp	r2, #0
 3684 00a8 29D0     		beq	.L838
 3685              	.L837:
 3686 00aa 0C9A     		ldr	r2, [sp, #48]
 3687 00ac 0132     		adds	r2, r2, #1
 3688 00ae 59D1     		bne	.L829
 3689              	.L832:
 3690 00b0 5A69     		ldr	r2, [r3, #20]
 3691 00b2 1006     		lsls	r0, r2, #24
 3692 00b4 2DD4     		bmi	.L830
 3693 00b6 5A69     		ldr	r2, [r3, #20]
 3694 00b8 5105     		lsls	r1, r2, #21
 3695 00ba F9D5     		bpl	.L832
 3696              	.L845:
 3697 00bc 0022     		movs	r2, #0
 3698 00be 6FF48065 		mvn	r5, #1024
 3699 00c2 0420     		movs	r0, #4
ARM GAS  /tmp/ccWQvKle.s 			page 65


 3700 00c4 2021     		movs	r1, #32
 3701 00c6 5D61     		str	r5, [r3, #20]
 3702 00c8 2064     		str	r0, [r4, #64]
 3703 00ca 84F83C20 		strb	r2, [r4, #60]
 3704 00ce 2263     		str	r2, [r4, #48]
 3705 00d0 84F83D10 		strb	r1, [r4, #61]
 3706              	.L826:
 3707 00d4 236C     		ldr	r3, [r4, #64]
 3708 00d6 042B     		cmp	r3, #4
 3709 00d8 74D0     		beq	.L871
 3710              	.L848:
 3711 00da 0326     		movs	r6, #3
 3712 00dc A0E7     		b	.L866
 3713              	.L843:
 3714 00de 5A69     		ldr	r2, [r3, #20]
 3715 00e0 5207     		lsls	r2, r2, #29
 3716 00e2 56D4     		bmi	.L844
 3717 00e4 5A69     		ldr	r2, [r3, #20]
 3718 00e6 5705     		lsls	r7, r2, #21
 3719 00e8 E8D4     		bmi	.L845
 3720 00ea 0C9B     		ldr	r3, [sp, #48]
 3721 00ec 002B     		cmp	r3, #0
 3722 00ee 5DD0     		beq	.L842
 3723 00f0 FFF7FEFF 		bl	HAL_GetTick
 3724 00f4 0C9B     		ldr	r3, [sp, #48]
 3725 00f6 401B     		subs	r0, r0, r5
 3726 00f8 8342     		cmp	r3, r0
 3727 00fa 57D3     		bcc	.L842
 3728 00fc 2368     		ldr	r3, [r4]
 3729              	.L838:
 3730 00fe 0C9A     		ldr	r2, [sp, #48]
 3731 0100 0132     		adds	r2, r2, #1
 3732 0102 ECD1     		bne	.L843
 3733              	.L846:
 3734 0104 5A69     		ldr	r2, [r3, #20]
 3735 0106 5007     		lsls	r0, r2, #29
 3736 0108 43D4     		bmi	.L844
 3737 010a 5A69     		ldr	r2, [r3, #20]
 3738 010c 5105     		lsls	r1, r2, #21
 3739 010e D5D4     		bmi	.L845
 3740 0110 F8E7     		b	.L846
 3741              	.L830:
 3742 0112 616A     		ldr	r1, [r4, #36]
 3743 0114 208D     		ldrh	r0, [r4, #40]
 3744 0116 4A1C     		adds	r2, r1, #1
 3745 0118 6262     		str	r2, [r4, #36]
 3746 011a 0A78     		ldrb	r2, [r1]	@ zero_extendqisi2
 3747 011c 1A61     		str	r2, [r3, #16]
 3748 011e 628D     		ldrh	r2, [r4, #42]
 3749 0120 013A     		subs	r2, r2, #1
 3750 0122 92B2     		uxth	r2, r2
 3751 0124 6285     		strh	r2, [r4, #42]	@ movhi
 3752 0126 5F69     		ldr	r7, [r3, #20]
 3753 0128 421E     		subs	r2, r0, #1
 3754 012a 92B2     		uxth	r2, r2
 3755 012c 7F07     		lsls	r7, r7, #29
 3756 012e 2285     		strh	r2, [r4, #40]	@ movhi
ARM GAS  /tmp/ccWQvKle.s 			page 66


 3757 0130 B9D5     		bpl	.L823
 3758 0132 002A     		cmp	r2, #0
 3759 0134 E3D0     		beq	.L838
 3760 0136 8A1C     		adds	r2, r1, #2
 3761 0138 6262     		str	r2, [r4, #36]
 3762 013a 4A78     		ldrb	r2, [r1, #1]	@ zero_extendqisi2
 3763 013c 1A61     		str	r2, [r3, #16]
 3764 013e 618D     		ldrh	r1, [r4, #42]
 3765 0140 821E     		subs	r2, r0, #2
 3766 0142 0139     		subs	r1, r1, #1
 3767 0144 92B2     		uxth	r2, r2
 3768 0146 89B2     		uxth	r1, r1
 3769 0148 2285     		strh	r2, [r4, #40]	@ movhi
 3770 014a 6185     		strh	r1, [r4, #42]	@ movhi
 3771 014c ABE7     		b	.L823
 3772              	.L874:
 3773 014e 2023     		movs	r3, #32
 3774 0150 C4F830A0 		str	r10, [r4, #48]
 3775 0154 84F83CA0 		strb	r10, [r4, #60]
 3776 0158 84F83D30 		strb	r3, [r4, #61]
 3777 015c 0226     		movs	r6, #2
 3778 015e 84F83EA0 		strb	r10, [r4, #62]
 3779 0162 5DE7     		b	.L866
 3780              	.L829:
 3781 0164 5A69     		ldr	r2, [r3, #20]
 3782 0166 1206     		lsls	r2, r2, #24
 3783 0168 D3D4     		bmi	.L830
 3784 016a 5A69     		ldr	r2, [r3, #20]
 3785 016c 5705     		lsls	r7, r2, #21
 3786 016e A5D4     		bmi	.L845
 3787 0170 0C9B     		ldr	r3, [sp, #48]
 3788 0172 DBB1     		cbz	r3, .L842
 3789 0174 FFF7FEFF 		bl	HAL_GetTick
 3790 0178 0C9B     		ldr	r3, [sp, #48]
 3791 017a 401B     		subs	r0, r0, r5
 3792 017c 8342     		cmp	r3, r0
 3793 017e 15D3     		bcc	.L842
 3794 0180 2368     		ldr	r3, [r4]
 3795 0182 92E7     		b	.L837
 3796              	.L822:
 3797 0184 236C     		ldr	r3, [r4, #64]
 3798 0186 84F83CA0 		strb	r10, [r4, #60]
 3799 018a 042B     		cmp	r3, #4
 3800 018c A5D1     		bne	.L848
 3801              	.L872:
 3802 018e 0126     		movs	r6, #1
 3803 0190 46E7     		b	.L866
 3804              	.L844:
 3805 0192 1A68     		ldr	r2, [r3]
 3806 0194 0021     		movs	r1, #0
 3807 0196 2020     		movs	r0, #32
 3808 0198 42F40072 		orr	r2, r2, #512
 3809 019c 1A60     		str	r2, [r3]
 3810 019e 84F83D00 		strb	r0, [r4, #61]
 3811 01a2 84F83C10 		strb	r1, [r4, #60]
 3812 01a6 84F83E10 		strb	r1, [r4, #62]
 3813 01aa 39E7     		b	.L866
ARM GAS  /tmp/ccWQvKle.s 			page 67


 3814              	.L842:
 3815 01ac 236C     		ldr	r3, [r4, #64]
 3816 01ae 0022     		movs	r2, #0
 3817 01b0 43F02003 		orr	r3, r3, #32
 3818 01b4 2021     		movs	r1, #32
 3819 01b6 2364     		str	r3, [r4, #64]
 3820 01b8 84F83C20 		strb	r2, [r4, #60]
 3821 01bc 2263     		str	r2, [r4, #48]
 3822 01be 84F83D10 		strb	r1, [r4, #61]
 3823 01c2 87E7     		b	.L826
 3824              	.L871:
 3825 01c4 2268     		ldr	r2, [r4]
 3826 01c6 1368     		ldr	r3, [r2]
 3827 01c8 43F40073 		orr	r3, r3, #512
 3828 01cc 1360     		str	r3, [r2]
 3829 01ce DEE7     		b	.L872
 3830              	.L876:
 3831              		.align	2
 3832              	.L875:
 3833 01d0 0000FFFF 		.word	-65536
 3835              		.section	.text.HAL_I2C_Mem_Read,"ax",%progbits
 3836              		.align	1
 3837              		.p2align 2,,3
 3838              		.global	HAL_I2C_Mem_Read
 3839              		.syntax unified
 3840              		.thumb
 3841              		.thumb_func
 3842              		.fpu fpv4-sp-d16
 3844              	HAL_I2C_Mem_Read:
 3845              		@ args = 12, pretend = 0, frame = 16
 3846              		@ frame_needed = 0, uses_anonymous_args = 0
 3847 0000 2DE9F04F 		push	{r4, r5, r6, r7, r8, r9, r10, fp, lr}
 3848 0004 0446     		mov	r4, r0
 3849 0006 87B0     		sub	sp, sp, #28
 3850 0008 9A46     		mov	r10, r3
 3851 000a 8846     		mov	r8, r1
 3852 000c 9146     		mov	r9, r2
 3853 000e BDF84470 		ldrh	r7, [sp, #68]
 3854 0012 129E     		ldr	r6, [sp, #72]
 3855 0014 FFF7FEFF 		bl	HAL_GetTick
 3856 0018 94F83D30 		ldrb	r3, [r4, #61]	@ zero_extendqisi2
 3857 001c 202B     		cmp	r3, #32
 3858 001e 05D0     		beq	.L962
 3859              	.L928:
 3860 0020 4FF00208 		mov	r8, #2
 3861              	.L956:
 3862 0024 4046     		mov	r0, r8
 3863 0026 07B0     		add	sp, sp, #28
 3864              		@ sp needed
 3865 0028 BDE8F08F 		pop	{r4, r5, r6, r7, r8, r9, r10, fp, pc}
 3866              	.L962:
 3867 002c 0546     		mov	r5, r0
 3868 002e 04E0     		b	.L878
 3869              	.L880:
 3870 0030 FFF7FEFF 		bl	HAL_GetTick
 3871 0034 401B     		subs	r0, r0, r5
 3872 0036 1928     		cmp	r0, #25
ARM GAS  /tmp/ccWQvKle.s 			page 68


 3873 0038 3AD8     		bhi	.L968
 3874              	.L878:
 3875 003a 2268     		ldr	r2, [r4]
 3876 003c 9369     		ldr	r3, [r2, #24]
 3877 003e DB43     		mvns	r3, r3
 3878 0040 13F0020B 		ands	fp, r3, #2
 3879 0044 F4D0     		beq	.L880
 3880 0046 94F83C30 		ldrb	r3, [r4, #60]	@ zero_extendqisi2
 3881 004a 012B     		cmp	r3, #1
 3882 004c E8D0     		beq	.L928
 3883 004e 1368     		ldr	r3, [r2]
 3884 0050 0121     		movs	r1, #1
 3885 0052 DB07     		lsls	r3, r3, #31
 3886 0054 84F83C10 		strb	r1, [r4, #60]
 3887 0058 02D4     		bmi	.L882
 3888 005a 1368     		ldr	r3, [r2]
 3889 005c 0B43     		orrs	r3, r3, r1
 3890 005e 1360     		str	r3, [r2]
 3891              	.L882:
 3892 0060 1368     		ldr	r3, [r2]
 3893 0062 9B49     		ldr	r1, .L974
 3894 0064 23F40063 		bic	r3, r3, #2048
 3895 0068 1360     		str	r3, [r2]
 3896 006a 4FF0000B 		mov	fp, #0
 3897 006e 2222     		movs	r2, #34
 3898 0070 4023     		movs	r3, #64
 3899 0072 84F83D20 		strb	r2, [r4, #61]
 3900 0076 84F83E30 		strb	r3, [r4, #62]
 3901 007a C4F840B0 		str	fp, [r4, #64]
 3902 007e 6785     		strh	r7, [r4, #42]	@ movhi
 3903 0080 E162     		str	r1, [r4, #44]
 3904 0082 608D     		ldrh	r0, [r4, #42]
 3905 0084 109B     		ldr	r3, [sp, #64]
 3906 0086 6362     		str	r3, [r4, #36]
 3907 0088 4146     		mov	r1, r8
 3908 008a 0195     		str	r5, [sp, #4]
 3909 008c 0096     		str	r6, [sp]
 3910 008e 5346     		mov	r3, r10
 3911 0090 2085     		strh	r0, [r4, #40]	@ movhi
 3912 0092 4A46     		mov	r2, r9
 3913 0094 2046     		mov	r0, r4
 3914 0096 FFF7FEFF 		bl	I2C_RequestMemoryRead
 3915 009a 8046     		mov	r8, r0
 3916 009c A0B1     		cbz	r0, .L883
 3917 009e 236C     		ldr	r3, [r4, #64]
 3918 00a0 84F83CB0 		strb	fp, [r4, #60]
 3919 00a4 042B     		cmp	r3, #4
 3920 00a6 00F0E380 		beq	.L931
 3921              	.L933:
 3922 00aa 4FF00308 		mov	r8, #3
 3923 00ae B9E7     		b	.L956
 3924              	.L968:
 3925 00b0 2023     		movs	r3, #32
 3926 00b2 C4F830B0 		str	fp, [r4, #48]
 3927 00b6 84F83CB0 		strb	fp, [r4, #60]
 3928 00ba 84F83D30 		strb	r3, [r4, #61]
 3929 00be 4FF00208 		mov	r8, #2
ARM GAS  /tmp/ccWQvKle.s 			page 69


 3930 00c2 84F83EB0 		strb	fp, [r4, #62]
 3931 00c6 ADE7     		b	.L956
 3932              	.L883:
 3933 00c8 228D     		ldrh	r2, [r4, #40]
 3934 00ca 2368     		ldr	r3, [r4]
 3935 00cc 92B9     		cbnz	r2, .L885
 3936 00ce 0290     		str	r0, [sp, #8]
 3937 00d0 5A69     		ldr	r2, [r3, #20]
 3938 00d2 0292     		str	r2, [sp, #8]
 3939 00d4 9A69     		ldr	r2, [r3, #24]
 3940 00d6 0292     		str	r2, [sp, #8]
 3941 00d8 029A     		ldr	r2, [sp, #8]
 3942 00da 1A68     		ldr	r2, [r3]
 3943 00dc 42F40072 		orr	r2, r2, #512
 3944 00e0 1A60     		str	r2, [r3]
 3945              	.L886:
 3946 00e2 0023     		movs	r3, #0
 3947 00e4 2022     		movs	r2, #32
 3948 00e6 84F83D20 		strb	r2, [r4, #61]
 3949 00ea 84F83C30 		strb	r3, [r4, #60]
 3950 00ee 84F83E30 		strb	r3, [r4, #62]
 3951 00f2 97E7     		b	.L956
 3952              	.L885:
 3953 00f4 012A     		cmp	r2, #1
 3954 00f6 00F0DC80 		beq	.L969
 3955 00fa 022A     		cmp	r2, #2
 3956 00fc 00F0EA80 		beq	.L970
 3957 0100 0590     		str	r0, [sp, #20]
 3958 0102 5969     		ldr	r1, [r3, #20]
 3959 0104 0591     		str	r1, [sp, #20]
 3960 0106 9969     		ldr	r1, [r3, #24]
 3961 0108 0591     		str	r1, [sp, #20]
 3962 010a 0599     		ldr	r1, [sp, #20]
 3963              	.L890:
 3964 010c 032A     		cmp	r2, #3
 3965 010e 77D8     		bhi	.L891
 3966 0110 012A     		cmp	r2, #1
 3967 0112 00F0B080 		beq	.L971
 3968 0116 022F     		cmp	r7, #2
 3969 0118 46D0     		beq	.L901
 3970              	.L902:
 3971 011a 701C     		adds	r0, r6, #1
 3972 011c 50D1     		bne	.L911
 3973              	.L912:
 3974 011e 5A69     		ldr	r2, [r3, #20]
 3975 0120 5107     		lsls	r1, r2, #29
 3976 0122 FCD5     		bpl	.L912
 3977              	.L913:
 3978 0124 1A68     		ldr	r2, [r3]
 3979 0126 616A     		ldr	r1, [r4, #36]
 3980 0128 22F48062 		bic	r2, r2, #1024
 3981 012c 1A60     		str	r2, [r3]
 3982 012e 1B69     		ldr	r3, [r3, #16]
 3983 0130 4A1C     		adds	r2, r1, #1
 3984 0132 6262     		str	r2, [r4, #36]
 3985 0134 0B70     		strb	r3, [r1]
 3986 0136 638D     		ldrh	r3, [r4, #42]
ARM GAS  /tmp/ccWQvKle.s 			page 70


 3987 0138 228D     		ldrh	r2, [r4, #40]
 3988 013a 013B     		subs	r3, r3, #1
 3989 013c 9BB2     		uxth	r3, r3
 3990 013e 013A     		subs	r2, r2, #1
 3991 0140 6385     		strh	r3, [r4, #42]	@ movhi
 3992 0142 2285     		strh	r2, [r4, #40]	@ movhi
 3993              	.L932:
 3994 0144 701C     		adds	r0, r6, #1
 3995 0146 2268     		ldr	r2, [r4]
 3996 0148 45D1     		bne	.L917
 3997              	.L918:
 3998 014a 5369     		ldr	r3, [r2, #20]
 3999 014c 5907     		lsls	r1, r3, #29
 4000 014e FCD5     		bpl	.L918
 4001              	.L919:
 4002 0150 1368     		ldr	r3, [r2]
 4003 0152 616A     		ldr	r1, [r4, #36]
 4004 0154 43F40073 		orr	r3, r3, #512
 4005 0158 1360     		str	r3, [r2]
 4006 015a 1369     		ldr	r3, [r2, #16]
 4007              	.L966:
 4008 015c 4A1C     		adds	r2, r1, #1
 4009 015e 6262     		str	r2, [r4, #36]
 4010 0160 0B70     		strb	r3, [r1]
 4011 0162 638D     		ldrh	r3, [r4, #42]
 4012 0164 218D     		ldrh	r1, [r4, #40]
 4013 0166 606A     		ldr	r0, [r4, #36]
 4014 0168 2268     		ldr	r2, [r4]
 4015 016a 013B     		subs	r3, r3, #1
 4016 016c 9BB2     		uxth	r3, r3
 4017 016e 6385     		strh	r3, [r4, #42]	@ movhi
 4018 0170 1269     		ldr	r2, [r2, #16]
 4019 0172 4B1E     		subs	r3, r1, #1
 4020 0174 411C     		adds	r1, r0, #1
 4021 0176 2385     		strh	r3, [r4, #40]	@ movhi
 4022 0178 6162     		str	r1, [r4, #36]
 4023 017a 0270     		strb	r2, [r0]
 4024              	.L964:
 4025 017c 228D     		ldrh	r2, [r4, #40]
 4026 017e 638D     		ldrh	r3, [r4, #42]
 4027 0180 013A     		subs	r2, r2, #1
 4028 0182 013B     		subs	r3, r3, #1
 4029 0184 92B2     		uxth	r2, r2
 4030 0186 9BB2     		uxth	r3, r3
 4031 0188 2285     		strh	r2, [r4, #40]	@ movhi
 4032 018a 6385     		strh	r3, [r4, #42]	@ movhi
 4033              	.L930:
 4034 018c 002A     		cmp	r2, #0
 4035 018e A8D0     		beq	.L886
 4036 0190 2368     		ldr	r3, [r4]
 4037 0192 BBE7     		b	.L890
 4038              	.L905:
 4039 0194 5A69     		ldr	r2, [r3, #20]
 4040 0196 5207     		lsls	r2, r2, #29
 4041 0198 0BD4     		bmi	.L907
 4042 019a 2EB3     		cbz	r6, .L916
 4043 019c FFF7FEFF 		bl	HAL_GetTick
ARM GAS  /tmp/ccWQvKle.s 			page 71


 4044 01a0 401B     		subs	r0, r0, r5
 4045 01a2 8642     		cmp	r6, r0
 4046 01a4 20D3     		bcc	.L916
 4047 01a6 2368     		ldr	r3, [r4]
 4048              	.L901:
 4049 01a8 701C     		adds	r0, r6, #1
 4050 01aa F3D1     		bne	.L905
 4051              	.L906:
 4052 01ac 5A69     		ldr	r2, [r3, #20]
 4053 01ae 5107     		lsls	r1, r2, #29
 4054 01b0 FCD5     		bpl	.L906
 4055              	.L907:
 4056 01b2 1A68     		ldr	r2, [r3]
 4057 01b4 616A     		ldr	r1, [r4, #36]
 4058 01b6 42F40072 		orr	r2, r2, #512
 4059 01ba 1A60     		str	r2, [r3]
 4060 01bc 1B69     		ldr	r3, [r3, #16]
 4061 01be CDE7     		b	.L966
 4062              	.L911:
 4063 01c0 5A69     		ldr	r2, [r3, #20]
 4064 01c2 5207     		lsls	r2, r2, #29
 4065 01c4 AED4     		bmi	.L913
 4066 01c6 7EB1     		cbz	r6, .L916
 4067 01c8 FFF7FEFF 		bl	HAL_GetTick
 4068 01cc 401B     		subs	r0, r0, r5
 4069 01ce 8642     		cmp	r6, r0
 4070 01d0 0AD3     		bcc	.L916
 4071 01d2 2368     		ldr	r3, [r4]
 4072 01d4 A1E7     		b	.L902
 4073              	.L917:
 4074 01d6 5369     		ldr	r3, [r2, #20]
 4075 01d8 5B07     		lsls	r3, r3, #29
 4076 01da B9D4     		bmi	.L919
 4077 01dc 26B1     		cbz	r6, .L916
 4078 01de FFF7FEFF 		bl	HAL_GetTick
 4079 01e2 401B     		subs	r0, r0, r5
 4080 01e4 8642     		cmp	r6, r0
 4081 01e6 ADD2     		bcs	.L932
 4082              	.L916:
 4083 01e8 0023     		movs	r3, #0
 4084 01ea 2022     		movs	r2, #32
 4085 01ec 2363     		str	r3, [r4, #48]
 4086 01ee 84F83C30 		strb	r3, [r4, #60]
 4087 01f2 84F83D20 		strb	r2, [r4, #61]
 4088 01f6 4FF00308 		mov	r8, #3
 4089 01fa 84F83E30 		strb	r3, [r4, #62]
 4090 01fe 11E7     		b	.L956
 4091              	.L891:
 4092 0200 4EB9     		cbnz	r6, .L960
 4093 0202 22E0     		b	.L923
 4094              	.L972:
 4095 0204 5A69     		ldr	r2, [r3, #20]
 4096 0206 D206     		lsls	r2, r2, #27
 4097 0208 43D4     		bmi	.L925
 4098 020a FFF7FEFF 		bl	HAL_GetTick
 4099 020e 401B     		subs	r0, r0, r5
 4100 0210 8642     		cmp	r6, r0
ARM GAS  /tmp/ccWQvKle.s 			page 72


 4101 0212 20D3     		bcc	.L921
 4102 0214 2368     		ldr	r3, [r4]
 4103              	.L960:
 4104 0216 5A69     		ldr	r2, [r3, #20]
 4105 0218 5106     		lsls	r1, r2, #25
 4106 021a F3D5     		bpl	.L972
 4107              	.L924:
 4108 021c 626A     		ldr	r2, [r4, #36]
 4109 021e 1B69     		ldr	r3, [r3, #16]
 4110 0220 511C     		adds	r1, r2, #1
 4111 0222 6162     		str	r1, [r4, #36]
 4112 0224 1370     		strb	r3, [r2]
 4113 0226 618D     		ldrh	r1, [r4, #42]
 4114 0228 2368     		ldr	r3, [r4]
 4115 022a 228D     		ldrh	r2, [r4, #40]
 4116 022c 0139     		subs	r1, r1, #1
 4117 022e 89B2     		uxth	r1, r1
 4118 0230 6185     		strh	r1, [r4, #42]	@ movhi
 4119 0232 5969     		ldr	r1, [r3, #20]
 4120 0234 013A     		subs	r2, r2, #1
 4121 0236 92B2     		uxth	r2, r2
 4122 0238 4907     		lsls	r1, r1, #29
 4123 023a 2285     		strh	r2, [r4, #40]	@ movhi
 4124 023c A6D5     		bpl	.L930
 4125              	.L934:
 4126 023e 626A     		ldr	r2, [r4, #36]
 4127 0240 1B69     		ldr	r3, [r3, #16]
 4128 0242 511C     		adds	r1, r2, #1
 4129 0244 6162     		str	r1, [r4, #36]
 4130 0246 1370     		strb	r3, [r2]
 4131 0248 98E7     		b	.L964
 4132              	.L923:
 4133 024a 5A69     		ldr	r2, [r3, #20]
 4134 024c 5006     		lsls	r0, r2, #25
 4135 024e E5D4     		bmi	.L924
 4136              	.L927:
 4137 0250 5A69     		ldr	r2, [r3, #20]
 4138 0252 D006     		lsls	r0, r2, #27
 4139 0254 1DD4     		bmi	.L925
 4140              	.L921:
 4141 0256 236C     		ldr	r3, [r4, #64]
 4142 0258 2022     		movs	r2, #32
 4143 025a 1343     		orrs	r3, r3, r2
 4144 025c 0021     		movs	r1, #0
 4145 025e 2364     		str	r3, [r4, #64]
 4146 0260 84F83C10 		strb	r1, [r4, #60]
 4147 0264 84F83D20 		strb	r2, [r4, #61]
 4148              	.L895:
 4149 0268 236C     		ldr	r3, [r4, #64]
 4150 026a 202B     		cmp	r3, #32
 4151 026c 3FF41DAF 		beq	.L933
 4152              	.L931:
 4153 0270 4FF00108 		mov	r8, #1
 4154 0274 D6E6     		b	.L956
 4155              	.L971:
 4156 0276 36B9     		cbnz	r6, .L959
 4157 0278 17E0     		b	.L896
ARM GAS  /tmp/ccWQvKle.s 			page 73


 4158              	.L973:
 4159 027a FFF7FEFF 		bl	HAL_GetTick
 4160 027e 401B     		subs	r0, r0, r5
 4161 0280 8642     		cmp	r6, r0
 4162 0282 E8D3     		bcc	.L921
 4163 0284 2368     		ldr	r3, [r4]
 4164              	.L959:
 4165 0286 5A69     		ldr	r2, [r3, #20]
 4166 0288 5006     		lsls	r0, r2, #25
 4167 028a D8D4     		bmi	.L934
 4168 028c 5A69     		ldr	r2, [r3, #20]
 4169 028e D106     		lsls	r1, r2, #27
 4170 0290 F3D5     		bpl	.L973
 4171              	.L925:
 4172 0292 0022     		movs	r2, #0
 4173 0294 6FF01000 		mvn	r0, #16
 4174 0298 2021     		movs	r1, #32
 4175 029a 5861     		str	r0, [r3, #20]
 4176 029c 2264     		str	r2, [r4, #64]
 4177 029e 84F83C20 		strb	r2, [r4, #60]
 4178 02a2 2263     		str	r2, [r4, #48]
 4179 02a4 84F83D10 		strb	r1, [r4, #61]
 4180 02a8 DEE7     		b	.L895
 4181              	.L896:
 4182 02aa 5A69     		ldr	r2, [r3, #20]
 4183 02ac 5206     		lsls	r2, r2, #25
 4184 02ae CFD5     		bpl	.L927
 4185 02b0 C5E7     		b	.L934
 4186              	.L969:
 4187 02b2 1968     		ldr	r1, [r3]
 4188 02b4 21F48061 		bic	r1, r1, #1024
 4189 02b8 1960     		str	r1, [r3]
 4190 02ba 0390     		str	r0, [sp, #12]
 4191 02bc 5969     		ldr	r1, [r3, #20]
 4192 02be 0391     		str	r1, [sp, #12]
 4193 02c0 9969     		ldr	r1, [r3, #24]
 4194 02c2 0391     		str	r1, [sp, #12]
 4195 02c4 0399     		ldr	r1, [sp, #12]
 4196 02c6 1968     		ldr	r1, [r3]
 4197 02c8 41F40071 		orr	r1, r1, #512
 4198 02cc 1960     		str	r1, [r3]
 4199 02ce 1DE7     		b	.L890
 4200              	.L975:
 4201              		.align	2
 4202              	.L974:
 4203 02d0 0000FFFF 		.word	-65536
 4204              	.L970:
 4205 02d4 1968     		ldr	r1, [r3]
 4206 02d6 21F48061 		bic	r1, r1, #1024
 4207 02da 1960     		str	r1, [r3]
 4208 02dc 1968     		ldr	r1, [r3]
 4209 02de 41F40061 		orr	r1, r1, #2048
 4210 02e2 1960     		str	r1, [r3]
 4211 02e4 0490     		str	r0, [sp, #16]
 4212 02e6 5969     		ldr	r1, [r3, #20]
 4213 02e8 0491     		str	r1, [sp, #16]
 4214 02ea 9969     		ldr	r1, [r3, #24]
ARM GAS  /tmp/ccWQvKle.s 			page 74


 4215 02ec 0491     		str	r1, [sp, #16]
 4216 02ee 0499     		ldr	r1, [sp, #16]
 4217 02f0 0CE7     		b	.L890
 4219 02f2 00BF     		.section	.text.HAL_I2C_Mem_Write_IT,"ax",%progbits
 4220              		.align	1
 4221              		.p2align 2,,3
 4222              		.global	HAL_I2C_Mem_Write_IT
 4223              		.syntax unified
 4224              		.thumb
 4225              		.thumb_func
 4226              		.fpu fpv4-sp-d16
 4228              	HAL_I2C_Mem_Write_IT:
 4229              		@ args = 8, pretend = 0, frame = 8
 4230              		@ frame_needed = 0, uses_anonymous_args = 0
 4231              		@ link register save eliminated.
 4232 0000 F0B4     		push	{r4, r5, r6, r7}
 4233 0002 82B0     		sub	sp, sp, #8
 4234 0004 0024     		movs	r4, #0
 4235 0006 0194     		str	r4, [sp, #4]
 4236 0008 90F83D40 		ldrb	r4, [r0, #61]	@ zero_extendqisi2
 4237 000c BDF81C60 		ldrh	r6, [sp, #28]
 4238 0010 202C     		cmp	r4, #32
 4239 0012 03D0     		beq	.L977
 4240              	.L981:
 4241 0014 0220     		movs	r0, #2
 4242              	.L978:
 4243 0016 02B0     		add	sp, sp, #8
 4244              		@ sp needed
 4245 0018 F0BC     		pop	{r4, r5, r6, r7}
 4246 001a 7047     		bx	lr
 4247              	.L977:
 4248 001c 264C     		ldr	r4, .L989
 4249 001e 274D     		ldr	r5, .L989+4
 4250 0020 2468     		ldr	r4, [r4]
 4251 0022 E408     		lsrs	r4, r4, #3
 4252 0024 A5FB0454 		umull	r5, r4, r5, r4
 4253 0028 240A     		lsrs	r4, r4, #8
 4254 002a 04EB8404 		add	r4, r4, r4, lsl #2
 4255 002e 04EB8404 		add	r4, r4, r4, lsl #2
 4256 0032 0194     		str	r4, [sp, #4]
 4257 0034 03E0     		b	.L980
 4258              	.L979:
 4259 0036 0468     		ldr	r4, [r0]
 4260 0038 A569     		ldr	r5, [r4, #24]
 4261 003a AF07     		lsls	r7, r5, #30
 4262 003c 0CD5     		bpl	.L988
 4263              	.L980:
 4264 003e 019C     		ldr	r4, [sp, #4]
 4265 0040 651E     		subs	r5, r4, #1
 4266 0042 0195     		str	r5, [sp, #4]
 4267 0044 002C     		cmp	r4, #0
 4268 0046 F6D1     		bne	.L979
 4269 0048 2023     		movs	r3, #32
 4270 004a 0463     		str	r4, [r0, #48]
 4271 004c 80F83C40 		strb	r4, [r0, #60]
 4272 0050 80F83D30 		strb	r3, [r0, #61]
 4273 0054 0320     		movs	r0, #3
ARM GAS  /tmp/ccWQvKle.s 			page 75


 4274 0056 DEE7     		b	.L978
 4275              	.L988:
 4276 0058 90F83C50 		ldrb	r5, [r0, #60]	@ zero_extendqisi2
 4277 005c 012D     		cmp	r5, #1
 4278 005e D9D0     		beq	.L981
 4279 0060 2568     		ldr	r5, [r4]
 4280 0062 0127     		movs	r7, #1
 4281 0064 ED07     		lsls	r5, r5, #31
 4282 0066 80F83C70 		strb	r7, [r0, #60]
 4283 006a 02D4     		bmi	.L982
 4284 006c 2568     		ldr	r5, [r4]
 4285 006e 3D43     		orrs	r5, r5, r7
 4286 0070 2560     		str	r5, [r4]
 4287              	.L982:
 4288 0072 2568     		ldr	r5, [r4]
 4289 0074 124F     		ldr	r7, .L989+8
 4290 0076 25F40065 		bic	r5, r5, #2048
 4291 007a 2560     		str	r5, [r4]
 4292 007c 2125     		movs	r5, #33
 4293 007e 80F83D50 		strb	r5, [r0, #61]
 4294 0082 4025     		movs	r5, #64
 4295 0084 80F83E50 		strb	r5, [r0, #62]
 4296 0088 0025     		movs	r5, #0
 4297 008a 0564     		str	r5, [r0, #64]
 4298 008c 4685     		strh	r6, [r0, #42]	@ movhi
 4299 008e C762     		str	r7, [r0, #44]
 4300 0090 4164     		str	r1, [r0, #68]
 4301 0092 8264     		str	r2, [r0, #72]
 4302 0094 C364     		str	r3, [r0, #76]
 4303 0096 0565     		str	r5, [r0, #80]
 4304 0098 2368     		ldr	r3, [r4]
 4305 009a 069A     		ldr	r2, [sp, #24]
 4306 009c 4262     		str	r2, [r0, #36]
 4307 009e 43F48073 		orr	r3, r3, #256
 4308 00a2 0685     		strh	r6, [r0, #40]	@ movhi
 4309 00a4 2360     		str	r3, [r4]
 4310 00a6 6368     		ldr	r3, [r4, #4]
 4311 00a8 80F83C50 		strb	r5, [r0, #60]
 4312 00ac 43F4E063 		orr	r3, r3, #1792
 4313 00b0 2846     		mov	r0, r5
 4314 00b2 6360     		str	r3, [r4, #4]
 4315 00b4 AFE7     		b	.L978
 4316              	.L990:
 4317 00b6 00BF     		.align	2
 4318              	.L989:
 4319 00b8 00000000 		.word	SystemCoreClock
 4320 00bc 89B5F814 		.word	351843721
 4321 00c0 0000FFFF 		.word	-65536
 4323              		.section	.text.HAL_I2C_Mem_Read_IT,"ax",%progbits
 4324              		.align	1
 4325              		.p2align 2,,3
 4326              		.global	HAL_I2C_Mem_Read_IT
 4327              		.syntax unified
 4328              		.thumb
 4329              		.thumb_func
 4330              		.fpu fpv4-sp-d16
 4332              	HAL_I2C_Mem_Read_IT:
ARM GAS  /tmp/ccWQvKle.s 			page 76


 4333              		@ args = 8, pretend = 0, frame = 8
 4334              		@ frame_needed = 0, uses_anonymous_args = 0
 4335 0000 F0B5     		push	{r4, r5, r6, r7, lr}
 4336 0002 83B0     		sub	sp, sp, #12
 4337 0004 0024     		movs	r4, #0
 4338 0006 0194     		str	r4, [sp, #4]
 4339 0008 90F83D40 		ldrb	r4, [r0, #61]	@ zero_extendqisi2
 4340 000c BDF82460 		ldrh	r6, [sp, #36]
 4341 0010 202C     		cmp	r4, #32
 4342 0012 02D0     		beq	.L992
 4343              	.L996:
 4344 0014 0220     		movs	r0, #2
 4345              	.L993:
 4346 0016 03B0     		add	sp, sp, #12
 4347              		@ sp needed
 4348 0018 F0BD     		pop	{r4, r5, r6, r7, pc}
 4349              	.L992:
 4350 001a 2B4C     		ldr	r4, .L1005
 4351 001c 2B4D     		ldr	r5, .L1005+4
 4352 001e 2468     		ldr	r4, [r4]
 4353 0020 E408     		lsrs	r4, r4, #3
 4354 0022 A5FB0454 		umull	r5, r4, r5, r4
 4355 0026 240A     		lsrs	r4, r4, #8
 4356 0028 04EB8404 		add	r4, r4, r4, lsl #2
 4357 002c 04EB8404 		add	r4, r4, r4, lsl #2
 4358 0030 0194     		str	r4, [sp, #4]
 4359 0032 03E0     		b	.L995
 4360              	.L994:
 4361 0034 0468     		ldr	r4, [r0]
 4362 0036 A569     		ldr	r5, [r4, #24]
 4363 0038 AF07     		lsls	r7, r5, #30
 4364 003a 0CD5     		bpl	.L1004
 4365              	.L995:
 4366 003c 019C     		ldr	r4, [sp, #4]
 4367 003e 651E     		subs	r5, r4, #1
 4368 0040 0195     		str	r5, [sp, #4]
 4369 0042 002C     		cmp	r4, #0
 4370 0044 F6D1     		bne	.L994
 4371 0046 2023     		movs	r3, #32
 4372 0048 0463     		str	r4, [r0, #48]
 4373 004a 80F83C40 		strb	r4, [r0, #60]
 4374 004e 80F83D30 		strb	r3, [r0, #61]
 4375 0052 0320     		movs	r0, #3
 4376 0054 DFE7     		b	.L993
 4377              	.L1004:
 4378 0056 90F83C50 		ldrb	r5, [r0, #60]	@ zero_extendqisi2
 4379 005a 012D     		cmp	r5, #1
 4380 005c DAD0     		beq	.L996
 4381 005e 2568     		ldr	r5, [r4]
 4382 0060 0127     		movs	r7, #1
 4383 0062 ED07     		lsls	r5, r5, #31
 4384 0064 80F83C70 		strb	r7, [r0, #60]
 4385 0068 02D4     		bmi	.L997
 4386 006a 2568     		ldr	r5, [r4]
 4387 006c 3D43     		orrs	r5, r5, r7
 4388 006e 2560     		str	r5, [r4]
 4389              	.L997:
ARM GAS  /tmp/ccWQvKle.s 			page 77


 4390 0070 2568     		ldr	r5, [r4]
 4391 0072 174F     		ldr	r7, .L1005+8
 4392 0074 25F40065 		bic	r5, r5, #2048
 4393 0078 2560     		str	r5, [r4]
 4394 007a 4FF0220C 		mov	ip, #34
 4395 007e 0025     		movs	r5, #0
 4396 0080 4FF0400E 		mov	lr, #64
 4397 0084 80F83DC0 		strb	ip, [r0, #61]
 4398 0088 80F83EE0 		strb	lr, [r0, #62]
 4399 008c 0564     		str	r5, [r0, #64]
 4400 008e 4685     		strh	r6, [r0, #42]	@ movhi
 4401 0090 C762     		str	r7, [r0, #44]
 4402 0092 4164     		str	r1, [r0, #68]
 4403 0094 8264     		str	r2, [r0, #72]
 4404 0096 C364     		str	r3, [r0, #76]
 4405 0098 0565     		str	r5, [r0, #80]
 4406 009a 2368     		ldr	r3, [r4]
 4407 009c 089A     		ldr	r2, [sp, #32]
 4408 009e 4262     		str	r2, [r0, #36]
 4409 00a0 43F48063 		orr	r3, r3, #1024
 4410 00a4 0685     		strh	r6, [r0, #40]	@ movhi
 4411 00a6 2360     		str	r3, [r4]
 4412 00a8 2368     		ldr	r3, [r4]
 4413 00aa 43F48073 		orr	r3, r3, #256
 4414 00ae 2360     		str	r3, [r4]
 4415 00b0 80F83C50 		strb	r5, [r0, #60]
 4416 00b4 2EB1     		cbz	r6, .L998
 4417 00b6 6368     		ldr	r3, [r4, #4]
 4418 00b8 43F4E063 		orr	r3, r3, #1792
 4419 00bc 2846     		mov	r0, r5
 4420 00be 6360     		str	r3, [r4, #4]
 4421 00c0 A9E7     		b	.L993
 4422              	.L998:
 4423 00c2 3046     		mov	r0, r6
 4424 00c4 A7E7     		b	.L993
 4425              	.L1006:
 4426 00c6 00BF     		.align	2
 4427              	.L1005:
 4428 00c8 00000000 		.word	SystemCoreClock
 4429 00cc 89B5F814 		.word	351843721
 4430 00d0 0000FFFF 		.word	-65536
 4432              		.section	.text.HAL_I2C_Mem_Write_DMA,"ax",%progbits
 4433              		.align	1
 4434              		.p2align 2,,3
 4435              		.global	HAL_I2C_Mem_Write_DMA
 4436              		.syntax unified
 4437              		.thumb
 4438              		.thumb_func
 4439              		.fpu fpv4-sp-d16
 4441              	HAL_I2C_Mem_Write_DMA:
 4442              		@ args = 8, pretend = 0, frame = 8
 4443              		@ frame_needed = 0, uses_anonymous_args = 0
 4444 0000 2DE9F047 		push	{r4, r5, r6, r7, r8, r9, r10, lr}
 4445 0004 0446     		mov	r4, r0
 4446 0006 84B0     		sub	sp, sp, #16
 4447 0008 0020     		movs	r0, #0
 4448 000a 9846     		mov	r8, r3
ARM GAS  /tmp/ccWQvKle.s 			page 78


 4449 000c 0E46     		mov	r6, r1
 4450 000e 1746     		mov	r7, r2
 4451 0010 0290     		str	r0, [sp, #8]
 4452 0012 BDF83450 		ldrh	r5, [sp, #52]
 4453 0016 FFF7FEFF 		bl	HAL_GetTick
 4454 001a 94F83D30 		ldrb	r3, [r4, #61]	@ zero_extendqisi2
 4455 001e 202B     		cmp	r3, #32
 4456 0020 03D0     		beq	.L1008
 4457              	.L1012:
 4458 0022 0220     		movs	r0, #2
 4459              	.L1009:
 4460 0024 04B0     		add	sp, sp, #16
 4461              		@ sp needed
 4462 0026 BDE8F087 		pop	{r4, r5, r6, r7, r8, r9, r10, pc}
 4463              	.L1008:
 4464 002a 3E4B     		ldr	r3, .L1024
 4465 002c 3E4A     		ldr	r2, .L1024+4
 4466 002e 1B68     		ldr	r3, [r3]
 4467 0030 DB08     		lsrs	r3, r3, #3
 4468 0032 A2FB0323 		umull	r2, r3, r2, r3
 4469 0036 1B0A     		lsrs	r3, r3, #8
 4470 0038 03EB8303 		add	r3, r3, r3, lsl #2
 4471 003c 03EB8303 		add	r3, r3, r3, lsl #2
 4472 0040 8146     		mov	r9, r0
 4473 0042 0293     		str	r3, [sp, #8]
 4474 0044 03E0     		b	.L1011
 4475              	.L1010:
 4476 0046 2268     		ldr	r2, [r4]
 4477 0048 9369     		ldr	r3, [r2, #24]
 4478 004a 9907     		lsls	r1, r3, #30
 4479 004c 0CD5     		bpl	.L1022
 4480              	.L1011:
 4481 004e 029B     		ldr	r3, [sp, #8]
 4482 0050 5A1E     		subs	r2, r3, #1
 4483 0052 0292     		str	r2, [sp, #8]
 4484 0054 002B     		cmp	r3, #0
 4485 0056 F6D1     		bne	.L1010
 4486 0058 2022     		movs	r2, #32
 4487 005a 2363     		str	r3, [r4, #48]
 4488 005c 84F83C30 		strb	r3, [r4, #60]
 4489 0060 84F83D20 		strb	r2, [r4, #61]
 4490 0064 0320     		movs	r0, #3
 4491 0066 DDE7     		b	.L1009
 4492              	.L1022:
 4493 0068 94F83C30 		ldrb	r3, [r4, #60]	@ zero_extendqisi2
 4494 006c 012B     		cmp	r3, #1
 4495 006e D8D0     		beq	.L1012
 4496 0070 1368     		ldr	r3, [r2]
 4497 0072 0121     		movs	r1, #1
 4498 0074 DB07     		lsls	r3, r3, #31
 4499 0076 84F83C10 		strb	r1, [r4, #60]
 4500 007a 02D4     		bmi	.L1013
 4501 007c 1368     		ldr	r3, [r2]
 4502 007e 0B43     		orrs	r3, r3, r1
 4503 0080 1360     		str	r3, [r2]
 4504              	.L1013:
 4505 0082 1368     		ldr	r3, [r2]
ARM GAS  /tmp/ccWQvKle.s 			page 79


 4506 0084 2949     		ldr	r1, .L1024+8
 4507 0086 23F40063 		bic	r3, r3, #2048
 4508 008a 1360     		str	r3, [r2]
 4509 008c 2120     		movs	r0, #33
 4510 008e 4FF0400E 		mov	lr, #64
 4511 0092 0C9B     		ldr	r3, [sp, #48]
 4512 0094 84F83D00 		strb	r0, [r4, #61]
 4513 0098 4FF0000A 		mov	r10, #0
 4514 009c 84F83EE0 		strb	lr, [r4, #62]
 4515 00a0 6362     		str	r3, [r4, #36]
 4516 00a2 C4F840A0 		str	r10, [r4, #64]
 4517 00a6 2585     		strh	r5, [r4, #40]	@ movhi
 4518 00a8 6585     		strh	r5, [r4, #42]	@ movhi
 4519 00aa E162     		str	r1, [r4, #44]
 4520 00ac 0DB9     		cbnz	r5, .L1023
 4521 00ae 2846     		mov	r0, r5
 4522 00b0 B8E7     		b	.L1009
 4523              	.L1023:
 4524 00b2 606B     		ldr	r0, [r4, #52]
 4525 00b4 DFF87CE0 		ldr	lr, .L1024+16
 4526 00b8 1D49     		ldr	r1, .L1024+12
 4527 00ba C164     		str	r1, [r0, #76]
 4528 00bc 2B46     		mov	r3, r5
 4529 00be 1032     		adds	r2, r2, #16
 4530 00c0 0C99     		ldr	r1, [sp, #48]
 4531 00c2 C0F840A0 		str	r10, [r0, #64]
 4532 00c6 C0F844A0 		str	r10, [r0, #68]
 4533 00ca C0F848A0 		str	r10, [r0, #72]
 4534 00ce C0F850A0 		str	r10, [r0, #80]
 4535 00d2 C0F83CE0 		str	lr, [r0, #60]
 4536 00d6 FFF7FEFF 		bl	HAL_DMA_Start_IT
 4537 00da 2320     		movs	r0, #35
 4538 00dc 0090     		str	r0, [sp]
 4539 00de CDF80490 		str	r9, [sp, #4]
 4540 00e2 4346     		mov	r3, r8
 4541 00e4 3A46     		mov	r2, r7
 4542 00e6 3146     		mov	r1, r6
 4543 00e8 2046     		mov	r0, r4
 4544 00ea FFF7FEFF 		bl	I2C_RequestMemoryWrite
 4545 00ee 38B1     		cbz	r0, .L1014
 4546 00f0 236C     		ldr	r3, [r4, #64]
 4547 00f2 84F83CA0 		strb	r10, [r4, #60]
 4548 00f6 042B     		cmp	r3, #4
 4549 00f8 0CBF     		ite	eq
 4550 00fa 0120     		moveq	r0, #1
 4551 00fc 0320     		movne	r0, #3
 4552 00fe 91E7     		b	.L1009
 4553              	.L1014:
 4554 0100 2368     		ldr	r3, [r4]
 4555 0102 0390     		str	r0, [sp, #12]
 4556 0104 5A69     		ldr	r2, [r3, #20]
 4557 0106 0392     		str	r2, [sp, #12]
 4558 0108 9A69     		ldr	r2, [r3, #24]
 4559 010a 0392     		str	r2, [sp, #12]
 4560 010c 039A     		ldr	r2, [sp, #12]
 4561 010e 5A68     		ldr	r2, [r3, #4]
 4562 0110 84F83C00 		strb	r0, [r4, #60]
ARM GAS  /tmp/ccWQvKle.s 			page 80


 4563 0114 42F48072 		orr	r2, r2, #256
 4564 0118 5A60     		str	r2, [r3, #4]
 4565 011a 5A68     		ldr	r2, [r3, #4]
 4566 011c 42F40062 		orr	r2, r2, #2048
 4567 0120 5A60     		str	r2, [r3, #4]
 4568 0122 7FE7     		b	.L1009
 4569              	.L1025:
 4570              		.align	2
 4571              	.L1024:
 4572 0124 00000000 		.word	SystemCoreClock
 4573 0128 89B5F814 		.word	351843721
 4574 012c 0000FFFF 		.word	-65536
 4575 0130 00000000 		.word	I2C_DMAError
 4576 0134 00000000 		.word	I2C_DMAXferCplt
 4578              		.section	.text.HAL_I2C_Mem_Read_DMA,"ax",%progbits
 4579              		.align	1
 4580              		.p2align 2,,3
 4581              		.global	HAL_I2C_Mem_Read_DMA
 4582              		.syntax unified
 4583              		.thumb
 4584              		.thumb_func
 4585              		.fpu fpv4-sp-d16
 4587              	HAL_I2C_Mem_Read_DMA:
 4588              		@ args = 8, pretend = 0, frame = 16
 4589              		@ frame_needed = 0, uses_anonymous_args = 0
 4590 0000 2DE9F043 		push	{r4, r5, r6, r7, r8, r9, lr}
 4591 0004 87B0     		sub	sp, sp, #28
 4592 0006 0446     		mov	r4, r0
 4593 0008 9846     		mov	r8, r3
 4594 000a 0E46     		mov	r6, r1
 4595 000c 1746     		mov	r7, r2
 4596 000e BDF83C50 		ldrh	r5, [sp, #60]
 4597 0012 FFF7FEFF 		bl	HAL_GetTick
 4598 0016 0023     		movs	r3, #0
 4599 0018 0393     		str	r3, [sp, #12]
 4600 001a 94F83D30 		ldrb	r3, [r4, #61]	@ zero_extendqisi2
 4601 001e 202B     		cmp	r3, #32
 4602 0020 03D0     		beq	.L1027
 4603              	.L1031:
 4604 0022 0220     		movs	r0, #2
 4605              	.L1028:
 4606 0024 07B0     		add	sp, sp, #28
 4607              		@ sp needed
 4608 0026 BDE8F083 		pop	{r4, r5, r6, r7, r8, r9, pc}
 4609              	.L1027:
 4610 002a 504B     		ldr	r3, .L1052
 4611 002c 504A     		ldr	r2, .L1052+4
 4612 002e 1B68     		ldr	r3, [r3]
 4613 0030 DB08     		lsrs	r3, r3, #3
 4614 0032 A2FB0323 		umull	r2, r3, r2, r3
 4615 0036 1B0A     		lsrs	r3, r3, #8
 4616 0038 03EB8303 		add	r3, r3, r3, lsl #2
 4617 003c 03EB8303 		add	r3, r3, r3, lsl #2
 4618 0040 8146     		mov	r9, r0
 4619 0042 0393     		str	r3, [sp, #12]
 4620 0044 03E0     		b	.L1030
 4621              	.L1029:
ARM GAS  /tmp/ccWQvKle.s 			page 81


 4622 0046 2168     		ldr	r1, [r4]
 4623 0048 8B69     		ldr	r3, [r1, #24]
 4624 004a 9A07     		lsls	r2, r3, #30
 4625 004c 0CD5     		bpl	.L1050
 4626              	.L1030:
 4627 004e 039B     		ldr	r3, [sp, #12]
 4628 0050 5A1E     		subs	r2, r3, #1
 4629 0052 0392     		str	r2, [sp, #12]
 4630 0054 002B     		cmp	r3, #0
 4631 0056 F6D1     		bne	.L1029
 4632 0058 2022     		movs	r2, #32
 4633 005a 2363     		str	r3, [r4, #48]
 4634 005c 84F83C30 		strb	r3, [r4, #60]
 4635 0060 84F83D20 		strb	r2, [r4, #61]
 4636 0064 0320     		movs	r0, #3
 4637 0066 DDE7     		b	.L1028
 4638              	.L1050:
 4639 0068 94F83C30 		ldrb	r3, [r4, #60]	@ zero_extendqisi2
 4640 006c 012B     		cmp	r3, #1
 4641 006e D8D0     		beq	.L1031
 4642 0070 0B68     		ldr	r3, [r1]
 4643 0072 0122     		movs	r2, #1
 4644 0074 DB07     		lsls	r3, r3, #31
 4645 0076 84F83C20 		strb	r2, [r4, #60]
 4646 007a 02D4     		bmi	.L1032
 4647 007c 0B68     		ldr	r3, [r1]
 4648 007e 1343     		orrs	r3, r3, r2
 4649 0080 0B60     		str	r3, [r1]
 4650              	.L1032:
 4651 0082 0B68     		ldr	r3, [r1]
 4652 0084 3B48     		ldr	r0, .L1052+8
 4653 0086 23F40063 		bic	r3, r3, #2048
 4654 008a 2222     		movs	r2, #34
 4655 008c 0B60     		str	r3, [r1]
 4656 008e 84F83D20 		strb	r2, [r4, #61]
 4657 0092 4023     		movs	r3, #64
 4658 0094 0022     		movs	r2, #0
 4659 0096 84F83E30 		strb	r3, [r4, #62]
 4660 009a 2264     		str	r2, [r4, #64]
 4661 009c 6585     		strh	r5, [r4, #42]	@ movhi
 4662 009e E062     		str	r0, [r4, #44]
 4663 00a0 638D     		ldrh	r3, [r4, #42]
 4664 00a2 0E98     		ldr	r0, [sp, #56]
 4665 00a4 6062     		str	r0, [r4, #36]
 4666 00a6 9BB2     		uxth	r3, r3
 4667 00a8 2385     		strh	r3, [r4, #40]	@ movhi
 4668 00aa 002B     		cmp	r3, #0
 4669 00ac 33D0     		beq	.L1033
 4670 00ae A06B     		ldr	r0, [r4, #56]
 4671 00b0 DFF8C8E0 		ldr	lr, .L1052+16
 4672 00b4 0264     		str	r2, [r0, #64]
 4673 00b6 4264     		str	r2, [r0, #68]
 4674 00b8 8264     		str	r2, [r0, #72]
 4675 00ba 0265     		str	r2, [r0, #80]
 4676 00bc 2E4A     		ldr	r2, .L1052+12
 4677 00be C264     		str	r2, [r0, #76]
 4678 00c0 1031     		adds	r1, r1, #16
ARM GAS  /tmp/ccWQvKle.s 			page 82


 4679 00c2 0E9A     		ldr	r2, [sp, #56]
 4680 00c4 C0F83CE0 		str	lr, [r0, #60]
 4681 00c8 FFF7FEFF 		bl	HAL_DMA_Start_IT
 4682 00cc 2320     		movs	r0, #35
 4683 00ce 0090     		str	r0, [sp]
 4684 00d0 CDF80490 		str	r9, [sp, #4]
 4685 00d4 4346     		mov	r3, r8
 4686 00d6 3A46     		mov	r2, r7
 4687 00d8 3146     		mov	r1, r6
 4688 00da 2046     		mov	r0, r4
 4689 00dc FFF7FEFF 		bl	I2C_RequestMemoryRead
 4690 00e0 0028     		cmp	r0, #0
 4691 00e2 34D1     		bne	.L1049
 4692 00e4 012D     		cmp	r5, #1
 4693 00e6 2368     		ldr	r3, [r4]
 4694 00e8 3BD0     		beq	.L1051
 4695 00ea 5A68     		ldr	r2, [r3, #4]
 4696 00ec 42F48052 		orr	r2, r2, #4096
 4697 00f0 5A60     		str	r2, [r3, #4]
 4698              	.L1037:
 4699 00f2 0021     		movs	r1, #0
 4700 00f4 0491     		str	r1, [sp, #16]
 4701 00f6 5A69     		ldr	r2, [r3, #20]
 4702 00f8 0492     		str	r2, [sp, #16]
 4703 00fa 9A69     		ldr	r2, [r3, #24]
 4704 00fc 0492     		str	r2, [sp, #16]
 4705 00fe 049A     		ldr	r2, [sp, #16]
 4706 0100 5A68     		ldr	r2, [r3, #4]
 4707 0102 84F83C10 		strb	r1, [r4, #60]
 4708 0106 42F48072 		orr	r2, r2, #256
 4709 010a 5A60     		str	r2, [r3, #4]
 4710 010c 5A68     		ldr	r2, [r3, #4]
 4711 010e 42F40062 		orr	r2, r2, #2048
 4712 0112 5A60     		str	r2, [r3, #4]
 4713 0114 86E7     		b	.L1028
 4714              	.L1033:
 4715 0116 2320     		movs	r0, #35
 4716 0118 0090     		str	r0, [sp]
 4717 011a CDF80490 		str	r9, [sp, #4]
 4718 011e 4346     		mov	r3, r8
 4719 0120 3A46     		mov	r2, r7
 4720 0122 3146     		mov	r1, r6
 4721 0124 2046     		mov	r0, r4
 4722 0126 FFF7FEFF 		bl	I2C_RequestMemoryRead
 4723 012a 80B9     		cbnz	r0, .L1049
 4724 012c 2368     		ldr	r3, [r4]
 4725 012e 0590     		str	r0, [sp, #20]
 4726 0130 5A69     		ldr	r2, [r3, #20]
 4727 0132 0592     		str	r2, [sp, #20]
 4728 0134 9A69     		ldr	r2, [r3, #24]
 4729 0136 0592     		str	r2, [sp, #20]
 4730 0138 059A     		ldr	r2, [sp, #20]
 4731 013a 1A68     		ldr	r2, [r3]
 4732 013c 2021     		movs	r1, #32
 4733 013e 42F40072 		orr	r2, r2, #512
 4734 0142 1A60     		str	r2, [r3]
 4735 0144 84F83C00 		strb	r0, [r4, #60]
ARM GAS  /tmp/ccWQvKle.s 			page 83


 4736 0148 84F83D10 		strb	r1, [r4, #61]
 4737 014c 6AE7     		b	.L1028
 4738              	.L1049:
 4739 014e 236C     		ldr	r3, [r4, #64]
 4740 0150 042B     		cmp	r3, #4
 4741 0152 4FF00003 		mov	r3, #0
 4742 0156 84F83C30 		strb	r3, [r4, #60]
 4743 015a 0CBF     		ite	eq
 4744 015c 0120     		moveq	r0, #1
 4745 015e 0320     		movne	r0, #3
 4746 0160 60E7     		b	.L1028
 4747              	.L1051:
 4748 0162 1A68     		ldr	r2, [r3]
 4749 0164 22F48062 		bic	r2, r2, #1024
 4750 0168 1A60     		str	r2, [r3]
 4751 016a C2E7     		b	.L1037
 4752              	.L1053:
 4753              		.align	2
 4754              	.L1052:
 4755 016c 00000000 		.word	SystemCoreClock
 4756 0170 89B5F814 		.word	351843721
 4757 0174 0000FFFF 		.word	-65536
 4758 0178 00000000 		.word	I2C_DMAError
 4759 017c 00000000 		.word	I2C_DMAXferCplt
 4761              		.section	.text.HAL_I2C_IsDeviceReady,"ax",%progbits
 4762              		.align	1
 4763              		.p2align 2,,3
 4764              		.global	HAL_I2C_IsDeviceReady
 4765              		.syntax unified
 4766              		.thumb
 4767              		.thumb_func
 4768              		.fpu fpv4-sp-d16
 4770              	HAL_I2C_IsDeviceReady:
 4771              		@ args = 0, pretend = 0, frame = 8
 4772              		@ frame_needed = 0, uses_anonymous_args = 0
 4773 0000 2DE9F04F 		push	{r4, r5, r6, r7, r8, r9, r10, fp, lr}
 4774 0004 0546     		mov	r5, r0
 4775 0006 83B0     		sub	sp, sp, #12
 4776 0008 1F46     		mov	r7, r3
 4777 000a 8946     		mov	r9, r1
 4778 000c 9246     		mov	r10, r2
 4779 000e FFF7FEFF 		bl	HAL_GetTick
 4780 0012 95F83D30 		ldrb	r3, [r5, #61]	@ zero_extendqisi2
 4781 0016 202B     		cmp	r3, #32
 4782 0018 03D0     		beq	.L1108
 4783              	.L1085:
 4784 001a 0220     		movs	r0, #2
 4785              	.L1102:
 4786 001c 03B0     		add	sp, sp, #12
 4787              		@ sp needed
 4788 001e BDE8F08F 		pop	{r4, r5, r6, r7, r8, r9, r10, fp, pc}
 4789              	.L1108:
 4790 0022 0646     		mov	r6, r0
 4791 0024 05E0     		b	.L1055
 4792              	.L1057:
 4793 0026 FFF7FEFF 		bl	HAL_GetTick
 4794 002a 801B     		subs	r0, r0, r6
ARM GAS  /tmp/ccWQvKle.s 			page 84


 4795 002c 1928     		cmp	r0, #25
 4796 002e 00F29F80 		bhi	.L1115
 4797              	.L1055:
 4798 0032 2B68     		ldr	r3, [r5]
 4799 0034 9A69     		ldr	r2, [r3, #24]
 4800 0036 D243     		mvns	r2, r2
 4801 0038 12F00204 		ands	r4, r2, #2
 4802 003c F3D0     		beq	.L1057
 4803 003e 95F83C20 		ldrb	r2, [r5, #60]	@ zero_extendqisi2
 4804 0042 012A     		cmp	r2, #1
 4805 0044 E9D0     		beq	.L1085
 4806 0046 1A68     		ldr	r2, [r3]
 4807 0048 0121     		movs	r1, #1
 4808 004a D007     		lsls	r0, r2, #31
 4809 004c 85F83C10 		strb	r1, [r5, #60]
 4810 0050 02D4     		bmi	.L1059
 4811 0052 1A68     		ldr	r2, [r3]
 4812 0054 0A43     		orrs	r2, r2, r1
 4813 0056 1A60     		str	r2, [r3]
 4814              	.L1059:
 4815 0058 1A68     		ldr	r2, [r3]
 4816 005a 5E49     		ldr	r1, .L1119
 4817 005c 22F40062 		bic	r2, r2, #2048
 4818 0060 1A60     		str	r2, [r3]
 4819 0062 2420     		movs	r0, #36
 4820 0064 0022     		movs	r2, #0
 4821 0066 85F83D00 		strb	r0, [r5, #61]
 4822 006a 09F0FE09 		and	r9, r9, #254
 4823 006e 2A64     		str	r2, [r5, #64]
 4824 0070 9346     		mov	fp, r2
 4825 0072 E962     		str	r1, [r5, #44]
 4826 0074 4FF0A008 		mov	r8, #160
 4827              	.L1088:
 4828 0078 1A68     		ldr	r2, [r3]
 4829 007a 42F48072 		orr	r2, r2, #256
 4830 007e 1A60     		str	r2, [r3]
 4831              	.L1060:
 4832 0080 7A1C     		adds	r2, r7, #1
 4833 0082 60D1     		bne	.L1063
 4834              	.L1064:
 4835 0084 5A69     		ldr	r2, [r3, #20]
 4836 0086 D607     		lsls	r6, r2, #31
 4837 0088 FCD5     		bpl	.L1064
 4838              	.L1065:
 4839 008a C3F81090 		str	r9, [r3, #16]
 4840 008e FFF7FEFF 		bl	HAL_GetTick
 4841 0092 2B68     		ldr	r3, [r5]
 4842 0094 0646     		mov	r6, r0
 4843 0096 5869     		ldr	r0, [r3, #20]
 4844 0098 5A69     		ldr	r2, [r3, #20]
 4845 009a 95F83D10 		ldrb	r1, [r5, #61]	@ zero_extendqisi2
 4846 009e 8007     		lsls	r0, r0, #30
 4847 00a0 02F48062 		and	r2, r2, #1024
 4848 00a4 C9B2     		uxtb	r1, r1
 4849 00a6 12D4     		bmi	.L1075
 4850 00a8 8AB9     		cbnz	r2, .L1075
 4851 00aa A029     		cmp	r1, #160
ARM GAS  /tmp/ccWQvKle.s 			page 85


 4852 00ac 0FD0     		beq	.L1075
 4853 00ae 1FB1     		cbz	r7, .L1067
 4854 00b0 37E0     		b	.L1094
 4855              	.L1116:
 4856 00b2 62B9     		cbnz	r2, .L1075
 4857 00b4 A029     		cmp	r1, #160
 4858 00b6 0AD0     		beq	.L1075
 4859              	.L1067:
 4860 00b8 85F83D80 		strb	r8, [r5, #61]
 4861 00bc 5869     		ldr	r0, [r3, #20]
 4862 00be 5A69     		ldr	r2, [r3, #20]
 4863 00c0 95F83D10 		ldrb	r1, [r5, #61]	@ zero_extendqisi2
 4864 00c4 8407     		lsls	r4, r0, #30
 4865 00c6 02F48062 		and	r2, r2, #1024
 4866 00ca C9B2     		uxtb	r1, r1
 4867 00cc F1D5     		bpl	.L1116
 4868              	.L1075:
 4869 00ce 2022     		movs	r2, #32
 4870 00d0 85F83D20 		strb	r2, [r5, #61]
 4871 00d4 5A69     		ldr	r2, [r3, #20]
 4872 00d6 12F0020F 		tst	r2, #2
 4873 00da 1A68     		ldr	r2, [r3]
 4874 00dc 5DD1     		bne	.L1117
 4875 00de 42F40072 		orr	r2, r2, #512
 4876 00e2 6FF48061 		mvn	r1, #1024
 4877 00e6 1A60     		str	r2, [r3]
 4878 00e8 5961     		str	r1, [r3, #20]
 4879 00ea 05E0     		b	.L1081
 4880              	.L1083:
 4881 00ec FFF7FEFF 		bl	HAL_GetTick
 4882 00f0 801B     		subs	r0, r0, r6
 4883 00f2 1928     		cmp	r0, #25
 4884 00f4 32D8     		bhi	.L1110
 4885 00f6 2B68     		ldr	r3, [r5]
 4886              	.L1081:
 4887 00f8 9C69     		ldr	r4, [r3, #24]
 4888 00fa E443     		mvns	r4, r4
 4889 00fc 14F00204 		ands	r4, r4, #2
 4890 0100 F4D0     		beq	.L1083
 4891 0102 0BF1010B 		add	fp, fp, #1
 4892 0106 DA45     		cmp	r10, fp
 4893 0108 B6D8     		bhi	.L1088
 4894 010a 2022     		movs	r2, #32
 4895 010c 0023     		movs	r3, #0
 4896 010e 85F83D20 		strb	r2, [r5, #61]
 4897 0112 85F83C30 		strb	r3, [r5, #60]
 4898 0116 0120     		movs	r0, #1
 4899 0118 80E7     		b	.L1102
 4900              	.L1118:
 4901 011a 002A     		cmp	r2, #0
 4902 011c D7D1     		bne	.L1075
 4903 011e A029     		cmp	r1, #160
 4904 0120 D5D0     		beq	.L1075
 4905              	.L1094:
 4906 0122 FFF7FEFF 		bl	HAL_GetTick
 4907 0126 801B     		subs	r0, r0, r6
 4908 0128 8742     		cmp	r7, r0
ARM GAS  /tmp/ccWQvKle.s 			page 86


 4909 012a 2B68     		ldr	r3, [r5]
 4910 012c 38BF     		it	cc
 4911 012e 85F83D80 		strbcc	r8, [r5, #61]
 4912 0132 5869     		ldr	r0, [r3, #20]
 4913 0134 5A69     		ldr	r2, [r3, #20]
 4914 0136 95F83D10 		ldrb	r1, [r5, #61]	@ zero_extendqisi2
 4915 013a 8007     		lsls	r0, r0, #30
 4916 013c 02F48062 		and	r2, r2, #1024
 4917 0140 C9B2     		uxtb	r1, r1
 4918 0142 C4D4     		bmi	.L1075
 4919 0144 E9E7     		b	.L1118
 4920              	.L1063:
 4921 0146 5A69     		ldr	r2, [r3, #20]
 4922 0148 D407     		lsls	r4, r2, #31
 4923 014a 9ED4     		bmi	.L1065
 4924 014c D7B1     		cbz	r7, .L1062
 4925 014e FFF7FEFF 		bl	HAL_GetTick
 4926 0152 801B     		subs	r0, r0, r6
 4927 0154 8742     		cmp	r7, r0
 4928 0156 15D3     		bcc	.L1062
 4929 0158 2B68     		ldr	r3, [r5]
 4930 015a 91E7     		b	.L1060
 4931              	.L1110:
 4932 015c 2023     		movs	r3, #32
 4933 015e 2C63     		str	r4, [r5, #48]
 4934 0160 85F83C40 		strb	r4, [r5, #60]
 4935 0164 85F83D30 		strb	r3, [r5, #61]
 4936 0168 0320     		movs	r0, #3
 4937 016a 85F83E40 		strb	r4, [r5, #62]
 4938 016e 55E7     		b	.L1102
 4939              	.L1115:
 4940 0170 2023     		movs	r3, #32
 4941 0172 2C63     		str	r4, [r5, #48]
 4942 0174 85F83C40 		strb	r4, [r5, #60]
 4943 0178 85F83D30 		strb	r3, [r5, #61]
 4944 017c 0220     		movs	r0, #2
 4945 017e 85F83E40 		strb	r4, [r5, #62]
 4946 0182 4BE7     		b	.L1102
 4947              	.L1062:
 4948 0184 0023     		movs	r3, #0
 4949 0186 2022     		movs	r2, #32
 4950 0188 2B63     		str	r3, [r5, #48]
 4951 018a 85F83C30 		strb	r3, [r5, #60]
 4952 018e 85F83D20 		strb	r2, [r5, #61]
 4953 0192 0320     		movs	r0, #3
 4954 0194 85F83E30 		strb	r3, [r5, #62]
 4955 0198 40E7     		b	.L1102
 4956              	.L1117:
 4957 019a 42F40072 		orr	r2, r2, #512
 4958 019e 0021     		movs	r1, #0
 4959 01a0 1A60     		str	r2, [r3]
 4960 01a2 0191     		str	r1, [sp, #4]
 4961 01a4 5A69     		ldr	r2, [r3, #20]
 4962 01a6 0192     		str	r2, [sp, #4]
 4963 01a8 9A69     		ldr	r2, [r3, #24]
 4964 01aa 0192     		str	r2, [sp, #4]
 4965 01ac 019A     		ldr	r2, [sp, #4]
ARM GAS  /tmp/ccWQvKle.s 			page 87


 4966 01ae 05E0     		b	.L1077
 4967              	.L1079:
 4968 01b0 FFF7FEFF 		bl	HAL_GetTick
 4969 01b4 801B     		subs	r0, r0, r6
 4970 01b6 1928     		cmp	r0, #25
 4971 01b8 D0D8     		bhi	.L1110
 4972 01ba 2B68     		ldr	r3, [r5]
 4973              	.L1077:
 4974 01bc 9B69     		ldr	r3, [r3, #24]
 4975 01be DB43     		mvns	r3, r3
 4976 01c0 13F00204 		ands	r4, r3, #2
 4977 01c4 F4D0     		beq	.L1079
 4978 01c6 2023     		movs	r3, #32
 4979 01c8 0020     		movs	r0, #0
 4980 01ca 85F83D30 		strb	r3, [r5, #61]
 4981 01ce 85F83C00 		strb	r0, [r5, #60]
 4982 01d2 23E7     		b	.L1102
 4983              	.L1120:
 4984              		.align	2
 4985              	.L1119:
 4986 01d4 0000FFFF 		.word	-65536
 4988              		.section	.text.HAL_I2C_MasterTxCpltCallback,"ax",%progbits
 4989              		.align	1
 4990              		.p2align 2,,3
 4991              		.weak	HAL_I2C_MasterTxCpltCallback
 4992              		.syntax unified
 4993              		.thumb
 4994              		.thumb_func
 4995              		.fpu fpv4-sp-d16
 4997              	HAL_I2C_MasterTxCpltCallback:
 4998              		@ args = 0, pretend = 0, frame = 0
 4999              		@ frame_needed = 0, uses_anonymous_args = 0
 5000              		@ link register save eliminated.
 5001 0000 7047     		bx	lr
 5003 0002 00BF     		.section	.text.HAL_I2C_MasterRxCpltCallback,"ax",%progbits
 5004              		.align	1
 5005              		.p2align 2,,3
 5006              		.weak	HAL_I2C_MasterRxCpltCallback
 5007              		.syntax unified
 5008              		.thumb
 5009              		.thumb_func
 5010              		.fpu fpv4-sp-d16
 5012              	HAL_I2C_MasterRxCpltCallback:
 5013              		@ args = 0, pretend = 0, frame = 0
 5014              		@ frame_needed = 0, uses_anonymous_args = 0
 5015              		@ link register save eliminated.
 5016 0000 7047     		bx	lr
 5018 0002 00BF     		.section	.text.HAL_I2C_SlaveTxCpltCallback,"ax",%progbits
 5019              		.align	1
 5020              		.p2align 2,,3
 5021              		.weak	HAL_I2C_SlaveTxCpltCallback
 5022              		.syntax unified
 5023              		.thumb
 5024              		.thumb_func
 5025              		.fpu fpv4-sp-d16
 5027              	HAL_I2C_SlaveTxCpltCallback:
 5028              		@ args = 0, pretend = 0, frame = 0
ARM GAS  /tmp/ccWQvKle.s 			page 88


 5029              		@ frame_needed = 0, uses_anonymous_args = 0
 5030              		@ link register save eliminated.
 5031 0000 7047     		bx	lr
 5033 0002 00BF     		.section	.text.HAL_I2C_SlaveRxCpltCallback,"ax",%progbits
 5034              		.align	1
 5035              		.p2align 2,,3
 5036              		.weak	HAL_I2C_SlaveRxCpltCallback
 5037              		.syntax unified
 5038              		.thumb
 5039              		.thumb_func
 5040              		.fpu fpv4-sp-d16
 5042              	HAL_I2C_SlaveRxCpltCallback:
 5043              		@ args = 0, pretend = 0, frame = 0
 5044              		@ frame_needed = 0, uses_anonymous_args = 0
 5045              		@ link register save eliminated.
 5046 0000 7047     		bx	lr
 5048 0002 00BF     		.section	.text.HAL_I2C_AddrCallback,"ax",%progbits
 5049              		.align	1
 5050              		.p2align 2,,3
 5051              		.weak	HAL_I2C_AddrCallback
 5052              		.syntax unified
 5053              		.thumb
 5054              		.thumb_func
 5055              		.fpu fpv4-sp-d16
 5057              	HAL_I2C_AddrCallback:
 5058              		@ args = 0, pretend = 0, frame = 0
 5059              		@ frame_needed = 0, uses_anonymous_args = 0
 5060              		@ link register save eliminated.
 5061 0000 7047     		bx	lr
 5063 0002 00BF     		.section	.text.HAL_I2C_ListenCpltCallback,"ax",%progbits
 5064              		.align	1
 5065              		.p2align 2,,3
 5066              		.weak	HAL_I2C_ListenCpltCallback
 5067              		.syntax unified
 5068              		.thumb
 5069              		.thumb_func
 5070              		.fpu fpv4-sp-d16
 5072              	HAL_I2C_ListenCpltCallback:
 5073              		@ args = 0, pretend = 0, frame = 0
 5074              		@ frame_needed = 0, uses_anonymous_args = 0
 5075              		@ link register save eliminated.
 5076 0000 7047     		bx	lr
 5078 0002 00BF     		.section	.text.HAL_I2C_MemTxCpltCallback,"ax",%progbits
 5079              		.align	1
 5080              		.p2align 2,,3
 5081              		.weak	HAL_I2C_MemTxCpltCallback
 5082              		.syntax unified
 5083              		.thumb
 5084              		.thumb_func
 5085              		.fpu fpv4-sp-d16
 5087              	HAL_I2C_MemTxCpltCallback:
 5088              		@ args = 0, pretend = 0, frame = 0
 5089              		@ frame_needed = 0, uses_anonymous_args = 0
 5090              		@ link register save eliminated.
 5091 0000 7047     		bx	lr
 5093 0002 00BF     		.section	.text.HAL_I2C_MemRxCpltCallback,"ax",%progbits
 5094              		.align	1
ARM GAS  /tmp/ccWQvKle.s 			page 89


 5095              		.p2align 2,,3
 5096              		.weak	HAL_I2C_MemRxCpltCallback
 5097              		.syntax unified
 5098              		.thumb
 5099              		.thumb_func
 5100              		.fpu fpv4-sp-d16
 5102              	HAL_I2C_MemRxCpltCallback:
 5103              		@ args = 0, pretend = 0, frame = 0
 5104              		@ frame_needed = 0, uses_anonymous_args = 0
 5105              		@ link register save eliminated.
 5106 0000 7047     		bx	lr
 5108 0002 00BF     		.section	.text.HAL_I2C_ErrorCallback,"ax",%progbits
 5109              		.align	1
 5110              		.p2align 2,,3
 5111              		.weak	HAL_I2C_ErrorCallback
 5112              		.syntax unified
 5113              		.thumb
 5114              		.thumb_func
 5115              		.fpu fpv4-sp-d16
 5117              	HAL_I2C_ErrorCallback:
 5118              		@ args = 0, pretend = 0, frame = 0
 5119              		@ frame_needed = 0, uses_anonymous_args = 0
 5120              		@ link register save eliminated.
 5121 0000 7047     		bx	lr
 5123 0002 00BF     		.section	.text.I2C_DMAError,"ax",%progbits
 5124              		.align	1
 5125              		.p2align 2,,3
 5126              		.syntax unified
 5127              		.thumb
 5128              		.thumb_func
 5129              		.fpu fpv4-sp-d16
 5131              	I2C_DMAError:
 5132              		@ args = 0, pretend = 0, frame = 0
 5133              		@ frame_needed = 0, uses_anonymous_args = 0
 5134 0000 10B5     		push	{r4, lr}
 5135 0002 846B     		ldr	r4, [r0, #56]
 5136 0004 FFF7FEFF 		bl	HAL_DMA_GetError
 5137 0008 0228     		cmp	r0, #2
 5138 000a 12D0     		beq	.L1130
 5139 000c 2168     		ldr	r1, [r4]
 5140 000e 0B68     		ldr	r3, [r1]
 5141 0010 0022     		movs	r2, #0
 5142 0012 23F48063 		bic	r3, r3, #1024
 5143 0016 2020     		movs	r0, #32
 5144 0018 0B60     		str	r3, [r1]
 5145 001a 6285     		strh	r2, [r4, #42]	@ movhi
 5146 001c 84F83D00 		strb	r0, [r4, #61]
 5147 0020 84F83E20 		strb	r2, [r4, #62]
 5148 0024 236C     		ldr	r3, [r4, #64]
 5149 0026 43F01003 		orr	r3, r3, #16
 5150 002a 2364     		str	r3, [r4, #64]
 5151 002c 2046     		mov	r0, r4
 5152 002e FFF7FEFF 		bl	HAL_I2C_ErrorCallback
 5153              	.L1130:
 5154 0032 10BD     		pop	{r4, pc}
 5156              		.section	.text.I2C_DMAXferCplt,"ax",%progbits
 5157              		.align	1
ARM GAS  /tmp/ccWQvKle.s 			page 90


 5158              		.p2align 2,,3
 5159              		.syntax unified
 5160              		.thumb
 5161              		.thumb_func
 5162              		.fpu fpv4-sp-d16
 5164              	I2C_DMAXferCplt:
 5165              		@ args = 0, pretend = 0, frame = 0
 5166              		@ frame_needed = 0, uses_anonymous_args = 0
 5167 0000 806B     		ldr	r0, [r0, #56]
 5168 0002 08B5     		push	{r3, lr}
 5169 0004 90F83D30 		ldrb	r3, [r0, #61]	@ zero_extendqisi2
 5170 0008 90F83E20 		ldrb	r2, [r0, #62]	@ zero_extendqisi2
 5171 000c DBB2     		uxtb	r3, r3
 5172 000e 212B     		cmp	r3, #33
 5173 0010 25D0     		beq	.L1137
 5174 0012 222B     		cmp	r3, #34
 5175 0014 20D0     		beq	.L1146
 5176              	.L1138:
 5177 0016 0368     		ldr	r3, [r0]
 5178 0018 1A68     		ldr	r2, [r3]
 5179 001a 22F48062 		bic	r2, r2, #1024
 5180 001e 1A60     		str	r2, [r3]
 5181 0020 1A68     		ldr	r2, [r3]
 5182 0022 42F40072 		orr	r2, r2, #512
 5183 0026 1A60     		str	r2, [r3]
 5184 0028 5A68     		ldr	r2, [r3, #4]
 5185 002a 22F48052 		bic	r2, r2, #4096
 5186 002e 5A60     		str	r2, [r3, #4]
 5187 0030 5A68     		ldr	r2, [r3, #4]
 5188 0032 0021     		movs	r1, #0
 5189 0034 22F40062 		bic	r2, r2, #2048
 5190 0038 5A60     		str	r2, [r3, #4]
 5191 003a 4185     		strh	r1, [r0, #42]	@ movhi
 5192 003c 036C     		ldr	r3, [r0, #64]
 5193 003e EBB9     		cbnz	r3, .L1147
 5194 0040 2022     		movs	r2, #32
 5195 0042 80F83D20 		strb	r2, [r0, #61]
 5196 0046 90F83E20 		ldrb	r2, [r0, #62]	@ zero_extendqisi2
 5197 004a 80F83E30 		strb	r3, [r0, #62]
 5198 004e 402A     		cmp	r2, #64
 5199 0050 11D0     		beq	.L1148
 5200 0052 FFF7FEFF 		bl	HAL_I2C_MasterRxCpltCallback
 5201 0056 08BD     		pop	{r3, pc}
 5202              	.L1146:
 5203 0058 D2B2     		uxtb	r2, r2
 5204 005a 202A     		cmp	r2, #32
 5205 005c DBD1     		bne	.L1138
 5206              	.L1137:
 5207 005e 0368     		ldr	r3, [r0]
 5208 0060 5A68     		ldr	r2, [r3, #4]
 5209 0062 0021     		movs	r1, #0
 5210 0064 22F40062 		bic	r2, r2, #2048
 5211 0068 5A60     		str	r2, [r3, #4]
 5212 006a 4185     		strh	r1, [r0, #42]	@ movhi
 5213 006c 5A68     		ldr	r2, [r3, #4]
 5214 006e 42F44072 		orr	r2, r2, #768
 5215 0072 5A60     		str	r2, [r3, #4]
ARM GAS  /tmp/ccWQvKle.s 			page 91


 5216 0074 08BD     		pop	{r3, pc}
 5217              	.L1148:
 5218 0076 FFF7FEFF 		bl	HAL_I2C_MemRxCpltCallback
 5219 007a 08BD     		pop	{r3, pc}
 5220              	.L1147:
 5221 007c FFF7FEFF 		bl	HAL_I2C_ErrorCallback
 5222 0080 08BD     		pop	{r3, pc}
 5224 0082 00BF     		.section	.text.HAL_I2C_AbortCpltCallback,"ax",%progbits
 5225              		.align	1
 5226              		.p2align 2,,3
 5227              		.weak	HAL_I2C_AbortCpltCallback
 5228              		.syntax unified
 5229              		.thumb
 5230              		.thumb_func
 5231              		.fpu fpv4-sp-d16
 5233              	HAL_I2C_AbortCpltCallback:
 5234              		@ args = 0, pretend = 0, frame = 0
 5235              		@ frame_needed = 0, uses_anonymous_args = 0
 5236              		@ link register save eliminated.
 5237 0000 7047     		bx	lr
 5239 0002 00BF     		.section	.text.HAL_I2C_EV_IRQHandler,"ax",%progbits
 5240              		.align	1
 5241              		.p2align 2,,3
 5242              		.global	HAL_I2C_EV_IRQHandler
 5243              		.syntax unified
 5244              		.thumb
 5245              		.thumb_func
 5246              		.fpu fpv4-sp-d16
 5248              	HAL_I2C_EV_IRQHandler:
 5249              		@ args = 0, pretend = 0, frame = 48
 5250              		@ frame_needed = 0, uses_anonymous_args = 0
 5251 0000 F0B5     		push	{r4, r5, r6, r7, lr}
 5252 0002 0368     		ldr	r3, [r0]
 5253 0004 0446     		mov	r4, r0
 5254 0006 9D69     		ldr	r5, [r3, #24]
 5255 0008 5969     		ldr	r1, [r3, #20]
 5256 000a 5868     		ldr	r0, [r3, #4]
 5257 000c 94F83E20 		ldrb	r2, [r4, #62]	@ zero_extendqisi2
 5258 0010 D2B2     		uxtb	r2, r2
 5259 0012 102A     		cmp	r2, #16
 5260 0014 8DB0     		sub	sp, sp, #52
 5261 0016 00F08F80 		beq	.L1151
 5262 001a 402A     		cmp	r2, #64
 5263 001c 00F08C80 		beq	.L1151
 5264 0020 8E4A     		ldr	r2, .L1453
 5265 0022 0A40     		ands	r2, r2, r1
 5266 0024 1AB3     		cbz	r2, .L1215
 5267 0026 8205     		lsls	r2, r0, #22
 5268 0028 00F10382 		bmi	.L1424
 5269              	.L1216:
 5270 002c 8C4A     		ldr	r2, .L1453+4
 5271 002e 2A40     		ands	r2, r2, r5
 5272 0030 002A     		cmp	r2, #0
 5273 0032 00F0F980 		beq	.L1241
 5274 0036 8B4A     		ldr	r2, .L1453+8
 5275 0038 0A40     		ands	r2, r2, r1
 5276 003a 002A     		cmp	r2, #0
ARM GAS  /tmp/ccWQvKle.s 			page 92


 5277 003c 40F0B481 		bne	.L1425
 5278              	.L1242:
 5279 0040 894A     		ldr	r2, .L1453+12
 5280 0042 0A40     		ands	r2, r2, r1
 5281 0044 002A     		cmp	r2, #0
 5282 0046 00F0D480 		beq	.L1150
 5283              	.L1243:
 5284 004a 8605     		lsls	r6, r0, #22
 5285 004c 40F1D180 		bpl	.L1150
 5286 0050 628D     		ldrh	r2, [r4, #42]
 5287 0052 92B2     		uxth	r2, r2
 5288 0054 002A     		cmp	r2, #0
 5289 0056 00F0CC80 		beq	.L1150
 5290              	.L1420:
 5291 005a 626A     		ldr	r2, [r4, #36]
 5292 005c 511C     		adds	r1, r2, #1
 5293 005e 6162     		str	r1, [r4, #36]
 5294 0060 1278     		ldrb	r2, [r2]	@ zero_extendqisi2
 5295 0062 1A61     		str	r2, [r3, #16]
 5296 0064 638D     		ldrh	r3, [r4, #42]
 5297 0066 013B     		subs	r3, r3, #1
 5298 0068 9BB2     		uxth	r3, r3
 5299 006a 6385     		strh	r3, [r4, #42]	@ movhi
 5300 006c C1E0     		b	.L1150
 5301              	.L1215:
 5302 006e 7F4F     		ldr	r7, .L1453+16
 5303 0070 0F40     		ands	r7, r7, r1
 5304 0072 002F     		cmp	r7, #0
 5305 0074 DAD0     		beq	.L1216
 5306 0076 8605     		lsls	r6, r0, #22
 5307 0078 D8D5     		bpl	.L1216
 5308 007a 94F83D00 		ldrb	r0, [r4, #61]	@ zero_extendqisi2
 5309 007e 5968     		ldr	r1, [r3, #4]
 5310 0080 21F4E061 		bic	r1, r1, #1792
 5311 0084 5960     		str	r1, [r3, #4]
 5312 0086 0B92     		str	r2, [sp, #44]
 5313 0088 5A69     		ldr	r2, [r3, #20]
 5314 008a 0B92     		str	r2, [sp, #44]
 5315 008c 1968     		ldr	r1, [r3]
 5316 008e 41F00101 		orr	r1, r1, #1
 5317 0092 1960     		str	r1, [r3]
 5318 0094 0B9A     		ldr	r2, [sp, #44]
 5319 0096 1968     		ldr	r1, [r3]
 5320 0098 21F48061 		bic	r1, r1, #1024
 5321 009c 1960     		str	r1, [r3]
 5322 009e 5968     		ldr	r1, [r3, #4]
 5323 00a0 C2B2     		uxtb	r2, r0
 5324 00a2 0805     		lsls	r0, r1, #20
 5325 00a4 1E46     		mov	r6, r3
 5326 00a6 0ED5     		bpl	.L1219
 5327 00a8 94F83D10 		ldrb	r1, [r4, #61]	@ zero_extendqisi2
 5328 00ac 2229     		cmp	r1, #34
 5329 00ae 00F05E82 		beq	.L1220
 5330 00b2 94F83D10 		ldrb	r1, [r4, #61]	@ zero_extendqisi2
 5331 00b6 2A29     		cmp	r1, #42
 5332 00b8 00F05982 		beq	.L1220
 5333 00bc 616B     		ldr	r1, [r4, #52]
ARM GAS  /tmp/ccWQvKle.s 			page 93


 5334 00be 0968     		ldr	r1, [r1]
 5335 00c0 4968     		ldr	r1, [r1, #4]
 5336 00c2 89B2     		uxth	r1, r1
 5337 00c4 6185     		strh	r1, [r4, #42]	@ movhi
 5338              	.L1219:
 5339 00c6 618D     		ldrh	r1, [r4, #42]
 5340 00c8 89B2     		uxth	r1, r1
 5341 00ca E1B1     		cbz	r1, .L1222
 5342 00cc 5969     		ldr	r1, [r3, #20]
 5343 00ce 4907     		lsls	r1, r1, #29
 5344 00d0 09D5     		bpl	.L1223
 5345 00d2 616A     		ldr	r1, [r4, #36]
 5346 00d4 1B69     		ldr	r3, [r3, #16]
 5347 00d6 481C     		adds	r0, r1, #1
 5348 00d8 6062     		str	r0, [r4, #36]
 5349 00da 0B70     		strb	r3, [r1]
 5350 00dc 638D     		ldrh	r3, [r4, #42]
 5351 00de 2668     		ldr	r6, [r4]
 5352 00e0 013B     		subs	r3, r3, #1
 5353 00e2 9BB2     		uxth	r3, r3
 5354 00e4 6385     		strh	r3, [r4, #42]	@ movhi
 5355              	.L1223:
 5356 00e6 7369     		ldr	r3, [r6, #20]
 5357 00e8 5F06     		lsls	r7, r3, #25
 5358 00ea 08D5     		bpl	.L1224
 5359 00ec 636A     		ldr	r3, [r4, #36]
 5360 00ee 3169     		ldr	r1, [r6, #16]
 5361 00f0 581C     		adds	r0, r3, #1
 5362 00f2 6062     		str	r0, [r4, #36]
 5363 00f4 1970     		strb	r1, [r3]
 5364 00f6 638D     		ldrh	r3, [r4, #42]
 5365 00f8 013B     		subs	r3, r3, #1
 5366 00fa 9BB2     		uxth	r3, r3
 5367 00fc 6385     		strh	r3, [r4, #42]	@ movhi
 5368              	.L1224:
 5369 00fe 236C     		ldr	r3, [r4, #64]
 5370 0100 43F00403 		orr	r3, r3, #4
 5371 0104 2364     		str	r3, [r4, #64]
 5372              	.L1222:
 5373 0106 236C     		ldr	r3, [r4, #64]
 5374 0108 002B     		cmp	r3, #0
 5375 010a 40F04382 		bne	.L1426
 5376 010e A2F12801 		sub	r1, r2, #40
 5377 0112 0229     		cmp	r1, #2
 5378 0114 40F2F581 		bls	.L1427
 5379 0118 236B     		ldr	r3, [r4, #48]
 5380 011a 222B     		cmp	r3, #34
 5381 011c 01D0     		beq	.L1240
 5382 011e 222A     		cmp	r2, #34
 5383 0120 67D1     		bne	.L1150
 5384              	.L1240:
 5385 0122 0023     		movs	r3, #0
 5386 0124 2022     		movs	r2, #32
 5387 0126 2363     		str	r3, [r4, #48]
 5388 0128 2046     		mov	r0, r4
 5389 012a 84F83D20 		strb	r2, [r4, #61]
 5390 012e 84F83E30 		strb	r3, [r4, #62]
ARM GAS  /tmp/ccWQvKle.s 			page 94


 5391 0132 FFF7FEFF 		bl	HAL_I2C_SlaveRxCpltCallback
 5392 0136 5CE0     		b	.L1150
 5393              	.L1151:
 5394 0138 11F0011F 		tst	r1, #65537
 5395 013c 43D0     		beq	.L1153
 5396 013e 8605     		lsls	r6, r0, #22
 5397 0140 00F16081 		bmi	.L1428
 5398 0144 4A4A     		ldr	r2, .L1453+20
 5399 0146 0A40     		ands	r2, r2, r1
 5400 0148 002A     		cmp	r2, #0
 5401 014a 54D0     		beq	.L1161
 5402              	.L1157:
 5403 014c 444A     		ldr	r2, .L1453+4
 5404 014e 2A40     		ands	r2, r2, r5
 5405 0150 002A     		cmp	r2, #0
 5406 0152 44D0     		beq	.L1178
 5407              	.L1431:
 5408 0154 434A     		ldr	r2, .L1453+8
 5409 0156 0A40     		ands	r2, r2, r1
 5410 0158 002A     		cmp	r2, #0
 5411 015a 00F08D80 		beq	.L1179
 5412 015e 4705     		lsls	r7, r0, #21
 5413 0160 40F18A80 		bpl	.L1179
 5414 0164 404A     		ldr	r2, .L1453+12
 5415 0166 0A40     		ands	r2, r2, r1
 5416 0168 002A     		cmp	r2, #0
 5417 016a 40F08980 		bne	.L1180
 5418 016e 94F83D20 		ldrb	r2, [r4, #61]	@ zero_extendqisi2
 5419 0172 258D     		ldrh	r5, [r4, #40]
 5420 0174 94F83E10 		ldrb	r1, [r4, #62]	@ zero_extendqisi2
 5421 0178 E06A     		ldr	r0, [r4, #44]
 5422 017a D2B2     		uxtb	r2, r2
 5423 017c C9B2     		uxtb	r1, r1
 5424 017e 002D     		cmp	r5, #0
 5425 0180 40F04882 		bne	.L1181
 5426 0184 212A     		cmp	r2, #33
 5427 0186 00F09E82 		beq	.L1429
 5428              	.L1182:
 5429 018a 4029     		cmp	r1, #64
 5430 018c 31D1     		bne	.L1150
 5431 018e 222A     		cmp	r2, #34
 5432 0190 2FD1     		bne	.L1150
 5433              	.L1186:
 5434 0192 628D     		ldrh	r2, [r4, #42]
 5435 0194 92B2     		uxth	r2, r2
 5436 0196 002A     		cmp	r2, #0
 5437 0198 00F08382 		beq	.L1203
 5438 019c 94F83E20 		ldrb	r2, [r4, #62]	@ zero_extendqisi2
 5439 01a0 402A     		cmp	r2, #64
 5440 01a2 7FF45AAF 		bne	.L1420
 5441 01a6 226D     		ldr	r2, [r4, #80]
 5442 01a8 002A     		cmp	r2, #0
 5443 01aa 40F05F83 		bne	.L1191
 5444 01ae E26C     		ldr	r2, [r4, #76]
 5445 01b0 012A     		cmp	r2, #1
 5446 01b2 A26C     		ldr	r2, [r4, #72]
 5447 01b4 00F08E83 		beq	.L1430
ARM GAS  /tmp/ccWQvKle.s 			page 95


 5448 01b8 C2F30722 		ubfx	r2, r2, #8, #8
 5449 01bc 1A61     		str	r2, [r3, #16]
 5450 01be 236D     		ldr	r3, [r4, #80]
 5451 01c0 0133     		adds	r3, r3, #1
 5452 01c2 2365     		str	r3, [r4, #80]
 5453 01c4 15E0     		b	.L1150
 5454              	.L1153:
 5455 01c6 2A4A     		ldr	r2, .L1453+20
 5456 01c8 0A40     		ands	r2, r2, r1
 5457 01ca A2B1     		cbz	r2, .L1161
 5458 01cc 8205     		lsls	r2, r0, #22
 5459 01ce BDD5     		bpl	.L1157
 5460 01d0 626C     		ldr	r2, [r4, #68]
 5461 01d2 D2B2     		uxtb	r2, r2
 5462 01d4 1A61     		str	r2, [r3, #16]
 5463 01d6 224A     		ldr	r2, .L1453+4
 5464 01d8 2A40     		ands	r2, r2, r5
 5465 01da 002A     		cmp	r2, #0
 5466 01dc BAD1     		bne	.L1431
 5467              	.L1178:
 5468 01de 254A     		ldr	r2, .L1453+24
 5469 01e0 0A40     		ands	r2, r2, r1
 5470 01e2 002A     		cmp	r2, #0
 5471 01e4 78D1     		bne	.L1432
 5472              	.L1198:
 5473 01e6 204A     		ldr	r2, .L1453+12
 5474 01e8 0A40     		ands	r2, r2, r1
 5475 01ea 12B1     		cbz	r2, .L1150
 5476              	.L1199:
 5477 01ec 8105     		lsls	r1, r0, #22
 5478 01ee 00F13A81 		bmi	.L1433
 5479              	.L1150:
 5480 01f2 0DB0     		add	sp, sp, #52
 5481              		@ sp needed
 5482 01f4 F0BD     		pop	{r4, r5, r6, r7, pc}
 5483              	.L1161:
 5484 01f6 194A     		ldr	r2, .L1453
 5485 01f8 0A40     		ands	r2, r2, r1
 5486 01fa 002A     		cmp	r2, #0
 5487 01fc A6D0     		beq	.L1157
 5488 01fe 8705     		lsls	r7, r0, #22
 5489 0200 A4D5     		bpl	.L1157
 5490 0202 94F83E20 		ldrb	r2, [r4, #62]	@ zero_extendqisi2
 5491 0206 E76A     		ldr	r7, [r4, #44]
 5492 0208 D4F830E0 		ldr	lr, [r4, #48]
 5493 020c 94F83D60 		ldrb	r6, [r4, #61]	@ zero_extendqisi2
 5494 0210 222E     		cmp	r6, #34
 5495 0212 D2B2     		uxtb	r2, r2
 5496 0214 00F08E81 		beq	.L1434
 5497 0218 0022     		movs	r2, #0
 5498 021a 0A92     		str	r2, [sp, #40]
 5499 021c 5A69     		ldr	r2, [r3, #20]
 5500 021e 0A92     		str	r2, [sp, #40]
 5501 0220 9A69     		ldr	r2, [r3, #24]
 5502 0222 0A92     		str	r2, [sp, #40]
 5503 0224 0A9A     		ldr	r2, [sp, #40]
 5504 0226 91E7     		b	.L1157
ARM GAS  /tmp/ccWQvKle.s 			page 96


 5505              	.L1241:
 5506 0228 124A     		ldr	r2, .L1453+24
 5507 022a 0A40     		ands	r2, r2, r1
 5508 022c 002A     		cmp	r2, #0
 5509 022e 40F08C80 		bne	.L1435
 5510              	.L1244:
 5511 0232 0D4A     		ldr	r2, .L1453+12
 5512 0234 0A40     		ands	r2, r2, r1
 5513 0236 002A     		cmp	r2, #0
 5514 0238 DBD0     		beq	.L1150
 5515              	.L1245:
 5516 023a 8205     		lsls	r2, r0, #22
 5517 023c D9D5     		bpl	.L1150
 5518 023e 628D     		ldrh	r2, [r4, #42]
 5519 0240 92B2     		uxth	r2, r2
 5520 0242 002A     		cmp	r2, #0
 5521 0244 D5D0     		beq	.L1150
 5522              	.L1421:
 5523 0246 626A     		ldr	r2, [r4, #36]
 5524 0248 1B69     		ldr	r3, [r3, #16]
 5525 024a 511C     		adds	r1, r2, #1
 5526 024c 6162     		str	r1, [r4, #36]
 5527 024e 1370     		strb	r3, [r2]
 5528 0250 638D     		ldrh	r3, [r4, #42]
 5529 0252 013B     		subs	r3, r3, #1
 5530 0254 9BB2     		uxth	r3, r3
 5531 0256 6385     		strh	r3, [r4, #42]	@ movhi
 5532 0258 CBE7     		b	.L1150
 5533              	.L1454:
 5534 025a 00BF     		.align	2
 5535              	.L1453:
 5536 025c 02000100 		.word	65538
 5537 0260 04001000 		.word	1048580
 5538 0264 80000100 		.word	65664
 5539 0268 04000100 		.word	65540
 5540 026c 10000100 		.word	65552
 5541 0270 08000100 		.word	65544
 5542 0274 40000100 		.word	65600
 5543              	.L1179:
 5544 0278 AC4A     		ldr	r2, .L1455
 5545 027a 0A40     		ands	r2, r2, r1
 5546 027c 002A     		cmp	r2, #0
 5547 027e B8D0     		beq	.L1150
 5548              	.L1180:
 5549 0280 8605     		lsls	r6, r0, #22
 5550 0282 B6D5     		bpl	.L1150
 5551 0284 E16A     		ldr	r1, [r4, #44]
 5552 0286 94F83D20 		ldrb	r2, [r4, #61]	@ zero_extendqisi2
 5553 028a 212A     		cmp	r2, #33
 5554 028c B1D1     		bne	.L1150
 5555 028e 628D     		ldrh	r2, [r4, #42]
 5556 0290 92B2     		uxth	r2, r2
 5557 0292 002A     		cmp	r2, #0
 5558 0294 7FF4E1AE 		bne	.L1420
 5559 0298 0429     		cmp	r1, #4
 5560 029a 05D0     		beq	.L1196
 5561 029c 0829     		cmp	r1, #8
ARM GAS  /tmp/ccWQvKle.s 			page 97


 5562 029e 03D0     		beq	.L1196
 5563 02a0 11F5803F 		cmn	r1, #65536
 5564 02a4 40F00282 		bne	.L1436
 5565              	.L1196:
 5566 02a8 5A68     		ldr	r2, [r3, #4]
 5567 02aa 22F4E062 		bic	r2, r2, #1792
 5568 02ae 5A60     		str	r2, [r3, #4]
 5569 02b0 1A68     		ldr	r2, [r3]
 5570 02b2 0021     		movs	r1, #0
 5571 02b4 2020     		movs	r0, #32
 5572 02b6 42F40072 		orr	r2, r2, #512
 5573 02ba 1A60     		str	r2, [r3]
 5574 02bc 2163     		str	r1, [r4, #48]
 5575 02be 84F83D00 		strb	r0, [r4, #61]
 5576 02c2 94F83E30 		ldrb	r3, [r4, #62]	@ zero_extendqisi2
 5577 02c6 84F83E10 		strb	r1, [r4, #62]
 5578 02ca 402B     		cmp	r3, #64
 5579 02cc 2046     		mov	r0, r4
 5580 02ce 00F01782 		beq	.L1418
 5581              	.L1419:
 5582 02d2 FFF7FEFF 		bl	HAL_I2C_MasterTxCpltCallback
 5583 02d6 8CE7     		b	.L1150
 5584              	.L1432:
 5585 02d8 4505     		lsls	r5, r0, #21
 5586 02da 84D5     		bpl	.L1198
 5587 02dc 934A     		ldr	r2, .L1455
 5588 02de 0A40     		ands	r2, r2, r1
 5589 02e0 002A     		cmp	r2, #0
 5590 02e2 83D1     		bne	.L1199
 5591 02e4 94F83D20 		ldrb	r2, [r4, #61]	@ zero_extendqisi2
 5592 02e8 222A     		cmp	r2, #34
 5593 02ea 82D1     		bne	.L1150
 5594 02ec 628D     		ldrh	r2, [r4, #42]
 5595 02ee 92B2     		uxth	r2, r2
 5596 02f0 032A     		cmp	r2, #3
 5597 02f2 A8D8     		bhi	.L1421
 5598 02f4 023A     		subs	r2, r2, #2
 5599 02f6 012A     		cmp	r2, #1
 5600 02f8 E26A     		ldr	r2, [r4, #44]
 5601 02fa 40F2C781 		bls	.L1437
 5602 02fe 022A     		cmp	r2, #2
 5603 0300 1A68     		ldr	r2, [r3]
 5604 0302 616A     		ldr	r1, [r4, #36]
 5605 0304 14BF     		ite	ne
 5606 0306 22F48062 		bicne	r2, r2, #1024
 5607 030a 42F48062 		orreq	r2, r2, #1024
 5608 030e 1A60     		str	r2, [r3]
 5609 0310 5A68     		ldr	r2, [r3, #4]
 5610 0312 22F4E062 		bic	r2, r2, #1792
 5611 0316 5A60     		str	r2, [r3, #4]
 5612 0318 1B69     		ldr	r3, [r3, #16]
 5613 031a 4A1C     		adds	r2, r1, #1
 5614 031c 6262     		str	r2, [r4, #36]
 5615 031e 0B70     		strb	r3, [r1]
 5616 0320 638D     		ldrh	r3, [r4, #42]
 5617 0322 013B     		subs	r3, r3, #1
 5618 0324 9BB2     		uxth	r3, r3
ARM GAS  /tmp/ccWQvKle.s 			page 98


 5619 0326 2022     		movs	r2, #32
 5620 0328 6385     		strh	r3, [r4, #42]	@ movhi
 5621 032a 84F83D20 		strb	r2, [r4, #61]
 5622 032e 94F83E30 		ldrb	r3, [r4, #62]	@ zero_extendqisi2
 5623 0332 402B     		cmp	r3, #64
 5624 0334 00F0D480 		beq	.L1422
 5625              	.L1214:
 5626 0338 1222     		movs	r2, #18
 5627 033a 0023     		movs	r3, #0
 5628 033c 2263     		str	r2, [r4, #48]
 5629 033e 2046     		mov	r0, r4
 5630 0340 84F83E30 		strb	r3, [r4, #62]
 5631 0344 FFF7FEFF 		bl	HAL_I2C_MasterRxCpltCallback
 5632 0348 53E7     		b	.L1150
 5633              	.L1435:
 5634 034a 4505     		lsls	r5, r0, #21
 5635 034c 7FF571AF 		bpl	.L1244
 5636 0350 764A     		ldr	r2, .L1455
 5637 0352 0A40     		ands	r2, r2, r1
 5638 0354 002A     		cmp	r2, #0
 5639 0356 7FF470AF 		bne	.L1245
 5640 035a 94F83D10 		ldrb	r1, [r4, #61]	@ zero_extendqisi2
 5641 035e 628D     		ldrh	r2, [r4, #42]
 5642 0360 92B2     		uxth	r2, r2
 5643 0362 C9B2     		uxtb	r1, r1
 5644 0364 002A     		cmp	r2, #0
 5645 0366 3FF444AF 		beq	.L1150
 5646 036a 626A     		ldr	r2, [r4, #36]
 5647 036c 1B69     		ldr	r3, [r3, #16]
 5648 036e 501C     		adds	r0, r2, #1
 5649 0370 6062     		str	r0, [r4, #36]
 5650 0372 1370     		strb	r3, [r2]
 5651 0374 638D     		ldrh	r3, [r4, #42]
 5652 0376 013B     		subs	r3, r3, #1
 5653 0378 9BB2     		uxth	r3, r3
 5654 037a 6385     		strh	r3, [r4, #42]	@ movhi
 5655 037c 638D     		ldrh	r3, [r4, #42]
 5656 037e 9BB2     		uxth	r3, r3
 5657 0380 002B     		cmp	r3, #0
 5658 0382 7FF436AF 		bne	.L1150
 5659 0386 2A29     		cmp	r1, #42
 5660 0388 7FF433AF 		bne	.L1150
 5661 038c 2268     		ldr	r2, [r4]
 5662 038e 5368     		ldr	r3, [r2, #4]
 5663 0390 2225     		movs	r5, #34
 5664 0392 23F48063 		bic	r3, r3, #1024
 5665 0396 2821     		movs	r1, #40
 5666 0398 5360     		str	r3, [r2, #4]
 5667 039a 2046     		mov	r0, r4
 5668 039c 2563     		str	r5, [r4, #48]
 5669 039e 84F83D10 		strb	r1, [r4, #61]
 5670 03a2 FFF7FEFF 		bl	HAL_I2C_SlaveRxCpltCallback
 5671 03a6 24E7     		b	.L1150
 5672              	.L1425:
 5673 03a8 4705     		lsls	r7, r0, #21
 5674 03aa 7FF549AE 		bpl	.L1242
 5675 03ae 5F4A     		ldr	r2, .L1455
ARM GAS  /tmp/ccWQvKle.s 			page 99


 5676 03b0 0A40     		ands	r2, r2, r1
 5677 03b2 002A     		cmp	r2, #0
 5678 03b4 7FF449AE 		bne	.L1243
 5679 03b8 94F83D10 		ldrb	r1, [r4, #61]	@ zero_extendqisi2
 5680 03bc 628D     		ldrh	r2, [r4, #42]
 5681 03be 92B2     		uxth	r2, r2
 5682 03c0 C9B2     		uxtb	r1, r1
 5683 03c2 002A     		cmp	r2, #0
 5684 03c4 3FF415AF 		beq	.L1150
 5685 03c8 626A     		ldr	r2, [r4, #36]
 5686 03ca 501C     		adds	r0, r2, #1
 5687 03cc 6062     		str	r0, [r4, #36]
 5688 03ce 1278     		ldrb	r2, [r2]	@ zero_extendqisi2
 5689 03d0 1A61     		str	r2, [r3, #16]
 5690 03d2 628D     		ldrh	r2, [r4, #42]
 5691 03d4 013A     		subs	r2, r2, #1
 5692 03d6 92B2     		uxth	r2, r2
 5693 03d8 6285     		strh	r2, [r4, #42]	@ movhi
 5694 03da 628D     		ldrh	r2, [r4, #42]
 5695 03dc 92B2     		uxth	r2, r2
 5696 03de 002A     		cmp	r2, #0
 5697 03e0 7FF407AF 		bne	.L1150
 5698 03e4 2929     		cmp	r1, #41
 5699 03e6 7FF404AF 		bne	.L1150
 5700 03ea 5A68     		ldr	r2, [r3, #4]
 5701 03ec 2125     		movs	r5, #33
 5702 03ee 22F48062 		bic	r2, r2, #1024
 5703 03f2 2821     		movs	r1, #40
 5704 03f4 5A60     		str	r2, [r3, #4]
 5705 03f6 2046     		mov	r0, r4
 5706 03f8 2563     		str	r5, [r4, #48]
 5707 03fa 84F83D10 		strb	r1, [r4, #61]
 5708 03fe FFF7FEFF 		bl	HAL_I2C_SlaveTxCpltCallback
 5709 0402 F6E6     		b	.L1150
 5710              	.L1428:
 5711 0404 94F83E20 		ldrb	r2, [r4, #62]	@ zero_extendqisi2
 5712 0408 402A     		cmp	r2, #64
 5713 040a 71D0     		beq	.L1438
 5714 040c 2269     		ldr	r2, [r4, #16]
 5715 040e B2F5804F 		cmp	r2, #16384
 5716 0412 1CD0     		beq	.L1439
 5717 0414 226D     		ldr	r2, [r4, #80]
 5718 0416 002A     		cmp	r2, #0
 5719 0418 7FD0     		beq	.L1440
 5720 041a 226D     		ldr	r2, [r4, #80]
 5721 041c 012A     		cmp	r2, #1
 5722 041e 7FF495AE 		bne	.L1157
 5723 0422 626C     		ldr	r2, [r4, #68]
 5724 0424 D211     		asrs	r2, r2, #7
 5725 0426 02F00602 		and	r2, r2, #6
 5726 042a 42F0F102 		orr	r2, r2, #241
 5727 042e 1A61     		str	r2, [r3, #16]
 5728 0430 8CE6     		b	.L1157
 5729              	.L1424:
 5730 0432 9969     		ldr	r1, [r3, #24]
 5731 0434 9B69     		ldr	r3, [r3, #24]
 5732 0436 81F00401 		eor	r1, r1, #4
ARM GAS  /tmp/ccWQvKle.s 			page 100


 5733 043a 1F06     		lsls	r7, r3, #24
 5734 043c C1F38001 		ubfx	r1, r1, #2, #1
 5735 0440 54BF     		ite	pl
 5736 0442 A289     		ldrhpl	r2, [r4, #12]
 5737 0444 228B     		ldrhmi	r2, [r4, #24]
 5738 0446 2046     		mov	r0, r4
 5739 0448 FFF7FEFF 		bl	HAL_I2C_AddrCallback
 5740 044c D1E6     		b	.L1150
 5741              	.L1439:
 5742 044e 94F83D20 		ldrb	r2, [r4, #61]	@ zero_extendqisi2
 5743 0452 212A     		cmp	r2, #33
 5744 0454 626C     		ldr	r2, [r4, #68]
 5745 0456 16BF     		itet	ne
 5746 0458 42F00102 		orrne	r2, r2, #1
 5747 045c 02F0FE02 		andeq	r2, r2, #254
 5748 0460 D2B2     		uxtbne	r2, r2
 5749 0462 1A61     		str	r2, [r3, #16]
 5750 0464 72E6     		b	.L1157
 5751              	.L1433:
 5752 0466 E16A     		ldr	r1, [r4, #44]
 5753 0468 628D     		ldrh	r2, [r4, #42]
 5754 046a 92B2     		uxth	r2, r2
 5755 046c 032A     		cmp	r2, #3
 5756 046e 00F08480 		beq	.L1441
 5757 0472 628D     		ldrh	r2, [r4, #42]
 5758 0474 92B2     		uxth	r2, r2
 5759 0476 022A     		cmp	r2, #2
 5760 0478 7FF4E5AE 		bne	.L1421
 5761 047c 0429     		cmp	r1, #4
 5762 047e 00F0CD80 		beq	.L1211
 5763 0482 0829     		cmp	r1, #8
 5764 0484 00F0CA80 		beq	.L1211
 5765 0488 11F5803F 		cmn	r1, #65536
 5766 048c 00F0C680 		beq	.L1211
 5767 0490 1A68     		ldr	r2, [r3]
 5768 0492 0229     		cmp	r1, #2
 5769 0494 14BF     		ite	ne
 5770 0496 22F48062 		bicne	r2, r2, #1024
 5771 049a 42F48062 		orreq	r2, r2, #1024
 5772 049e 1A60     		str	r2, [r3]
 5773              	.L1213:
 5774 04a0 626A     		ldr	r2, [r4, #36]
 5775 04a2 1B69     		ldr	r3, [r3, #16]
 5776 04a4 511C     		adds	r1, r2, #1
 5777 04a6 6162     		str	r1, [r4, #36]
 5778 04a8 1370     		strb	r3, [r2]
 5779 04aa 638D     		ldrh	r3, [r4, #42]
 5780 04ac 626A     		ldr	r2, [r4, #36]
 5781 04ae 2168     		ldr	r1, [r4]
 5782 04b0 013B     		subs	r3, r3, #1
 5783 04b2 9BB2     		uxth	r3, r3
 5784 04b4 6385     		strh	r3, [r4, #42]	@ movhi
 5785 04b6 0B69     		ldr	r3, [r1, #16]
 5786 04b8 511C     		adds	r1, r2, #1
 5787 04ba 6162     		str	r1, [r4, #36]
 5788 04bc 1370     		strb	r3, [r2]
 5789 04be 638D     		ldrh	r3, [r4, #42]
ARM GAS  /tmp/ccWQvKle.s 			page 101


 5790 04c0 2268     		ldr	r2, [r4]
 5791 04c2 013B     		subs	r3, r3, #1
 5792 04c4 9BB2     		uxth	r3, r3
 5793 04c6 6385     		strh	r3, [r4, #42]	@ movhi
 5794 04c8 5368     		ldr	r3, [r2, #4]
 5795 04ca 2021     		movs	r1, #32
 5796 04cc 23F44073 		bic	r3, r3, #768
 5797 04d0 5360     		str	r3, [r2, #4]
 5798 04d2 84F83D10 		strb	r1, [r4, #61]
 5799 04d6 94F83E30 		ldrb	r3, [r4, #62]	@ zero_extendqisi2
 5800 04da 402B     		cmp	r3, #64
 5801 04dc 7FF42CAF 		bne	.L1214
 5802              	.L1422:
 5803 04e0 0023     		movs	r3, #0
 5804 04e2 2363     		str	r3, [r4, #48]
 5805 04e4 2046     		mov	r0, r4
 5806 04e6 84F83E30 		strb	r3, [r4, #62]
 5807 04ea FFF7FEFF 		bl	HAL_I2C_MemRxCpltCallback
 5808 04ee 80E6     		b	.L1150
 5809              	.L1438:
 5810 04f0 226D     		ldr	r2, [r4, #80]
 5811 04f2 002A     		cmp	r2, #0
 5812 04f4 40F08880 		bne	.L1156
 5813 04f8 626C     		ldr	r2, [r4, #68]
 5814 04fa 02F0FE02 		and	r2, r2, #254
 5815 04fe 1A61     		str	r2, [r3, #16]
 5816 0500 24E6     		b	.L1157
 5817              	.L1427:
 5818 0502 0B4A     		ldr	r2, .L1455+4
 5819 0504 E262     		str	r2, [r4, #44]
 5820              	.L1423:
 5821 0506 2022     		movs	r2, #32
 5822 0508 2363     		str	r3, [r4, #48]
 5823 050a 2046     		mov	r0, r4
 5824 050c 84F83D20 		strb	r2, [r4, #61]
 5825 0510 84F83E30 		strb	r3, [r4, #62]
 5826 0514 FFF7FEFF 		bl	HAL_I2C_ListenCpltCallback
 5827 0518 6BE6     		b	.L1150
 5828              	.L1440:
 5829 051a 626C     		ldr	r2, [r4, #68]
 5830 051c D211     		asrs	r2, r2, #7
 5831 051e 02F00602 		and	r2, r2, #6
 5832 0522 42F0F002 		orr	r2, r2, #240
 5833 0526 1A61     		str	r2, [r3, #16]
 5834 0528 10E6     		b	.L1157
 5835              	.L1456:
 5836 052a 00BF     		.align	2
 5837              	.L1455:
 5838 052c 04000100 		.word	65540
 5839 0530 0000FFFF 		.word	-65536
 5840              	.L1434:
 5841 0534 266D     		ldr	r6, [r4, #80]
 5842 0536 16B9     		cbnz	r6, .L1163
 5843 0538 402A     		cmp	r2, #64
 5844 053a 00F03481 		beq	.L1442
 5845              	.L1163:
 5846 053e 266D     		ldr	r6, [r4, #80]
ARM GAS  /tmp/ccWQvKle.s 			page 102


 5847 0540 26B9     		cbnz	r6, .L1164
 5848 0542 2269     		ldr	r2, [r4, #16]
 5849 0544 B2F5404F 		cmp	r2, #49152
 5850 0548 00F03481 		beq	.L1443
 5851              	.L1164:
 5852 054c 628D     		ldrh	r2, [r4, #42]
 5853 054e 92B2     		uxth	r2, r2
 5854 0550 002A     		cmp	r2, #0
 5855 0552 68D1     		bne	.L1165
 5856 0554 0392     		str	r2, [sp, #12]
 5857 0556 5A69     		ldr	r2, [r3, #20]
 5858 0558 0392     		str	r2, [sp, #12]
 5859 055a 9A69     		ldr	r2, [r3, #24]
 5860 055c 0392     		str	r2, [sp, #12]
 5861 055e 039A     		ldr	r2, [sp, #12]
 5862 0560 1A68     		ldr	r2, [r3]
 5863 0562 42F40072 		orr	r2, r2, #512
 5864 0566 1A60     		str	r2, [r3]
 5865              	.L1166:
 5866 0568 0022     		movs	r2, #0
 5867 056a 2265     		str	r2, [r4, #80]
 5868 056c EEE5     		b	.L1157
 5869              	.L1220:
 5870 056e A16B     		ldr	r1, [r4, #56]
 5871 0570 0968     		ldr	r1, [r1]
 5872 0572 4968     		ldr	r1, [r1, #4]
 5873 0574 89B2     		uxth	r1, r1
 5874 0576 6185     		strh	r1, [r4, #42]	@ movhi
 5875 0578 A5E5     		b	.L1219
 5876              	.L1441:
 5877 057a 0429     		cmp	r1, #4
 5878 057c 05D0     		beq	.L1208
 5879 057e 0829     		cmp	r1, #8
 5880 0580 03D0     		beq	.L1208
 5881 0582 11F5803F 		cmn	r1, #65536
 5882 0586 7FF45EAE 		bne	.L1421
 5883              	.L1208:
 5884 058a 1A68     		ldr	r2, [r3]
 5885 058c 22F48062 		bic	r2, r2, #1024
 5886 0590 1A60     		str	r2, [r3]
 5887 0592 58E6     		b	.L1421
 5888              	.L1426:
 5889 0594 94F83D30 		ldrb	r3, [r4, #61]	@ zero_extendqisi2
 5890 0598 293B     		subs	r3, r3, #41
 5891 059a 012B     		cmp	r3, #1
 5892 059c 6FD9     		bls	.L1444
 5893 059e 94F83D30 		ldrb	r3, [r4, #61]	@ zero_extendqisi2
 5894 05a2 602B     		cmp	r3, #96
 5895 05a4 2368     		ldr	r3, [r4]
 5896 05a6 05D0     		beq	.L1229
 5897 05a8 5A68     		ldr	r2, [r3, #4]
 5898 05aa 1505     		lsls	r5, r2, #20
 5899 05ac 5CBF     		itt	pl
 5900 05ae 2022     		movpl	r2, #32
 5901 05b0 84F83D20 		strbpl	r2, [r4, #61]
 5902              	.L1229:
 5903 05b4 0022     		movs	r2, #0
ARM GAS  /tmp/ccWQvKle.s 			page 103


 5904 05b6 2263     		str	r2, [r4, #48]
 5905 05b8 84F83E20 		strb	r2, [r4, #62]
 5906              	.L1227:
 5907 05bc 1A68     		ldr	r2, [r3]
 5908 05be 22F40062 		bic	r2, r2, #2048
 5909 05c2 1A60     		str	r2, [r3]
 5910 05c4 5A68     		ldr	r2, [r3, #4]
 5911 05c6 12F40062 		ands	r2, r2, #2048
 5912 05ca 48D0     		beq	.L1230
 5913 05cc 5A68     		ldr	r2, [r3, #4]
 5914 05ce 606B     		ldr	r0, [r4, #52]
 5915 05d0 22F40062 		bic	r2, r2, #2048
 5916 05d4 5A60     		str	r2, [r3, #4]
 5917 05d6 90F83530 		ldrb	r3, [r0, #53]	@ zero_extendqisi2
 5918 05da 012B     		cmp	r3, #1
 5919 05dc 00F0C680 		beq	.L1231
 5920 05e0 A04B     		ldr	r3, .L1457
 5921 05e2 0365     		str	r3, [r0, #80]
 5922 05e4 FFF7FEFF 		bl	HAL_DMA_Abort_IT
 5923 05e8 0028     		cmp	r0, #0
 5924 05ea 40F0F180 		bne	.L1445
 5925              	.L1233:
 5926 05ee 94F83D30 		ldrb	r3, [r4, #61]	@ zero_extendqisi2
 5927 05f2 282B     		cmp	r3, #40
 5928 05f4 7FF4FDAD 		bne	.L1150
 5929 05f8 236C     		ldr	r3, [r4, #64]
 5930 05fa 5B07     		lsls	r3, r3, #29
 5931 05fc 7FF5F9AD 		bpl	.L1150
 5932 0600 994B     		ldr	r3, .L1457+4
 5933 0602 E362     		str	r3, [r4, #44]
 5934 0604 0023     		movs	r3, #0
 5935 0606 7EE7     		b	.L1423
 5936              	.L1156:
 5937 0608 626C     		ldr	r2, [r4, #68]
 5938 060a 42F00102 		orr	r2, r2, #1
 5939 060e D2B2     		uxtb	r2, r2
 5940 0610 1A61     		str	r2, [r3, #16]
 5941 0612 9BE5     		b	.L1157
 5942              	.L1181:
 5943 0614 212A     		cmp	r2, #33
 5944 0616 7FF4B8AD 		bne	.L1182
 5945 061a BAE5     		b	.L1186
 5946              	.L1211:
 5947 061c 1A68     		ldr	r2, [r3]
 5948 061e 42F40072 		orr	r2, r2, #512
 5949 0622 1A60     		str	r2, [r3]
 5950 0624 3CE7     		b	.L1213
 5951              	.L1165:
 5952 0626 628D     		ldrh	r2, [r4, #42]
 5953 0628 92B2     		uxth	r2, r2
 5954 062a 012A     		cmp	r2, #1
 5955 062c 6BD0     		beq	.L1446
 5956 062e 628D     		ldrh	r2, [r4, #42]
 5957 0630 92B2     		uxth	r2, r2
 5958 0632 022A     		cmp	r2, #2
 5959 0634 00F0D880 		beq	.L1447
 5960 0638 1A68     		ldr	r2, [r3]
ARM GAS  /tmp/ccWQvKle.s 			page 104


 5961 063a 42F48062 		orr	r2, r2, #1024
 5962 063e 1A60     		str	r2, [r3]
 5963 0640 5A68     		ldr	r2, [r3, #4]
 5964 0642 1205     		lsls	r2, r2, #20
 5965 0644 03D5     		bpl	.L1177
 5966 0646 5A68     		ldr	r2, [r3, #4]
 5967 0648 42F48052 		orr	r2, r2, #4096
 5968 064c 5A60     		str	r2, [r3, #4]
 5969              	.L1177:
 5970 064e 0022     		movs	r2, #0
 5971 0650 0992     		str	r2, [sp, #36]
 5972 0652 5A69     		ldr	r2, [r3, #20]
 5973 0654 0992     		str	r2, [sp, #36]
 5974 0656 9A69     		ldr	r2, [r3, #24]
 5975 0658 0992     		str	r2, [sp, #36]
 5976 065a 099A     		ldr	r2, [sp, #36]
 5977 065c 84E7     		b	.L1166
 5978              	.L1230:
 5979 065e 94F83D10 		ldrb	r1, [r4, #61]	@ zero_extendqisi2
 5980 0662 6029     		cmp	r1, #96
 5981 0664 6DD0     		beq	.L1448
 5982 0666 5A69     		ldr	r2, [r3, #20]
 5983 0668 5206     		lsls	r2, r2, #25
 5984 066a 04D5     		bpl	.L1238
 5985 066c 626A     		ldr	r2, [r4, #36]
 5986 066e 1B69     		ldr	r3, [r3, #16]
 5987 0670 511C     		adds	r1, r2, #1
 5988 0672 6162     		str	r1, [r4, #36]
 5989 0674 1370     		strb	r3, [r2]
 5990              	.L1238:
 5991 0676 2046     		mov	r0, r4
 5992 0678 FFF7FEFF 		bl	HAL_I2C_ErrorCallback
 5993 067c B7E7     		b	.L1233
 5994              	.L1444:
 5995 067e 0023     		movs	r3, #0
 5996 0680 2822     		movs	r2, #40
 5997 0682 2363     		str	r3, [r4, #48]
 5998 0684 2368     		ldr	r3, [r4]
 5999 0686 84F83D20 		strb	r2, [r4, #61]
 6000 068a 97E7     		b	.L1227
 6001              	.L1437:
 6002 068c 022A     		cmp	r2, #2
 6003 068e 1A68     		ldr	r2, [r3]
 6004 0690 00F01C81 		beq	.L1202
 6005 0694 22F48062 		bic	r2, r2, #1024
 6006 0698 1A60     		str	r2, [r3]
 6007 069a 1A68     		ldr	r2, [r3]
 6008 069c 42F40062 		orr	r2, r2, #2048
 6009 06a0 1A60     		str	r2, [r3]
 6010              	.L1203:
 6011 06a2 5A68     		ldr	r2, [r3, #4]
 6012 06a4 22F48062 		bic	r2, r2, #1024
 6013 06a8 5A60     		str	r2, [r3, #4]
 6014 06aa A2E5     		b	.L1150
 6015              	.L1436:
 6016 06ac 5968     		ldr	r1, [r3, #4]
 6017 06ae 1126     		movs	r6, #17
ARM GAS  /tmp/ccWQvKle.s 			page 105


 6018 06b0 21F4E061 		bic	r1, r1, #1792
 6019 06b4 2025     		movs	r5, #32
 6020 06b6 5960     		str	r1, [r3, #4]
 6021 06b8 2046     		mov	r0, r4
 6022 06ba 2663     		str	r6, [r4, #48]
 6023 06bc 84F83E20 		strb	r2, [r4, #62]
 6024 06c0 84F83D50 		strb	r5, [r4, #61]
 6025 06c4 05E6     		b	.L1419
 6026              	.L1429:
 6027 06c6 0428     		cmp	r0, #4
 6028 06c8 05D0     		beq	.L1183
 6029 06ca 0828     		cmp	r0, #8
 6030 06cc 03D0     		beq	.L1183
 6031 06ce 10F5803F 		cmn	r0, #65536
 6032 06d2 40F0DD80 		bne	.L1449
 6033              	.L1183:
 6034 06d6 5A68     		ldr	r2, [r3, #4]
 6035 06d8 22F4E062 		bic	r2, r2, #1792
 6036 06dc 5A60     		str	r2, [r3, #4]
 6037 06de 1968     		ldr	r1, [r3]
 6038 06e0 0022     		movs	r2, #0
 6039 06e2 2020     		movs	r0, #32
 6040 06e4 41F40071 		orr	r1, r1, #512
 6041 06e8 1960     		str	r1, [r3]
 6042 06ea 2263     		str	r2, [r4, #48]
 6043 06ec 84F83D00 		strb	r0, [r4, #61]
 6044 06f0 94F83E30 		ldrb	r3, [r4, #62]	@ zero_extendqisi2
 6045 06f4 84F83E20 		strb	r2, [r4, #62]
 6046 06f8 402B     		cmp	r3, #64
 6047 06fa 2046     		mov	r0, r4
 6048 06fc 7FF4E9AD 		bne	.L1419
 6049              	.L1418:
 6050 0700 FFF7FEFF 		bl	HAL_I2C_MemTxCpltCallback
 6051 0704 75E5     		b	.L1150
 6052              	.L1446:
 6053 0706 17F5803F 		cmn	r7, #65536
 6054 070a 00F09780 		beq	.L1450
 6055 070e 042F     		cmp	r7, #4
 6056 0710 00F08480 		beq	.L1170
 6057 0714 082F     		cmp	r7, #8
 6058 0716 00F08180 		beq	.L1170
 6059 071a BEF1120F 		cmp	lr, #18
 6060 071e 7DD0     		beq	.L1170
 6061 0720 E26A     		ldr	r2, [r4, #44]
 6062 0722 022A     		cmp	r2, #2
 6063 0724 1A68     		ldr	r2, [r3]
 6064 0726 14BF     		ite	ne
 6065 0728 22F48062 		bicne	r2, r2, #1024
 6066 072c 42F48062 		orreq	r2, r2, #1024
 6067 0730 1A60     		str	r2, [r3]
 6068 0732 0022     		movs	r2, #0
 6069 0734 0692     		str	r2, [sp, #24]
 6070 0736 5A69     		ldr	r2, [r3, #20]
 6071 0738 0692     		str	r2, [sp, #24]
 6072 073a 9A69     		ldr	r2, [r3, #24]
 6073 073c 0692     		str	r2, [sp, #24]
 6074 073e 069A     		ldr	r2, [sp, #24]
ARM GAS  /tmp/ccWQvKle.s 			page 106


 6075 0740 12E7     		b	.L1166
 6076              	.L1448:
 6077 0742 2021     		movs	r1, #32
 6078 0744 84F83D10 		strb	r1, [r4, #61]
 6079 0748 2264     		str	r2, [r4, #64]
 6080 074a 5A69     		ldr	r2, [r3, #20]
 6081 074c 5106     		lsls	r1, r2, #25
 6082 074e 05D5     		bpl	.L1237
 6083 0750 626A     		ldr	r2, [r4, #36]
 6084 0752 1B69     		ldr	r3, [r3, #16]
 6085 0754 511C     		adds	r1, r2, #1
 6086 0756 6162     		str	r1, [r4, #36]
 6087 0758 1370     		strb	r3, [r2]
 6088 075a 2368     		ldr	r3, [r4]
 6089              	.L1237:
 6090 075c 1A68     		ldr	r2, [r3]
 6091 075e 22F00102 		bic	r2, r2, #1
 6092 0762 1A60     		str	r2, [r3]
 6093 0764 2046     		mov	r0, r4
 6094 0766 FFF7FEFF 		bl	HAL_I2C_AbortCpltCallback
 6095 076a 40E7     		b	.L1233
 6096              	.L1231:
 6097 076c A06B     		ldr	r0, [r4, #56]
 6098 076e 3D4B     		ldr	r3, .L1457
 6099 0770 0365     		str	r3, [r0, #80]
 6100 0772 FFF7FEFF 		bl	HAL_DMA_Abort_IT
 6101 0776 0028     		cmp	r0, #0
 6102 0778 3FF439AF 		beq	.L1233
 6103 077c 2368     		ldr	r3, [r4]
 6104 077e 5A69     		ldr	r2, [r3, #20]
 6105 0780 5006     		lsls	r0, r2, #25
 6106 0782 05D5     		bpl	.L1235
 6107 0784 626A     		ldr	r2, [r4, #36]
 6108 0786 1B69     		ldr	r3, [r3, #16]
 6109 0788 511C     		adds	r1, r2, #1
 6110 078a 6162     		str	r1, [r4, #36]
 6111 078c 1370     		strb	r3, [r2]
 6112 078e 2368     		ldr	r3, [r4]
 6113              	.L1235:
 6114 0790 1A68     		ldr	r2, [r3]
 6115 0792 A06B     		ldr	r0, [r4, #56]
 6116 0794 22F00102 		bic	r2, r2, #1
 6117 0798 2021     		movs	r1, #32
 6118 079a 1A60     		str	r2, [r3]
 6119 079c 036D     		ldr	r3, [r0, #80]
 6120 079e 84F83D10 		strb	r1, [r4, #61]
 6121 07a2 9847     		blx	r3
 6122 07a4 23E7     		b	.L1233
 6123              	.L1442:
 6124 07a6 0196     		str	r6, [sp, #4]
 6125 07a8 5A69     		ldr	r2, [r3, #20]
 6126 07aa 0192     		str	r2, [sp, #4]
 6127 07ac 9A69     		ldr	r2, [r3, #24]
 6128 07ae 0192     		str	r2, [sp, #4]
 6129 07b0 019A     		ldr	r2, [sp, #4]
 6130 07b2 CBE4     		b	.L1157
 6131              	.L1443:
ARM GAS  /tmp/ccWQvKle.s 			page 107


 6132 07b4 0296     		str	r6, [sp, #8]
 6133 07b6 5A69     		ldr	r2, [r3, #20]
 6134 07b8 0292     		str	r2, [sp, #8]
 6135 07ba 9A69     		ldr	r2, [r3, #24]
 6136 07bc 0292     		str	r2, [sp, #8]
 6137 07be 029A     		ldr	r2, [sp, #8]
 6138 07c0 1A68     		ldr	r2, [r3]
 6139 07c2 42F48072 		orr	r2, r2, #256
 6140 07c6 1A60     		str	r2, [r3]
 6141 07c8 226D     		ldr	r2, [r4, #80]
 6142 07ca 0132     		adds	r2, r2, #1
 6143 07cc 2265     		str	r2, [r4, #80]
 6144 07ce BDE4     		b	.L1157
 6145              	.L1445:
 6146 07d0 2268     		ldr	r2, [r4]
 6147 07d2 606B     		ldr	r0, [r4, #52]
 6148 07d4 1368     		ldr	r3, [r2]
 6149 07d6 016D     		ldr	r1, [r0, #80]
 6150 07d8 23F00103 		bic	r3, r3, #1
 6151 07dc 2025     		movs	r5, #32
 6152 07de 1360     		str	r3, [r2]
 6153 07e0 84F83D50 		strb	r5, [r4, #61]
 6154 07e4 8847     		blx	r1
 6155 07e6 02E7     		b	.L1233
 6156              	.L1447:
 6157 07e8 E26A     		ldr	r2, [r4, #44]
 6158 07ea 022A     		cmp	r2, #2
 6159 07ec 1A68     		ldr	r2, [r3]
 6160 07ee 5ED0     		beq	.L1174
 6161 07f0 22F48062 		bic	r2, r2, #1024
 6162 07f4 1A60     		str	r2, [r3]
 6163 07f6 1A68     		ldr	r2, [r3]
 6164 07f8 42F40062 		orr	r2, r2, #2048
 6165 07fc 1A60     		str	r2, [r3]
 6166              	.L1175:
 6167 07fe 5A68     		ldr	r2, [r3, #4]
 6168 0800 1605     		lsls	r6, r2, #20
 6169 0802 03D5     		bpl	.L1176
 6170 0804 5A68     		ldr	r2, [r3, #4]
 6171 0806 42F48052 		orr	r2, r2, #4096
 6172 080a 5A60     		str	r2, [r3, #4]
 6173              	.L1176:
 6174 080c 0022     		movs	r2, #0
 6175 080e 0892     		str	r2, [sp, #32]
 6176 0810 5A69     		ldr	r2, [r3, #20]
 6177 0812 0892     		str	r2, [sp, #32]
 6178 0814 9A69     		ldr	r2, [r3, #24]
 6179 0816 0892     		str	r2, [sp, #32]
 6180 0818 089A     		ldr	r2, [sp, #32]
 6181 081a A5E6     		b	.L1166
 6182              	.L1170:
 6183 081c 1A68     		ldr	r2, [r3]
 6184 081e 0026     		movs	r6, #0
 6185 0820 22F48062 		bic	r2, r2, #1024
 6186 0824 1A60     		str	r2, [r3]
 6187 0826 0796     		str	r6, [sp, #28]
 6188 0828 5A69     		ldr	r2, [r3, #20]
ARM GAS  /tmp/ccWQvKle.s 			page 108


 6189 082a 0792     		str	r2, [sp, #28]
 6190 082c 9A69     		ldr	r2, [r3, #24]
 6191 082e 0792     		str	r2, [sp, #28]
 6192 0830 079A     		ldr	r2, [sp, #28]
 6193 0832 1A68     		ldr	r2, [r3]
 6194 0834 42F40072 		orr	r2, r2, #512
 6195 0838 1A60     		str	r2, [r3]
 6196 083a 95E6     		b	.L1166
 6197              	.L1450:
 6198 083c 1A68     		ldr	r2, [r3]
 6199 083e 22F48062 		bic	r2, r2, #1024
 6200 0842 1A60     		str	r2, [r3]
 6201 0844 5A68     		ldr	r2, [r3, #4]
 6202 0846 12F40062 		ands	r2, r2, #2048
 6203 084a 34D0     		beq	.L1169
 6204 084c 1A68     		ldr	r2, [r3]
 6205 084e 0026     		movs	r6, #0
 6206 0850 22F48062 		bic	r2, r2, #1024
 6207 0854 1A60     		str	r2, [r3]
 6208 0856 0496     		str	r6, [sp, #16]
 6209 0858 5A69     		ldr	r2, [r3, #20]
 6210 085a 0492     		str	r2, [sp, #16]
 6211 085c 9A69     		ldr	r2, [r3, #24]
 6212 085e 0492     		str	r2, [sp, #16]
 6213 0860 049A     		ldr	r2, [sp, #16]
 6214 0862 81E6     		b	.L1166
 6215              	.L1458:
 6216              		.align	2
 6217              	.L1457:
 6218 0864 00000000 		.word	I2C_DMAAbort
 6219 0868 0000FFFF 		.word	-65536
 6220              	.L1191:
 6221 086c 226D     		ldr	r2, [r4, #80]
 6222 086e 012A     		cmp	r2, #1
 6223 0870 36D0     		beq	.L1451
 6224 0872 226D     		ldr	r2, [r4, #80]
 6225 0874 022A     		cmp	r2, #2
 6226 0876 7FF4BCAC 		bne	.L1150
 6227 087a 94F83D20 		ldrb	r2, [r4, #61]	@ zero_extendqisi2
 6228 087e 222A     		cmp	r2, #34
 6229 0880 35D0     		beq	.L1452
 6230 0882 94F83D20 		ldrb	r2, [r4, #61]	@ zero_extendqisi2
 6231 0886 212A     		cmp	r2, #33
 6232 0888 7FF4B3AC 		bne	.L1150
 6233 088c FFF7E5BB 		b	.L1420
 6234              	.L1449:
 6235 0890 5A68     		ldr	r2, [r3, #4]
 6236 0892 1126     		movs	r6, #17
 6237 0894 22F4E062 		bic	r2, r2, #1792
 6238 0898 2021     		movs	r1, #32
 6239 089a 5A60     		str	r2, [r3, #4]
 6240 089c 2046     		mov	r0, r4
 6241 089e 2663     		str	r6, [r4, #48]
 6242 08a0 84F83E50 		strb	r5, [r4, #62]
 6243 08a4 84F83D10 		strb	r1, [r4, #61]
 6244 08a8 FFF7FEFF 		bl	HAL_I2C_MasterTxCpltCallback
 6245 08ac A1E4     		b	.L1150
ARM GAS  /tmp/ccWQvKle.s 			page 109


 6246              	.L1174:
 6247 08ae 42F48062 		orr	r2, r2, #1024
 6248 08b2 1A60     		str	r2, [r3]
 6249 08b4 A3E7     		b	.L1175
 6250              	.L1169:
 6251 08b6 0592     		str	r2, [sp, #20]
 6252 08b8 5A69     		ldr	r2, [r3, #20]
 6253 08ba 0592     		str	r2, [sp, #20]
 6254 08bc 9A69     		ldr	r2, [r3, #24]
 6255 08be 0592     		str	r2, [sp, #20]
 6256 08c0 059A     		ldr	r2, [sp, #20]
 6257 08c2 1A68     		ldr	r2, [r3]
 6258 08c4 42F40072 		orr	r2, r2, #512
 6259 08c8 1A60     		str	r2, [r3]
 6260 08ca 4DE6     		b	.L1166
 6261              	.L1202:
 6262 08cc 42F48062 		orr	r2, r2, #1024
 6263 08d0 1A60     		str	r2, [r3]
 6264 08d2 E6E6     		b	.L1203
 6265              	.L1430:
 6266 08d4 D2B2     		uxtb	r2, r2
 6267 08d6 1A61     		str	r2, [r3, #16]
 6268 08d8 236D     		ldr	r3, [r4, #80]
 6269 08da 0233     		adds	r3, r3, #2
 6270 08dc 2365     		str	r3, [r4, #80]
 6271 08de 88E4     		b	.L1150
 6272              	.L1451:
 6273 08e0 A26C     		ldr	r2, [r4, #72]
 6274 08e2 D2B2     		uxtb	r2, r2
 6275 08e4 1A61     		str	r2, [r3, #16]
 6276 08e6 236D     		ldr	r3, [r4, #80]
 6277 08e8 0133     		adds	r3, r3, #1
 6278 08ea 2365     		str	r3, [r4, #80]
 6279 08ec 81E4     		b	.L1150
 6280              	.L1452:
 6281 08ee 1A68     		ldr	r2, [r3]
 6282 08f0 42F48072 		orr	r2, r2, #256
 6283 08f4 1A60     		str	r2, [r3]
 6284 08f6 7CE4     		b	.L1150
 6286              		.section	.text.I2C_DMAAbort,"ax",%progbits
 6287              		.align	1
 6288              		.p2align 2,,3
 6289              		.syntax unified
 6290              		.thumb
 6291              		.thumb_func
 6292              		.fpu fpv4-sp-d16
 6294              	I2C_DMAAbort:
 6295              		@ args = 0, pretend = 0, frame = 0
 6296              		@ frame_needed = 0, uses_anonymous_args = 0
 6297 0000 806B     		ldr	r0, [r0, #56]
 6298 0002 0268     		ldr	r2, [r0]
 6299 0004 1168     		ldr	r1, [r2]
 6300 0006 38B5     		push	{r3, r4, r5, lr}
 6301 0008 21F48061 		bic	r1, r1, #1024
 6302 000c 0023     		movs	r3, #0
 6303 000e 456B     		ldr	r5, [r0, #52]
 6304 0010 846B     		ldr	r4, [r0, #56]
ARM GAS  /tmp/ccWQvKle.s 			page 110


 6305 0012 1160     		str	r1, [r2]
 6306 0014 4385     		strh	r3, [r0, #42]	@ movhi
 6307 0016 90F83D10 		ldrb	r1, [r0, #61]	@ zero_extendqisi2
 6308 001a 2B65     		str	r3, [r5, #80]
 6309 001c 6029     		cmp	r1, #96
 6310 001e 4FF02001 		mov	r1, #32
 6311 0022 2365     		str	r3, [r4, #80]
 6312 0024 80F83D10 		strb	r1, [r0, #61]
 6313 0028 80F83E30 		strb	r3, [r0, #62]
 6314 002c 06D0     		beq	.L1463
 6315 002e 1368     		ldr	r3, [r2]
 6316 0030 23F00103 		bic	r3, r3, #1
 6317 0034 1360     		str	r3, [r2]
 6318 0036 FFF7FEFF 		bl	HAL_I2C_ErrorCallback
 6319 003a 38BD     		pop	{r3, r4, r5, pc}
 6320              	.L1463:
 6321 003c 0364     		str	r3, [r0, #64]
 6322 003e 1368     		ldr	r3, [r2]
 6323 0040 23F00103 		bic	r3, r3, #1
 6324 0044 1360     		str	r3, [r2]
 6325 0046 FFF7FEFF 		bl	HAL_I2C_AbortCpltCallback
 6326 004a 38BD     		pop	{r3, r4, r5, pc}
 6328              		.section	.text.HAL_I2C_ER_IRQHandler,"ax",%progbits
 6329              		.align	1
 6330              		.p2align 2,,3
 6331              		.global	HAL_I2C_ER_IRQHandler
 6332              		.syntax unified
 6333              		.thumb
 6334              		.thumb_func
 6335              		.fpu fpv4-sp-d16
 6337              	HAL_I2C_ER_IRQHandler:
 6338              		@ args = 0, pretend = 0, frame = 0
 6339              		@ frame_needed = 0, uses_anonymous_args = 0
 6340 0000 0368     		ldr	r3, [r0]
 6341 0002 9D49     		ldr	r1, .L1546
 6342 0004 70B5     		push	{r4, r5, r6, lr}
 6343 0006 5D69     		ldr	r5, [r3, #20]
 6344 0008 5A68     		ldr	r2, [r3, #4]
 6345 000a 0D42     		tst	r5, r1
 6346 000c 0446     		mov	r4, r0
 6347 000e 25D0     		beq	.L1465
 6348 0010 D005     		lsls	r0, r2, #23
 6349 0012 23D5     		bpl	.L1465
 6350 0014 216C     		ldr	r1, [r4, #64]
 6351 0016 6FF48070 		mvn	r0, #256
 6352 001a 41F00101 		orr	r1, r1, #1
 6353 001e 15F4813F 		tst	r5, #66048
 6354 0022 2164     		str	r1, [r4, #64]
 6355 0024 5861     		str	r0, [r3, #20]
 6356 0026 00F09F80 		beq	.L1466
 6357              	.L1470:
 6358 002a 216C     		ldr	r1, [r4, #64]
 6359 002c 6FF40070 		mvn	r0, #512
 6360 0030 41F00201 		orr	r1, r1, #2
 6361 0034 15F4823F 		tst	r5, #66560
 6362 0038 2164     		str	r1, [r4, #64]
 6363 003a 5861     		str	r0, [r3, #20]
ARM GAS  /tmp/ccWQvKle.s 			page 111


 6364 003c 5FD1     		bne	.L1467
 6365              	.L1468:
 6366 003e 15F4843F 		tst	r5, #67584
 6367 0042 08D0     		beq	.L1474
 6368 0044 D605     		lsls	r6, r2, #23
 6369 0046 06D5     		bpl	.L1474
 6370              	.L1499:
 6371 0048 226C     		ldr	r2, [r4, #64]
 6372 004a 6FF40061 		mvn	r1, #2048
 6373 004e 42F00802 		orr	r2, r2, #8
 6374 0052 2264     		str	r2, [r4, #64]
 6375 0054 5961     		str	r1, [r3, #20]
 6376              	.L1474:
 6377 0056 236C     		ldr	r3, [r4, #64]
 6378 0058 5BB9     		cbnz	r3, .L1540
 6379              	.L1464:
 6380 005a 70BD     		pop	{r4, r5, r6, pc}
 6381              	.L1465:
 6382 005c 15F4813F 		tst	r5, #66048
 6383 0060 48D0     		beq	.L1469
 6384 0062 D105     		lsls	r1, r2, #23
 6385 0064 E1D4     		bmi	.L1470
 6386 0066 15F4823F 		tst	r5, #66560
 6387 006a E8D0     		beq	.L1468
 6388 006c 236C     		ldr	r3, [r4, #64]
 6389 006e 002B     		cmp	r3, #0
 6390 0070 F3D0     		beq	.L1464
 6391              	.L1540:
 6392 0072 94F83D30 		ldrb	r3, [r4, #61]	@ zero_extendqisi2
 6393 0076 293B     		subs	r3, r3, #41
 6394 0078 012B     		cmp	r3, #1
 6395 007a 40F2A980 		bls	.L1541
 6396 007e 94F83D30 		ldrb	r3, [r4, #61]	@ zero_extendqisi2
 6397 0082 602B     		cmp	r3, #96
 6398 0084 2368     		ldr	r3, [r4]
 6399 0086 05D0     		beq	.L1488
 6400 0088 5A68     		ldr	r2, [r3, #4]
 6401 008a 1505     		lsls	r5, r2, #20
 6402 008c 5CBF     		itt	pl
 6403 008e 2022     		movpl	r2, #32
 6404 0090 84F83D20 		strbpl	r2, [r4, #61]
 6405              	.L1488:
 6406 0094 0022     		movs	r2, #0
 6407 0096 2263     		str	r2, [r4, #48]
 6408 0098 84F83E20 		strb	r2, [r4, #62]
 6409              	.L1486:
 6410 009c 1A68     		ldr	r2, [r3]
 6411 009e 22F40062 		bic	r2, r2, #2048
 6412 00a2 1A60     		str	r2, [r3]
 6413 00a4 5A68     		ldr	r2, [r3, #4]
 6414 00a6 12F40062 		ands	r2, r2, #2048
 6415 00aa 42D1     		bne	.L1542
 6416 00ac 94F83D10 		ldrb	r1, [r4, #61]	@ zero_extendqisi2
 6417 00b0 6029     		cmp	r1, #96
 6418 00b2 00F0B180 		beq	.L1543
 6419 00b6 5A69     		ldr	r2, [r3, #20]
 6420 00b8 5206     		lsls	r2, r2, #25
ARM GAS  /tmp/ccWQvKle.s 			page 112


 6421 00ba 04D5     		bpl	.L1497
 6422 00bc 626A     		ldr	r2, [r4, #36]
 6423 00be 1B69     		ldr	r3, [r3, #16]
 6424 00c0 511C     		adds	r1, r2, #1
 6425 00c2 6162     		str	r1, [r4, #36]
 6426 00c4 1370     		strb	r3, [r2]
 6427              	.L1497:
 6428 00c6 2046     		mov	r0, r4
 6429 00c8 FFF7FEFF 		bl	HAL_I2C_ErrorCallback
 6430              	.L1492:
 6431 00cc 94F83D30 		ldrb	r3, [r4, #61]	@ zero_extendqisi2
 6432 00d0 282B     		cmp	r3, #40
 6433 00d2 C2D1     		bne	.L1464
 6434 00d4 236C     		ldr	r3, [r4, #64]
 6435 00d6 5B07     		lsls	r3, r3, #29
 6436 00d8 BFD5     		bpl	.L1464
 6437 00da 684B     		ldr	r3, .L1546+4
 6438 00dc E362     		str	r3, [r4, #44]
 6439 00de 2022     		movs	r2, #32
 6440 00e0 0023     		movs	r3, #0
 6441 00e2 2363     		str	r3, [r4, #48]
 6442 00e4 2046     		mov	r0, r4
 6443 00e6 84F83D20 		strb	r2, [r4, #61]
 6444 00ea 84F83E30 		strb	r3, [r4, #62]
 6445 00ee FFF7FEFF 		bl	HAL_I2C_ListenCpltCallback
 6446 00f2 70BD     		pop	{r4, r5, r6, pc}
 6447              	.L1469:
 6448 00f4 15F4823F 		tst	r5, #66560
 6449 00f8 A1D0     		beq	.L1468
 6450 00fa D205     		lsls	r2, r2, #23
 6451 00fc ABD5     		bpl	.L1474
 6452              	.L1467:
 6453 00fe 94F83E00 		ldrb	r0, [r4, #62]	@ zero_extendqisi2
 6454 0102 628D     		ldrh	r2, [r4, #42]
 6455 0104 94F83D10 		ldrb	r1, [r4, #61]	@ zero_extendqisi2
 6456 0108 266B     		ldr	r6, [r4, #48]
 6457 010a 2028     		cmp	r0, #32
 6458 010c 92B2     		uxth	r2, r2
 6459 010e C9B2     		uxtb	r1, r1
 6460 0110 2ED0     		beq	.L1544
 6461              	.L1473:
 6462 0112 226C     		ldr	r2, [r4, #64]
 6463 0114 42F00402 		orr	r2, r2, #4
 6464 0118 2264     		str	r2, [r4, #64]
 6465 011a 94F83E20 		ldrb	r2, [r4, #62]	@ zero_extendqisi2
 6466 011e 102A     		cmp	r2, #16
 6467 0120 51D0     		beq	.L1545
 6468              	.L1480:
 6469 0122 6FF48062 		mvn	r2, #1024
 6470 0126 5A61     		str	r2, [r3, #20]
 6471              	.L1478:
 6472 0128 15F4843F 		tst	r5, #67584
 6473 012c 93D0     		beq	.L1474
 6474 012e 2368     		ldr	r3, [r4]
 6475 0130 8AE7     		b	.L1499
 6476              	.L1542:
 6477 0132 5A68     		ldr	r2, [r3, #4]
ARM GAS  /tmp/ccWQvKle.s 			page 113


 6478 0134 606B     		ldr	r0, [r4, #52]
 6479 0136 22F40062 		bic	r2, r2, #2048
 6480 013a 5A60     		str	r2, [r3, #4]
 6481 013c 90F83530 		ldrb	r3, [r0, #53]	@ zero_extendqisi2
 6482 0140 012B     		cmp	r3, #1
 6483 0142 4CD0     		beq	.L1490
 6484 0144 4E4B     		ldr	r3, .L1546+8
 6485 0146 0365     		str	r3, [r0, #80]
 6486 0148 FFF7FEFF 		bl	HAL_DMA_Abort_IT
 6487 014c 0028     		cmp	r0, #0
 6488 014e BDD0     		beq	.L1492
 6489 0150 2268     		ldr	r2, [r4]
 6490 0152 606B     		ldr	r0, [r4, #52]
 6491 0154 1368     		ldr	r3, [r2]
 6492 0156 016D     		ldr	r1, [r0, #80]
 6493 0158 23F00103 		bic	r3, r3, #1
 6494 015c 2025     		movs	r5, #32
 6495 015e 1360     		str	r3, [r2]
 6496 0160 84F83D50 		strb	r5, [r4, #61]
 6497 0164 8847     		blx	r1
 6498 0166 B1E7     		b	.L1492
 6499              	.L1466:
 6500 0168 15F4823F 		tst	r5, #66560
 6501 016c C7D1     		bne	.L1467
 6502 016e 66E7     		b	.L1468
 6503              	.L1544:
 6504 0170 002A     		cmp	r2, #0
 6505 0172 CED1     		bne	.L1473
 6506 0174 01F0F702 		and	r2, r1, #247
 6507 0178 212A     		cmp	r2, #33
 6508 017a 03D0     		beq	.L1475
 6509 017c 2829     		cmp	r1, #40
 6510 017e C8D1     		bne	.L1473
 6511 0180 212E     		cmp	r6, #33
 6512 0182 C6D1     		bne	.L1473
 6513              	.L1475:
 6514 0184 94F83D20 		ldrb	r2, [r4, #61]	@ zero_extendqisi2
 6515 0188 E16A     		ldr	r1, [r4, #44]
 6516 018a 0429     		cmp	r1, #4
 6517 018c D2B2     		uxtb	r2, r2
 6518 018e 58D0     		beq	.L1476
 6519 0190 0829     		cmp	r1, #8
 6520 0192 56D0     		beq	.L1476
 6521              	.L1477:
 6522 0194 212A     		cmp	r2, #33
 6523 0196 C4D1     		bne	.L1480
 6524 0198 3849     		ldr	r1, .L1546+4
 6525 019a E162     		str	r1, [r4, #44]
 6526 019c 2020     		movs	r0, #32
 6527 019e 0021     		movs	r1, #0
 6528 01a0 2263     		str	r2, [r4, #48]
 6529 01a2 84F83D00 		strb	r0, [r4, #61]
 6530 01a6 84F83E10 		strb	r1, [r4, #62]
 6531 01aa 5A68     		ldr	r2, [r3, #4]
 6532 01ac 6FF48061 		mvn	r1, #1024
 6533 01b0 22F4E062 		bic	r2, r2, #1792
 6534 01b4 5A60     		str	r2, [r3, #4]
ARM GAS  /tmp/ccWQvKle.s 			page 114


 6535 01b6 5961     		str	r1, [r3, #20]
 6536 01b8 1A68     		ldr	r2, [r3]
 6537 01ba 0A40     		ands	r2, r2, r1
 6538 01bc 1A60     		str	r2, [r3]
 6539 01be 2046     		mov	r0, r4
 6540 01c0 FFF7FEFF 		bl	HAL_I2C_SlaveTxCpltCallback
 6541 01c4 B0E7     		b	.L1478
 6542              	.L1545:
 6543 01c6 1A68     		ldr	r2, [r3]
 6544 01c8 42F40072 		orr	r2, r2, #512
 6545 01cc 1A60     		str	r2, [r3]
 6546 01ce A8E7     		b	.L1480
 6547              	.L1541:
 6548 01d0 0023     		movs	r3, #0
 6549 01d2 2822     		movs	r2, #40
 6550 01d4 2363     		str	r3, [r4, #48]
 6551 01d6 2368     		ldr	r3, [r4]
 6552 01d8 84F83D20 		strb	r2, [r4, #61]
 6553 01dc 5EE7     		b	.L1486
 6554              	.L1490:
 6555 01de A06B     		ldr	r0, [r4, #56]
 6556 01e0 274B     		ldr	r3, .L1546+8
 6557 01e2 0365     		str	r3, [r0, #80]
 6558 01e4 FFF7FEFF 		bl	HAL_DMA_Abort_IT
 6559 01e8 0028     		cmp	r0, #0
 6560 01ea 3FF46FAF 		beq	.L1492
 6561 01ee 2368     		ldr	r3, [r4]
 6562 01f0 5A69     		ldr	r2, [r3, #20]
 6563 01f2 5006     		lsls	r0, r2, #25
 6564 01f4 05D5     		bpl	.L1494
 6565 01f6 626A     		ldr	r2, [r4, #36]
 6566 01f8 1B69     		ldr	r3, [r3, #16]
 6567 01fa 511C     		adds	r1, r2, #1
 6568 01fc 6162     		str	r1, [r4, #36]
 6569 01fe 1370     		strb	r3, [r2]
 6570 0200 2368     		ldr	r3, [r4]
 6571              	.L1494:
 6572 0202 1A68     		ldr	r2, [r3]
 6573 0204 A06B     		ldr	r0, [r4, #56]
 6574 0206 22F00102 		bic	r2, r2, #1
 6575 020a 2021     		movs	r1, #32
 6576 020c 1A60     		str	r2, [r3]
 6577 020e 036D     		ldr	r3, [r0, #80]
 6578 0210 84F83D10 		strb	r1, [r4, #61]
 6579 0214 9847     		blx	r3
 6580 0216 59E7     		b	.L1492
 6581              	.L1543:
 6582 0218 2021     		movs	r1, #32
 6583 021a 84F83D10 		strb	r1, [r4, #61]
 6584 021e 2264     		str	r2, [r4, #64]
 6585 0220 5A69     		ldr	r2, [r3, #20]
 6586 0222 5106     		lsls	r1, r2, #25
 6587 0224 05D5     		bpl	.L1496
 6588 0226 626A     		ldr	r2, [r4, #36]
 6589 0228 1B69     		ldr	r3, [r3, #16]
 6590 022a 511C     		adds	r1, r2, #1
 6591 022c 6162     		str	r1, [r4, #36]
ARM GAS  /tmp/ccWQvKle.s 			page 115


 6592 022e 1370     		strb	r3, [r2]
 6593 0230 2368     		ldr	r3, [r4]
 6594              	.L1496:
 6595 0232 1A68     		ldr	r2, [r3]
 6596 0234 22F00102 		bic	r2, r2, #1
 6597 0238 1A60     		str	r2, [r3]
 6598 023a 2046     		mov	r0, r4
 6599 023c FFF7FEFF 		bl	HAL_I2C_AbortCpltCallback
 6600 0240 44E7     		b	.L1492
 6601              	.L1476:
 6602 0242 282A     		cmp	r2, #40
 6603 0244 A6D1     		bne	.L1477
 6604 0246 0D4A     		ldr	r2, .L1546+4
 6605 0248 E262     		str	r2, [r4, #44]
 6606 024a 5A68     		ldr	r2, [r3, #4]
 6607 024c 6FF48061 		mvn	r1, #1024
 6608 0250 22F4E062 		bic	r2, r2, #1792
 6609 0254 5A60     		str	r2, [r3, #4]
 6610 0256 5961     		str	r1, [r3, #20]
 6611 0258 1A68     		ldr	r2, [r3]
 6612 025a 0021     		movs	r1, #0
 6613 025c 22F48062 		bic	r2, r2, #1024
 6614 0260 2026     		movs	r6, #32
 6615 0262 1A60     		str	r2, [r3]
 6616 0264 2046     		mov	r0, r4
 6617 0266 2163     		str	r1, [r4, #48]
 6618 0268 84F83D60 		strb	r6, [r4, #61]
 6619 026c 84F83E10 		strb	r1, [r4, #62]
 6620 0270 FFF7FEFF 		bl	HAL_I2C_ListenCpltCallback
 6621 0274 58E7     		b	.L1478
 6622              	.L1547:
 6623 0276 00BF     		.align	2
 6624              	.L1546:
 6625 0278 00010100 		.word	65792
 6626 027c 0000FFFF 		.word	-65536
 6627 0280 00000000 		.word	I2C_DMAAbort
 6629              		.section	.text.HAL_I2C_Master_Abort_IT,"ax",%progbits
 6630              		.align	1
 6631              		.p2align 2,,3
 6632              		.global	HAL_I2C_Master_Abort_IT
 6633              		.syntax unified
 6634              		.thumb
 6635              		.thumb_func
 6636              		.fpu fpv4-sp-d16
 6638              	HAL_I2C_Master_Abort_IT:
 6639              		@ args = 0, pretend = 0, frame = 0
 6640              		@ frame_needed = 0, uses_anonymous_args = 0
 6641 0000 38B5     		push	{r3, r4, r5, lr}
 6642 0002 90F83E30 		ldrb	r3, [r0, #62]	@ zero_extendqisi2
 6643 0006 102B     		cmp	r3, #16
 6644 0008 01D0     		beq	.L1582
 6645 000a 0120     		movs	r0, #1
 6646 000c 38BD     		pop	{r3, r4, r5, pc}
 6647              	.L1582:
 6648 000e 90F83C30 		ldrb	r3, [r0, #60]	@ zero_extendqisi2
 6649 0012 012B     		cmp	r3, #1
 6650 0014 01D1     		bne	.L1583
ARM GAS  /tmp/ccWQvKle.s 			page 116


 6651 0016 0220     		movs	r0, #2
 6652 0018 38BD     		pop	{r3, r4, r5, pc}
 6653              	.L1583:
 6654 001a 0368     		ldr	r3, [r0]
 6655 001c 0022     		movs	r2, #0
 6656 001e 6021     		movs	r1, #96
 6657 0020 0263     		str	r2, [r0, #48]
 6658 0022 80F83D10 		strb	r1, [r0, #61]
 6659 0026 1968     		ldr	r1, [r3]
 6660 0028 21F48061 		bic	r1, r1, #1024
 6661 002c 1960     		str	r1, [r3]
 6662 002e 1968     		ldr	r1, [r3]
 6663 0030 41F40071 		orr	r1, r1, #512
 6664 0034 1960     		str	r1, [r3]
 6665 0036 4285     		strh	r2, [r0, #42]	@ movhi
 6666 0038 5968     		ldr	r1, [r3, #4]
 6667 003a 21F4E061 		bic	r1, r1, #1792
 6668 003e 5960     		str	r1, [r3, #4]
 6669 0040 90F83D10 		ldrb	r1, [r0, #61]	@ zero_extendqisi2
 6670 0044 80F83C20 		strb	r2, [r0, #60]
 6671 0048 2939     		subs	r1, r1, #41
 6672 004a 0129     		cmp	r1, #1
 6673 004c 40F28980 		bls	.L1584
 6674 0050 90F83D20 		ldrb	r2, [r0, #61]	@ zero_extendqisi2
 6675 0054 602A     		cmp	r2, #96
 6676 0056 05D0     		beq	.L1552
 6677 0058 5A68     		ldr	r2, [r3, #4]
 6678 005a 1405     		lsls	r4, r2, #20
 6679 005c 5CBF     		itt	pl
 6680 005e 2022     		movpl	r2, #32
 6681 0060 80F83D20 		strbpl	r2, [r0, #61]
 6682              	.L1552:
 6683 0064 0022     		movs	r2, #0
 6684 0066 0263     		str	r2, [r0, #48]
 6685 0068 80F83E20 		strb	r2, [r0, #62]
 6686              	.L1551:
 6687 006c 1A68     		ldr	r2, [r3]
 6688 006e 22F40062 		bic	r2, r2, #2048
 6689 0072 1A60     		str	r2, [r3]
 6690 0074 5A68     		ldr	r2, [r3, #4]
 6691 0076 12F40062 		ands	r2, r2, #2048
 6692 007a 0546     		mov	r5, r0
 6693 007c 19D0     		beq	.L1553
 6694 007e 5A68     		ldr	r2, [r3, #4]
 6695 0080 406B     		ldr	r0, [r0, #52]
 6696 0082 22F40062 		bic	r2, r2, #2048
 6697 0086 5A60     		str	r2, [r3, #4]
 6698 0088 90F83530 		ldrb	r3, [r0, #53]	@ zero_extendqisi2
 6699 008c 012B     		cmp	r3, #1
 6700 008e 3AD0     		beq	.L1554
 6701 0090 364B     		ldr	r3, .L1587
 6702 0092 0365     		str	r3, [r0, #80]
 6703 0094 FFF7FEFF 		bl	HAL_DMA_Abort_IT
 6704 0098 D0B1     		cbz	r0, .L1556
 6705 009a 2A68     		ldr	r2, [r5]
 6706 009c 686B     		ldr	r0, [r5, #52]
 6707 009e 1368     		ldr	r3, [r2]
ARM GAS  /tmp/ccWQvKle.s 			page 117


 6708 00a0 016D     		ldr	r1, [r0, #80]
 6709 00a2 23F00103 		bic	r3, r3, #1
 6710 00a6 2024     		movs	r4, #32
 6711 00a8 1360     		str	r3, [r2]
 6712 00aa 85F83D40 		strb	r4, [r5, #61]
 6713 00ae 8847     		blx	r1
 6714 00b0 0EE0     		b	.L1556
 6715              	.L1553:
 6716 00b2 90F83D10 		ldrb	r1, [r0, #61]	@ zero_extendqisi2
 6717 00b6 6029     		cmp	r1, #96
 6718 00b8 10D0     		beq	.L1585
 6719 00ba 5A69     		ldr	r2, [r3, #20]
 6720 00bc 5206     		lsls	r2, r2, #25
 6721 00be 04D5     		bpl	.L1561
 6722 00c0 426A     		ldr	r2, [r0, #36]
 6723 00c2 1B69     		ldr	r3, [r3, #16]
 6724 00c4 511C     		adds	r1, r2, #1
 6725 00c6 4162     		str	r1, [r0, #36]
 6726 00c8 1370     		strb	r3, [r2]
 6727              	.L1561:
 6728 00ca 2846     		mov	r0, r5
 6729 00cc FFF7FEFF 		bl	HAL_I2C_ErrorCallback
 6730              	.L1556:
 6731 00d0 95F83D30 		ldrb	r3, [r5, #61]	@ zero_extendqisi2
 6732 00d4 282B     		cmp	r3, #40
 6733 00d6 32D0     		beq	.L1586
 6734 00d8 0020     		movs	r0, #0
 6735              	.L1549:
 6736 00da 38BD     		pop	{r3, r4, r5, pc}
 6737              	.L1585:
 6738 00dc 2021     		movs	r1, #32
 6739 00de 80F83D10 		strb	r1, [r0, #61]
 6740 00e2 0264     		str	r2, [r0, #64]
 6741 00e4 5A69     		ldr	r2, [r3, #20]
 6742 00e6 5106     		lsls	r1, r2, #25
 6743 00e8 05D5     		bpl	.L1560
 6744 00ea 426A     		ldr	r2, [r0, #36]
