ARM GAS  /tmp/ccqR1VA4.s 			page 1


   1              		.cpu cortex-m4
   2              		.eabi_attribute 27, 1
   3              		.eabi_attribute 28, 1
   4              		.eabi_attribute 23, 1
   5              		.eabi_attribute 24, 1
   6              		.eabi_attribute 25, 1
   7              		.eabi_attribute 26, 1
   8              		.eabi_attribute 30, 2
   9              		.eabi_attribute 34, 1
  10              		.eabi_attribute 18, 4
  11              		.file	"stm32f4xx_hal_cortex.c"
  12              		.section	.text.HAL_NVIC_SetPriorityGrouping,"ax",%progbits
  13              		.align	1
  14              		.p2align 2,,3
  15              		.global	HAL_NVIC_SetPriorityGrouping
  16              		.syntax unified
  17              		.thumb
  18              		.thumb_func
  19              		.fpu fpv4-sp-d16
  21              	HAL_NVIC_SetPriorityGrouping:
  22              		@ args = 0, pretend = 0, frame = 0
  23              		@ frame_needed = 0, uses_anonymous_args = 0
  24              		@ link register save eliminated.
  25 0000 074A     		ldr	r2, .L2
  26 0002 D368     		ldr	r3, [r2, #12]
  27 0004 4FF6FF01 		movw	r1, #63743
  28 0008 0B40     		ands	r3, r3, r1
  29 000a 0002     		lsls	r0, r0, #8
  30 000c 43F0BF63 		orr	r3, r3, #100139008
  31 0010 00F4E060 		and	r0, r0, #1792
  32 0014 43F40033 		orr	r3, r3, #131072
  33 0018 0343     		orrs	r3, r3, r0
  34 001a D360     		str	r3, [r2, #12]
  35 001c 7047     		bx	lr
  36              	.L3:
  37 001e 00BF     		.align	2
  38              	.L2:
  39 0020 00ED00E0 		.word	-536810240
  41              		.section	.text.HAL_NVIC_SetPriority,"ax",%progbits
  42              		.align	1
  43              		.p2align 2,,3
  44              		.global	HAL_NVIC_SetPriority
  45              		.syntax unified
  46              		.thumb
  47              		.thumb_func
  48              		.fpu fpv4-sp-d16
  50              	HAL_NVIC_SetPriority:
  51              		@ args = 0, pretend = 0, frame = 0
  52              		@ frame_needed = 0, uses_anonymous_args = 0
  53              		@ link register save eliminated.
  54 0000 184B     		ldr	r3, .L12
  55 0002 70B4     		push	{r4, r5, r6}
  56 0004 DC68     		ldr	r4, [r3, #12]
  57 0006 C4F30224 		ubfx	r4, r4, #8, #3
  58 000a C4F10706 		rsb	r6, r4, #7
  59 000e 042E     		cmp	r6, #4
  60 0010 04F10403 		add	r3, r4, #4
ARM GAS  /tmp/ccqR1VA4.s 			page 2


  61 0014 28BF     		it	cs
  62 0016 0426     		movcs	r6, #4
  63 0018 062B     		cmp	r3, #6
  64 001a 17D9     		bls	.L8
  65 001c 033C     		subs	r4, r4, #3
  66 001e 0125     		movs	r5, #1
  67 0020 A540     		lsls	r5, r5, r4
  68 0022 013D     		subs	r5, r5, #1
  69 0024 2A40     		ands	r2, r2, r5
  70              	.L5:
  71 0026 0123     		movs	r3, #1
  72 0028 B340     		lsls	r3, r3, r6
  73 002a 013B     		subs	r3, r3, #1
  74 002c 1940     		ands	r1, r1, r3
  75 002e A140     		lsls	r1, r1, r4
  76 0030 0028     		cmp	r0, #0
  77 0032 41EA0201 		orr	r1, r1, r2
  78 0036 0CDB     		blt	.L11
  79 0038 00F16040 		add	r0, r0, #-536870912
  80 003c 00F56140 		add	r0, r0, #57600
  81 0040 0901     		lsls	r1, r1, #4
  82 0042 C9B2     		uxtb	r1, r1
  83 0044 80F80013 		strb	r1, [r0, #768]
  84 0048 70BC     		pop	{r4, r5, r6}
  85 004a 7047     		bx	lr
  86              	.L8:
  87 004c 0022     		movs	r2, #0
  88 004e 1446     		mov	r4, r2
  89 0050 E9E7     		b	.L5
  90              	.L11:
  91 0052 054B     		ldr	r3, .L12+4
  92 0054 00F00F00 		and	r0, r0, #15
  93 0058 0901     		lsls	r1, r1, #4
  94 005a 0344     		add	r3, r3, r0
  95 005c C9B2     		uxtb	r1, r1
  96 005e 1976     		strb	r1, [r3, #24]
  97 0060 70BC     		pop	{r4, r5, r6}
  98 0062 7047     		bx	lr
  99              	.L13:
 100              		.align	2
 101              	.L12:
 102 0064 00ED00E0 		.word	-536810240
 103 0068 FCEC00E0 		.word	-536810244
 105              		.section	.text.HAL_NVIC_EnableIRQ,"ax",%progbits
 106              		.align	1
 107              		.p2align 2,,3
 108              		.global	HAL_NVIC_EnableIRQ
 109              		.syntax unified
 110              		.thumb
 111              		.thumb_func
 112              		.fpu fpv4-sp-d16
 114              	HAL_NVIC_EnableIRQ:
 115              		@ args = 0, pretend = 0, frame = 0
 116              		@ frame_needed = 0, uses_anonymous_args = 0
 117              		@ link register save eliminated.
 118 0000 00F01F01 		and	r1, r0, #31
 119 0004 0123     		movs	r3, #1
ARM GAS  /tmp/ccqR1VA4.s 			page 3


 120 0006 4009     		lsrs	r0, r0, #5
 121 0008 024A     		ldr	r2, .L15
 122 000a 8B40     		lsls	r3, r3, r1
 123 000c 42F82030 		str	r3, [r2, r0, lsl #2]
 124 0010 7047     		bx	lr
 125              	.L16:
 126 0012 00BF     		.align	2
 127              	.L15:
 128 0014 00E100E0 		.word	-536813312
 130              		.section	.text.HAL_NVIC_DisableIRQ,"ax",%progbits
 131              		.align	1
 132              		.p2align 2,,3
 133              		.global	HAL_NVIC_DisableIRQ
 134              		.syntax unified
 135              		.thumb
 136              		.thumb_func
 137              		.fpu fpv4-sp-d16
 139              	HAL_NVIC_DisableIRQ:
 140              		@ args = 0, pretend = 0, frame = 0
 141              		@ frame_needed = 0, uses_anonymous_args = 0
 142              		@ link register save eliminated.
 143 0000 4309     		lsrs	r3, r0, #5
 144 0002 2033     		adds	r3, r3, #32
 145 0004 00F01F00 		and	r0, r0, #31
 146 0008 0122     		movs	r2, #1
 147 000a 0349     		ldr	r1, .L18
 148 000c 02FA00F0 		lsl	r0, r2, r0
 149 0010 41F82300 		str	r0, [r1, r3, lsl #2]
 150 0014 7047     		bx	lr
 151              	.L19:
 152 0016 00BF     		.align	2
 153              	.L18:
 154 0018 00E100E0 		.word	-536813312
 156              		.section	.text.HAL_NVIC_SystemReset,"ax",%progbits
 157              		.align	1
 158              		.p2align 2,,3
 159              		.global	HAL_NVIC_SystemReset
 160              		.syntax unified
 161              		.thumb
 162              		.thumb_func
 163              		.fpu fpv4-sp-d16
 165              	HAL_NVIC_SystemReset:
 166              		@ Volatile: function does not return.
 167              		@ args = 0, pretend = 0, frame = 0
 168              		@ frame_needed = 0, uses_anonymous_args = 0
 169              		@ link register save eliminated.
 170              		.syntax unified
 171              	@ 429 "Drivers/CMSIS/Include/cmsis_gcc.h" 1
 172 0000 BFF34F8F 		dsb 0xF
 173              	@ 0 "" 2
 174              		.thumb
 175              		.syntax unified
 176 0004 0549     		ldr	r1, .L22
 177 0006 064B     		ldr	r3, .L22+4
 178 0008 CA68     		ldr	r2, [r1, #12]
 179 000a 02F4E062 		and	r2, r2, #1792
 180 000e 1343     		orrs	r3, r3, r2
ARM GAS  /tmp/ccqR1VA4.s 			page 4


 181 0010 CB60     		str	r3, [r1, #12]
 182              		.syntax unified
 183              	@ 429 "Drivers/CMSIS/Include/cmsis_gcc.h" 1
 184 0012 BFF34F8F 		dsb 0xF
 185              	@ 0 "" 2
 186              		.thumb
 187              		.syntax unified
 188              	.L21:
 189              		.syntax unified
 190              	@ 375 "Drivers/CMSIS/Include/cmsis_gcc.h" 1
 191 0016 00BF     		nop
 192              	@ 0 "" 2
 193              		.thumb
 194              		.syntax unified
 195 0018 FDE7     		b	.L21
 196              	.L23:
 197 001a 00BF     		.align	2
 198              	.L22:
 199 001c 00ED00E0 		.word	-536810240
 200 0020 0400FA05 		.word	100270084
 202              		.section	.text.HAL_SYSTICK_Config,"ax",%progbits
 203              		.align	1
 204              		.p2align 2,,3
 205              		.global	HAL_SYSTICK_Config
 206              		.syntax unified
 207              		.thumb
 208              		.thumb_func
 209              		.fpu fpv4-sp-d16
 211              	HAL_SYSTICK_Config:
 212              		@ args = 0, pretend = 0, frame = 0
 213              		@ frame_needed = 0, uses_anonymous_args = 0
 214              		@ link register save eliminated.
 215 0000 0138     		subs	r0, r0, #1
 216 0002 B0F1807F 		cmp	r0, #16777216
 217 0006 0ED2     		bcs	.L26
 218 0008 084B     		ldr	r3, .L31
 219 000a 10B4     		push	{r4}
 220 000c 084C     		ldr	r4, .L31+4
 221 000e 5860     		str	r0, [r3, #4]
 222 0010 F020     		movs	r0, #240
 223 0012 84F82300 		strb	r0, [r4, #35]
 224 0016 0022     		movs	r2, #0
 225 0018 0721     		movs	r1, #7
 226 001a 1046     		mov	r0, r2
 227 001c 9A60     		str	r2, [r3, #8]
 228 001e 1960     		str	r1, [r3]
 229 0020 5DF8044B 		ldr	r4, [sp], #4
 230 0024 7047     		bx	lr
 231              	.L26:
 232 0026 0120     		movs	r0, #1
 233 0028 7047     		bx	lr
 234              	.L32:
 235 002a 00BF     		.align	2
 236              	.L31:
 237 002c 10E000E0 		.word	-536813552
 238 0030 00ED00E0 		.word	-536810240
 240              		.section	.text.HAL_MPU_ConfigRegion,"ax",%progbits
ARM GAS  /tmp/ccqR1VA4.s 			page 5


 241              		.align	1
 242              		.p2align 2,,3
 243              		.global	HAL_MPU_ConfigRegion
 244              		.syntax unified
 245              		.thumb
 246              		.thumb_func
 247              		.fpu fpv4-sp-d16
 249              	HAL_MPU_ConfigRegion:
 250              		@ args = 0, pretend = 0, frame = 0
 251              		@ frame_needed = 0, uses_anonymous_args = 0
 252              		@ link register save eliminated.
 253 0000 1349     		ldr	r1, .L38
 254 0002 4378     		ldrb	r3, [r0, #1]	@ zero_extendqisi2
 255 0004 F0B4     		push	{r4, r5, r6, r7}
 256 0006 8B60     		str	r3, [r1, #8]
 257 0008 0478     		ldrb	r4, [r0]	@ zero_extendqisi2
 258 000a 1CB9     		cbnz	r4, .L37
 259 000c CC60     		str	r4, [r1, #12]
 260 000e 0C61     		str	r4, [r1, #16]
 261 0010 F0BC     		pop	{r4, r5, r6, r7}
 262 0012 7047     		bx	lr
 263              	.L37:
 264 0014 4368     		ldr	r3, [r0, #4]
 265 0016 CB60     		str	r3, [r1, #12]
 266 0018 C27A     		ldrb	r2, [r0, #11]	@ zero_extendqisi2
 267 001a 037B     		ldrb	r3, [r0, #12]	@ zero_extendqisi2
 268 001c 877A     		ldrb	r7, [r0, #10]	@ zero_extendqisi2
 269 001e 457B     		ldrb	r5, [r0, #13]	@ zero_extendqisi2
 270 0020 867B     		ldrb	r6, [r0, #14]	@ zero_extendqisi2
 271 0022 1206     		lsls	r2, r2, #24
 272 0024 42EA0373 		orr	r3, r2, r3, lsl #28
 273 0028 2343     		orrs	r3, r3, r4
 274 002a 43EAC743 		orr	r3, r3, r7, lsl #19
 275 002e 43EA8543 		orr	r3, r3, r5, lsl #18
 276 0032 C57B     		ldrb	r5, [r0, #15]	@ zero_extendqisi2
 277 0034 447A     		ldrb	r4, [r0, #9]	@ zero_extendqisi2
 278 0036 027A     		ldrb	r2, [r0, #8]	@ zero_extendqisi2
 279 0038 43EA4643 		orr	r3, r3, r6, lsl #17
 280 003c 43EA0543 		orr	r3, r3, r5, lsl #16
 281 0040 43EA0423 		orr	r3, r3, r4, lsl #8
 282 0044 43EA4203 		orr	r3, r3, r2, lsl #1
 283 0048 0B61     		str	r3, [r1, #16]
 284 004a F0BC     		pop	{r4, r5, r6, r7}
 285 004c 7047     		bx	lr
 286              	.L39:
 287 004e 00BF     		.align	2
 288              	.L38:
 289 0050 90ED00E0 		.word	-536810096
 291              		.section	.text.HAL_NVIC_GetPriorityGrouping,"ax",%progbits
 292              		.align	1
 293              		.p2align 2,,3
 294              		.global	HAL_NVIC_GetPriorityGrouping
 295              		.syntax unified
 296              		.thumb
 297              		.thumb_func
 298              		.fpu fpv4-sp-d16
 300              	HAL_NVIC_GetPriorityGrouping:
ARM GAS  /tmp/ccqR1VA4.s 			page 6


 301              		@ args = 0, pretend = 0, frame = 0
 302              		@ frame_needed = 0, uses_anonymous_args = 0
 303              		@ link register save eliminated.
 304 0000 024B     		ldr	r3, .L41
 305 0002 D868     		ldr	r0, [r3, #12]
 306 0004 C0F30220 		ubfx	r0, r0, #8, #3
 307 0008 7047     		bx	lr
 308              	.L42:
 309 000a 00BF     		.align	2
 310              	.L41:
 311 000c 00ED00E0 		.word	-536810240
 313              		.section	.text.HAL_NVIC_GetPriority,"ax",%progbits
 314              		.align	1
 315              		.p2align 2,,3
 316              		.global	HAL_NVIC_GetPriority
 317              		.syntax unified
 318              		.thumb
 319              		.thumb_func
 320              		.fpu fpv4-sp-d16
 322              	HAL_NVIC_GetPriority:
 323              		@ args = 0, pretend = 0, frame = 0
 324              		@ frame_needed = 0, uses_anonymous_args = 0
 325              		@ link register save eliminated.
 326 0000 0028     		cmp	r0, #0
 327 0002 70B4     		push	{r4, r5, r6}
 328 0004 22DB     		blt	.L49
 329 0006 00F16040 		add	r0, r0, #-536870912
 330 000a 00F56140 		add	r0, r0, #57600
 331 000e 90F80043 		ldrb	r4, [r0, #768]	@ zero_extendqisi2
 332 0012 2409     		lsrs	r4, r4, #4
 333              	.L45:
 334 0014 01F00701 		and	r1, r1, #7
 335 0018 C1F10706 		rsb	r6, r1, #7
 336 001c 042E     		cmp	r6, #4
 337 001e 01F10400 		add	r0, r1, #4
 338 0022 28BF     		it	cs
 339 0024 0426     		movcs	r6, #4
 340 0026 0628     		cmp	r0, #6
 341 0028 0DD9     		bls	.L47
 342 002a 0339     		subs	r1, r1, #3
 343 002c 0125     		movs	r5, #1
 344 002e 8D40     		lsls	r5, r5, r1
 345 0030 013D     		subs	r5, r5, #1
 346 0032 2540     		ands	r5, r5, r4
 347              	.L46:
 348 0034 0120     		movs	r0, #1
 349 0036 B040     		lsls	r0, r0, r6
 350 0038 CC40     		lsrs	r4, r4, r1
 351 003a 411E     		subs	r1, r0, #1
 352 003c 2140     		ands	r1, r1, r4
 353 003e 1160     		str	r1, [r2]
 354 0040 1D60     		str	r5, [r3]
 355 0042 70BC     		pop	{r4, r5, r6}
 356 0044 7047     		bx	lr
 357              	.L47:
 358 0046 0025     		movs	r5, #0
 359 0048 2946     		mov	r1, r5
ARM GAS  /tmp/ccqR1VA4.s 			page 7


 360 004a F3E7     		b	.L46
 361              	.L49:
 362 004c 034C     		ldr	r4, .L50
 363 004e 00F00F00 		and	r0, r0, #15
 364 0052 0444     		add	r4, r4, r0
 365 0054 247E     		ldrb	r4, [r4, #24]	@ zero_extendqisi2
 366 0056 2409     		lsrs	r4, r4, #4
 367 0058 DCE7     		b	.L45
 368              	.L51:
 369 005a 00BF     		.align	2
 370              	.L50:
 371 005c FCEC00E0 		.word	-536810244
 373              		.section	.text.HAL_NVIC_SetPendingIRQ,"ax",%progbits
 374              		.align	1
 375              		.p2align 2,,3
 376              		.global	HAL_NVIC_SetPendingIRQ
 377              		.syntax unified
 378              		.thumb
 379              		.thumb_func
 380              		.fpu fpv4-sp-d16
 382              	HAL_NVIC_SetPendingIRQ:
 383              		@ args = 0, pretend = 0, frame = 0
 384              		@ frame_needed = 0, uses_anonymous_args = 0
 385              		@ link register save eliminated.
 386 0000 4309     		lsrs	r3, r0, #5
 387 0002 4033     		adds	r3, r3, #64
 388 0004 00F01F00 		and	r0, r0, #31
 389 0008 0122     		movs	r2, #1
 390 000a 0349     		ldr	r1, .L53
 391 000c 02FA00F0 		lsl	r0, r2, r0
 392 0010 41F82300 		str	r0, [r1, r3, lsl #2]
 393 0014 7047     		bx	lr
 394              	.L54:
 395 0016 00BF     		.align	2
 396              	.L53:
 397 0018 00E100E0 		.word	-536813312
 399              		.section	.text.HAL_NVIC_GetPendingIRQ,"ax",%progbits
 400              		.align	1
 401              		.p2align 2,,3
 402              		.global	HAL_NVIC_GetPendingIRQ
 403              		.syntax unified
 404              		.thumb
 405              		.thumb_func
 406              		.fpu fpv4-sp-d16
 408              	HAL_NVIC_GetPendingIRQ:
 409              		@ args = 0, pretend = 0, frame = 0
 410              		@ frame_needed = 0, uses_anonymous_args = 0
 411              		@ link register save eliminated.
 412 0000 4309     		lsrs	r3, r0, #5
 413 0002 054A     		ldr	r2, .L56
 414 0004 4033     		adds	r3, r3, #64
 415 0006 00F01F00 		and	r0, r0, #31
 416 000a 52F82330 		ldr	r3, [r2, r3, lsl #2]
 417 000e 23FA00F0 		lsr	r0, r3, r0
 418 0012 00F00100 		and	r0, r0, #1
 419 0016 7047     		bx	lr
 420              	.L57:
ARM GAS  /tmp/ccqR1VA4.s 			page 8


 421              		.align	2
 422              	.L56:
 423 0018 00E100E0 		.word	-536813312
 425              		.section	.text.HAL_NVIC_ClearPendingIRQ,"ax",%progbits
 426              		.align	1
 427              		.p2align 2,,3
 428              		.global	HAL_NVIC_ClearPendingIRQ
 429              		.syntax unified
 430              		.thumb
 431              		.thumb_func
 432              		.fpu fpv4-sp-d16
 434              	HAL_NVIC_ClearPendingIRQ:
 435              		@ args = 0, pretend = 0, frame = 0
 436              		@ frame_needed = 0, uses_anonymous_args = 0
 437              		@ link register save eliminated.
 438 0000 4309     		lsrs	r3, r0, #5
 439 0002 6033     		adds	r3, r3, #96
 440 0004 00F01F00 		and	r0, r0, #31
 441 0008 0122     		movs	r2, #1
 442 000a 0349     		ldr	r1, .L59
 443 000c 02FA00F0 		lsl	r0, r2, r0
 444 0010 41F82300 		str	r0, [r1, r3, lsl #2]
 445 0014 7047     		bx	lr
 446              	.L60:
 447 0016 00BF     		.align	2
 448              	.L59:
 449 0018 00E100E0 		.word	-536813312
 451              		.section	.text.HAL_NVIC_GetActive,"ax",%progbits
 452              		.align	1
 453              		.p2align 2,,3
 454              		.global	HAL_NVIC_GetActive
 455              		.syntax unified
 456              		.thumb
 457              		.thumb_func
 458              		.fpu fpv4-sp-d16
 460              	HAL_NVIC_GetActive:
 461              		@ args = 0, pretend = 0, frame = 0
 462              		@ frame_needed = 0, uses_anonymous_args = 0
 463              		@ link register save eliminated.
 464 0000 4309     		lsrs	r3, r0, #5
 465 0002 054A     		ldr	r2, .L62
 466 0004 8033     		adds	r3, r3, #128
 467 0006 00F01F00 		and	r0, r0, #31
 468 000a 52F82330 		ldr	r3, [r2, r3, lsl #2]
 469 000e 23FA00F0 		lsr	r0, r3, r0
 470 0012 00F00100 		and	r0, r0, #1
 471 0016 7047     		bx	lr
 472              	.L63:
 473              		.align	2
 474              	.L62:
 475 0018 00E100E0 		.word	-536813312
 477              		.section	.text.HAL_SYSTICK_CLKSourceConfig,"ax",%progbits
 478              		.align	1
 479              		.p2align 2,,3
 480              		.global	HAL_SYSTICK_CLKSourceConfig
 481              		.syntax unified
 482              		.thumb
ARM GAS  /tmp/ccqR1VA4.s 			page 9


 483              		.thumb_func
 484              		.fpu fpv4-sp-d16
 486              	HAL_SYSTICK_CLKSourceConfig:
 487              		@ args = 0, pretend = 0, frame = 0
 488              		@ frame_needed = 0, uses_anonymous_args = 0
 489              		@ link register save eliminated.
 490 0000 044A     		ldr	r2, .L67
 491 0002 1368     		ldr	r3, [r2]
 492 0004 0428     		cmp	r0, #4
 493 0006 0CBF     		ite	eq
 494 0008 43F00403 		orreq	r3, r3, #4
 495 000c 23F00403 		bicne	r3, r3, #4
 496 0010 1360     		str	r3, [r2]
 497 0012 7047     		bx	lr
 498              	.L68:
 499              		.align	2
 500              	.L67:
 501 0014 10E000E0 		.word	-536813552
 503              		.section	.text.HAL_SYSTICK_Callback,"ax",%progbits
 504              		.align	1
 505              		.p2align 2,,3
 506              		.weak	HAL_SYSTICK_Callback
 507              		.syntax unified
 508              		.thumb
 509              		.thumb_func
 510              		.fpu fpv4-sp-d16
 512              	HAL_SYSTICK_Callback:
 513              		@ args = 0, pretend = 0, frame = 0
 514              		@ frame_needed = 0, uses_anonymous_args = 0
 515              		@ link register save eliminated.
 516 0000 7047     		bx	lr
 518 0002 00BF     		.section	.text.HAL_SYSTICK_IRQHandler,"ax",%progbits
 519              		.align	1
 520              		.p2align 2,,3
 521              		.global	HAL_SYSTICK_IRQHandler
 522              		.syntax unified
 523              		.thumb
 524              		.thumb_func
 525              		.fpu fpv4-sp-d16
 527              	HAL_SYSTICK_IRQHandler:
 528              		@ args = 0, pretend = 0, frame = 0
 529              		@ frame_needed = 0, uses_anonymous_args = 0
 530 0000 08B5     		push	{r3, lr}
 531 0002 FFF7FEFF 		bl	HAL_SYSTICK_Callback
 532 0006 08BD     		pop	{r3, pc}
 534              		.ident	"GCC: (Arch Repository) 6.3.0"
ARM GAS  /tmp/ccqR1VA4.s 			page 10

