ARM GAS  /tmp/ccR39qxo.s 			page 1


   1              		.cpu cortex-m4
   2              		.eabi_attribute 27, 1
   3              		.eabi_attribute 28, 1
   4              		.eabi_attribute 23, 1
   5              		.eabi_attribute 24, 1
   6              		.eabi_attribute 25, 1
   7              		.eabi_attribute 26, 1
   8              		.eabi_attribute 30, 2
   9              		.eabi_attribute 34, 1
  10              		.eabi_attribute 18, 4
  11              		.file	"stm32f4xx_hal_tim_ex.c"
  12              		.section	.text.HAL_TIMEx_HallSensor_MspInit,"ax",%progbits
  13              		.align	1
  14              		.p2align 2,,3
  15              		.weak	HAL_TIMEx_HallSensor_MspInit
  16              		.syntax unified
  17              		.thumb
  18              		.thumb_func
  19              		.fpu fpv4-sp-d16
  21              	HAL_TIMEx_HallSensor_MspInit:
  22              		@ args = 0, pretend = 0, frame = 0
  23              		@ frame_needed = 0, uses_anonymous_args = 0
  24              		@ link register save eliminated.
  25 0000 7047     		bx	lr
  27 0002 00BF     		.section	.text.HAL_TIMEx_HallSensor_Init,"ax",%progbits
  28              		.align	1
  29              		.p2align 2,,3
  30              		.global	HAL_TIMEx_HallSensor_Init
  31              		.syntax unified
  32              		.thumb
  33              		.thumb_func
  34              		.fpu fpv4-sp-d16
  36              	HAL_TIMEx_HallSensor_Init:
  37              		@ args = 0, pretend = 0, frame = 32
  38              		@ frame_needed = 0, uses_anonymous_args = 0
  39 0000 0028     		cmp	r0, #0
  40 0002 4BD0     		beq	.L4
  41 0004 70B5     		push	{r4, r5, r6, lr}
  42 0006 0223     		movs	r3, #2
  43 0008 0446     		mov	r4, r0
  44 000a 88B0     		sub	sp, sp, #32
  45 000c 0D46     		mov	r5, r1
  46 000e 80F83930 		strb	r3, [r0, #57]
  47 0012 FFF7FEFF 		bl	HAL_TIMEx_HallSensor_MspInit
  48 0016 211D     		adds	r1, r4, #4
  49 0018 2068     		ldr	r0, [r4]
  50 001a FFF7FEFF 		bl	TIM_Base_SetConfig
  51 001e AB68     		ldr	r3, [r5, #8]
  52 0020 2968     		ldr	r1, [r5]
  53 0022 2068     		ldr	r0, [r4]
  54 0024 0322     		movs	r2, #3
  55 0026 FFF7FEFF 		bl	TIM_TI1_SetConfig
  56 002a 2068     		ldr	r0, [r4]
  57 002c 6E68     		ldr	r6, [r5, #4]
  58 002e 8269     		ldr	r2, [r0, #24]
  59 0030 E968     		ldr	r1, [r5, #12]
  60 0032 22F00C02 		bic	r2, r2, #12
ARM GAS  /tmp/ccR39qxo.s 			page 2


  61 0036 8261     		str	r2, [r0, #24]
  62 0038 8369     		ldr	r3, [r0, #24]
  63 003a 3343     		orrs	r3, r3, r6
  64 003c 8361     		str	r3, [r0, #24]
  65 003e 4368     		ldr	r3, [r0, #4]
  66 0040 43F08003 		orr	r3, r3, #128
  67 0044 4360     		str	r3, [r0, #4]
  68 0046 8368     		ldr	r3, [r0, #8]
  69 0048 0291     		str	r1, [sp, #8]
  70 004a 23F07003 		bic	r3, r3, #112
  71 004e 8360     		str	r3, [r0, #8]
  72 0050 8368     		ldr	r3, [r0, #8]
  73 0052 43F04003 		orr	r3, r3, #64
  74 0056 8360     		str	r3, [r0, #8]
  75 0058 8368     		ldr	r3, [r0, #8]
  76 005a 23F00703 		bic	r3, r3, #7
  77 005e 8360     		str	r3, [r0, #8]
  78 0060 8368     		ldr	r3, [r0, #8]
  79 0062 43F00403 		orr	r3, r3, #4
  80 0066 8360     		str	r3, [r0, #8]
  81 0068 0025     		movs	r5, #0
  82 006a 7023     		movs	r3, #112
  83 006c 01A9     		add	r1, sp, #4
  84 006e 0193     		str	r3, [sp, #4]
  85 0070 0595     		str	r5, [sp, #20]
  86 0072 0695     		str	r5, [sp, #24]
  87 0074 0795     		str	r5, [sp, #28]
  88 0076 0495     		str	r5, [sp, #16]
  89 0078 0395     		str	r5, [sp, #12]
  90 007a FFF7FEFF 		bl	TIM_OC2_SetConfig
  91 007e 2368     		ldr	r3, [r4]
  92 0080 5A68     		ldr	r2, [r3, #4]
  93 0082 22F07002 		bic	r2, r2, #112
  94 0086 5A60     		str	r2, [r3, #4]
  95 0088 5A68     		ldr	r2, [r3, #4]
  96 008a 0121     		movs	r1, #1
  97 008c 42F05002 		orr	r2, r2, #80
  98 0090 2846     		mov	r0, r5
  99 0092 5A60     		str	r2, [r3, #4]
 100 0094 84F83910 		strb	r1, [r4, #57]
 101 0098 08B0     		add	sp, sp, #32
 102              		@ sp needed
 103 009a 70BD     		pop	{r4, r5, r6, pc}
 104              	.L4:
 105 009c 0120     		movs	r0, #1
 106 009e 7047     		bx	lr
 108              		.section	.text.HAL_TIMEx_HallSensor_MspDeInit,"ax",%progbits
 109              		.align	1
 110              		.p2align 2,,3
 111              		.weak	HAL_TIMEx_HallSensor_MspDeInit
 112              		.syntax unified
 113              		.thumb
 114              		.thumb_func
 115              		.fpu fpv4-sp-d16
 117              	HAL_TIMEx_HallSensor_MspDeInit:
 118              		@ args = 0, pretend = 0, frame = 0
 119              		@ frame_needed = 0, uses_anonymous_args = 0
ARM GAS  /tmp/ccR39qxo.s 			page 3


 120              		@ link register save eliminated.
 121 0000 7047     		bx	lr
 123 0002 00BF     		.section	.text.HAL_TIMEx_HallSensor_DeInit,"ax",%progbits
 124              		.align	1
 125              		.p2align 2,,3
 126              		.global	HAL_TIMEx_HallSensor_DeInit
 127              		.syntax unified
 128              		.thumb
 129              		.thumb_func
 130              		.fpu fpv4-sp-d16
 132              	HAL_TIMEx_HallSensor_DeInit:
 133              		@ args = 0, pretend = 0, frame = 0
 134              		@ frame_needed = 0, uses_anonymous_args = 0
 135 0000 0222     		movs	r2, #2
 136 0002 0368     		ldr	r3, [r0]
 137 0004 10B5     		push	{r4, lr}
 138 0006 80F83920 		strb	r2, [r0, #57]
 139 000a 196A     		ldr	r1, [r3, #32]
 140 000c 41F21112 		movw	r2, #4369
 141 0010 1142     		tst	r1, r2
 142 0012 0446     		mov	r4, r0
 143 0014 08D1     		bne	.L12
 144 0016 196A     		ldr	r1, [r3, #32]
 145 0018 40F24442 		movw	r2, #1092
 146 001c 1142     		tst	r1, r2
 147 001e 03D1     		bne	.L12
 148 0020 1A68     		ldr	r2, [r3]
 149 0022 22F00102 		bic	r2, r2, #1
 150 0026 1A60     		str	r2, [r3]
 151              	.L12:
 152 0028 2046     		mov	r0, r4
 153 002a FFF7FEFF 		bl	HAL_TIMEx_HallSensor_MspDeInit
 154 002e 0020     		movs	r0, #0
 155 0030 84F83900 		strb	r0, [r4, #57]
 156 0034 84F83800 		strb	r0, [r4, #56]
 157 0038 10BD     		pop	{r4, pc}
 159 003a 00BF     		.section	.text.HAL_TIMEx_HallSensor_Start,"ax",%progbits
 160              		.align	1
 161              		.p2align 2,,3
 162              		.global	HAL_TIMEx_HallSensor_Start
 163              		.syntax unified
 164              		.thumb
 165              		.thumb_func
 166              		.fpu fpv4-sp-d16
 168              	HAL_TIMEx_HallSensor_Start:
 169              		@ args = 0, pretend = 0, frame = 0
 170              		@ frame_needed = 0, uses_anonymous_args = 0
 171 0000 10B5     		push	{r4, lr}
 172 0002 0446     		mov	r4, r0
 173 0004 0122     		movs	r2, #1
 174 0006 0068     		ldr	r0, [r0]
 175 0008 0021     		movs	r1, #0
 176 000a FFF7FEFF 		bl	TIM_CCxChannelCmd
 177 000e 2268     		ldr	r2, [r4]
 178 0010 1368     		ldr	r3, [r2]
 179 0012 43F00103 		orr	r3, r3, #1
 180 0016 1360     		str	r3, [r2]
ARM GAS  /tmp/ccR39qxo.s 			page 4


 181 0018 0020     		movs	r0, #0
 182 001a 10BD     		pop	{r4, pc}
 184              		.section	.text.HAL_TIMEx_HallSensor_Stop,"ax",%progbits
 185              		.align	1
 186              		.p2align 2,,3
 187              		.global	HAL_TIMEx_HallSensor_Stop
 188              		.syntax unified
 189              		.thumb
 190              		.thumb_func
 191              		.fpu fpv4-sp-d16
 193              	HAL_TIMEx_HallSensor_Stop:
 194              		@ args = 0, pretend = 0, frame = 0
 195              		@ frame_needed = 0, uses_anonymous_args = 0
 196 0000 0022     		movs	r2, #0
 197 0002 10B5     		push	{r4, lr}
 198 0004 0446     		mov	r4, r0
 199 0006 1146     		mov	r1, r2
 200 0008 0068     		ldr	r0, [r0]
 201 000a FFF7FEFF 		bl	TIM_CCxChannelCmd
 202 000e 2368     		ldr	r3, [r4]
 203 0010 196A     		ldr	r1, [r3, #32]
 204 0012 41F21112 		movw	r2, #4369
 205 0016 1142     		tst	r1, r2
 206 0018 08D1     		bne	.L17
 207 001a 196A     		ldr	r1, [r3, #32]
 208 001c 40F24442 		movw	r2, #1092
 209 0020 1142     		tst	r1, r2
 210 0022 03D1     		bne	.L17
 211 0024 1A68     		ldr	r2, [r3]
 212 0026 22F00102 		bic	r2, r2, #1
 213 002a 1A60     		str	r2, [r3]
 214              	.L17:
 215 002c 0020     		movs	r0, #0
 216 002e 10BD     		pop	{r4, pc}
 218              		.section	.text.HAL_TIMEx_HallSensor_Start_IT,"ax",%progbits
 219              		.align	1
 220              		.p2align 2,,3
 221              		.global	HAL_TIMEx_HallSensor_Start_IT
 222              		.syntax unified
 223              		.thumb
 224              		.thumb_func
 225              		.fpu fpv4-sp-d16
 227              	HAL_TIMEx_HallSensor_Start_IT:
 228              		@ args = 0, pretend = 0, frame = 0
 229              		@ frame_needed = 0, uses_anonymous_args = 0
 230 0000 10B5     		push	{r4, lr}
 231 0002 0446     		mov	r4, r0
 232 0004 0068     		ldr	r0, [r0]
 233 0006 C368     		ldr	r3, [r0, #12]
 234 0008 43F00203 		orr	r3, r3, #2
 235 000c C360     		str	r3, [r0, #12]
 236 000e 0122     		movs	r2, #1
 237 0010 0021     		movs	r1, #0
 238 0012 FFF7FEFF 		bl	TIM_CCxChannelCmd
 239 0016 2268     		ldr	r2, [r4]
 240 0018 1368     		ldr	r3, [r2]
 241 001a 43F00103 		orr	r3, r3, #1
ARM GAS  /tmp/ccR39qxo.s 			page 5


 242 001e 1360     		str	r3, [r2]
 243 0020 0020     		movs	r0, #0
 244 0022 10BD     		pop	{r4, pc}
 246              		.section	.text.HAL_TIMEx_HallSensor_Stop_IT,"ax",%progbits
 247              		.align	1
 248              		.p2align 2,,3
 249              		.global	HAL_TIMEx_HallSensor_Stop_IT
 250              		.syntax unified
 251              		.thumb
 252              		.thumb_func
 253              		.fpu fpv4-sp-d16
 255              	HAL_TIMEx_HallSensor_Stop_IT:
 256              		@ args = 0, pretend = 0, frame = 0
 257              		@ frame_needed = 0, uses_anonymous_args = 0
 258 0000 0022     		movs	r2, #0
 259 0002 10B5     		push	{r4, lr}
 260 0004 0446     		mov	r4, r0
 261 0006 1146     		mov	r1, r2
 262 0008 0068     		ldr	r0, [r0]
 263 000a FFF7FEFF 		bl	TIM_CCxChannelCmd
 264 000e 2368     		ldr	r3, [r4]
 265 0010 DA68     		ldr	r2, [r3, #12]
 266 0012 22F00202 		bic	r2, r2, #2
 267 0016 DA60     		str	r2, [r3, #12]
 268 0018 196A     		ldr	r1, [r3, #32]
 269 001a 41F21112 		movw	r2, #4369
 270 001e 1142     		tst	r1, r2
 271 0020 08D1     		bne	.L22
 272 0022 196A     		ldr	r1, [r3, #32]
 273 0024 40F24442 		movw	r2, #1092
 274 0028 1142     		tst	r1, r2
 275 002a 03D1     		bne	.L22
 276 002c 1A68     		ldr	r2, [r3]
 277 002e 22F00102 		bic	r2, r2, #1
 278 0032 1A60     		str	r2, [r3]
 279              	.L22:
 280 0034 0020     		movs	r0, #0
 281 0036 10BD     		pop	{r4, pc}
 283              		.section	.text.HAL_TIMEx_HallSensor_Start_DMA,"ax",%progbits
 284              		.align	1
 285              		.p2align 2,,3
 286              		.global	HAL_TIMEx_HallSensor_Start_DMA
 287              		.syntax unified
 288              		.thumb
 289              		.thumb_func
 290              		.fpu fpv4-sp-d16
 292              	HAL_TIMEx_HallSensor_Start_DMA:
 293              		@ args = 0, pretend = 0, frame = 0
 294              		@ frame_needed = 0, uses_anonymous_args = 0
 295 0000 F8B5     		push	{r3, r4, r5, r6, r7, lr}
 296 0002 90F83940 		ldrb	r4, [r0, #57]	@ zero_extendqisi2
 297 0006 E4B2     		uxtb	r4, r4
 298 0008 022C     		cmp	r4, #2
 299 000a 28D0     		beq	.L30
 300 000c 90F83940 		ldrb	r4, [r0, #57]	@ zero_extendqisi2
 301 0010 E4B2     		uxtb	r4, r4
 302 0012 012C     		cmp	r4, #1
ARM GAS  /tmp/ccR39qxo.s 			page 6


 303 0014 1DD0     		beq	.L32
 304              	.L27:
 305 0016 0446     		mov	r4, r0
 306 0018 1646     		mov	r6, r2
 307 001a 0D46     		mov	r5, r1
 308 001c 0122     		movs	r2, #1
 309 001e 0021     		movs	r1, #0
 310 0020 0068     		ldr	r0, [r0]
 311 0022 104F     		ldr	r7, .L33
 312 0024 FFF7FEFF 		bl	TIM_CCxChannelCmd
 313 0028 2168     		ldr	r1, [r4]
 314 002a 206A     		ldr	r0, [r4, #32]
 315 002c 0E4B     		ldr	r3, .L33+4
 316 002e C363     		str	r3, [r0, #60]
 317 0030 2A46     		mov	r2, r5
 318 0032 3346     		mov	r3, r6
 319 0034 C764     		str	r7, [r0, #76]
 320 0036 3431     		adds	r1, r1, #52
 321 0038 FFF7FEFF 		bl	HAL_DMA_Start_IT
 322 003c 2368     		ldr	r3, [r4]
 323 003e DA68     		ldr	r2, [r3, #12]
 324 0040 42F40072 		orr	r2, r2, #512
 325 0044 DA60     		str	r2, [r3, #12]
 326 0046 1A68     		ldr	r2, [r3]
 327 0048 42F00102 		orr	r2, r2, #1
 328 004c 1A60     		str	r2, [r3]
 329 004e 0020     		movs	r0, #0
 330 0050 F8BD     		pop	{r3, r4, r5, r6, r7, pc}
 331              	.L32:
 332 0052 01B9     		cbnz	r1, .L28
 333 0054 1AB9     		cbnz	r2, .L30
 334              	.L28:
 335 0056 0223     		movs	r3, #2
 336 0058 80F83930 		strb	r3, [r0, #57]
 337 005c DBE7     		b	.L27
 338              	.L30:
 339 005e 2046     		mov	r0, r4
 340 0060 F8BD     		pop	{r3, r4, r5, r6, r7, pc}
 341              	.L34:
 342 0062 00BF     		.align	2
 343              	.L33:
 344 0064 00000000 		.word	TIM_DMAError
 345 0068 00000000 		.word	TIM_DMACaptureCplt
 347              		.section	.text.HAL_TIMEx_HallSensor_Stop_DMA,"ax",%progbits
 348              		.align	1
 349              		.p2align 2,,3
 350              		.global	HAL_TIMEx_HallSensor_Stop_DMA
 351              		.syntax unified
 352              		.thumb
 353              		.thumb_func
 354              		.fpu fpv4-sp-d16
 356              	HAL_TIMEx_HallSensor_Stop_DMA:
 357              		@ args = 0, pretend = 0, frame = 0
 358              		@ frame_needed = 0, uses_anonymous_args = 0
 359 0000 0022     		movs	r2, #0
 360 0002 10B5     		push	{r4, lr}
 361 0004 0446     		mov	r4, r0
ARM GAS  /tmp/ccR39qxo.s 			page 7


 362 0006 1146     		mov	r1, r2
 363 0008 0068     		ldr	r0, [r0]
 364 000a FFF7FEFF 		bl	TIM_CCxChannelCmd
 365 000e 2368     		ldr	r3, [r4]
 366 0010 DA68     		ldr	r2, [r3, #12]
 367 0012 22F40072 		bic	r2, r2, #512
 368 0016 DA60     		str	r2, [r3, #12]
 369 0018 196A     		ldr	r1, [r3, #32]
 370 001a 41F21112 		movw	r2, #4369
 371 001e 1142     		tst	r1, r2
 372 0020 08D1     		bne	.L36
 373 0022 196A     		ldr	r1, [r3, #32]
 374 0024 40F24442 		movw	r2, #1092
 375 0028 1142     		tst	r1, r2
 376 002a 03D1     		bne	.L36
 377 002c 1A68     		ldr	r2, [r3]
 378 002e 22F00102 		bic	r2, r2, #1
 379 0032 1A60     		str	r2, [r3]
 380              	.L36:
 381 0034 0020     		movs	r0, #0
 382 0036 10BD     		pop	{r4, pc}
 384              		.section	.text.HAL_TIMEx_OCN_Start,"ax",%progbits
 385              		.align	1
 386              		.p2align 2,,3
 387              		.global	HAL_TIMEx_OCN_Start
 388              		.syntax unified
 389              		.thumb
 390              		.thumb_func
 391              		.fpu fpv4-sp-d16
 393              	HAL_TIMEx_OCN_Start:
 394              		@ args = 0, pretend = 0, frame = 0
 395              		@ frame_needed = 0, uses_anonymous_args = 0
 396              		@ link register save eliminated.
 397 0000 0368     		ldr	r3, [r0]
 398 0002 0422     		movs	r2, #4
 399 0004 186A     		ldr	r0, [r3, #32]
 400 0006 02FA01F1 		lsl	r1, r2, r1
 401 000a 20EA0100 		bic	r0, r0, r1
 402 000e 1862     		str	r0, [r3, #32]
 403 0010 1A6A     		ldr	r2, [r3, #32]
 404 0012 1143     		orrs	r1, r1, r2
 405 0014 1962     		str	r1, [r3, #32]
 406 0016 5A6C     		ldr	r2, [r3, #68]
 407 0018 42F40042 		orr	r2, r2, #32768
 408 001c 5A64     		str	r2, [r3, #68]
 409 001e 1A68     		ldr	r2, [r3]
 410 0020 42F00102 		orr	r2, r2, #1
 411 0024 1A60     		str	r2, [r3]
 412 0026 0020     		movs	r0, #0
 413 0028 7047     		bx	lr
 415 002a 00BF     		.section	.text.HAL_TIMEx_OCN_Stop,"ax",%progbits
 416              		.align	1
 417              		.p2align 2,,3
 418              		.global	HAL_TIMEx_OCN_Stop
 419              		.syntax unified
 420              		.thumb
 421              		.thumb_func
ARM GAS  /tmp/ccR39qxo.s 			page 8


 422              		.fpu fpv4-sp-d16
 424              	HAL_TIMEx_OCN_Stop:
 425              		@ args = 0, pretend = 0, frame = 0
 426              		@ frame_needed = 0, uses_anonymous_args = 0
 427              		@ link register save eliminated.
 428 0000 0368     		ldr	r3, [r0]
 429 0002 0420     		movs	r0, #4
 430 0004 1A6A     		ldr	r2, [r3, #32]
 431 0006 00FA01F1 		lsl	r1, r0, r1
 432 000a 22EA0102 		bic	r2, r2, r1
 433 000e 1A62     		str	r2, [r3, #32]
 434 0010 1A6A     		ldr	r2, [r3, #32]
 435 0012 1A62     		str	r2, [r3, #32]
 436 0014 196A     		ldr	r1, [r3, #32]
 437 0016 41F21112 		movw	r2, #4369
 438 001a 1142     		tst	r1, r2
 439 001c 04D1     		bne	.L40
 440 001e 196A     		ldr	r1, [r3, #32]
 441 0020 40F24442 		movw	r2, #1092
 442 0024 1142     		tst	r1, r2
 443 0026 0FD0     		beq	.L42
 444              	.L40:
 445 0028 196A     		ldr	r1, [r3, #32]
 446 002a 41F21112 		movw	r2, #4369
 447 002e 1142     		tst	r1, r2
 448 0030 08D1     		bne	.L41
 449 0032 196A     		ldr	r1, [r3, #32]
 450 0034 40F24442 		movw	r2, #1092
 451 0038 1142     		tst	r1, r2
 452 003a 03D1     		bne	.L41
 453 003c 1A68     		ldr	r2, [r3]
 454 003e 22F00102 		bic	r2, r2, #1
 455 0042 1A60     		str	r2, [r3]
 456              	.L41:
 457 0044 0020     		movs	r0, #0
 458 0046 7047     		bx	lr
 459              	.L42:
 460 0048 5A6C     		ldr	r2, [r3, #68]
 461 004a 22F40042 		bic	r2, r2, #32768
 462 004e 5A64     		str	r2, [r3, #68]
 463 0050 EAE7     		b	.L40
 465 0052 00BF     		.section	.text.HAL_TIMEx_OCN_Start_IT,"ax",%progbits
 466              		.align	1
 467              		.p2align 2,,3
 468              		.global	HAL_TIMEx_OCN_Start_IT
 469              		.syntax unified
 470              		.thumb
 471              		.thumb_func
 472              		.fpu fpv4-sp-d16
 474              	HAL_TIMEx_OCN_Start_IT:
 475              		@ args = 0, pretend = 0, frame = 0
 476              		@ frame_needed = 0, uses_anonymous_args = 0
 477              		@ link register save eliminated.
 478 0000 0C29     		cmp	r1, #12
 479 0002 37D8     		bhi	.L44
 480 0004 DFE801F0 		tbb	[pc, r1]
 481              	.L46:
ARM GAS  /tmp/ccR39qxo.s 			page 9


 482 0008 30       		.byte	(.L45-.L46)/2
 483 0009 36       		.byte	(.L44-.L46)/2
 484 000a 36       		.byte	(.L44-.L46)/2
 485 000b 36       		.byte	(.L44-.L46)/2
 486 000c 2A       		.byte	(.L47-.L46)/2
 487 000d 36       		.byte	(.L44-.L46)/2
 488 000e 36       		.byte	(.L44-.L46)/2
 489 000f 36       		.byte	(.L44-.L46)/2
 490 0010 24       		.byte	(.L48-.L46)/2
 491 0011 36       		.byte	(.L44-.L46)/2
 492 0012 36       		.byte	(.L44-.L46)/2
 493 0013 36       		.byte	(.L44-.L46)/2
 494 0014 07       		.byte	(.L49-.L46)/2
 495 0015 00       		.p2align 1
 496              	.L49:
 497 0016 0368     		ldr	r3, [r0]
 498 0018 DA68     		ldr	r2, [r3, #12]
 499 001a 42F01002 		orr	r2, r2, #16
 500 001e DA60     		str	r2, [r3, #12]
 501              	.L50:
 502 0020 DA68     		ldr	r2, [r3, #12]
 503 0022 42F08002 		orr	r2, r2, #128
 504 0026 DA60     		str	r2, [r3, #12]
 505 0028 186A     		ldr	r0, [r3, #32]
 506 002a 0422     		movs	r2, #4
 507 002c 02FA01F1 		lsl	r1, r2, r1
 508 0030 20EA0100 		bic	r0, r0, r1
 509 0034 1862     		str	r0, [r3, #32]
 510 0036 1A6A     		ldr	r2, [r3, #32]
 511 0038 1143     		orrs	r1, r1, r2
 512 003a 1962     		str	r1, [r3, #32]
 513 003c 5A6C     		ldr	r2, [r3, #68]
 514 003e 42F40042 		orr	r2, r2, #32768
 515 0042 5A64     		str	r2, [r3, #68]
 516 0044 1A68     		ldr	r2, [r3]
 517 0046 42F00102 		orr	r2, r2, #1
 518 004a 1A60     		str	r2, [r3]
 519 004c 0020     		movs	r0, #0
 520 004e 7047     		bx	lr
 521              	.L48:
 522 0050 0368     		ldr	r3, [r0]
 523 0052 DA68     		ldr	r2, [r3, #12]
 524 0054 42F00802 		orr	r2, r2, #8
 525 0058 DA60     		str	r2, [r3, #12]
 526 005a E1E7     		b	.L50
 527              	.L47:
 528 005c 0368     		ldr	r3, [r0]
 529 005e DA68     		ldr	r2, [r3, #12]
 530 0060 42F00402 		orr	r2, r2, #4
 531 0064 DA60     		str	r2, [r3, #12]
 532 0066 DBE7     		b	.L50
 533              	.L45:
 534 0068 0368     		ldr	r3, [r0]
 535 006a DA68     		ldr	r2, [r3, #12]
 536 006c 42F00202 		orr	r2, r2, #2
 537 0070 DA60     		str	r2, [r3, #12]
 538 0072 D5E7     		b	.L50
ARM GAS  /tmp/ccR39qxo.s 			page 10


 539              	.L44:
 540 0074 0368     		ldr	r3, [r0]
 541 0076 D3E7     		b	.L50
 543              		.section	.text.HAL_TIMEx_OCN_Stop_IT,"ax",%progbits
 544              		.align	1
 545              		.p2align 2,,3
 546              		.global	HAL_TIMEx_OCN_Stop_IT
 547              		.syntax unified
 548              		.thumb
 549              		.thumb_func
 550              		.fpu fpv4-sp-d16
 552              	HAL_TIMEx_OCN_Stop_IT:
 553              		@ args = 0, pretend = 0, frame = 0
 554              		@ frame_needed = 0, uses_anonymous_args = 0
 555              		@ link register save eliminated.
 556 0000 0C29     		cmp	r1, #12
 557 0002 4FD8     		bhi	.L52
 558 0004 DFE801F0 		tbb	[pc, r1]
 559              	.L54:
 560 0008 48       		.byte	(.L53-.L54)/2
 561 0009 4E       		.byte	(.L52-.L54)/2
 562 000a 4E       		.byte	(.L52-.L54)/2
 563 000b 4E       		.byte	(.L52-.L54)/2
 564 000c 42       		.byte	(.L55-.L54)/2
 565 000d 4E       		.byte	(.L52-.L54)/2
 566 000e 4E       		.byte	(.L52-.L54)/2
 567 000f 4E       		.byte	(.L52-.L54)/2
 568 0010 3C       		.byte	(.L56-.L54)/2
 569 0011 4E       		.byte	(.L52-.L54)/2
 570 0012 4E       		.byte	(.L52-.L54)/2
 571 0013 4E       		.byte	(.L52-.L54)/2
 572 0014 07       		.byte	(.L57-.L54)/2
 573 0015 00       		.p2align 1
 574              	.L57:
 575 0016 0368     		ldr	r3, [r0]
 576 0018 DA68     		ldr	r2, [r3, #12]
 577 001a 22F01002 		bic	r2, r2, #16
 578 001e DA60     		str	r2, [r3, #12]
 579              	.L58:
 580 0020 1A6A     		ldr	r2, [r3, #32]
 581 0022 0420     		movs	r0, #4
 582 0024 00FA01F1 		lsl	r1, r0, r1
 583 0028 22EA0101 		bic	r1, r2, r1
 584 002c 1962     		str	r1, [r3, #32]
 585 002e 1A6A     		ldr	r2, [r3, #32]
 586 0030 1A62     		str	r2, [r3, #32]
 587 0032 196A     		ldr	r1, [r3, #32]
 588 0034 40F24442 		movw	r2, #1092
 589 0038 1142     		tst	r1, r2
 590 003a 03D1     		bne	.L59
 591 003c DA68     		ldr	r2, [r3, #12]
 592 003e 22F08002 		bic	r2, r2, #128
 593 0042 DA60     		str	r2, [r3, #12]
 594              	.L59:
 595 0044 196A     		ldr	r1, [r3, #32]
 596 0046 41F21112 		movw	r2, #4369
 597 004a 1142     		tst	r1, r2
ARM GAS  /tmp/ccR39qxo.s 			page 11


 598 004c 08D1     		bne	.L60
 599 004e 196A     		ldr	r1, [r3, #32]
 600 0050 40F24442 		movw	r2, #1092
 601 0054 1142     		tst	r1, r2
 602 0056 03D1     		bne	.L60
 603 0058 5A6C     		ldr	r2, [r3, #68]
 604 005a 22F40042 		bic	r2, r2, #32768
 605 005e 5A64     		str	r2, [r3, #68]
 606              	.L60:
 607 0060 196A     		ldr	r1, [r3, #32]
 608 0062 41F21112 		movw	r2, #4369
 609 0066 1142     		tst	r1, r2
 610 0068 08D1     		bne	.L61
 611 006a 196A     		ldr	r1, [r3, #32]
 612 006c 40F24442 		movw	r2, #1092
 613 0070 1142     		tst	r1, r2
 614 0072 03D1     		bne	.L61
 615 0074 1A68     		ldr	r2, [r3]
 616 0076 22F00102 		bic	r2, r2, #1
 617 007a 1A60     		str	r2, [r3]
 618              	.L61:
 619 007c 0020     		movs	r0, #0
 620 007e 7047     		bx	lr
 621              	.L56:
 622 0080 0368     		ldr	r3, [r0]
 623 0082 DA68     		ldr	r2, [r3, #12]
 624 0084 22F00802 		bic	r2, r2, #8
 625 0088 DA60     		str	r2, [r3, #12]
 626 008a C9E7     		b	.L58
 627              	.L55:
 628 008c 0368     		ldr	r3, [r0]
 629 008e DA68     		ldr	r2, [r3, #12]
 630 0090 22F00402 		bic	r2, r2, #4
 631 0094 DA60     		str	r2, [r3, #12]
 632 0096 C3E7     		b	.L58
 633              	.L53:
 634 0098 0368     		ldr	r3, [r0]
 635 009a DA68     		ldr	r2, [r3, #12]
 636 009c 22F00202 		bic	r2, r2, #2
 637 00a0 DA60     		str	r2, [r3, #12]
 638 00a2 BDE7     		b	.L58
 639              	.L52:
 640 00a4 0368     		ldr	r3, [r0]
 641 00a6 BBE7     		b	.L58
 643              		.section	.text.HAL_TIMEx_OCN_Start_DMA,"ax",%progbits
 644              		.align	1
 645              		.p2align 2,,3
 646              		.global	HAL_TIMEx_OCN_Start_DMA
 647              		.syntax unified
 648              		.thumb
 649              		.thumb_func
 650              		.fpu fpv4-sp-d16
 652              	HAL_TIMEx_OCN_Start_DMA:
 653              		@ args = 0, pretend = 0, frame = 0
 654              		@ frame_needed = 0, uses_anonymous_args = 0
 655 0000 F8B5     		push	{r3, r4, r5, r6, r7, lr}
 656 0002 90F83940 		ldrb	r4, [r0, #57]	@ zero_extendqisi2
ARM GAS  /tmp/ccR39qxo.s 			page 12


 657 0006 E4B2     		uxtb	r4, r4
 658 0008 022C     		cmp	r4, #2
 659 000a 15D0     		beq	.L74
 660 000c 90F83940 		ldrb	r4, [r0, #57]	@ zero_extendqisi2
 661 0010 E4B2     		uxtb	r4, r4
 662 0012 012C     		cmp	r4, #1
 663 0014 0CD0     		beq	.L76
 664              	.L64:
 665 0016 0D46     		mov	r5, r1
 666 0018 0446     		mov	r4, r0
 667 001a 0C2D     		cmp	r5, #12
 668 001c 65D8     		bhi	.L66
 669 001e DFE805F0 		tbb	[pc, r5]
 670              	.L68:
 671 0022 0D       		.byte	(.L67-.L68)/2
 672 0023 64       		.byte	(.L66-.L68)/2
 673 0024 64       		.byte	(.L66-.L68)/2
 674 0025 64       		.byte	(.L66-.L68)/2
 675 0026 53       		.byte	(.L69-.L68)/2
 676 0027 64       		.byte	(.L66-.L68)/2
 677 0028 64       		.byte	(.L66-.L68)/2
 678 0029 64       		.byte	(.L66-.L68)/2
 679 002a 31       		.byte	(.L70-.L68)/2
 680 002b 64       		.byte	(.L66-.L68)/2
 681 002c 64       		.byte	(.L66-.L68)/2
 682 002d 64       		.byte	(.L66-.L68)/2
 683 002e 42       		.byte	(.L71-.L68)/2
 684 002f 00       		.p2align 1
 685              	.L76:
 686 0030 002A     		cmp	r2, #0
 687 0032 5CD1     		bne	.L65
 688 0034 002B     		cmp	r3, #0
 689 0036 5AD0     		beq	.L65
 690              	.L74:
 691 0038 2046     		mov	r0, r4
 692 003a F8BD     		pop	{r3, r4, r5, r6, r7, pc}
 693              	.L67:
 694 003c 2668     		ldr	r6, [r4]
 695 003e 006A     		ldr	r0, [r0, #32]
 696 0040 2D49     		ldr	r1, .L77
 697 0042 2E4F     		ldr	r7, .L77+4
 698 0044 C163     		str	r1, [r0, #60]
 699 0046 C764     		str	r7, [r0, #76]
 700 0048 1146     		mov	r1, r2
 701 004a 06F13402 		add	r2, r6, #52
 702 004e FFF7FEFF 		bl	HAL_DMA_Start_IT
 703 0052 2368     		ldr	r3, [r4]
 704 0054 DA68     		ldr	r2, [r3, #12]
 705 0056 42F40072 		orr	r2, r2, #512
 706 005a DA60     		str	r2, [r3, #12]
 707              	.L72:
 708 005c 186A     		ldr	r0, [r3, #32]
 709 005e 0422     		movs	r2, #4
 710 0060 02FA05F1 		lsl	r1, r2, r5
 711 0064 20EA0100 		bic	r0, r0, r1
 712 0068 1862     		str	r0, [r3, #32]
 713 006a 1A6A     		ldr	r2, [r3, #32]
ARM GAS  /tmp/ccR39qxo.s 			page 13


 714 006c 1143     		orrs	r1, r1, r2
 715 006e 1962     		str	r1, [r3, #32]
 716 0070 5A6C     		ldr	r2, [r3, #68]
 717 0072 42F40042 		orr	r2, r2, #32768
 718 0076 5A64     		str	r2, [r3, #68]
 719 0078 1A68     		ldr	r2, [r3]
 720 007a 42F00102 		orr	r2, r2, #1
 721 007e 1A60     		str	r2, [r3]
 722 0080 0020     		movs	r0, #0
 723 0082 F8BD     		pop	{r3, r4, r5, r6, r7, pc}
 724              	.L70:
 725 0084 2668     		ldr	r6, [r4]
 726 0086 806A     		ldr	r0, [r0, #40]
 727 0088 1B49     		ldr	r1, .L77
 728 008a 1C4F     		ldr	r7, .L77+4
 729 008c C163     		str	r1, [r0, #60]
 730 008e C764     		str	r7, [r0, #76]
 731 0090 1146     		mov	r1, r2
 732 0092 06F13C02 		add	r2, r6, #60
 733 0096 FFF7FEFF 		bl	HAL_DMA_Start_IT
 734 009a 2368     		ldr	r3, [r4]
 735 009c DA68     		ldr	r2, [r3, #12]
 736 009e 42F40062 		orr	r2, r2, #2048
 737 00a2 DA60     		str	r2, [r3, #12]
 738 00a4 DAE7     		b	.L72
 739              	.L71:
 740 00a6 2668     		ldr	r6, [r4]
 741 00a8 C06A     		ldr	r0, [r0, #44]
 742 00aa 1349     		ldr	r1, .L77
 743 00ac 134F     		ldr	r7, .L77+4
 744 00ae C163     		str	r1, [r0, #60]
 745 00b0 C764     		str	r7, [r0, #76]
 746 00b2 1146     		mov	r1, r2
 747 00b4 06F14002 		add	r2, r6, #64
 748 00b8 FFF7FEFF 		bl	HAL_DMA_Start_IT
 749 00bc 2368     		ldr	r3, [r4]
 750 00be DA68     		ldr	r2, [r3, #12]
 751 00c0 42F48052 		orr	r2, r2, #4096
 752 00c4 DA60     		str	r2, [r3, #12]
 753 00c6 C9E7     		b	.L72
 754              	.L69:
 755 00c8 2668     		ldr	r6, [r4]
 756 00ca 406A     		ldr	r0, [r0, #36]
 757 00cc 0A49     		ldr	r1, .L77
 758 00ce 0B4F     		ldr	r7, .L77+4
 759 00d0 C163     		str	r1, [r0, #60]
 760 00d2 C764     		str	r7, [r0, #76]
 761 00d4 1146     		mov	r1, r2
 762 00d6 06F13802 		add	r2, r6, #56
 763 00da FFF7FEFF 		bl	HAL_DMA_Start_IT
 764 00de 2368     		ldr	r3, [r4]
 765 00e0 DA68     		ldr	r2, [r3, #12]
 766 00e2 42F48062 		orr	r2, r2, #1024
 767 00e6 DA60     		str	r2, [r3, #12]
 768 00e8 B8E7     		b	.L72
 769              	.L66:
 770 00ea 0368     		ldr	r3, [r0]
ARM GAS  /tmp/ccR39qxo.s 			page 14


 771 00ec B6E7     		b	.L72
 772              	.L65:
 773 00ee 0224     		movs	r4, #2
 774 00f0 80F83940 		strb	r4, [r0, #57]
 775 00f4 8FE7     		b	.L64
 776              	.L78:
 777 00f6 00BF     		.align	2
 778              	.L77:
 779 00f8 00000000 		.word	TIM_DMADelayPulseCplt
 780 00fc 00000000 		.word	TIM_DMAError
 782              		.section	.text.HAL_TIMEx_OCN_Stop_DMA,"ax",%progbits
 783              		.align	1
 784              		.p2align 2,,3
 785              		.global	HAL_TIMEx_OCN_Stop_DMA
 786              		.syntax unified
 787              		.thumb
 788              		.thumb_func
 789              		.fpu fpv4-sp-d16
 791              	HAL_TIMEx_OCN_Stop_DMA:
 792              		@ args = 0, pretend = 0, frame = 0
 793              		@ frame_needed = 0, uses_anonymous_args = 0
 794              		@ link register save eliminated.
 795 0000 10B4     		push	{r4}
 796 0002 0C29     		cmp	r1, #12
 797 0004 4BD8     		bhi	.L80
 798 0006 DFE801F0 		tbb	[pc, r1]
 799              	.L82:
 800 000a 44       		.byte	(.L81-.L82)/2
 801 000b 4A       		.byte	(.L80-.L82)/2
 802 000c 4A       		.byte	(.L80-.L82)/2
 803 000d 4A       		.byte	(.L80-.L82)/2
 804 000e 3E       		.byte	(.L83-.L82)/2
 805 000f 4A       		.byte	(.L80-.L82)/2
 806 0010 4A       		.byte	(.L80-.L82)/2
 807 0011 4A       		.byte	(.L80-.L82)/2
 808 0012 38       		.byte	(.L84-.L82)/2
 809 0013 4A       		.byte	(.L80-.L82)/2
 810 0014 4A       		.byte	(.L80-.L82)/2
 811 0015 4A       		.byte	(.L80-.L82)/2
 812 0016 07       		.byte	(.L85-.L82)/2
 813 0017 00       		.p2align 1
 814              	.L85:
 815 0018 0368     		ldr	r3, [r0]
 816 001a DA68     		ldr	r2, [r3, #12]
 817 001c 22F48052 		bic	r2, r2, #4096
 818 0020 DA60     		str	r2, [r3, #12]
 819              	.L86:
 820 0022 1A6A     		ldr	r2, [r3, #32]
 821 0024 0424     		movs	r4, #4
 822 0026 04FA01F1 		lsl	r1, r4, r1
 823 002a 22EA0101 		bic	r1, r2, r1
 824 002e 1962     		str	r1, [r3, #32]
 825 0030 1A6A     		ldr	r2, [r3, #32]
 826 0032 1A62     		str	r2, [r3, #32]
 827 0034 196A     		ldr	r1, [r3, #32]
 828 0036 41F21112 		movw	r2, #4369
 829 003a 1142     		tst	r1, r2
ARM GAS  /tmp/ccR39qxo.s 			page 15


 830 003c 08D1     		bne	.L87
 831 003e 196A     		ldr	r1, [r3, #32]
 832 0040 40F24442 		movw	r2, #1092
 833 0044 1142     		tst	r1, r2
 834 0046 03D1     		bne	.L87
 835 0048 5A6C     		ldr	r2, [r3, #68]
 836 004a 22F40042 		bic	r2, r2, #32768
 837 004e 5A64     		str	r2, [r3, #68]
 838              	.L87:
 839 0050 196A     		ldr	r1, [r3, #32]
 840 0052 41F21112 		movw	r2, #4369
 841 0056 1142     		tst	r1, r2
 842 0058 08D1     		bne	.L88
 843 005a 196A     		ldr	r1, [r3, #32]
 844 005c 40F24442 		movw	r2, #1092
 845 0060 1142     		tst	r1, r2
 846 0062 03D1     		bne	.L88
 847 0064 1A68     		ldr	r2, [r3]
 848 0066 22F00102 		bic	r2, r2, #1
 849 006a 1A60     		str	r2, [r3]
 850              	.L88:
 851 006c 0123     		movs	r3, #1
 852 006e 80F83930 		strb	r3, [r0, #57]
 853 0072 5DF8044B 		ldr	r4, [sp], #4
 854 0076 0020     		movs	r0, #0
 855 0078 7047     		bx	lr
 856              	.L84:
 857 007a 0368     		ldr	r3, [r0]
 858 007c DA68     		ldr	r2, [r3, #12]
 859 007e 22F40062 		bic	r2, r2, #2048
 860 0082 DA60     		str	r2, [r3, #12]
 861 0084 CDE7     		b	.L86
 862              	.L83:
 863 0086 0368     		ldr	r3, [r0]
 864 0088 DA68     		ldr	r2, [r3, #12]
 865 008a 22F48062 		bic	r2, r2, #1024
 866 008e DA60     		str	r2, [r3, #12]
 867 0090 C7E7     		b	.L86
 868              	.L81:
 869 0092 0368     		ldr	r3, [r0]
 870 0094 DA68     		ldr	r2, [r3, #12]
 871 0096 22F40072 		bic	r2, r2, #512
 872 009a DA60     		str	r2, [r3, #12]
 873 009c C1E7     		b	.L86
 874              	.L80:
 875 009e 0368     		ldr	r3, [r0]
 876 00a0 BFE7     		b	.L86
 878 00a2 00BF     		.section	.text.HAL_TIMEx_PWMN_Start,"ax",%progbits
 879              		.align	1
 880              		.p2align 2,,3
 881              		.global	HAL_TIMEx_PWMN_Start
 882              		.syntax unified
 883              		.thumb
 884              		.thumb_func
 885              		.fpu fpv4-sp-d16
 887              	HAL_TIMEx_PWMN_Start:
 888              		@ args = 0, pretend = 0, frame = 0
ARM GAS  /tmp/ccR39qxo.s 			page 16


 889              		@ frame_needed = 0, uses_anonymous_args = 0
 890              		@ link register save eliminated.
 891 0000 0368     		ldr	r3, [r0]
 892 0002 0422     		movs	r2, #4
 893 0004 186A     		ldr	r0, [r3, #32]
 894 0006 02FA01F1 		lsl	r1, r2, r1
 895 000a 20EA0100 		bic	r0, r0, r1
 896 000e 1862     		str	r0, [r3, #32]
 897 0010 1A6A     		ldr	r2, [r3, #32]
 898 0012 1143     		orrs	r1, r1, r2
 899 0014 1962     		str	r1, [r3, #32]
 900 0016 5A6C     		ldr	r2, [r3, #68]
 901 0018 42F40042 		orr	r2, r2, #32768
 902 001c 5A64     		str	r2, [r3, #68]
 903 001e 1A68     		ldr	r2, [r3]
 904 0020 42F00102 		orr	r2, r2, #1
 905 0024 1A60     		str	r2, [r3]
 906 0026 0020     		movs	r0, #0
 907 0028 7047     		bx	lr
 909 002a 00BF     		.section	.text.HAL_TIMEx_PWMN_Stop,"ax",%progbits
 910              		.align	1
 911              		.p2align 2,,3
 912              		.global	HAL_TIMEx_PWMN_Stop
 913              		.syntax unified
 914              		.thumb
 915              		.thumb_func
 916              		.fpu fpv4-sp-d16
 918              	HAL_TIMEx_PWMN_Stop:
 919              		@ args = 0, pretend = 0, frame = 0
 920              		@ frame_needed = 0, uses_anonymous_args = 0
 921              		@ link register save eliminated.
 922 0000 0368     		ldr	r3, [r0]
 923 0002 0420     		movs	r0, #4
 924 0004 1A6A     		ldr	r2, [r3, #32]
 925 0006 00FA01F1 		lsl	r1, r0, r1
 926 000a 22EA0102 		bic	r2, r2, r1
 927 000e 1A62     		str	r2, [r3, #32]
 928 0010 1A6A     		ldr	r2, [r3, #32]
 929 0012 1A62     		str	r2, [r3, #32]
 930 0014 196A     		ldr	r1, [r3, #32]
 931 0016 41F21112 		movw	r2, #4369
 932 001a 1142     		tst	r1, r2
 933 001c 04D1     		bne	.L92
 934 001e 196A     		ldr	r1, [r3, #32]
 935 0020 40F24442 		movw	r2, #1092
 936 0024 1142     		tst	r1, r2
 937 0026 0FD0     		beq	.L94
 938              	.L92:
 939 0028 196A     		ldr	r1, [r3, #32]
 940 002a 41F21112 		movw	r2, #4369
 941 002e 1142     		tst	r1, r2
 942 0030 08D1     		bne	.L93
 943 0032 196A     		ldr	r1, [r3, #32]
 944 0034 40F24442 		movw	r2, #1092
 945 0038 1142     		tst	r1, r2
 946 003a 03D1     		bne	.L93
 947 003c 1A68     		ldr	r2, [r3]
ARM GAS  /tmp/ccR39qxo.s 			page 17


 948 003e 22F00102 		bic	r2, r2, #1
 949 0042 1A60     		str	r2, [r3]
 950              	.L93:
 951 0044 0020     		movs	r0, #0
 952 0046 7047     		bx	lr
 953              	.L94:
 954 0048 5A6C     		ldr	r2, [r3, #68]
 955 004a 22F40042 		bic	r2, r2, #32768
 956 004e 5A64     		str	r2, [r3, #68]
 957 0050 EAE7     		b	.L92
 959 0052 00BF     		.section	.text.HAL_TIMEx_PWMN_Start_IT,"ax",%progbits
 960              		.align	1
 961              		.p2align 2,,3
 962              		.global	HAL_TIMEx_PWMN_Start_IT
 963              		.syntax unified
 964              		.thumb
 965              		.thumb_func
 966              		.fpu fpv4-sp-d16
 968              	HAL_TIMEx_PWMN_Start_IT:
 969              		@ args = 0, pretend = 0, frame = 0
 970              		@ frame_needed = 0, uses_anonymous_args = 0
 971              		@ link register save eliminated.
 972 0000 0C29     		cmp	r1, #12
 973 0002 37D8     		bhi	.L96
 974 0004 DFE801F0 		tbb	[pc, r1]
 975              	.L98:
 976 0008 30       		.byte	(.L97-.L98)/2
 977 0009 36       		.byte	(.L96-.L98)/2
 978 000a 36       		.byte	(.L96-.L98)/2
 979 000b 36       		.byte	(.L96-.L98)/2
 980 000c 2A       		.byte	(.L99-.L98)/2
 981 000d 36       		.byte	(.L96-.L98)/2
 982 000e 36       		.byte	(.L96-.L98)/2
 983 000f 36       		.byte	(.L96-.L98)/2
 984 0010 24       		.byte	(.L100-.L98)/2
 985 0011 36       		.byte	(.L96-.L98)/2
 986 0012 36       		.byte	(.L96-.L98)/2
 987 0013 36       		.byte	(.L96-.L98)/2
 988 0014 07       		.byte	(.L101-.L98)/2
 989 0015 00       		.p2align 1
 990              	.L101:
 991 0016 0368     		ldr	r3, [r0]
 992 0018 DA68     		ldr	r2, [r3, #12]
 993 001a 42F01002 		orr	r2, r2, #16
 994 001e DA60     		str	r2, [r3, #12]
 995              	.L102:
 996 0020 DA68     		ldr	r2, [r3, #12]
 997 0022 42F08002 		orr	r2, r2, #128
 998 0026 DA60     		str	r2, [r3, #12]
 999 0028 186A     		ldr	r0, [r3, #32]
 1000 002a 0422     		movs	r2, #4
 1001 002c 02FA01F1 		lsl	r1, r2, r1
 1002 0030 20EA0100 		bic	r0, r0, r1
 1003 0034 1862     		str	r0, [r3, #32]
 1004 0036 1A6A     		ldr	r2, [r3, #32]
 1005 0038 1143     		orrs	r1, r1, r2
 1006 003a 1962     		str	r1, [r3, #32]
ARM GAS  /tmp/ccR39qxo.s 			page 18


 1007 003c 5A6C     		ldr	r2, [r3, #68]
 1008 003e 42F40042 		orr	r2, r2, #32768
 1009 0042 5A64     		str	r2, [r3, #68]
 1010 0044 1A68     		ldr	r2, [r3]
 1011 0046 42F00102 		orr	r2, r2, #1
 1012 004a 1A60     		str	r2, [r3]
 1013 004c 0020     		movs	r0, #0
 1014 004e 7047     		bx	lr
 1015              	.L100:
 1016 0050 0368     		ldr	r3, [r0]
 1017 0052 DA68     		ldr	r2, [r3, #12]
 1018 0054 42F00802 		orr	r2, r2, #8
 1019 0058 DA60     		str	r2, [r3, #12]
 1020 005a E1E7     		b	.L102
 1021              	.L99:
 1022 005c 0368     		ldr	r3, [r0]
 1023 005e DA68     		ldr	r2, [r3, #12]
 1024 0060 42F00402 		orr	r2, r2, #4
 1025 0064 DA60     		str	r2, [r3, #12]
 1026 0066 DBE7     		b	.L102
 1027              	.L97:
 1028 0068 0368     		ldr	r3, [r0]
 1029 006a DA68     		ldr	r2, [r3, #12]
 1030 006c 42F00202 		orr	r2, r2, #2
 1031 0070 DA60     		str	r2, [r3, #12]
 1032 0072 D5E7     		b	.L102
 1033              	.L96:
 1034 0074 0368     		ldr	r3, [r0]
 1035 0076 D3E7     		b	.L102
 1037              		.section	.text.HAL_TIMEx_PWMN_Stop_IT,"ax",%progbits
 1038              		.align	1
 1039              		.p2align 2,,3
 1040              		.global	HAL_TIMEx_PWMN_Stop_IT
 1041              		.syntax unified
 1042              		.thumb
 1043              		.thumb_func
 1044              		.fpu fpv4-sp-d16
 1046              	HAL_TIMEx_PWMN_Stop_IT:
 1047              		@ args = 0, pretend = 0, frame = 0
 1048              		@ frame_needed = 0, uses_anonymous_args = 0
 1049              		@ link register save eliminated.
 1050 0000 0C29     		cmp	r1, #12
 1051 0002 4FD8     		bhi	.L104
 1052 0004 DFE801F0 		tbb	[pc, r1]
 1053              	.L106:
 1054 0008 48       		.byte	(.L105-.L106)/2
 1055 0009 4E       		.byte	(.L104-.L106)/2
 1056 000a 4E       		.byte	(.L104-.L106)/2
 1057 000b 4E       		.byte	(.L104-.L106)/2
 1058 000c 42       		.byte	(.L107-.L106)/2
 1059 000d 4E       		.byte	(.L104-.L106)/2
 1060 000e 4E       		.byte	(.L104-.L106)/2
 1061 000f 4E       		.byte	(.L104-.L106)/2
 1062 0010 3C       		.byte	(.L108-.L106)/2
 1063 0011 4E       		.byte	(.L104-.L106)/2
 1064 0012 4E       		.byte	(.L104-.L106)/2
 1065 0013 4E       		.byte	(.L104-.L106)/2
ARM GAS  /tmp/ccR39qxo.s 			page 19


 1066 0014 07       		.byte	(.L109-.L106)/2
 1067 0015 00       		.p2align 1
 1068              	.L109:
 1069 0016 0368     		ldr	r3, [r0]
 1070 0018 DA68     		ldr	r2, [r3, #12]
 1071 001a 22F01002 		bic	r2, r2, #16
 1072 001e DA60     		str	r2, [r3, #12]
 1073              	.L110:
 1074 0020 1A6A     		ldr	r2, [r3, #32]
 1075 0022 0420     		movs	r0, #4
 1076 0024 00FA01F1 		lsl	r1, r0, r1
 1077 0028 22EA0101 		bic	r1, r2, r1
 1078 002c 1962     		str	r1, [r3, #32]
 1079 002e 1A6A     		ldr	r2, [r3, #32]
 1080 0030 1A62     		str	r2, [r3, #32]
 1081 0032 196A     		ldr	r1, [r3, #32]
 1082 0034 40F24442 		movw	r2, #1092
 1083 0038 1142     		tst	r1, r2
 1084 003a 03D1     		bne	.L111
 1085 003c DA68     		ldr	r2, [r3, #12]
 1086 003e 22F08002 		bic	r2, r2, #128
 1087 0042 DA60     		str	r2, [r3, #12]
 1088              	.L111:
 1089 0044 196A     		ldr	r1, [r3, #32]
 1090 0046 41F21112 		movw	r2, #4369
 1091 004a 1142     		tst	r1, r2
 1092 004c 08D1     		bne	.L112
 1093 004e 196A     		ldr	r1, [r3, #32]
 1094 0050 40F24442 		movw	r2, #1092
 1095 0054 1142     		tst	r1, r2
 1096 0056 03D1     		bne	.L112
 1097 0058 5A6C     		ldr	r2, [r3, #68]
 1098 005a 22F40042 		bic	r2, r2, #32768
 1099 005e 5A64     		str	r2, [r3, #68]
 1100              	.L112:
 1101 0060 196A     		ldr	r1, [r3, #32]
 1102 0062 41F21112 		movw	r2, #4369
 1103 0066 1142     		tst	r1, r2
 1104 0068 08D1     		bne	.L113
 1105 006a 196A     		ldr	r1, [r3, #32]
 1106 006c 40F24442 		movw	r2, #1092
 1107 0070 1142     		tst	r1, r2
 1108 0072 03D1     		bne	.L113
 1109 0074 1A68     		ldr	r2, [r3]
 1110 0076 22F00102 		bic	r2, r2, #1
 1111 007a 1A60     		str	r2, [r3]
 1112              	.L113:
 1113 007c 0020     		movs	r0, #0
 1114 007e 7047     		bx	lr
 1115              	.L108:
 1116 0080 0368     		ldr	r3, [r0]
 1117 0082 DA68     		ldr	r2, [r3, #12]
 1118 0084 22F00802 		bic	r2, r2, #8
 1119 0088 DA60     		str	r2, [r3, #12]
 1120 008a C9E7     		b	.L110
 1121              	.L107:
 1122 008c 0368     		ldr	r3, [r0]
ARM GAS  /tmp/ccR39qxo.s 			page 20


 1123 008e DA68     		ldr	r2, [r3, #12]
 1124 0090 22F00402 		bic	r2, r2, #4
 1125 0094 DA60     		str	r2, [r3, #12]
 1126 0096 C3E7     		b	.L110
 1127              	.L105:
 1128 0098 0368     		ldr	r3, [r0]
 1129 009a DA68     		ldr	r2, [r3, #12]
 1130 009c 22F00202 		bic	r2, r2, #2
 1131 00a0 DA60     		str	r2, [r3, #12]
 1132 00a2 BDE7     		b	.L110
 1133              	.L104:
 1134 00a4 0368     		ldr	r3, [r0]
 1135 00a6 BBE7     		b	.L110
 1137              		.section	.text.HAL_TIMEx_PWMN_Start_DMA,"ax",%progbits
 1138              		.align	1
 1139              		.p2align 2,,3
 1140              		.global	HAL_TIMEx_PWMN_Start_DMA
 1141              		.syntax unified
 1142              		.thumb
 1143              		.thumb_func
 1144              		.fpu fpv4-sp-d16
 1146              	HAL_TIMEx_PWMN_Start_DMA:
 1147              		@ args = 0, pretend = 0, frame = 0
 1148              		@ frame_needed = 0, uses_anonymous_args = 0
 1149 0000 F8B5     		push	{r3, r4, r5, r6, r7, lr}
 1150 0002 90F83940 		ldrb	r4, [r0, #57]	@ zero_extendqisi2
 1151 0006 E4B2     		uxtb	r4, r4
 1152 0008 022C     		cmp	r4, #2
 1153 000a 15D0     		beq	.L126
 1154 000c 90F83940 		ldrb	r4, [r0, #57]	@ zero_extendqisi2
 1155 0010 E4B2     		uxtb	r4, r4
 1156 0012 012C     		cmp	r4, #1
 1157 0014 0CD0     		beq	.L128
 1158              	.L116:
 1159 0016 0D46     		mov	r5, r1
 1160 0018 0446     		mov	r4, r0
 1161 001a 0C2D     		cmp	r5, #12
 1162 001c 65D8     		bhi	.L118
 1163 001e DFE805F0 		tbb	[pc, r5]
 1164              	.L120:
 1165 0022 0D       		.byte	(.L119-.L120)/2
 1166 0023 64       		.byte	(.L118-.L120)/2
 1167 0024 64       		.byte	(.L118-.L120)/2
 1168 0025 64       		.byte	(.L118-.L120)/2
 1169 0026 53       		.byte	(.L121-.L120)/2
 1170 0027 64       		.byte	(.L118-.L120)/2
 1171 0028 64       		.byte	(.L118-.L120)/2
 1172 0029 64       		.byte	(.L118-.L120)/2
 1173 002a 31       		.byte	(.L122-.L120)/2
 1174 002b 64       		.byte	(.L118-.L120)/2
 1175 002c 64       		.byte	(.L118-.L120)/2
 1176 002d 64       		.byte	(.L118-.L120)/2
 1177 002e 42       		.byte	(.L123-.L120)/2
 1178 002f 00       		.p2align 1
 1179              	.L128:
 1180 0030 002A     		cmp	r2, #0
 1181 0032 5CD1     		bne	.L117
ARM GAS  /tmp/ccR39qxo.s 			page 21


 1182 0034 002B     		cmp	r3, #0
 1183 0036 5AD0     		beq	.L117
 1184              	.L126:
 1185 0038 2046     		mov	r0, r4
 1186 003a F8BD     		pop	{r3, r4, r5, r6, r7, pc}
 1187              	.L119:
 1188 003c 2668     		ldr	r6, [r4]
 1189 003e 006A     		ldr	r0, [r0, #32]
 1190 0040 2D49     		ldr	r1, .L129
 1191 0042 2E4F     		ldr	r7, .L129+4
 1192 0044 C163     		str	r1, [r0, #60]
 1193 0046 C764     		str	r7, [r0, #76]
 1194 0048 1146     		mov	r1, r2
 1195 004a 06F13402 		add	r2, r6, #52
 1196 004e FFF7FEFF 		bl	HAL_DMA_Start_IT
 1197 0052 2368     		ldr	r3, [r4]
 1198 0054 DA68     		ldr	r2, [r3, #12]
 1199 0056 42F40072 		orr	r2, r2, #512
 1200 005a DA60     		str	r2, [r3, #12]
 1201              	.L124:
 1202 005c 186A     		ldr	r0, [r3, #32]
 1203 005e 0422     		movs	r2, #4
 1204 0060 02FA05F1 		lsl	r1, r2, r5
 1205 0064 20EA0100 		bic	r0, r0, r1
 1206 0068 1862     		str	r0, [r3, #32]
 1207 006a 1A6A     		ldr	r2, [r3, #32]
 1208 006c 1143     		orrs	r1, r1, r2
 1209 006e 1962     		str	r1, [r3, #32]
 1210 0070 5A6C     		ldr	r2, [r3, #68]
 1211 0072 42F40042 		orr	r2, r2, #32768
 1212 0076 5A64     		str	r2, [r3, #68]
 1213 0078 1A68     		ldr	r2, [r3]
 1214 007a 42F00102 		orr	r2, r2, #1
 1215 007e 1A60     		str	r2, [r3]
 1216 0080 0020     		movs	r0, #0
 1217 0082 F8BD     		pop	{r3, r4, r5, r6, r7, pc}
 1218              	.L122:
 1219 0084 2668     		ldr	r6, [r4]
 1220 0086 806A     		ldr	r0, [r0, #40]
 1221 0088 1B49     		ldr	r1, .L129
 1222 008a 1C4F     		ldr	r7, .L129+4
 1223 008c C163     		str	r1, [r0, #60]
 1224 008e C764     		str	r7, [r0, #76]
 1225 0090 1146     		mov	r1, r2
 1226 0092 06F13C02 		add	r2, r6, #60
 1227 0096 FFF7FEFF 		bl	HAL_DMA_Start_IT
 1228 009a 2368     		ldr	r3, [r4]
 1229 009c DA68     		ldr	r2, [r3, #12]
 1230 009e 42F40062 		orr	r2, r2, #2048
 1231 00a2 DA60     		str	r2, [r3, #12]
 1232 00a4 DAE7     		b	.L124
 1233              	.L123:
 1234 00a6 2668     		ldr	r6, [r4]
 1235 00a8 C06A     		ldr	r0, [r0, #44]
 1236 00aa 1349     		ldr	r1, .L129
 1237 00ac 134F     		ldr	r7, .L129+4
 1238 00ae C163     		str	r1, [r0, #60]
ARM GAS  /tmp/ccR39qxo.s 			page 22


 1239 00b0 C764     		str	r7, [r0, #76]
 1240 00b2 1146     		mov	r1, r2
 1241 00b4 06F14002 		add	r2, r6, #64
 1242 00b8 FFF7FEFF 		bl	HAL_DMA_Start_IT
 1243 00bc 2368     		ldr	r3, [r4]
 1244 00be DA68     		ldr	r2, [r3, #12]
 1245 00c0 42F48052 		orr	r2, r2, #4096
 1246 00c4 DA60     		str	r2, [r3, #12]
 1247 00c6 C9E7     		b	.L124
 1248              	.L121:
 1249 00c8 2668     		ldr	r6, [r4]
 1250 00ca 406A     		ldr	r0, [r0, #36]
 1251 00cc 0A49     		ldr	r1, .L129
 1252 00ce 0B4F     		ldr	r7, .L129+4
 1253 00d0 C163     		str	r1, [r0, #60]
 1254 00d2 C764     		str	r7, [r0, #76]
 1255 00d4 1146     		mov	r1, r2
 1256 00d6 06F13802 		add	r2, r6, #56
 1257 00da FFF7FEFF 		bl	HAL_DMA_Start_IT
 1258 00de 2368     		ldr	r3, [r4]
 1259 00e0 DA68     		ldr	r2, [r3, #12]
 1260 00e2 42F48062 		orr	r2, r2, #1024
 1261 00e6 DA60     		str	r2, [r3, #12]
 1262 00e8 B8E7     		b	.L124
 1263              	.L118:
 1264 00ea 0368     		ldr	r3, [r0]
 1265 00ec B6E7     		b	.L124
 1266              	.L117:
 1267 00ee 0224     		movs	r4, #2
 1268 00f0 80F83940 		strb	r4, [r0, #57]
 1269 00f4 8FE7     		b	.L116
 1270              	.L130:
 1271 00f6 00BF     		.align	2
 1272              	.L129:
 1273 00f8 00000000 		.word	TIM_DMADelayPulseCplt
 1274 00fc 00000000 		.word	TIM_DMAError
 1276              		.section	.text.HAL_TIMEx_PWMN_Stop_DMA,"ax",%progbits
 1277              		.align	1
 1278              		.p2align 2,,3
 1279              		.global	HAL_TIMEx_PWMN_Stop_DMA
 1280              		.syntax unified
 1281              		.thumb
 1282              		.thumb_func
 1283              		.fpu fpv4-sp-d16
 1285              	HAL_TIMEx_PWMN_Stop_DMA:
 1286              		@ args = 0, pretend = 0, frame = 0
 1287              		@ frame_needed = 0, uses_anonymous_args = 0
 1288              		@ link register save eliminated.
 1289 0000 10B4     		push	{r4}
 1290 0002 0C29     		cmp	r1, #12
 1291 0004 4BD8     		bhi	.L132
 1292 0006 DFE801F0 		tbb	[pc, r1]
 1293              	.L134:
 1294 000a 44       		.byte	(.L133-.L134)/2
 1295 000b 4A       		.byte	(.L132-.L134)/2
 1296 000c 4A       		.byte	(.L132-.L134)/2
 1297 000d 4A       		.byte	(.L132-.L134)/2
ARM GAS  /tmp/ccR39qxo.s 			page 23


 1298 000e 3E       		.byte	(.L135-.L134)/2
 1299 000f 4A       		.byte	(.L132-.L134)/2
 1300 0010 4A       		.byte	(.L132-.L134)/2
 1301 0011 4A       		.byte	(.L132-.L134)/2
 1302 0012 38       		.byte	(.L136-.L134)/2
 1303 0013 4A       		.byte	(.L132-.L134)/2
 1304 0014 4A       		.byte	(.L132-.L134)/2
 1305 0015 4A       		.byte	(.L132-.L134)/2
 1306 0016 07       		.byte	(.L137-.L134)/2
 1307 0017 00       		.p2align 1
 1308              	.L137:
 1309 0018 0368     		ldr	r3, [r0]
 1310 001a DA68     		ldr	r2, [r3, #12]
 1311 001c 22F48052 		bic	r2, r2, #4096
 1312 0020 DA60     		str	r2, [r3, #12]
 1313              	.L138:
 1314 0022 1A6A     		ldr	r2, [r3, #32]
 1315 0024 0424     		movs	r4, #4
 1316 0026 04FA01F1 		lsl	r1, r4, r1
 1317 002a 22EA0101 		bic	r1, r2, r1
 1318 002e 1962     		str	r1, [r3, #32]
 1319 0030 1A6A     		ldr	r2, [r3, #32]
 1320 0032 1A62     		str	r2, [r3, #32]
 1321 0034 196A     		ldr	r1, [r3, #32]
 1322 0036 41F21112 		movw	r2, #4369
 1323 003a 1142     		tst	r1, r2
 1324 003c 08D1     		bne	.L139
 1325 003e 196A     		ldr	r1, [r3, #32]
 1326 0040 40F24442 		movw	r2, #1092
 1327 0044 1142     		tst	r1, r2
 1328 0046 03D1     		bne	.L139
 1329 0048 5A6C     		ldr	r2, [r3, #68]
 1330 004a 22F40042 		bic	r2, r2, #32768
 1331 004e 5A64     		str	r2, [r3, #68]
 1332              	.L139:
 1333 0050 196A     		ldr	r1, [r3, #32]
 1334 0052 41F21112 		movw	r2, #4369
 1335 0056 1142     		tst	r1, r2
 1336 0058 08D1     		bne	.L140
 1337 005a 196A     		ldr	r1, [r3, #32]
 1338 005c 40F24442 		movw	r2, #1092
 1339 0060 1142     		tst	r1, r2
 1340 0062 03D1     		bne	.L140
 1341 0064 1A68     		ldr	r2, [r3]
 1342 0066 22F00102 		bic	r2, r2, #1
 1343 006a 1A60     		str	r2, [r3]
 1344              	.L140:
 1345 006c 0123     		movs	r3, #1
 1346 006e 80F83930 		strb	r3, [r0, #57]
 1347 0072 5DF8044B 		ldr	r4, [sp], #4
 1348 0076 0020     		movs	r0, #0
 1349 0078 7047     		bx	lr
 1350              	.L136:
 1351 007a 0368     		ldr	r3, [r0]
 1352 007c DA68     		ldr	r2, [r3, #12]
 1353 007e 22F40062 		bic	r2, r2, #2048
 1354 0082 DA60     		str	r2, [r3, #12]
ARM GAS  /tmp/ccR39qxo.s 			page 24


 1355 0084 CDE7     		b	.L138
 1356              	.L135:
 1357 0086 0368     		ldr	r3, [r0]
 1358 0088 DA68     		ldr	r2, [r3, #12]
 1359 008a 22F48062 		bic	r2, r2, #1024
 1360 008e DA60     		str	r2, [r3, #12]
 1361 0090 C7E7     		b	.L138
 1362              	.L133:
 1363 0092 0368     		ldr	r3, [r0]
 1364 0094 DA68     		ldr	r2, [r3, #12]
 1365 0096 22F40072 		bic	r2, r2, #512
 1366 009a DA60     		str	r2, [r3, #12]
 1367 009c C1E7     		b	.L138
 1368              	.L132:
 1369 009e 0368     		ldr	r3, [r0]
 1370 00a0 BFE7     		b	.L138
 1372 00a2 00BF     		.section	.text.HAL_TIMEx_OnePulseN_Start,"ax",%progbits
 1373              		.align	1
 1374              		.p2align 2,,3
 1375              		.global	HAL_TIMEx_OnePulseN_Start
 1376              		.syntax unified
 1377              		.thumb
 1378              		.thumb_func
 1379              		.fpu fpv4-sp-d16
 1381              	HAL_TIMEx_OnePulseN_Start:
 1382              		@ args = 0, pretend = 0, frame = 0
 1383              		@ frame_needed = 0, uses_anonymous_args = 0
 1384              		@ link register save eliminated.
 1385 0000 0368     		ldr	r3, [r0]
 1386 0002 0422     		movs	r2, #4
 1387 0004 186A     		ldr	r0, [r3, #32]
 1388 0006 02FA01F1 		lsl	r1, r2, r1
 1389 000a 20EA0100 		bic	r0, r0, r1
 1390 000e 1862     		str	r0, [r3, #32]
 1391 0010 1A6A     		ldr	r2, [r3, #32]
 1392 0012 1143     		orrs	r1, r1, r2
 1393 0014 1962     		str	r1, [r3, #32]
 1394 0016 5A6C     		ldr	r2, [r3, #68]
 1395 0018 42F40042 		orr	r2, r2, #32768
 1396 001c 5A64     		str	r2, [r3, #68]
 1397 001e 0020     		movs	r0, #0
 1398 0020 7047     		bx	lr
 1400 0022 00BF     		.section	.text.HAL_TIMEx_OnePulseN_Stop,"ax",%progbits
 1401              		.align	1
 1402              		.p2align 2,,3
 1403              		.global	HAL_TIMEx_OnePulseN_Stop
 1404              		.syntax unified
 1405              		.thumb
 1406              		.thumb_func
 1407              		.fpu fpv4-sp-d16
 1409              	HAL_TIMEx_OnePulseN_Stop:
 1410              		@ args = 0, pretend = 0, frame = 0
 1411              		@ frame_needed = 0, uses_anonymous_args = 0
 1412              		@ link register save eliminated.
 1413 0000 0368     		ldr	r3, [r0]
 1414 0002 0420     		movs	r0, #4
 1415 0004 1A6A     		ldr	r2, [r3, #32]
ARM GAS  /tmp/ccR39qxo.s 			page 25


 1416 0006 00FA01F1 		lsl	r1, r0, r1
 1417 000a 22EA0102 		bic	r2, r2, r1
 1418 000e 1A62     		str	r2, [r3, #32]
 1419 0010 1A6A     		ldr	r2, [r3, #32]
 1420 0012 1A62     		str	r2, [r3, #32]
 1421 0014 196A     		ldr	r1, [r3, #32]
 1422 0016 41F21112 		movw	r2, #4369
 1423 001a 1142     		tst	r1, r2
 1424 001c 04D1     		bne	.L144
 1425 001e 196A     		ldr	r1, [r3, #32]
 1426 0020 40F24442 		movw	r2, #1092
 1427 0024 1142     		tst	r1, r2
 1428 0026 0FD0     		beq	.L146
 1429              	.L144:
 1430 0028 196A     		ldr	r1, [r3, #32]
 1431 002a 41F21112 		movw	r2, #4369
 1432 002e 1142     		tst	r1, r2
 1433 0030 08D1     		bne	.L145
 1434 0032 196A     		ldr	r1, [r3, #32]
 1435 0034 40F24442 		movw	r2, #1092
 1436 0038 1142     		tst	r1, r2
 1437 003a 03D1     		bne	.L145
 1438 003c 1A68     		ldr	r2, [r3]
 1439 003e 22F00102 		bic	r2, r2, #1
 1440 0042 1A60     		str	r2, [r3]
 1441              	.L145:
 1442 0044 0020     		movs	r0, #0
 1443 0046 7047     		bx	lr
 1444              	.L146:
 1445 0048 5A6C     		ldr	r2, [r3, #68]
 1446 004a 22F40042 		bic	r2, r2, #32768
 1447 004e 5A64     		str	r2, [r3, #68]
 1448 0050 EAE7     		b	.L144
 1450 0052 00BF     		.section	.text.HAL_TIMEx_OnePulseN_Start_IT,"ax",%progbits
 1451              		.align	1
 1452              		.p2align 2,,3
 1453              		.global	HAL_TIMEx_OnePulseN_Start_IT
 1454              		.syntax unified
 1455              		.thumb
 1456              		.thumb_func
 1457              		.fpu fpv4-sp-d16
 1459              	HAL_TIMEx_OnePulseN_Start_IT:
 1460              		@ args = 0, pretend = 0, frame = 0
 1461              		@ frame_needed = 0, uses_anonymous_args = 0
 1462              		@ link register save eliminated.
 1463 0000 0368     		ldr	r3, [r0]
 1464 0002 DA68     		ldr	r2, [r3, #12]
 1465 0004 42F00202 		orr	r2, r2, #2
 1466 0008 DA60     		str	r2, [r3, #12]
 1467 000a DA68     		ldr	r2, [r3, #12]
 1468 000c 42F00402 		orr	r2, r2, #4
 1469 0010 DA60     		str	r2, [r3, #12]
 1470 0012 186A     		ldr	r0, [r3, #32]
 1471 0014 0422     		movs	r2, #4
 1472 0016 02FA01F1 		lsl	r1, r2, r1
 1473 001a 20EA0100 		bic	r0, r0, r1
 1474 001e 1862     		str	r0, [r3, #32]
ARM GAS  /tmp/ccR39qxo.s 			page 26


 1475 0020 1A6A     		ldr	r2, [r3, #32]
 1476 0022 1143     		orrs	r1, r1, r2
 1477 0024 1962     		str	r1, [r3, #32]
 1478 0026 5A6C     		ldr	r2, [r3, #68]
 1479 0028 42F40042 		orr	r2, r2, #32768
 1480 002c 5A64     		str	r2, [r3, #68]
 1481 002e 0020     		movs	r0, #0
 1482 0030 7047     		bx	lr
 1484 0032 00BF     		.section	.text.HAL_TIMEx_OnePulseN_Stop_IT,"ax",%progbits
 1485              		.align	1
 1486              		.p2align 2,,3
 1487              		.global	HAL_TIMEx_OnePulseN_Stop_IT
 1488              		.syntax unified
 1489              		.thumb
 1490              		.thumb_func
 1491              		.fpu fpv4-sp-d16
 1493              	HAL_TIMEx_OnePulseN_Stop_IT:
 1494              		@ args = 0, pretend = 0, frame = 0
 1495              		@ frame_needed = 0, uses_anonymous_args = 0
 1496              		@ link register save eliminated.
 1497 0000 0368     		ldr	r3, [r0]
 1498 0002 DA68     		ldr	r2, [r3, #12]
 1499 0004 22F00202 		bic	r2, r2, #2
 1500 0008 DA60     		str	r2, [r3, #12]
 1501 000a DA68     		ldr	r2, [r3, #12]
 1502 000c 22F00402 		bic	r2, r2, #4
 1503 0010 DA60     		str	r2, [r3, #12]
 1504 0012 1A6A     		ldr	r2, [r3, #32]
 1505 0014 0420     		movs	r0, #4
 1506 0016 00FA01F1 		lsl	r1, r0, r1
 1507 001a 22EA0102 		bic	r2, r2, r1
 1508 001e 1A62     		str	r2, [r3, #32]
 1509 0020 1A6A     		ldr	r2, [r3, #32]
 1510 0022 1A62     		str	r2, [r3, #32]
 1511 0024 196A     		ldr	r1, [r3, #32]
 1512 0026 41F21112 		movw	r2, #4369
 1513 002a 1142     		tst	r1, r2
 1514 002c 04D1     		bne	.L149
 1515 002e 196A     		ldr	r1, [r3, #32]
 1516 0030 40F24442 		movw	r2, #1092
 1517 0034 1142     		tst	r1, r2
 1518 0036 0FD0     		beq	.L151
 1519              	.L149:
 1520 0038 196A     		ldr	r1, [r3, #32]
 1521 003a 41F21112 		movw	r2, #4369
 1522 003e 1142     		tst	r1, r2
 1523 0040 08D1     		bne	.L150
 1524 0042 196A     		ldr	r1, [r3, #32]
 1525 0044 40F24442 		movw	r2, #1092
 1526 0048 1142     		tst	r1, r2
 1527 004a 03D1     		bne	.L150
 1528 004c 1A68     		ldr	r2, [r3]
 1529 004e 22F00102 		bic	r2, r2, #1
 1530 0052 1A60     		str	r2, [r3]
 1531              	.L150:
 1532 0054 0020     		movs	r0, #0
 1533 0056 7047     		bx	lr
ARM GAS  /tmp/ccR39qxo.s 			page 27


 1534              	.L151:
 1535 0058 5A6C     		ldr	r2, [r3, #68]
 1536 005a 22F40042 		bic	r2, r2, #32768
 1537 005e 5A64     		str	r2, [r3, #68]
 1538 0060 EAE7     		b	.L149
 1540 0062 00BF     		.section	.text.HAL_TIMEx_ConfigCommutationEvent,"ax",%progbits
 1541              		.align	1
 1542              		.p2align 2,,3
 1543              		.global	HAL_TIMEx_ConfigCommutationEvent
 1544              		.syntax unified
 1545              		.thumb
 1546              		.thumb_func
 1547              		.fpu fpv4-sp-d16
 1549              	HAL_TIMEx_ConfigCommutationEvent:
 1550              		@ args = 0, pretend = 0, frame = 0
 1551              		@ frame_needed = 0, uses_anonymous_args = 0
 1552              		@ link register save eliminated.
 1553 0000 90F83830 		ldrb	r3, [r0, #56]	@ zero_extendqisi2
 1554 0004 012B     		cmp	r3, #1
 1555 0006 20D0     		beq	.L156
 1556 0008 0123     		movs	r3, #1
 1557 000a 10B4     		push	{r4}
 1558 000c 80F83830 		strb	r3, [r0, #56]
 1559 0010 31F03003 		bics	r3, r1, #48
 1560 0014 0368     		ldr	r3, [r0]
 1561 0016 06D1     		bne	.L155
 1562 0018 9C68     		ldr	r4, [r3, #8]
 1563 001a 24F07004 		bic	r4, r4, #112
 1564 001e 9C60     		str	r4, [r3, #8]
 1565 0020 9C68     		ldr	r4, [r3, #8]
 1566 0022 2143     		orrs	r1, r1, r4
 1567 0024 9960     		str	r1, [r3, #8]
 1568              	.L155:
 1569 0026 5968     		ldr	r1, [r3, #4]
 1570 0028 41F00101 		orr	r1, r1, #1
 1571 002c 5960     		str	r1, [r3, #4]
 1572 002e 5968     		ldr	r1, [r3, #4]
 1573 0030 21F00401 		bic	r1, r1, #4
 1574 0034 5960     		str	r1, [r3, #4]
 1575 0036 5968     		ldr	r1, [r3, #4]
 1576 0038 0024     		movs	r4, #0
 1577 003a 0A43     		orrs	r2, r2, r1
 1578 003c 5A60     		str	r2, [r3, #4]
 1579 003e 80F83840 		strb	r4, [r0, #56]
 1580 0042 2046     		mov	r0, r4
 1581 0044 5DF8044B 		ldr	r4, [sp], #4
 1582 0048 7047     		bx	lr
 1583              	.L156:
 1584 004a 0223     		movs	r3, #2
 1585 004c 1846     		mov	r0, r3
 1586 004e 7047     		bx	lr
 1588              		.section	.text.HAL_TIMEx_ConfigCommutationEvent_IT,"ax",%progbits
 1589              		.align	1
 1590              		.p2align 2,,3
 1591              		.global	HAL_TIMEx_ConfigCommutationEvent_IT
 1592              		.syntax unified
 1593              		.thumb
ARM GAS  /tmp/ccR39qxo.s 			page 28


 1594              		.thumb_func
 1595              		.fpu fpv4-sp-d16
 1597              	HAL_TIMEx_ConfigCommutationEvent_IT:
 1598              		@ args = 0, pretend = 0, frame = 0
 1599              		@ frame_needed = 0, uses_anonymous_args = 0
 1600              		@ link register save eliminated.
 1601 0000 90F83830 		ldrb	r3, [r0, #56]	@ zero_extendqisi2
 1602 0004 012B     		cmp	r3, #1
 1603 0006 24D0     		beq	.L165
 1604 0008 0123     		movs	r3, #1
 1605 000a 10B4     		push	{r4}
 1606 000c 80F83830 		strb	r3, [r0, #56]
 1607 0010 31F03003 		bics	r3, r1, #48
 1608 0014 0368     		ldr	r3, [r0]
 1609 0016 06D1     		bne	.L164
 1610 0018 9C68     		ldr	r4, [r3, #8]
 1611 001a 24F07004 		bic	r4, r4, #112
 1612 001e 9C60     		str	r4, [r3, #8]
 1613 0020 9C68     		ldr	r4, [r3, #8]
 1614 0022 2143     		orrs	r1, r1, r4
 1615 0024 9960     		str	r1, [r3, #8]
 1616              	.L164:
 1617 0026 5968     		ldr	r1, [r3, #4]
 1618 0028 5DF8044B 		ldr	r4, [sp], #4
 1619 002c 41F00101 		orr	r1, r1, #1
 1620 0030 5960     		str	r1, [r3, #4]
 1621 0032 5968     		ldr	r1, [r3, #4]
 1622 0034 21F00401 		bic	r1, r1, #4
 1623 0038 5960     		str	r1, [r3, #4]
 1624 003a 5968     		ldr	r1, [r3, #4]
 1625 003c 0A43     		orrs	r2, r2, r1
 1626 003e 5A60     		str	r2, [r3, #4]
 1627 0040 DA68     		ldr	r2, [r3, #12]
 1628 0042 0021     		movs	r1, #0
 1629 0044 42F02002 		orr	r2, r2, #32
 1630 0048 DA60     		str	r2, [r3, #12]
 1631 004a 80F83810 		strb	r1, [r0, #56]
 1632 004e 0846     		mov	r0, r1
 1633 0050 7047     		bx	lr
 1634              	.L165:
 1635 0052 0223     		movs	r3, #2
 1636 0054 1846     		mov	r0, r3
 1637 0056 7047     		bx	lr
 1639              		.section	.text.HAL_TIMEx_ConfigCommutationEvent_DMA,"ax",%progbits
 1640              		.align	1
 1641              		.p2align 2,,3
 1642              		.global	HAL_TIMEx_ConfigCommutationEvent_DMA
 1643              		.syntax unified
 1644              		.thumb
 1645              		.thumb_func
 1646              		.fpu fpv4-sp-d16
 1648              	HAL_TIMEx_ConfigCommutationEvent_DMA:
 1649              		@ args = 0, pretend = 0, frame = 0
 1650              		@ frame_needed = 0, uses_anonymous_args = 0
 1651              		@ link register save eliminated.
 1652 0000 90F83830 		ldrb	r3, [r0, #56]	@ zero_extendqisi2
 1653 0004 012B     		cmp	r3, #1
ARM GAS  /tmp/ccR39qxo.s 			page 29


 1654 0006 28D0     		beq	.L174
 1655 0008 0123     		movs	r3, #1
 1656 000a 70B4     		push	{r4, r5, r6}
 1657 000c 80F83830 		strb	r3, [r0, #56]
 1658 0010 31F03003 		bics	r3, r1, #48
 1659 0014 0368     		ldr	r3, [r0]
 1660 0016 06D1     		bne	.L173
 1661 0018 9C68     		ldr	r4, [r3, #8]
 1662 001a 24F07004 		bic	r4, r4, #112
 1663 001e 9C60     		str	r4, [r3, #8]
 1664 0020 9C68     		ldr	r4, [r3, #8]
 1665 0022 2143     		orrs	r1, r1, r4
 1666 0024 9960     		str	r1, [r3, #8]
 1667              	.L173:
 1668 0026 5968     		ldr	r1, [r3, #4]
 1669 0028 056B     		ldr	r5, [r0, #48]
 1670 002a 0D4C     		ldr	r4, .L179
 1671 002c 0D4E     		ldr	r6, .L179+4
 1672 002e 41F00101 		orr	r1, r1, #1
 1673 0032 5960     		str	r1, [r3, #4]
 1674 0034 5968     		ldr	r1, [r3, #4]
 1675 0036 21F00401 		bic	r1, r1, #4
 1676 003a 5960     		str	r1, [r3, #4]
 1677 003c 5968     		ldr	r1, [r3, #4]
 1678 003e 0A43     		orrs	r2, r2, r1
 1679 0040 5A60     		str	r2, [r3, #4]
 1680 0042 DA68     		ldr	r2, [r3, #12]
 1681 0044 EC63     		str	r4, [r5, #60]
 1682 0046 42F40052 		orr	r2, r2, #8192
 1683 004a 0024     		movs	r4, #0
 1684 004c EE64     		str	r6, [r5, #76]
 1685 004e DA60     		str	r2, [r3, #12]
 1686 0050 80F83840 		strb	r4, [r0, #56]
 1687 0054 2046     		mov	r0, r4
 1688 0056 70BC     		pop	{r4, r5, r6}
 1689 0058 7047     		bx	lr
 1690              	.L174:
 1691 005a 0221     		movs	r1, #2
 1692 005c 0846     		mov	r0, r1
 1693 005e 7047     		bx	lr
 1694              	.L180:
 1695              		.align	2
 1696              	.L179:
 1697 0060 00000000 		.word	TIMEx_DMACommutationCplt
 1698 0064 00000000 		.word	TIM_DMAError
 1700              		.section	.text.HAL_TIMEx_MasterConfigSynchronization,"ax",%progbits
 1701              		.align	1
 1702              		.p2align 2,,3
 1703              		.global	HAL_TIMEx_MasterConfigSynchronization
 1704              		.syntax unified
 1705              		.thumb
 1706              		.thumb_func
 1707              		.fpu fpv4-sp-d16
 1709              	HAL_TIMEx_MasterConfigSynchronization:
 1710              		@ args = 0, pretend = 0, frame = 0
 1711              		@ frame_needed = 0, uses_anonymous_args = 0
 1712              		@ link register save eliminated.
ARM GAS  /tmp/ccR39qxo.s 			page 30


 1713 0000 90F83830 		ldrb	r3, [r0, #56]	@ zero_extendqisi2
 1714 0004 012B     		cmp	r3, #1
 1715 0006 1ED0     		beq	.L183
 1716 0008 0246     		mov	r2, r0
 1717 000a 0220     		movs	r0, #2
 1718 000c 1368     		ldr	r3, [r2]
 1719 000e 70B4     		push	{r4, r5, r6}
 1720 0010 82F83900 		strb	r0, [r2, #57]
 1721 0014 5C68     		ldr	r4, [r3, #4]
 1722 0016 24F07004 		bic	r4, r4, #112
 1723 001a 91E86000 		ldm	r1, {r5, r6}
 1724 001e 5C60     		str	r4, [r3, #4]
 1725 0020 5868     		ldr	r0, [r3, #4]
 1726 0022 2843     		orrs	r0, r0, r5
 1727 0024 5860     		str	r0, [r3, #4]
 1728 0026 9868     		ldr	r0, [r3, #8]
 1729 0028 20F08000 		bic	r0, r0, #128
 1730 002c 9860     		str	r0, [r3, #8]
 1731 002e 9968     		ldr	r1, [r3, #8]
 1732 0030 0024     		movs	r4, #0
 1733 0032 0125     		movs	r5, #1
 1734 0034 3143     		orrs	r1, r1, r6
 1735 0036 9960     		str	r1, [r3, #8]
 1736 0038 2046     		mov	r0, r4
 1737 003a 82F83950 		strb	r5, [r2, #57]
 1738 003e 82F83840 		strb	r4, [r2, #56]
 1739 0042 70BC     		pop	{r4, r5, r6}
 1740 0044 7047     		bx	lr
 1741              	.L183:
 1742 0046 0220     		movs	r0, #2
 1743 0048 7047     		bx	lr
 1745 004a 00BF     		.section	.text.HAL_TIMEx_ConfigBreakDeadTime,"ax",%progbits
 1746              		.align	1
 1747              		.p2align 2,,3
 1748              		.global	HAL_TIMEx_ConfigBreakDeadTime
 1749              		.syntax unified
 1750              		.thumb
 1751              		.thumb_func
 1752              		.fpu fpv4-sp-d16
 1754              	HAL_TIMEx_ConfigBreakDeadTime:
 1755              		@ args = 0, pretend = 0, frame = 0
 1756              		@ frame_needed = 0, uses_anonymous_args = 0
 1757              		@ link register save eliminated.
 1758 0000 90F83830 		ldrb	r3, [r0, #56]	@ zero_extendqisi2
 1759 0004 012B     		cmp	r3, #1
 1760 0006 1AD0     		beq	.L190
 1761 0008 F0B4     		push	{r4, r5, r6, r7}
 1762 000a 91E88C00 		ldm	r1, {r2, r3, r7}
 1763 000e CE68     		ldr	r6, [r1, #12]
 1764 0010 0D69     		ldr	r5, [r1, #16]
 1765 0012 4C69     		ldr	r4, [r1, #20]
 1766 0014 8969     		ldr	r1, [r1, #24]
 1767 0016 1343     		orrs	r3, r3, r2
 1768 0018 3B43     		orrs	r3, r3, r7
 1769 001a 3343     		orrs	r3, r3, r6
 1770 001c 2B43     		orrs	r3, r3, r5
 1771 001e 2343     		orrs	r3, r3, r4
ARM GAS  /tmp/ccR39qxo.s 			page 31


 1772 0020 0568     		ldr	r5, [r0]
 1773 0022 0B43     		orrs	r3, r3, r1
 1774 0024 0124     		movs	r4, #1
 1775 0026 0021     		movs	r1, #0
 1776 0028 0222     		movs	r2, #2
 1777 002a 80F83920 		strb	r2, [r0, #57]
 1778 002e 6B64     		str	r3, [r5, #68]
 1779 0030 80F83940 		strb	r4, [r0, #57]
 1780 0034 80F83810 		strb	r1, [r0, #56]
 1781 0038 F0BC     		pop	{r4, r5, r6, r7}
 1782 003a 0846     		mov	r0, r1
 1783 003c 7047     		bx	lr
 1784              	.L190:
 1785 003e 0222     		movs	r2, #2
 1786 0040 1046     		mov	r0, r2
 1787 0042 7047     		bx	lr
 1789              		.section	.text.HAL_TIMEx_RemapConfig,"ax",%progbits
 1790              		.align	1
 1791              		.p2align 2,,3
 1792              		.global	HAL_TIMEx_RemapConfig
 1793              		.syntax unified
 1794              		.thumb
 1795              		.thumb_func
 1796              		.fpu fpv4-sp-d16
 1798              	HAL_TIMEx_RemapConfig:
 1799              		@ args = 0, pretend = 0, frame = 0
 1800              		@ frame_needed = 0, uses_anonymous_args = 0
 1801              		@ link register save eliminated.
 1802 0000 90F83820 		ldrb	r2, [r0, #56]	@ zero_extendqisi2
 1803 0004 012A     		cmp	r2, #1
 1804 0006 0DD0     		beq	.L197
 1805 0008 0346     		mov	r3, r0
 1806 000a 0068     		ldr	r0, [r0]
 1807 000c 10B4     		push	{r4}
 1808 000e 0022     		movs	r2, #0
 1809 0010 0124     		movs	r4, #1
 1810 0012 0165     		str	r1, [r0, #80]
 1811 0014 1046     		mov	r0, r2
 1812 0016 83F83940 		strb	r4, [r3, #57]
 1813 001a 83F83820 		strb	r2, [r3, #56]
 1814 001e 5DF8044B 		ldr	r4, [sp], #4
 1815 0022 7047     		bx	lr
 1816              	.L197:
 1817 0024 0220     		movs	r0, #2
 1818 0026 7047     		bx	lr
 1820              		.section	.text.HAL_TIMEx_CommutationCallback,"ax",%progbits
 1821              		.align	1
 1822              		.p2align 2,,3
 1823              		.weak	HAL_TIMEx_CommutationCallback
 1824              		.syntax unified
 1825              		.thumb
 1826              		.thumb_func
 1827              		.fpu fpv4-sp-d16
 1829              	HAL_TIMEx_CommutationCallback:
 1830              		@ args = 0, pretend = 0, frame = 0
 1831              		@ frame_needed = 0, uses_anonymous_args = 0
 1832              		@ link register save eliminated.
ARM GAS  /tmp/ccR39qxo.s 			page 32


 1833 0000 7047     		bx	lr
 1835 0002 00BF     		.section	.text.TIMEx_DMACommutationCplt,"ax",%progbits
 1836              		.align	1
 1837              		.p2align 2,,3
 1838              		.global	TIMEx_DMACommutationCplt
 1839              		.syntax unified
 1840              		.thumb
 1841              		.thumb_func
 1842              		.fpu fpv4-sp-d16
 1844              	TIMEx_DMACommutationCplt:
 1845              		@ args = 0, pretend = 0, frame = 0
 1846              		@ frame_needed = 0, uses_anonymous_args = 0
 1847 0000 08B5     		push	{r3, lr}
 1848 0002 806B     		ldr	r0, [r0, #56]
 1849 0004 0123     		movs	r3, #1
 1850 0006 80F83930 		strb	r3, [r0, #57]
 1851 000a FFF7FEFF 		bl	HAL_TIMEx_CommutationCallback
 1852 000e 08BD     		pop	{r3, pc}
 1854              		.section	.text.HAL_TIMEx_BreakCallback,"ax",%progbits
 1855              		.align	1
 1856              		.p2align 2,,3
 1857              		.weak	HAL_TIMEx_BreakCallback
 1858              		.syntax unified
 1859              		.thumb
 1860              		.thumb_func
 1861              		.fpu fpv4-sp-d16
 1863              	HAL_TIMEx_BreakCallback:
 1864              		@ args = 0, pretend = 0, frame = 0
 1865              		@ frame_needed = 0, uses_anonymous_args = 0
 1866              		@ link register save eliminated.
 1867 0000 7047     		bx	lr
 1869 0002 00BF     		.section	.text.HAL_TIMEx_HallSensor_GetState,"ax",%progbits
 1870              		.align	1
 1871              		.p2align 2,,3
 1872              		.global	HAL_TIMEx_HallSensor_GetState
 1873              		.syntax unified
 1874              		.thumb
 1875              		.thumb_func
 1876              		.fpu fpv4-sp-d16
 1878              	HAL_TIMEx_HallSensor_GetState:
 1879              		@ args = 0, pretend = 0, frame = 0
 1880              		@ frame_needed = 0, uses_anonymous_args = 0
 1881              		@ link register save eliminated.
 1882 0000 90F83900 		ldrb	r0, [r0, #57]	@ zero_extendqisi2
 1883 0004 7047     		bx	lr
 1885 0006 00BF     		.ident	"GCC: (Arch Repository) 6.3.0"
ARM GAS  /tmp/ccR39qxo.s 			page 33

