ARM GAS  /tmp/ccEnwdRf.s 			page 1


   1              		.cpu cortex-m4
   2              		.eabi_attribute 27, 1
   3              		.eabi_attribute 28, 1
   4              		.eabi_attribute 23, 1
   5              		.eabi_attribute 24, 1
   6              		.eabi_attribute 25, 1
   7              		.eabi_attribute 26, 1
   8              		.eabi_attribute 30, 2
   9              		.eabi_attribute 34, 1
  10              		.eabi_attribute 18, 4
  11              		.file	"tim.c"
  12              		.section	.text.MX_TIM3_Init,"ax",%progbits
  13              		.align	1
  14              		.p2align 2,,3
  15              		.global	MX_TIM3_Init
  16              		.syntax unified
  17              		.thumb
  18              		.thumb_func
  19              		.fpu fpv4-sp-d16
  21              	MX_TIM3_Init:
  22              		@ args = 0, pretend = 0, frame = 56
  23              		@ frame_needed = 0, uses_anonymous_args = 0
  24 0000 70B5     		push	{r4, r5, r6, lr}
  25 0002 214C     		ldr	r4, .L21
  26 0004 214B     		ldr	r3, .L21+4
  27 0006 2360     		str	r3, [r4]
  28 0008 8EB0     		sub	sp, sp, #56
  29 000a 0023     		movs	r3, #0
  30 000c 0121     		movs	r1, #1
  31 000e 1022     		movs	r2, #16
  32 0010 2046     		mov	r0, r4
  33 0012 6160     		str	r1, [r4, #4]
  34 0014 E260     		str	r2, [r4, #12]
  35 0016 A360     		str	r3, [r4, #8]
  36 0018 2361     		str	r3, [r4, #16]
  37 001a FFF7FEFF 		bl	HAL_TIM_PWM_Init
  38 001e D0B9     		cbnz	r0, .L17
  39              	.L2:
  40 0020 0023     		movs	r3, #0
  41 0022 6946     		mov	r1, sp
  42 0024 1848     		ldr	r0, .L21
  43 0026 0093     		str	r3, [sp]
  44 0028 0193     		str	r3, [sp, #4]
  45 002a FFF7FEFF 		bl	HAL_TIMEx_MasterConfigSynchronization
  46 002e 40BB     		cbnz	r0, .L18
  47              	.L3:
  48 0030 0023     		movs	r3, #0
  49 0032 6026     		movs	r6, #96
  50 0034 0F25     		movs	r5, #15
  51 0036 0C22     		movs	r2, #12
  52 0038 07A9     		add	r1, sp, #28
  53 003a 1348     		ldr	r0, .L21
  54 003c 0796     		str	r6, [sp, #28]
  55 003e 0895     		str	r5, [sp, #32]
  56 0040 0993     		str	r3, [sp, #36]
  57 0042 0B93     		str	r3, [sp, #44]
  58 0044 FFF7FEFF 		bl	HAL_TIM_PWM_ConfigChannel
ARM GAS  /tmp/ccEnwdRf.s 			page 2


  59 0048 40B9     		cbnz	r0, .L19
  60 004a 2268     		ldr	r2, [r4]
  61 004c 0F4B     		ldr	r3, .L21+4
  62 004e 9A42     		cmp	r2, r3
  63 0050 0AD0     		beq	.L20
  64              	.L1:
  65 0052 0EB0     		add	sp, sp, #56
  66              		@ sp needed
  67 0054 70BD     		pop	{r4, r5, r6, pc}
  68              	.L17:
  69 0056 FFF7FEFF 		bl	Error_Handler
  70 005a E1E7     		b	.L2
  71              	.L19:
  72 005c FFF7FEFF 		bl	Error_Handler
  73 0060 2268     		ldr	r2, [r4]
  74 0062 0A4B     		ldr	r3, .L21+4
  75 0064 9A42     		cmp	r2, r3
  76 0066 F4D1     		bne	.L1
  77              	.L20:
  78 0068 0223     		movs	r3, #2
  79 006a 0022     		movs	r2, #0
  80 006c 02A9     		add	r1, sp, #8
  81 006e 0848     		ldr	r0, .L21+8
  82 0070 0293     		str	r3, [sp, #8]
  83 0072 0393     		str	r3, [sp, #12]
  84 0074 0693     		str	r3, [sp, #24]
  85 0076 0492     		str	r2, [sp, #16]
  86 0078 0592     		str	r2, [sp, #20]
  87 007a FFF7FEFF 		bl	HAL_GPIO_Init
  88 007e 0EB0     		add	sp, sp, #56
  89              		@ sp needed
  90 0080 70BD     		pop	{r4, r5, r6, pc}
  91              	.L18:
  92 0082 FFF7FEFF 		bl	Error_Handler
  93 0086 D3E7     		b	.L3
  94              	.L22:
  95              		.align	2
  96              	.L21:
  97 0088 00000000 		.word	htim3
  98 008c 00040040 		.word	1073742848
  99 0090 00040240 		.word	1073873920
 101              		.section	.text.HAL_TIM_PWM_MspInit,"ax",%progbits
 102              		.align	1
 103              		.p2align 2,,3
 104              		.global	HAL_TIM_PWM_MspInit
 105              		.syntax unified
 106              		.thumb
 107              		.thumb_func
 108              		.fpu fpv4-sp-d16
 110              	HAL_TIM_PWM_MspInit:
 111              		@ args = 0, pretend = 0, frame = 8
 112              		@ frame_needed = 0, uses_anonymous_args = 0
 113              		@ link register save eliminated.
 114 0000 0268     		ldr	r2, [r0]
 115 0002 0A4B     		ldr	r3, .L31
 116 0004 9A42     		cmp	r2, r3
 117 0006 00D0     		beq	.L30
ARM GAS  /tmp/ccEnwdRf.s 			page 3


 118 0008 7047     		bx	lr
 119              	.L30:
 120 000a 82B0     		sub	sp, sp, #8
 121 000c 03F50D33 		add	r3, r3, #144384
 122 0010 0022     		movs	r2, #0
 123 0012 0192     		str	r2, [sp, #4]
 124 0014 1A6C     		ldr	r2, [r3, #64]
 125 0016 42F00202 		orr	r2, r2, #2
 126 001a 1A64     		str	r2, [r3, #64]
 127 001c 1B6C     		ldr	r3, [r3, #64]
 128 001e 03F00203 		and	r3, r3, #2
 129 0022 0193     		str	r3, [sp, #4]
 130 0024 019B     		ldr	r3, [sp, #4]
 131 0026 02B0     		add	sp, sp, #8
 132              		@ sp needed
 133 0028 7047     		bx	lr
 134              	.L32:
 135 002a 00BF     		.align	2
 136              	.L31:
 137 002c 00040040 		.word	1073742848
 139              		.section	.text.HAL_TIM_MspPostInit,"ax",%progbits
 140              		.align	1
 141              		.p2align 2,,3
 142              		.global	HAL_TIM_MspPostInit
 143              		.syntax unified
 144              		.thumb
 145              		.thumb_func
 146              		.fpu fpv4-sp-d16
 148              	HAL_TIM_MspPostInit:
 149              		@ args = 0, pretend = 0, frame = 24
 150              		@ frame_needed = 0, uses_anonymous_args = 0
 151 0000 0268     		ldr	r2, [r0]
 152 0002 0A4B     		ldr	r3, .L40
 153 0004 9A42     		cmp	r2, r3
 154 0006 00D0     		beq	.L39
 155 0008 7047     		bx	lr
 156              	.L39:
 157 000a 00B5     		push	{lr}
 158 000c 87B0     		sub	sp, sp, #28
 159 000e 0223     		movs	r3, #2
 160 0010 0022     		movs	r2, #0
 161 0012 01A9     		add	r1, sp, #4
 162 0014 0648     		ldr	r0, .L40+4
 163 0016 0193     		str	r3, [sp, #4]
 164 0018 0293     		str	r3, [sp, #8]
 165 001a 0593     		str	r3, [sp, #20]
 166 001c 0392     		str	r2, [sp, #12]
 167 001e 0492     		str	r2, [sp, #16]
 168 0020 FFF7FEFF 		bl	HAL_GPIO_Init
 169 0024 07B0     		add	sp, sp, #28
 170              		@ sp needed
 171 0026 5DF804FB 		ldr	pc, [sp], #4
 172              	.L41:
 173 002a 00BF     		.align	2
 174              	.L40:
 175 002c 00040040 		.word	1073742848
 176 0030 00040240 		.word	1073873920
ARM GAS  /tmp/ccEnwdRf.s 			page 4


 178              		.section	.text.HAL_TIM_PWM_MspDeInit,"ax",%progbits
 179              		.align	1
 180              		.p2align 2,,3
 181              		.global	HAL_TIM_PWM_MspDeInit
 182              		.syntax unified
 183              		.thumb
 184              		.thumb_func
 185              		.fpu fpv4-sp-d16
 187              	HAL_TIM_PWM_MspDeInit:
 188              		@ args = 0, pretend = 0, frame = 0
 189              		@ frame_needed = 0, uses_anonymous_args = 0
 190              		@ link register save eliminated.
 191 0000 0268     		ldr	r2, [r0]
 192 0002 054B     		ldr	r3, .L45
 193 0004 9A42     		cmp	r2, r3
 194 0006 00D0     		beq	.L44
 195 0008 7047     		bx	lr
 196              	.L44:
 197 000a 044A     		ldr	r2, .L45+4
 198 000c 136C     		ldr	r3, [r2, #64]
 199 000e 23F00203 		bic	r3, r3, #2
 200 0012 1364     		str	r3, [r2, #64]
 201 0014 7047     		bx	lr
 202              	.L46:
 203 0016 00BF     		.align	2
 204              	.L45:
 205 0018 00040040 		.word	1073742848
 206 001c 00380240 		.word	1073887232
 208              		.comm	htim3,60,4
 209              		.ident	"GCC: (Arch Repository) 6.3.0"
ARM GAS  /tmp/ccEnwdRf.s 			page 5

