ARM GAS  /tmp/ccAMHapp.s 			page 1


   1              		.cpu cortex-m4
   2              		.eabi_attribute 27, 1
   3              		.eabi_attribute 28, 1
   4              		.eabi_attribute 23, 1
   5              		.eabi_attribute 24, 1
   6              		.eabi_attribute 25, 1
   7              		.eabi_attribute 26, 1
   8              		.eabi_attribute 30, 2
   9              		.eabi_attribute 34, 1
  10              		.eabi_attribute 18, 4
  11              		.file	"usart.c"
  12              		.section	.text.MX_USART1_UART_Init,"ax",%progbits
  13              		.align	1
  14              		.p2align 2,,3
  15              		.global	MX_USART1_UART_Init
  16              		.syntax unified
  17              		.thumb
  18              		.thumb_func
  19              		.fpu fpv4-sp-d16
  21              	MX_USART1_UART_Init:
  22              		@ args = 0, pretend = 0, frame = 0
  23              		@ frame_needed = 0, uses_anonymous_args = 0
  24 0000 0B4B     		ldr	r3, .L6
  25 0002 0C4A     		ldr	r2, .L6+4
  26 0004 10B5     		push	{r4, lr}
  27 0006 0C21     		movs	r1, #12
  28 0008 1A60     		str	r2, [r3]
  29 000a 4FF4E134 		mov	r4, #115200
  30 000e 0022     		movs	r2, #0
  31 0010 1846     		mov	r0, r3
  32 0012 5C60     		str	r4, [r3, #4]
  33 0014 5961     		str	r1, [r3, #20]
  34 0016 9A60     		str	r2, [r3, #8]
  35 0018 DA60     		str	r2, [r3, #12]
  36 001a 1A61     		str	r2, [r3, #16]
  37 001c 9A61     		str	r2, [r3, #24]
  38 001e DA61     		str	r2, [r3, #28]
  39 0020 FFF7FEFF 		bl	HAL_UART_Init
  40 0024 00B9     		cbnz	r0, .L5
  41 0026 10BD     		pop	{r4, pc}
  42              	.L5:
  43 0028 BDE81040 		pop	{r4, lr}
  44 002c FFF7FEBF 		b	Error_Handler
  45              	.L7:
  46              		.align	2
  47              	.L6:
  48 0030 00000000 		.word	huart1
  49 0034 00100140 		.word	1073811456
  51              		.section	.text.MX_USART6_UART_Init,"ax",%progbits
  52              		.align	1
  53              		.p2align 2,,3
  54              		.global	MX_USART6_UART_Init
  55              		.syntax unified
  56              		.thumb
  57              		.thumb_func
  58              		.fpu fpv4-sp-d16
  60              	MX_USART6_UART_Init:
ARM GAS  /tmp/ccAMHapp.s 			page 2


  61              		@ args = 0, pretend = 0, frame = 0
  62              		@ frame_needed = 0, uses_anonymous_args = 0
  63 0000 0B4B     		ldr	r3, .L12
  64 0002 0C4A     		ldr	r2, .L12+4
  65 0004 10B5     		push	{r4, lr}
  66 0006 0C21     		movs	r1, #12
  67 0008 1A60     		str	r2, [r3]
  68 000a 4FF4E134 		mov	r4, #115200
  69 000e 0022     		movs	r2, #0
  70 0010 1846     		mov	r0, r3
  71 0012 5C60     		str	r4, [r3, #4]
  72 0014 5961     		str	r1, [r3, #20]
  73 0016 9A60     		str	r2, [r3, #8]
  74 0018 DA60     		str	r2, [r3, #12]
  75 001a 1A61     		str	r2, [r3, #16]
  76 001c 9A61     		str	r2, [r3, #24]
  77 001e DA61     		str	r2, [r3, #28]
  78 0020 FFF7FEFF 		bl	HAL_UART_Init
  79 0024 00B9     		cbnz	r0, .L11
  80 0026 10BD     		pop	{r4, pc}
  81              	.L11:
  82 0028 BDE81040 		pop	{r4, lr}
  83 002c FFF7FEBF 		b	Error_Handler
  84              	.L13:
  85              		.align	2
  86              	.L12:
  87 0030 00000000 		.word	huart6
  88 0034 00140140 		.word	1073812480
  90              		.section	.text.HAL_UART_MspInit,"ax",%progbits
  91              		.align	1
  92              		.p2align 2,,3
  93              		.global	HAL_UART_MspInit
  94              		.syntax unified
  95              		.thumb
  96              		.thumb_func
  97              		.fpu fpv4-sp-d16
  99              	HAL_UART_MspInit:
 100              		@ args = 0, pretend = 0, frame = 32
 101              		@ frame_needed = 0, uses_anonymous_args = 0
 102 0000 F0B5     		push	{r4, r5, r6, r7, lr}
 103 0002 344A     		ldr	r2, .L25
 104 0004 0368     		ldr	r3, [r0]
 105 0006 9342     		cmp	r3, r2
 106 0008 89B0     		sub	sp, sp, #36
 107 000a 1FD0     		beq	.L22
 108 000c 324A     		ldr	r2, .L25+4
 109 000e 9342     		cmp	r3, r2
 110 0010 01D0     		beq	.L23
 111              	.L14:
 112 0012 09B0     		add	sp, sp, #36
 113              		@ sp needed
 114 0014 F0BD     		pop	{r4, r5, r6, r7, pc}
 115              	.L23:
 116 0016 314B     		ldr	r3, .L25+8
 117 0018 3148     		ldr	r0, .L25+12
 118 001a 0022     		movs	r2, #0
 119 001c 0292     		str	r2, [sp, #8]
ARM GAS  /tmp/ccAMHapp.s 			page 3


 120 001e 5A6C     		ldr	r2, [r3, #68]
 121 0020 42F02002 		orr	r2, r2, #32
 122 0024 5A64     		str	r2, [r3, #68]
 123 0026 5B6C     		ldr	r3, [r3, #68]
 124 0028 03F02003 		and	r3, r3, #32
 125 002c 0293     		str	r3, [sp, #8]
 126 002e C026     		movs	r6, #192
 127 0030 0225     		movs	r5, #2
 128 0032 0124     		movs	r4, #1
 129 0034 0322     		movs	r2, #3
 130 0036 0823     		movs	r3, #8
 131 0038 03A9     		add	r1, sp, #12
 132 003a 029F     		ldr	r7, [sp, #8]
 133 003c 0396     		str	r6, [sp, #12]
 134 003e 0495     		str	r5, [sp, #16]
 135 0040 0594     		str	r4, [sp, #20]
 136 0042 0692     		str	r2, [sp, #24]
 137 0044 0793     		str	r3, [sp, #28]
 138 0046 FFF7FEFF 		bl	HAL_GPIO_Init
 139 004a E2E7     		b	.L14
 140              	.L22:
 141 004c 0026     		movs	r6, #0
 142 004e 234B     		ldr	r3, .L25+8
 143 0050 0196     		str	r6, [sp, #4]
 144 0052 5A6C     		ldr	r2, [r3, #68]
 145 0054 234D     		ldr	r5, .L25+16
 146 0056 42F01002 		orr	r2, r2, #16
 147 005a 5A64     		str	r2, [r3, #68]
 148 005c 5B6C     		ldr	r3, [r3, #68]
 149 005e 03F01003 		and	r3, r3, #16
 150 0062 0193     		str	r3, [sp, #4]
 151 0064 0221     		movs	r1, #2
 152 0066 C023     		movs	r3, #192
 153 0068 0322     		movs	r2, #3
 154 006a 0127     		movs	r7, #1
 155 006c 0393     		str	r3, [sp, #12]
 156 006e 0491     		str	r1, [sp, #16]
 157 0070 0723     		movs	r3, #7
 158 0072 03A9     		add	r1, sp, #12
 159 0074 0446     		mov	r4, r0
 160 0076 1C48     		ldr	r0, .L25+20
 161 0078 DDF804E0 		ldr	lr, [sp, #4]
 162 007c 0597     		str	r7, [sp, #20]
 163 007e 0692     		str	r2, [sp, #24]
 164 0080 0793     		str	r3, [sp, #28]
 165 0082 4FF00067 		mov	r7, #134217728
 166 0086 FFF7FEFF 		bl	HAL_GPIO_Init
 167 008a DFF860E0 		ldr	lr, .L25+24
 168 008e AE60     		str	r6, [r5, #8]
 169 0090 4FF48061 		mov	r1, #1024
 170 0094 4FF48072 		mov	r2, #256
 171 0098 4FF40033 		mov	r3, #131072
 172 009c 2846     		mov	r0, r5
 173 009e EE60     		str	r6, [r5, #12]
 174 00a0 6E61     		str	r6, [r5, #20]
 175 00a2 AE61     		str	r6, [r5, #24]
 176 00a4 6E62     		str	r6, [r5, #36]
ARM GAS  /tmp/ccAMHapp.s 			page 4


 177 00a6 C5F800E0 		str	lr, [r5]
 178 00aa 6F60     		str	r7, [r5, #4]
 179 00ac 2961     		str	r1, [r5, #16]
 180 00ae EA61     		str	r2, [r5, #28]
 181 00b0 2B62     		str	r3, [r5, #32]
 182 00b2 FFF7FEFF 		bl	HAL_DMA_Init
 183 00b6 50B9     		cbnz	r0, .L24
 184              	.L16:
 185 00b8 0022     		movs	r2, #0
 186 00ba 6563     		str	r5, [r4, #52]
 187 00bc 1146     		mov	r1, r2
 188 00be 2520     		movs	r0, #37
 189 00c0 AC63     		str	r4, [r5, #56]
 190 00c2 FFF7FEFF 		bl	HAL_NVIC_SetPriority
 191 00c6 2520     		movs	r0, #37
 192 00c8 FFF7FEFF 		bl	HAL_NVIC_EnableIRQ
 193 00cc A1E7     		b	.L14
 194              	.L24:
 195 00ce FFF7FEFF 		bl	Error_Handler
 196 00d2 F1E7     		b	.L16
 197              	.L26:
 198              		.align	2
 199              	.L25:
 200 00d4 00100140 		.word	1073811456
 201 00d8 00140140 		.word	1073812480
 202 00dc 00380240 		.word	1073887232
 203 00e0 00080240 		.word	1073874944
 204 00e4 00000000 		.word	hdma_usart1_rx
 205 00e8 00040240 		.word	1073873920
 206 00ec 40640240 		.word	1073898560
 208              		.section	.text.HAL_UART_MspDeInit,"ax",%progbits
 209              		.align	1
 210              		.p2align 2,,3
 211              		.global	HAL_UART_MspDeInit
 212              		.syntax unified
 213              		.thumb
 214              		.thumb_func
 215              		.fpu fpv4-sp-d16
 217              	HAL_UART_MspDeInit:
 218              		@ args = 0, pretend = 0, frame = 0
 219              		@ frame_needed = 0, uses_anonymous_args = 0
 220 0000 124A     		ldr	r2, .L35
 221 0002 0368     		ldr	r3, [r0]
 222 0004 9342     		cmp	r3, r2
 223 0006 0DD0     		beq	.L33
 224 0008 114A     		ldr	r2, .L35+4
 225 000a 9342     		cmp	r3, r2
 226 000c 00D0     		beq	.L34
 227 000e 7047     		bx	lr
 228              	.L34:
 229 0010 02F59232 		add	r2, r2, #74752
 230 0014 0F48     		ldr	r0, .L35+8
 231 0016 536C     		ldr	r3, [r2, #68]
 232 0018 23F02003 		bic	r3, r3, #32
 233 001c 5364     		str	r3, [r2, #68]
 234 001e C021     		movs	r1, #192
 235 0020 FFF7FEBF 		b	HAL_GPIO_DeInit
ARM GAS  /tmp/ccAMHapp.s 			page 5


 236              	.L33:
 237 0024 02F59432 		add	r2, r2, #75776
 238 0028 10B5     		push	{r4, lr}
 239 002a 536C     		ldr	r3, [r2, #68]
 240 002c 0446     		mov	r4, r0
 241 002e 23F01003 		bic	r3, r3, #16
 242 0032 0948     		ldr	r0, .L35+12
 243 0034 5364     		str	r3, [r2, #68]
 244 0036 C021     		movs	r1, #192
 245 0038 FFF7FEFF 		bl	HAL_GPIO_DeInit
 246 003c 606B     		ldr	r0, [r4, #52]
 247 003e FFF7FEFF 		bl	HAL_DMA_DeInit
 248 0042 2520     		movs	r0, #37
 249 0044 BDE81040 		pop	{r4, lr}
 250 0048 FFF7FEBF 		b	HAL_NVIC_DisableIRQ
 251              	.L36:
 252              		.align	2
 253              	.L35:
 254 004c 00100140 		.word	1073811456
 255 0050 00140140 		.word	1073812480
 256 0054 00080240 		.word	1073874944
 257 0058 00040240 		.word	1073873920
 259              		.comm	hdma_usart1_rx,96,4
 260              		.comm	huart6,64,4
 261              		.comm	huart1,64,4
 262              		.ident	"GCC: (Arch Repository) 6.3.0"
ARM GAS  /tmp/ccAMHapp.s 			page 6

